ARM GAS  C:\TEMP\ccqvo2sw.s 			page 1


   1              		.syntax unified
   2              		.cpu cortex-m3
   3              		.fpu softvfp
   4              		.eabi_attribute 20, 1
   5              		.eabi_attribute 21, 1
   6              		.eabi_attribute 23, 3
   7              		.eabi_attribute 24, 1
   8              		.eabi_attribute 25, 1
   9              		.eabi_attribute 26, 1
  10              		.eabi_attribute 30, 4
  11              		.eabi_attribute 34, 1
  12              		.eabi_attribute 18, 4
  13              		.thumb
  14              		.file	"alarm.c"
  15              		.text
  16              	.Ltext0:
  17              		.cfi_sections	.debug_frame
  18              		.section	.text.sense_context,"ax",%progbits
  19              		.align	1
  20              		.thumb
  21              		.thumb_func
  22              		.type	sense_context, %function
  23              	sense_context:
  24              	.LFB29:
  25              		.file 1 ".\\asp\\arch\\arm_m_gcc\\common/core_config.h"
   1:.\asp\arch\arm_m_gcc\common/core_config.h **** /*
   2:.\asp\arch\arm_m_gcc\common/core_config.h ****  *  TOPPERS/ASP Kernel
   3:.\asp\arch\arm_m_gcc\common/core_config.h ****  *      Toyohashi Open Platform for Embedded Real-Time Systems/
   4:.\asp\arch\arm_m_gcc\common/core_config.h ****  *      Advanced Standard Profile Kernel
   5:.\asp\arch\arm_m_gcc\common/core_config.h ****  * 
   6:.\asp\arch\arm_m_gcc\common/core_config.h ****  *  Copyright (C) 2008-2011,2013 by Embedded and Real-Time Systems Laboratory
   7:.\asp\arch\arm_m_gcc\common/core_config.h ****  *              Graduate School of Information Science, Nagoya Univ., JAPAN
   8:.\asp\arch\arm_m_gcc\common/core_config.h ****  * 
   9:.\asp\arch\arm_m_gcc\common/core_config.h ****  *  ã‹L’˜ìŒ Ò‚ÍCˆÈ‰º‚Ì(1)`(4)‚ÌğŒ‚ğ–‚½‚·ê‡‚ÉŒÀ‚èC–{ƒ\ƒtƒgƒEƒF
  10:.\asp\arch\arm_m_gcc\common/core_config.h ****  *  ƒAi–{ƒ\ƒtƒgƒEƒFƒA‚ğ‰ü•Ï‚µ‚½‚à‚Ì‚ğŠÜ‚ŞDˆÈ‰º“¯‚¶j‚ğg—pE•¡»E‰ü
  11:.\asp\arch\arm_m_gcc\common/core_config.h ****  *  •ÏEÄ”z•ziˆÈ‰ºC—˜—p‚ÆŒÄ‚Ôj‚·‚é‚±‚Æ‚ğ–³‚Å‹–‘ø‚·‚éD
  12:.\asp\arch\arm_m_gcc\common/core_config.h ****  *  (1) –{ƒ\ƒtƒgƒEƒFƒA‚ğƒ\[ƒXƒR[ƒh‚ÌŒ`‚Å—˜—p‚·‚éê‡‚É‚ÍCã‹L‚Ì’˜ì
  13:.\asp\arch\arm_m_gcc\common/core_config.h ****  *      Œ •\¦C‚±‚Ì—˜—pğŒ‚¨‚æ‚Ñ‰º‹L‚Ì–³•ÛØ‹K’è‚ªC‚»‚Ì‚Ü‚Ü‚ÌŒ`‚Åƒ\[
  14:.\asp\arch\arm_m_gcc\common/core_config.h ****  *      ƒXƒR[ƒh’†‚ÉŠÜ‚Ü‚ê‚Ä‚¢‚é‚±‚ÆD
  15:.\asp\arch\arm_m_gcc\common/core_config.h ****  *  (2) –{ƒ\ƒtƒgƒEƒFƒA‚ğCƒ‰ƒCƒuƒ‰ƒŠŒ`®‚È‚ÇC‘¼‚Ìƒ\ƒtƒgƒEƒFƒAŠJ”­‚Ég
  16:.\asp\arch\arm_m_gcc\common/core_config.h ****  *      —p‚Å‚«‚éŒ`‚ÅÄ”z•z‚·‚éê‡‚É‚ÍCÄ”z•z‚É”º‚¤ƒhƒLƒ…ƒƒ“ƒgi—˜—p
  17:.\asp\arch\arm_m_gcc\common/core_config.h ****  *      Òƒ}ƒjƒ…ƒAƒ‹‚È‚Çj‚ÉCã‹L‚Ì’˜ìŒ •\¦C‚±‚Ì—˜—pğŒ‚¨‚æ‚Ñ‰º‹L
  18:.\asp\arch\arm_m_gcc\common/core_config.h ****  *      ‚Ì–³•ÛØ‹K’è‚ğŒfÚ‚·‚é‚±‚ÆD
  19:.\asp\arch\arm_m_gcc\common/core_config.h ****  *  (3) –{ƒ\ƒtƒgƒEƒFƒA‚ğC‹@Ší‚É‘g‚İ‚Ş‚È‚ÇC‘¼‚Ìƒ\ƒtƒgƒEƒFƒAŠJ”­‚Ég
  20:.\asp\arch\arm_m_gcc\common/core_config.h ****  *      —p‚Å‚«‚È‚¢Œ`‚ÅÄ”z•z‚·‚éê‡‚É‚ÍCŸ‚Ì‚¢‚¸‚ê‚©‚ÌğŒ‚ğ–‚½‚·‚±
  21:.\asp\arch\arm_m_gcc\common/core_config.h ****  *      ‚ÆD
  22:.\asp\arch\arm_m_gcc\common/core_config.h ****  *    (a) Ä”z•z‚É”º‚¤ƒhƒLƒ…ƒƒ“ƒgi—˜—pÒƒ}ƒjƒ…ƒAƒ‹‚È‚Çj‚ÉCã‹L‚Ì’˜
  23:.\asp\arch\arm_m_gcc\common/core_config.h ****  *        ìŒ •\¦C‚±‚Ì—˜—pğŒ‚¨‚æ‚Ñ‰º‹L‚Ì–³•ÛØ‹K’è‚ğŒfÚ‚·‚é‚±‚ÆD
  24:.\asp\arch\arm_m_gcc\common/core_config.h ****  *    (b) Ä”z•z‚ÌŒ`‘Ô‚ğC•Ê‚É’è‚ß‚é•û–@‚É‚æ‚Á‚ÄCTOPPERSƒvƒƒWƒFƒNƒg‚É
  25:.\asp\arch\arm_m_gcc\common/core_config.h ****  *        •ñ‚·‚é‚±‚ÆD
  26:.\asp\arch\arm_m_gcc\common/core_config.h ****  *  (4) –{ƒ\ƒtƒgƒEƒFƒA‚Ì—˜—p‚É‚æ‚è’¼Ú“I‚Ü‚½‚ÍŠÔÚ“I‚É¶‚¶‚é‚¢‚©‚È‚é‘¹
  27:.\asp\arch\arm_m_gcc\common/core_config.h ****  *      ŠQ‚©‚ç‚àCã‹L’˜ìŒ Ò‚¨‚æ‚ÑTOPPERSƒvƒƒWƒFƒNƒg‚ğ–ÆÓ‚·‚é‚±‚ÆD
  28:.\asp\arch\arm_m_gcc\common/core_config.h ****  *      ‚Ü‚½C–{ƒ\ƒtƒgƒEƒFƒA‚Ìƒ†[ƒU‚Ü‚½‚ÍƒGƒ“ƒhƒ†[ƒU‚©‚ç‚Ì‚¢‚©‚È‚é—
  29:.\asp\arch\arm_m_gcc\common/core_config.h ****  *      —R‚ÉŠî‚Ã‚­¿‹‚©‚ç‚àCã‹L’˜ìŒ Ò‚¨‚æ‚ÑTOPPERSƒvƒƒWƒFƒNƒg‚ğ
  30:.\asp\arch\arm_m_gcc\common/core_config.h ****  *      –ÆÓ‚·‚é‚±‚ÆD
  31:.\asp\arch\arm_m_gcc\common/core_config.h ****  * 
  32:.\asp\arch\arm_m_gcc\common/core_config.h ****  *  –{ƒ\ƒtƒgƒEƒFƒA‚ÍC–³•ÛØ‚Å’ñ‹Ÿ‚³‚ê‚Ä‚¢‚é‚à‚Ì‚Å‚ ‚éDã‹L’˜ìŒ Ò‚¨
ARM GAS  C:\TEMP\ccqvo2sw.s 			page 2


  33:.\asp\arch\arm_m_gcc\common/core_config.h ****  *  ‚æ‚ÑTOPPERSƒvƒƒWƒFƒNƒg‚ÍC–{ƒ\ƒtƒgƒEƒFƒA‚ÉŠÖ‚µ‚ÄC“Á’è‚Ìg—p–Ú“I
  34:.\asp\arch\arm_m_gcc\common/core_config.h ****  *  ‚É‘Î‚·‚é“K‡«‚àŠÜ‚ß‚ÄC‚¢‚©‚È‚é•ÛØ‚às‚í‚È‚¢D‚Ü‚½C–{ƒ\ƒtƒgƒEƒF
  35:.\asp\arch\arm_m_gcc\common/core_config.h ****  *  ƒA‚Ì—˜—p‚É‚æ‚è’¼Ú“I‚Ü‚½‚ÍŠÔÚ“I‚É¶‚¶‚½‚¢‚©‚È‚é‘¹ŠQ‚ÉŠÖ‚µ‚Ä‚àC‚»
  36:.\asp\arch\arm_m_gcc\common/core_config.h ****  *  ‚ÌÓ”C‚ğ•‰‚í‚È‚¢D
  37:.\asp\arch\arm_m_gcc\common/core_config.h ****  * 
  38:.\asp\arch\arm_m_gcc\common/core_config.h ****  *  @(#) $Id: core_config.h 2554 2013-10-17 02:53:02Z ertl-honda $
  39:.\asp\arch\arm_m_gcc\common/core_config.h ****  */
  40:.\asp\arch\arm_m_gcc\common/core_config.h **** 
  41:.\asp\arch\arm_m_gcc\common/core_config.h **** /*
  42:.\asp\arch\arm_m_gcc\common/core_config.h ****  *		ƒvƒƒZƒbƒTˆË‘¶ƒ‚ƒWƒ…[ƒ‹iARM-M—pj
  43:.\asp\arch\arm_m_gcc\common/core_config.h ****  *
  44:.\asp\arch\arm_m_gcc\common/core_config.h ****  *  ‚±‚ÌƒCƒ“ƒNƒ‹[ƒhƒtƒ@ƒCƒ‹‚ÍCtarget_config.hi‚Ü‚½‚ÍC‚»‚±‚©‚çƒCƒ“ƒN
  45:.\asp\arch\arm_m_gcc\common/core_config.h ****  *  ƒ‹[ƒh‚³‚ê‚éƒtƒ@ƒCƒ‹j‚Ì‚İ‚©‚çƒCƒ“ƒNƒ‹[ƒh‚³‚ê‚éD‘¼‚Ìƒtƒ@ƒCƒ‹‚©‚ç
  46:.\asp\arch\arm_m_gcc\common/core_config.h ****  *  ’¼ÚƒCƒ“ƒNƒ‹[ƒh‚µ‚Ä‚Í‚È‚ç‚È‚¢D
  47:.\asp\arch\arm_m_gcc\common/core_config.h ****  */
  48:.\asp\arch\arm_m_gcc\common/core_config.h **** 
  49:.\asp\arch\arm_m_gcc\common/core_config.h **** #ifndef TOPPERS_CORE_CONFIG_H
  50:.\asp\arch\arm_m_gcc\common/core_config.h **** #define TOPPERS_CORE_CONFIG_H
  51:.\asp\arch\arm_m_gcc\common/core_config.h **** 
  52:.\asp\arch\arm_m_gcc\common/core_config.h **** #ifndef TOPPERS_MACRO_ONLY
  53:.\asp\arch\arm_m_gcc\common/core_config.h **** 
  54:.\asp\arch\arm_m_gcc\common/core_config.h **** /*
  55:.\asp\arch\arm_m_gcc\common/core_config.h ****  *  ƒvƒƒZƒbƒT‚Ì“Áê–½—ß‚ÌƒCƒ“ƒ‰ƒCƒ“ŠÖ”’è‹`
  56:.\asp\arch\arm_m_gcc\common/core_config.h ****  */
  57:.\asp\arch\arm_m_gcc\common/core_config.h **** #include <core_insn.h>
  58:.\asp\arch\arm_m_gcc\common/core_config.h **** 
  59:.\asp\arch\arm_m_gcc\common/core_config.h **** /*
  60:.\asp\arch\arm_m_gcc\common/core_config.h ****  *  ƒ^[ƒQƒbƒgˆË‘¶‚ÌƒIƒuƒWƒFƒNƒg‘®«
  61:.\asp\arch\arm_m_gcc\common/core_config.h ****  */
  62:.\asp\arch\arm_m_gcc\common/core_config.h **** #define TARGET_INHATR  TA_NONKERNEL /* ƒ^[ƒQƒbƒg’è‹`‚ÌŠ„‚İƒnƒ“ƒhƒ‰‘®« */
  63:.\asp\arch\arm_m_gcc\common/core_config.h **** 
  64:.\asp\arch\arm_m_gcc\common/core_config.h **** /*
  65:.\asp\arch\arm_m_gcc\common/core_config.h ****  *  ƒGƒ‰[ƒ`ƒFƒbƒN•û–@‚Ìw’è
  66:.\asp\arch\arm_m_gcc\common/core_config.h ****  */
  67:.\asp\arch\arm_m_gcc\common/core_config.h **** #define CHECK_STKSZ_ALIGN	8	/* ƒXƒ^ƒbƒNƒTƒCƒY‚ÌƒAƒ‰ƒCƒ“’PˆÊ */
  68:.\asp\arch\arm_m_gcc\common/core_config.h **** #define CHECK_FUNC_ALIGN	1	/* ŠÖ”‚ÌƒAƒ‰ƒCƒ“’PˆÊ */
  69:.\asp\arch\arm_m_gcc\common/core_config.h **** #define CHECK_FUNC_NONNULL		/* ŠÖ”‚Ì”ñNULLƒ`ƒFƒbƒN */
  70:.\asp\arch\arm_m_gcc\common/core_config.h **** #define CHECK_STACK_ALIGN	8	/* ƒXƒ^ƒbƒN—Ìˆæ‚ÌƒAƒ‰ƒCƒ“’PˆÊ */
  71:.\asp\arch\arm_m_gcc\common/core_config.h **** #define CHECK_STACK_NONNULL		/* ƒXƒ^ƒbƒN—Ìˆæ‚Ì”ñNULLƒ`ƒFƒbƒN */
  72:.\asp\arch\arm_m_gcc\common/core_config.h **** #define CHECK_MPF_ALIGN		4	/* ŒÅ’è’·ƒƒ‚ƒŠƒv[ƒ‹—Ìˆæ‚ÌƒAƒ‰ƒCƒ“’PˆÊ */
  73:.\asp\arch\arm_m_gcc\common/core_config.h **** #define CHECK_MPF_NONNULL		/* ŒÅ’è’·ƒƒ‚ƒŠƒv[ƒ‹—Ìˆæ‚Ì”ñNULLƒ`ƒFƒbƒN */
  74:.\asp\arch\arm_m_gcc\common/core_config.h **** #define CHECK_MB_ALIGN		4	/* ŠÇ——Ìˆæ‚ÌƒAƒ‰ƒCƒ“’PˆÊ */
  75:.\asp\arch\arm_m_gcc\common/core_config.h **** 
  76:.\asp\arch\arm_m_gcc\common/core_config.h **** /*
  77:.\asp\arch\arm_m_gcc\common/core_config.h ****  *  ”ñƒ^ƒXƒNƒRƒ“ƒeƒLƒXƒg—p‚ÌƒXƒ^ƒbƒN‰Šú’l
  78:.\asp\arch\arm_m_gcc\common/core_config.h ****  */
  79:.\asp\arch\arm_m_gcc\common/core_config.h **** #define TOPPERS_ISTKPT(istk, istksz) ((STK_T *)((uint8_t *)(istk) + (istksz)))
  80:.\asp\arch\arm_m_gcc\common/core_config.h **** 
  81:.\asp\arch\arm_m_gcc\common/core_config.h **** /*
  82:.\asp\arch\arm_m_gcc\common/core_config.h ****  *  ƒ^ƒXƒNƒRƒ“ƒeƒLƒXƒgƒuƒƒbƒN‚Ì’è‹`
  83:.\asp\arch\arm_m_gcc\common/core_config.h ****  */
  84:.\asp\arch\arm_m_gcc\common/core_config.h **** typedef struct task_context_block {
  85:.\asp\arch\arm_m_gcc\common/core_config.h **** 	void	*sp;		/* ƒXƒ^ƒbƒNƒ|ƒCƒ“ƒ^ */
  86:.\asp\arch\arm_m_gcc\common/core_config.h **** 	FP		pc;			/* ƒvƒƒOƒ‰ƒ€ƒJƒEƒ“ƒ^ */
  87:.\asp\arch\arm_m_gcc\common/core_config.h **** } TSKCTXB;
  88:.\asp\arch\arm_m_gcc\common/core_config.h **** 
  89:.\asp\arch\arm_m_gcc\common/core_config.h **** #endif /* TOPPERS_MACRO_ONLY */
ARM GAS  C:\TEMP\ccqvo2sw.s 			page 3


  90:.\asp\arch\arm_m_gcc\common/core_config.h **** 
  91:.\asp\arch\arm_m_gcc\common/core_config.h **** #ifndef TOPPERS_MACRO_ONLY
  92:.\asp\arch\arm_m_gcc\common/core_config.h **** /*
  93:.\asp\arch\arm_m_gcc\common/core_config.h ****  *  ƒRƒ“ƒeƒLƒXƒg‚ÌQÆ
  94:.\asp\arch\arm_m_gcc\common/core_config.h ****  *
  95:.\asp\arch\arm_m_gcc\common/core_config.h ****  */
  96:.\asp\arch\arm_m_gcc\common/core_config.h **** Inline bool_t
  97:.\asp\arch\arm_m_gcc\common/core_config.h **** sense_context(void)
  98:.\asp\arch\arm_m_gcc\common/core_config.h **** {
  26              		.loc 1 98 0
  27              		.cfi_startproc
  28              		@ args = 0, pretend = 0, frame = 0
  29              		@ frame_needed = 0, uses_anonymous_args = 0
  30              		@ link register save eliminated.
  31              	.LBB38:
  32              	.LBB39:
  33              		.file 2 ".\\asp\\arch\\arm_m_gcc\\common/core_insn.h"
   1:.\asp\arch\arm_m_gcc\common/core_insn.h **** /*
   2:.\asp\arch\arm_m_gcc\common/core_insn.h ****  *  TOPPERS/ASP Kernel
   3:.\asp\arch\arm_m_gcc\common/core_insn.h ****  *      Toyohashi Open Platform for Embedded Real-Time Systems/
   4:.\asp\arch\arm_m_gcc\common/core_insn.h ****  *      Advanced Standard Profile Kernel
   5:.\asp\arch\arm_m_gcc\common/core_insn.h ****  * 
   6:.\asp\arch\arm_m_gcc\common/core_insn.h ****  *  Copyright (C) 2008 by Embedded and Real-Time Systems Laboratory
   7:.\asp\arch\arm_m_gcc\common/core_insn.h ****  *              Graduate School of Information Science, Nagoya Univ., JAPAN
   8:.\asp\arch\arm_m_gcc\common/core_insn.h ****  * 
   9:.\asp\arch\arm_m_gcc\common/core_insn.h ****  *  ã‹L’˜ìŒ Ò‚ÍCˆÈ‰º‚Ì(1)`(4)‚ÌğŒ‚ğ–‚½‚·ê‡‚ÉŒÀ‚èC–{ƒ\ƒtƒgƒEƒF
  10:.\asp\arch\arm_m_gcc\common/core_insn.h ****  *  ƒAi–{ƒ\ƒtƒgƒEƒFƒA‚ğ‰ü•Ï‚µ‚½‚à‚Ì‚ğŠÜ‚ŞDˆÈ‰º“¯‚¶j‚ğg—pE•¡»E‰ü
  11:.\asp\arch\arm_m_gcc\common/core_insn.h ****  *  •ÏEÄ”z•ziˆÈ‰ºC—˜—p‚ÆŒÄ‚Ôj‚·‚é‚±‚Æ‚ğ–³‚Å‹–‘ø‚·‚éD
  12:.\asp\arch\arm_m_gcc\common/core_insn.h ****  *  (1) –{ƒ\ƒtƒgƒEƒFƒA‚ğƒ\[ƒXƒR[ƒh‚ÌŒ`‚Å—˜—p‚·‚éê‡‚É‚ÍCã‹L‚Ì’˜ì
  13:.\asp\arch\arm_m_gcc\common/core_insn.h ****  *      Œ •\¦C‚±‚Ì—˜—pğŒ‚¨‚æ‚Ñ‰º‹L‚Ì–³•ÛØ‹K’è‚ªC‚»‚Ì‚Ü‚Ü‚ÌŒ`‚Åƒ\[
  14:.\asp\arch\arm_m_gcc\common/core_insn.h ****  *      ƒXƒR[ƒh’†‚ÉŠÜ‚Ü‚ê‚Ä‚¢‚é‚±‚ÆD
  15:.\asp\arch\arm_m_gcc\common/core_insn.h ****  *  (2) –{ƒ\ƒtƒgƒEƒFƒA‚ğCƒ‰ƒCƒuƒ‰ƒŠŒ`®‚È‚ÇC‘¼‚Ìƒ\ƒtƒgƒEƒFƒAŠJ”­‚Ég
  16:.\asp\arch\arm_m_gcc\common/core_insn.h ****  *      —p‚Å‚«‚éŒ`‚ÅÄ”z•z‚·‚éê‡‚É‚ÍCÄ”z•z‚É”º‚¤ƒhƒLƒ…ƒƒ“ƒgi—˜—p
  17:.\asp\arch\arm_m_gcc\common/core_insn.h ****  *      Òƒ}ƒjƒ…ƒAƒ‹‚È‚Çj‚ÉCã‹L‚Ì’˜ìŒ •\¦C‚±‚Ì—˜—pğŒ‚¨‚æ‚Ñ‰º‹L
  18:.\asp\arch\arm_m_gcc\common/core_insn.h ****  *      ‚Ì–³•ÛØ‹K’è‚ğŒfÚ‚·‚é‚±‚ÆD
  19:.\asp\arch\arm_m_gcc\common/core_insn.h ****  *  (3) –{ƒ\ƒtƒgƒEƒFƒA‚ğC‹@Ší‚É‘g‚İ‚Ş‚È‚ÇC‘¼‚Ìƒ\ƒtƒgƒEƒFƒAŠJ”­‚Ég
  20:.\asp\arch\arm_m_gcc\common/core_insn.h ****  *      —p‚Å‚«‚È‚¢Œ`‚ÅÄ”z•z‚·‚éê‡‚É‚ÍCŸ‚Ì‚¢‚¸‚ê‚©‚ÌğŒ‚ğ–‚½‚·‚±
  21:.\asp\arch\arm_m_gcc\common/core_insn.h ****  *      ‚ÆD
  22:.\asp\arch\arm_m_gcc\common/core_insn.h ****  *    (a) Ä”z•z‚É”º‚¤ƒhƒLƒ…ƒƒ“ƒgi—˜—pÒƒ}ƒjƒ…ƒAƒ‹‚È‚Çj‚ÉCã‹L‚Ì’˜
  23:.\asp\arch\arm_m_gcc\common/core_insn.h ****  *        ìŒ •\¦C‚±‚Ì—˜—pğŒ‚¨‚æ‚Ñ‰º‹L‚Ì–³•ÛØ‹K’è‚ğŒfÚ‚·‚é‚±‚ÆD
  24:.\asp\arch\arm_m_gcc\common/core_insn.h ****  *    (b) Ä”z•z‚ÌŒ`‘Ô‚ğC•Ê‚É’è‚ß‚é•û–@‚É‚æ‚Á‚ÄCTOPPERSƒvƒƒWƒFƒNƒg‚É
  25:.\asp\arch\arm_m_gcc\common/core_insn.h ****  *        •ñ‚·‚é‚±‚ÆD
  26:.\asp\arch\arm_m_gcc\common/core_insn.h ****  *  (4) –{ƒ\ƒtƒgƒEƒFƒA‚Ì—˜—p‚É‚æ‚è’¼Ú“I‚Ü‚½‚ÍŠÔÚ“I‚É¶‚¶‚é‚¢‚©‚È‚é‘¹
  27:.\asp\arch\arm_m_gcc\common/core_insn.h ****  *      ŠQ‚©‚ç‚àCã‹L’˜ìŒ Ò‚¨‚æ‚ÑTOPPERSƒvƒƒWƒFƒNƒg‚ğ–ÆÓ‚·‚é‚±‚ÆD
  28:.\asp\arch\arm_m_gcc\common/core_insn.h ****  *      ‚Ü‚½C–{ƒ\ƒtƒgƒEƒFƒA‚Ìƒ†[ƒU‚Ü‚½‚ÍƒGƒ“ƒhƒ†[ƒU‚©‚ç‚Ì‚¢‚©‚È‚é—
  29:.\asp\arch\arm_m_gcc\common/core_insn.h ****  *      —R‚ÉŠî‚Ã‚­¿‹‚©‚ç‚àCã‹L’˜ìŒ Ò‚¨‚æ‚ÑTOPPERSƒvƒƒWƒFƒNƒg‚ğ
  30:.\asp\arch\arm_m_gcc\common/core_insn.h ****  *      –ÆÓ‚·‚é‚±‚ÆD
  31:.\asp\arch\arm_m_gcc\common/core_insn.h ****  * 
  32:.\asp\arch\arm_m_gcc\common/core_insn.h ****  *  –{ƒ\ƒtƒgƒEƒFƒA‚ÍC–³•ÛØ‚Å’ñ‹Ÿ‚³‚ê‚Ä‚¢‚é‚à‚Ì‚Å‚ ‚éDã‹L’˜ìŒ Ò‚¨
  33:.\asp\arch\arm_m_gcc\common/core_insn.h ****  *  ‚æ‚ÑTOPPERSƒvƒƒWƒFƒNƒg‚ÍC–{ƒ\ƒtƒgƒEƒFƒA‚ÉŠÖ‚µ‚ÄC“Á’è‚Ìg—p–Ú“I
  34:.\asp\arch\arm_m_gcc\common/core_insn.h ****  *  ‚É‘Î‚·‚é“K‡«‚àŠÜ‚ß‚ÄC‚¢‚©‚È‚é•ÛØ‚às‚í‚È‚¢D‚Ü‚½C–{ƒ\ƒtƒgƒEƒF
  35:.\asp\arch\arm_m_gcc\common/core_insn.h ****  *  ƒA‚Ì—˜—p‚É‚æ‚è’¼Ú“I‚Ü‚½‚ÍŠÔÚ“I‚É¶‚¶‚½‚¢‚©‚È‚é‘¹ŠQ‚ÉŠÖ‚µ‚Ä‚àC‚»
  36:.\asp\arch\arm_m_gcc\common/core_insn.h ****  *  ‚ÌÓ”C‚ğ•‰‚í‚È‚¢D
  37:.\asp\arch\arm_m_gcc\common/core_insn.h ****  * 
  38:.\asp\arch\arm_m_gcc\common/core_insn.h ****  *  @(#) $Id: core_insn.h 2310 2012-02-23 02:14:28Z ertl-honda $
  39:.\asp\arch\arm_m_gcc\common/core_insn.h ****  */
  40:.\asp\arch\arm_m_gcc\common/core_insn.h **** 
ARM GAS  C:\TEMP\ccqvo2sw.s 			page 4


  41:.\asp\arch\arm_m_gcc\common/core_insn.h **** 
  42:.\asp\arch\arm_m_gcc\common/core_insn.h **** /*
  43:.\asp\arch\arm_m_gcc\common/core_insn.h ****  *  ƒRƒAˆË‘¶‚Ì“Áê–½—ß‚ÌƒCƒ“ƒ‰ƒCƒ“ŠÖ”’è‹`iARM-M—pj
  44:.\asp\arch\arm_m_gcc\common/core_insn.h ****  */
  45:.\asp\arch\arm_m_gcc\common/core_insn.h **** 
  46:.\asp\arch\arm_m_gcc\common/core_insn.h **** #ifndef CORE_INSN_H
  47:.\asp\arch\arm_m_gcc\common/core_insn.h **** #define CORE_INSN_H
  48:.\asp\arch\arm_m_gcc\common/core_insn.h **** 
  49:.\asp\arch\arm_m_gcc\common/core_insn.h **** #include <arm_m.h>
  50:.\asp\arch\arm_m_gcc\common/core_insn.h **** 
  51:.\asp\arch\arm_m_gcc\common/core_insn.h **** /*
  52:.\asp\arch\arm_m_gcc\common/core_insn.h ****  *  ƒƒ‚ƒŠ‚ª•ÏX‚³‚ê‚é‚±‚Æ‚ğƒRƒ“ƒpƒCƒ‰‚É“`‚¦‚é‚½‚ß‚Ìƒ}ƒNƒ
  53:.\asp\arch\arm_m_gcc\common/core_insn.h ****  */
  54:.\asp\arch\arm_m_gcc\common/core_insn.h **** #define ARM_MEMORY_CHANGED Asm("":::"memory")
  55:.\asp\arch\arm_m_gcc\common/core_insn.h **** 
  56:.\asp\arch\arm_m_gcc\common/core_insn.h **** /*
  57:.\asp\arch\arm_m_gcc\common/core_insn.h ****  *  FAULTMASK‚ÌƒZƒbƒg
  58:.\asp\arch\arm_m_gcc\common/core_insn.h ****  */
  59:.\asp\arch\arm_m_gcc\common/core_insn.h **** Inline void
  60:.\asp\arch\arm_m_gcc\common/core_insn.h **** set_faultmask(void){
  61:.\asp\arch\arm_m_gcc\common/core_insn.h **** 	Asm("cpsid f":::"memory");
  62:.\asp\arch\arm_m_gcc\common/core_insn.h **** }
  63:.\asp\arch\arm_m_gcc\common/core_insn.h **** 
  64:.\asp\arch\arm_m_gcc\common/core_insn.h **** /*
  65:.\asp\arch\arm_m_gcc\common/core_insn.h ****  *  FAULTMASK‚ÌƒNƒŠƒA
  66:.\asp\arch\arm_m_gcc\common/core_insn.h ****  */
  67:.\asp\arch\arm_m_gcc\common/core_insn.h **** Inline void
  68:.\asp\arch\arm_m_gcc\common/core_insn.h **** clear_faultmask(void){
  69:.\asp\arch\arm_m_gcc\common/core_insn.h **** 	Asm("cpsie f":::"memory");
  70:.\asp\arch\arm_m_gcc\common/core_insn.h **** }
  71:.\asp\arch\arm_m_gcc\common/core_insn.h **** 
  72:.\asp\arch\arm_m_gcc\common/core_insn.h **** /*
  73:.\asp\arch\arm_m_gcc\common/core_insn.h ****  *  PRIMASK‚ÌƒZƒbƒg
  74:.\asp\arch\arm_m_gcc\common/core_insn.h ****  */
  75:.\asp\arch\arm_m_gcc\common/core_insn.h **** Inline void
  76:.\asp\arch\arm_m_gcc\common/core_insn.h **** set_primask(void){
  77:.\asp\arch\arm_m_gcc\common/core_insn.h **** 	Asm("cpsid i":::"memory");
  78:.\asp\arch\arm_m_gcc\common/core_insn.h **** }
  79:.\asp\arch\arm_m_gcc\common/core_insn.h **** 
  80:.\asp\arch\arm_m_gcc\common/core_insn.h **** /*
  81:.\asp\arch\arm_m_gcc\common/core_insn.h ****  *  PRIMASK‚ÌƒNƒŠƒA
  82:.\asp\arch\arm_m_gcc\common/core_insn.h ****  */
  83:.\asp\arch\arm_m_gcc\common/core_insn.h **** Inline void
  84:.\asp\arch\arm_m_gcc\common/core_insn.h **** clear_primask(void){
  85:.\asp\arch\arm_m_gcc\common/core_insn.h **** 	Asm("cpsie i":::"memory");
  86:.\asp\arch\arm_m_gcc\common/core_insn.h **** }
  87:.\asp\arch\arm_m_gcc\common/core_insn.h **** 
  88:.\asp\arch\arm_m_gcc\common/core_insn.h **** /*
  89:.\asp\arch\arm_m_gcc\common/core_insn.h ****  *  BASEPRI‚ÌƒZƒbƒg
  90:.\asp\arch\arm_m_gcc\common/core_insn.h ****  */
  91:.\asp\arch\arm_m_gcc\common/core_insn.h **** Inline void
  92:.\asp\arch\arm_m_gcc\common/core_insn.h **** set_basepri(uint32_t val){
  93:.\asp\arch\arm_m_gcc\common/core_insn.h **** 	Asm("msr BASEPRI, %0" : : "r"(val) : "memory");
  94:.\asp\arch\arm_m_gcc\common/core_insn.h **** }
  95:.\asp\arch\arm_m_gcc\common/core_insn.h **** 
  96:.\asp\arch\arm_m_gcc\common/core_insn.h **** /*
  97:.\asp\arch\arm_m_gcc\common/core_insn.h ****  *  BASEPRI‚Ìæ“¾
ARM GAS  C:\TEMP\ccqvo2sw.s 			page 5


  98:.\asp\arch\arm_m_gcc\common/core_insn.h ****  */
  99:.\asp\arch\arm_m_gcc\common/core_insn.h **** Inline uint32_t
 100:.\asp\arch\arm_m_gcc\common/core_insn.h **** get_basepri(void){
 101:.\asp\arch\arm_m_gcc\common/core_insn.h **** 	uint32_t val;
 102:.\asp\arch\arm_m_gcc\common/core_insn.h **** 	Asm("mrs  %0, BASEPRI" : "=r"(val));
 103:.\asp\arch\arm_m_gcc\common/core_insn.h **** 	return(val);
 104:.\asp\arch\arm_m_gcc\common/core_insn.h **** }
 105:.\asp\arch\arm_m_gcc\common/core_insn.h **** 
 106:.\asp\arch\arm_m_gcc\common/core_insn.h **** /*
 107:.\asp\arch\arm_m_gcc\common/core_insn.h ****  *  CONTROL‚ÌƒZƒbƒg
 108:.\asp\arch\arm_m_gcc\common/core_insn.h ****  */
 109:.\asp\arch\arm_m_gcc\common/core_insn.h **** Inline void
 110:.\asp\arch\arm_m_gcc\common/core_insn.h **** set_control(uint32_t val){
 111:.\asp\arch\arm_m_gcc\common/core_insn.h **** 	/*
 112:.\asp\arch\arm_m_gcc\common/core_insn.h **** 	 *  controlƒŒƒWƒXƒ^ƒZƒbƒgŒã‚É‚Íisb‚ª•K{
 113:.\asp\arch\arm_m_gcc\common/core_insn.h **** 	 *  [ARMv7-M Architecture Reference Manaual(DDI0403B) A3-37]
 114:.\asp\arch\arm_m_gcc\common/core_insn.h **** 	 */
 115:.\asp\arch\arm_m_gcc\common/core_insn.h **** 	Asm("msr control, %0 \n"
 116:.\asp\arch\arm_m_gcc\common/core_insn.h **** 		" isb"
 117:.\asp\arch\arm_m_gcc\common/core_insn.h **** 		: : "r"(val) : "memory");
 118:.\asp\arch\arm_m_gcc\common/core_insn.h **** }
 119:.\asp\arch\arm_m_gcc\common/core_insn.h **** 
 120:.\asp\arch\arm_m_gcc\common/core_insn.h **** /*
 121:.\asp\arch\arm_m_gcc\common/core_insn.h ****  *  CONTROL‚Ìæ“¾
 122:.\asp\arch\arm_m_gcc\common/core_insn.h ****  */
 123:.\asp\arch\arm_m_gcc\common/core_insn.h **** Inline uint32_t
 124:.\asp\arch\arm_m_gcc\common/core_insn.h **** get_control(void){
 125:.\asp\arch\arm_m_gcc\common/core_insn.h **** 	uint32_t val;
 126:.\asp\arch\arm_m_gcc\common/core_insn.h **** 	Asm("mrs  %0, CONTROL" : "=r"(val));
  34              		.loc 2 126 0
  35              	@ 126 ".\asp\arch\arm_m_gcc\common/core_insn.h" 1
  36 0000 EFF31480 		mrs  r0, CONTROL
  37              	@ 0 "" 2
  38              	.LVL0:
  39              		.thumb
  40              	.LBE39:
  41              	.LBE38:
  99:.\asp\arch\arm_m_gcc\common/core_config.h **** 	/*
 100:.\asp\arch\arm_m_gcc\common/core_config.h **** 	 *  PSP‚ª—LŒø‚È‚çƒ^ƒXƒNƒRƒ“ƒeƒLƒXƒgCMSP‚ª—LŒø‚È‚ç”ñƒ^ƒXƒNƒRƒ“ƒeƒLƒXƒg
 101:.\asp\arch\arm_m_gcc\common/core_config.h **** 	 *  ‚Æ‚·‚éD 
 102:.\asp\arch\arm_m_gcc\common/core_config.h **** 	 */
 103:.\asp\arch\arm_m_gcc\common/core_config.h **** 	if ((get_control() & CONTROL_PSP) == CONTROL_PSP){
  42              		.loc 1 103 0
  43 0004 80F00201 		eor	r1, r0, #2
 104:.\asp\arch\arm_m_gcc\common/core_config.h **** 		return false;
 105:.\asp\arch\arm_m_gcc\common/core_config.h **** 	}
 106:.\asp\arch\arm_m_gcc\common/core_config.h **** 	else {
 107:.\asp\arch\arm_m_gcc\common/core_config.h **** 		return true;
 108:.\asp\arch\arm_m_gcc\common/core_config.h **** 	}
 109:.\asp\arch\arm_m_gcc\common/core_config.h **** }
  44              		.loc 1 109 0
  45 0008 C1F34000 		ubfx	r0, r1, #1, #1
  46              	.LVL1:
  47 000c 7047     		bx	lr
  48              		.cfi_endproc
  49              	.LFE29:
  50              		.size	sense_context, .-sense_context
ARM GAS  C:\TEMP\ccqvo2sw.s 			page 6


  51              		.section	.text.x_lock_cpu,"ax",%progbits
  52              		.align	1
  53              		.thumb
  54              		.thumb_func
  55              		.type	x_lock_cpu, %function
  56              	x_lock_cpu:
  57              	.LFB30:
 110:.\asp\arch\arm_m_gcc\common/core_config.h **** 
 111:.\asp\arch\arm_m_gcc\common/core_config.h **** #endif /* TOPPERS_MACRO_ONLY */
 112:.\asp\arch\arm_m_gcc\common/core_config.h **** 
 113:.\asp\arch\arm_m_gcc\common/core_config.h **** /*
 114:.\asp\arch\arm_m_gcc\common/core_config.h ****  *  TOPPERS•W€Š„‚İˆ—ƒ‚ƒfƒ‹‚ÌÀŒ»
 115:.\asp\arch\arm_m_gcc\common/core_config.h ****  *
 116:.\asp\arch\arm_m_gcc\common/core_config.h ****  *  Š„‚İ—Dæ“xƒ}ƒXƒN‚Æ‚µ‚Ä‚ÍCBASEPRI‚ğ—p‚¢‚éD‘SŠ„‚İ‚ğ‹Ö~‚·‚é
 117:.\asp\arch\arm_m_gcc\common/core_config.h ****  *  ‹@”\‚Æ‚µ‚ÄCFAULTMASK‚âPRIMASK‚ª‚ ‚é‚ªCƒJ[ƒlƒ‹ŠÇ—ŠO‚ÌŠ„‚İ‚ğ
 118:.\asp\arch\arm_m_gcc\common/core_config.h ****  *  ƒTƒ|[ƒg‚·‚é‚½‚ßC‚±‚ê‚ç‚ÍCPUƒƒbƒN‚Ì‚½‚ß‚É—p‚¢‚È‚¢D
 119:.\asp\arch\arm_m_gcc\common/core_config.h ****  *  ‚»‚Ì‚½‚ßCBASEPRI‚ğ—p‚¢‚Ä‹[—“I‚ÉCPUƒƒbƒNƒtƒ‰ƒO‚ğÀŒ»‚·‚éD
 120:.\asp\arch\arm_m_gcc\common/core_config.h ****  *
 121:.\asp\arch\arm_m_gcc\common/core_config.h ****  *  ‚Ü‚¸CCPUƒƒbƒNó‘Ô‚ğŠÇ—‚·‚½‚ß‚Ì•Ï”(lock_flag)‚ğ—pˆÓ‚·‚éD
 122:.\asp\arch\arm_m_gcc\common/core_config.h ****  *
 123:.\asp\arch\arm_m_gcc\common/core_config.h ****  *  CPUƒƒbƒNƒtƒ‰ƒO‚ªƒNƒŠƒA‚³‚ê‚Ä‚¢‚éŠÔ‚ÍCBASEPRI‚ğƒ‚ƒfƒ‹ã‚ÌŠ„‚İ
 124:.\asp\arch\arm_m_gcc\common/core_config.h ****  *  —Dæ“xƒ}ƒXƒN‚Ì’l‚Éİ’è‚·‚éD‚±‚ÌŠÔ‚ÍCƒ‚ƒfƒ‹ã‚ÌŠ„‚İ—Dæ“xƒ}ƒX
 125:.\asp\arch\arm_m_gcc\common/core_config.h ****  *  ƒN‚ÍCBASEPRI‚ğ—p‚¢‚éD
 126:.\asp\arch\arm_m_gcc\common/core_config.h ****  * 
 127:.\asp\arch\arm_m_gcc\common/core_config.h ****  *  ‚»‚ê‚É‘Î‚µ‚ÄCPUƒƒbƒNƒtƒ‰ƒO‚ªƒZƒbƒg‚³‚ê‚¢‚éŠÔ‚ÍCBASEPRI‚ğCƒJ[ƒl
 128:.\asp\arch\arm_m_gcc\common/core_config.h ****  *  ƒ‹ŠÇ—ŠO‚Ì‚à‚Ì‚ğœ‚­‚·‚×‚Ä‚ÌŠ„‚İ—v‹‚ğƒ}ƒXƒN‚·‚é’l(TIPM_LOCK)‚ÆC
 129:.\asp\arch\arm_m_gcc\common/core_config.h ****  *  ƒ‚ƒfƒ‹ã‚ÌŠ„‚İ—Dæ“xƒ}ƒXƒN‚Æ‚Ì‚‚¢•û‚Éİ’è‚·‚éD‚±‚ÌŠÔ‚Ìƒ‚ƒfƒ‹ã
 130:.\asp\arch\arm_m_gcc\common/core_config.h ****  *  ‚ÌŠ„‚İ—Dæ“xƒ}ƒXƒN‚ÍC‚»‚Ì‚½‚ß‚Ì•Ï”(saved_iipm, “à•”•\Œ»‚Å•Û)
 131:.\asp\arch\arm_m_gcc\common/core_config.h ****  *  ‚ğ—pˆÓ‚µ‚Ä•Û‚·‚éD
 132:.\asp\arch\arm_m_gcc\common/core_config.h ****  */
 133:.\asp\arch\arm_m_gcc\common/core_config.h **** 
 134:.\asp\arch\arm_m_gcc\common/core_config.h **** /*
 135:.\asp\arch\arm_m_gcc\common/core_config.h ****  *  Š„‚İ—Dæ“xƒ}ƒXƒN‚ÌŠO•”•\Œ»‚Æ“à•”•\Œ»‚Ì•ÏŠ·
 136:.\asp\arch\arm_m_gcc\common/core_config.h ****  *
 137:.\asp\arch\arm_m_gcc\common/core_config.h ****  *  ƒAƒZƒ“ƒuƒŠŒ¾Œê‚Ìƒ\[ƒXƒtƒ@ƒCƒ‹‚©‚çƒCƒ“ƒNƒ‹[ƒh‚·‚éê‡‚Ì‚½‚ß‚ÉC
 138:.\asp\arch\arm_m_gcc\common/core_config.h ****  *  CAST‚ğg—p
 139:.\asp\arch\arm_m_gcc\common/core_config.h ****  *  Š„‚İ—Dæ“x‚Ìƒrƒbƒg•(TBITW_IPRI)‚ª 8 ‚Ìê‡‚ÍC“à•”—Dæ“x 255
 140:.\asp\arch\arm_m_gcc\common/core_config.h ****  *  ‚ÍCŠO•”—Dæ“x -1 ‚É‘Î‰‚·‚éD
 141:.\asp\arch\arm_m_gcc\common/core_config.h ****  */
 142:.\asp\arch\arm_m_gcc\common/core_config.h **** #define EXT_IPM(iipm)   (CAST(PRI,((iipm >> (8 - TBITW_IPRI)) - (1 << TBITW_IPRI))))       /* “à•”•
 143:.\asp\arch\arm_m_gcc\common/core_config.h **** #define INT_IPM(ipm)    (((1 << TBITW_IPRI) - CAST(uint8_t, -(ipm)))  << (8 - TBITW_IPRI)) /* ŠO•”•
 144:.\asp\arch\arm_m_gcc\common/core_config.h **** 
 145:.\asp\arch\arm_m_gcc\common/core_config.h **** /*
 146:.\asp\arch\arm_m_gcc\common/core_config.h ****  *  CPUƒƒbƒNó‘Ô‚Å‚ÌŠ„‚İ—Dæ“xƒ}ƒXƒN
 147:.\asp\arch\arm_m_gcc\common/core_config.h ****  */
 148:.\asp\arch\arm_m_gcc\common/core_config.h **** #define TIPM_LOCK    TMIN_INTPRI
 149:.\asp\arch\arm_m_gcc\common/core_config.h **** 
 150:.\asp\arch\arm_m_gcc\common/core_config.h **** /*
 151:.\asp\arch\arm_m_gcc\common/core_config.h ****  *  CPUƒƒbƒNó‘Ô‚Å‚ÌŠ„‚İ—Dæ“xƒ}ƒXƒN‚Ì“à•”•\Œ»
 152:.\asp\arch\arm_m_gcc\common/core_config.h ****  *
 153:.\asp\arch\arm_m_gcc\common/core_config.h ****  *  TIPM_LOCK‚ÍCCPUƒƒbƒNó‘Ô‚Å‚ÌBASEPRI‚Ì’lDƒJ[ƒlƒ‹ŠÇ—ŠO‚Ì‚à‚Ì‚ğ
 154:.\asp\arch\arm_m_gcc\common/core_config.h ****  *  œ‚­‚·‚×‚Ä‚ÌŠ„‚İ‚ğƒ}ƒXƒN‚·‚é’l‚É’è‹`‚·‚éD  
 155:.\asp\arch\arm_m_gcc\common/core_config.h ****  */
 156:.\asp\arch\arm_m_gcc\common/core_config.h **** #define IIPM_LOCK    INT_IPM(TIPM_LOCK)
 157:.\asp\arch\arm_m_gcc\common/core_config.h **** 
 158:.\asp\arch\arm_m_gcc\common/core_config.h **** /*
 159:.\asp\arch\arm_m_gcc\common/core_config.h ****  *  TIPM_ENAALLiŠ„‚İ—Dæ“xƒ}ƒXƒN‘S‰ğœj‚Ì“à•”•\Œ»
ARM GAS  C:\TEMP\ccqvo2sw.s 			page 7


 160:.\asp\arch\arm_m_gcc\common/core_config.h ****  *
 161:.\asp\arch\arm_m_gcc\common/core_config.h ****  *  BASEPRI‚É '0' ‚ğİ’è‚·‚é‚±‚Æ‚ÅC‘SŠ„‚İ‚ğ‹–‰Â‚·‚éD
 162:.\asp\arch\arm_m_gcc\common/core_config.h ****  */
 163:.\asp\arch\arm_m_gcc\common/core_config.h **** #define IIPM_ENAALL  (0)
 164:.\asp\arch\arm_m_gcc\common/core_config.h **** 
 165:.\asp\arch\arm_m_gcc\common/core_config.h **** 
 166:.\asp\arch\arm_m_gcc\common/core_config.h **** #ifndef TOPPERS_MACRO_ONLY
 167:.\asp\arch\arm_m_gcc\common/core_config.h **** 
 168:.\asp\arch\arm_m_gcc\common/core_config.h **** /*
 169:.\asp\arch\arm_m_gcc\common/core_config.h ****  *  CPUƒƒbƒNƒtƒ‰ƒOÀŒ»‚Ì‚½‚ß‚Ì•Ï”
 170:.\asp\arch\arm_m_gcc\common/core_config.h ****  * 
 171:.\asp\arch\arm_m_gcc\common/core_config.h ****  *  ‚±‚ê‚ç‚Ì•Ï”‚ÍCCPUƒƒbƒNó‘Ô‚Ì‚Ì‚İ‘‚«Š·‚¦‚Ä‚à‚æ‚¢‚Æ‚·‚éD
 172:.\asp\arch\arm_m_gcc\common/core_config.h ****  *  ƒCƒ“ƒ‰ƒCƒ“ŠÖ”’†‚ÅCƒAƒNƒZƒX‚Ì‡˜‚ª•Ï‰»‚µ‚È‚¢‚æ‚¤Cvolatile ‚ğw’èD 
 173:.\asp\arch\arm_m_gcc\common/core_config.h ****  */
 174:.\asp\arch\arm_m_gcc\common/core_config.h **** extern volatile bool_t  lock_flag;    /* CPUƒƒbƒNƒtƒ‰ƒO‚Ì’l‚ğ•Û‚·‚é•Ï” */
 175:.\asp\arch\arm_m_gcc\common/core_config.h **** extern volatile uint32_t saved_iipm;  /* Š„‚İ—Dæ“x‚ğƒ}ƒXƒN‚·‚é•Ï” */
 176:.\asp\arch\arm_m_gcc\common/core_config.h **** 
 177:.\asp\arch\arm_m_gcc\common/core_config.h **** /*
 178:.\asp\arch\arm_m_gcc\common/core_config.h ****  *  CPUƒƒbƒNó‘Ô‚Ö‚ÌˆÚs
 179:.\asp\arch\arm_m_gcc\common/core_config.h ****  *
 180:.\asp\arch\arm_m_gcc\common/core_config.h ****  *  BASEPRIiƒn[ƒhƒEƒFƒA‚ÌŠ„‚İ—Dæ“xƒ}ƒXƒNj‚ğCsaved_iipm‚É•Û‘¶‚µC
 181:.\asp\arch\arm_m_gcc\common/core_config.h ****  *  ƒJ[ƒlƒ‹ŠÇ—ŠO‚Ì‚à‚Ì‚ğœ‚­‚·‚×‚Ä‚ÌŠ„‚İ‚ğƒ}ƒXƒN‚·‚é’liTIPM_LOCKj
 182:.\asp\arch\arm_m_gcc\common/core_config.h ****  *  ‚Éİ’è‚·‚éD‚Ü‚½Clock_flag‚ğtrue‚É‚·‚éD
 183:.\asp\arch\arm_m_gcc\common/core_config.h ****  *
 184:.\asp\arch\arm_m_gcc\common/core_config.h ****  *  BASEPRI‚ªCÅ‰‚©‚çTIPM_LOCK‚Æ“¯‚¶‚©‚»‚ê‚æ‚è‚‚¢ê‡‚É‚ÍC‚»‚ê‚ğ
 185:.\asp\arch\arm_m_gcc\common/core_config.h ****  *  saved_iipm‚É•Û‘¶‚·‚é‚Ì‚İ‚ÅCTIPM_LOCK‚É‚Íİ’è‚µ‚È‚¢D‚±‚ê‚ÍCƒ‚ƒfƒ‹
 186:.\asp\arch\arm_m_gcc\common/core_config.h ****  *  ã‚ÌŠ„‚İ—Dæ“xƒ}ƒXƒN‚ªCTIPM_LOCK‚Æ“¯‚¶‚©‚»‚ê‚æ‚è‚‚¢ƒŒƒxƒ‹‚Éİ’è
 187:.\asp\arch\arm_m_gcc\common/core_config.h ****  *  ‚³‚ê‚Ä‚¢‚éó‘Ô‚É‚ ‚½‚éD
 188:.\asp\arch\arm_m_gcc\common/core_config.h ****  *
 189:.\asp\arch\arm_m_gcc\common/core_config.h ****  *  ‚±‚ÌŠÖ”‚ÍCCPUƒƒbƒNó‘Ôilock_flag‚ªtrue‚Ìó‘Ôj‚ÅŒÄ‚Î‚ê‚é‚±‚Æ‚Í
 190:.\asp\arch\arm_m_gcc\common/core_config.h ****  *  ‚È‚¢‚à‚Ì‚Æ‘z’è‚µ‚Ä‚¢‚éD
 191:.\asp\arch\arm_m_gcc\common/core_config.h ****  */
 192:.\asp\arch\arm_m_gcc\common/core_config.h **** Inline void
 193:.\asp\arch\arm_m_gcc\common/core_config.h **** x_lock_cpu(void)
 194:.\asp\arch\arm_m_gcc\common/core_config.h **** {
  58              		.loc 1 194 0
  59              		.cfi_startproc
  60              		@ args = 0, pretend = 0, frame = 0
  61              		@ frame_needed = 0, uses_anonymous_args = 0
  62              		@ link register save eliminated.
  63              	.LBB40:
  64              	.LBB41:
 102:.\asp\arch\arm_m_gcc\common/core_insn.h **** 	Asm("mrs  %0, BASEPRI" : "=r"(val));
  65              		.loc 2 102 0
  66              	@ 102 ".\asp\arch\arm_m_gcc\common/core_insn.h" 1
  67 0000 EFF31183 		mrs  r3, BASEPRI
  68              	@ 0 "" 2
  69              	.LVL2:
  70              		.thumb
  71              	.LBE41:
  72              	.LBE40:
 195:.\asp\arch\arm_m_gcc\common/core_config.h **** 	uint32_t iipm;
 196:.\asp\arch\arm_m_gcc\common/core_config.h **** 
 197:.\asp\arch\arm_m_gcc\common/core_config.h **** 	/*
 198:.\asp\arch\arm_m_gcc\common/core_config.h **** 	 *  get_basepri()‚Ì•Ô‚è’l‚ğ’¼Úsaved_iipm‚É•Û‘¶‚¹‚¸Cˆê•Ï”iipm
 199:.\asp\arch\arm_m_gcc\common/core_config.h **** 	 *  ‚ğ—p‚¢‚Ä‚¢‚é‚Ì‚ÍCget_baespri()‚ğŒÄ‚ñ‚¾’¼Œã‚ÉŠ„‚İ‚ª”­¶‚µC
 200:.\asp\arch\arm_m_gcc\common/core_config.h **** 	 *  ‹N“®‚³‚ê‚½Š„‚İˆ—‚Åsaved_iipm‚ª•ÏX‚³‚ê‚é‰Â”\«‚ª‚ ‚é‚½‚ß‚Å
ARM GAS  C:\TEMP\ccqvo2sw.s 			page 8


 201:.\asp\arch\arm_m_gcc\common/core_config.h **** 	 *  ‚ ‚éD
 202:.\asp\arch\arm_m_gcc\common/core_config.h **** 	 */
 203:.\asp\arch\arm_m_gcc\common/core_config.h **** 	iipm = get_basepri();
 204:.\asp\arch\arm_m_gcc\common/core_config.h **** 	/*
 205:.\asp\arch\arm_m_gcc\common/core_config.h **** 	 *  BASEPRIƒŒƒWƒXƒ^‚Í’l‚ª¬‚³‚¢‚Ù‚Ç—Dæ“x‚ª‚‚¢‚ªCIIPM_ENAALL ‚ª
 206:.\asp\arch\arm_m_gcc\common/core_config.h **** 	 *  '0'‚Å‚ ‚é‚½‚ßC’Pƒ‚É—Dæ“x”äŠr‚¾‚¯‚Å‚Í•s\•ª‚Å‚ ‚éD
 207:.\asp\arch\arm_m_gcc\common/core_config.h **** 	 */
 208:.\asp\arch\arm_m_gcc\common/core_config.h **** 	if ((IIPM_LOCK < iipm) || (IIPM_ENAALL == iipm)) {
  73              		.loc 1 208 0
  74 0004 5A1E     		subs	r2, r3, #1
  75 0006 1F2A     		cmp	r2, #31
  76 0008 02D9     		bls	.L3
  77              	.LVL3:
  78              	.LBB42:
  79              	.LBB43:
  93:.\asp\arch\arm_m_gcc\common/core_insn.h **** 	Asm("msr BASEPRI, %0" : : "r"(val) : "memory");
  80              		.loc 2 93 0
  81 000a 2020     		movs	r0, #32
  82              	@ 93 ".\asp\arch\arm_m_gcc\common/core_insn.h" 1
  83 000c 80F31188 		msr BASEPRI, r0
  84              	@ 0 "" 2
  85              	.LVL4:
  86              		.thumb
  87              	.L3:
  88              	.LBE43:
  89              	.LBE42:
 209:.\asp\arch\arm_m_gcc\common/core_config.h **** 		set_basepri(IIPM_LOCK);
 210:.\asp\arch\arm_m_gcc\common/core_config.h **** 	}
 211:.\asp\arch\arm_m_gcc\common/core_config.h **** 	saved_iipm = iipm;
  90              		.loc 1 211 0
  91 0010 0249     		ldr	r1, .L5
 212:.\asp\arch\arm_m_gcc\common/core_config.h **** 	lock_flag = true;
  92              		.loc 1 212 0
  93 0012 0122     		movs	r2, #1
 211:.\asp\arch\arm_m_gcc\common/core_config.h **** 	saved_iipm = iipm;
  94              		.loc 1 211 0
  95 0014 0B60     		str	r3, [r1, #0]
  96              		.loc 1 212 0
  97 0016 024B     		ldr	r3, .L5+4
  98              	.LVL5:
  99 0018 1A60     		str	r2, [r3, #0]
 213:.\asp\arch\arm_m_gcc\common/core_config.h **** 	/* ƒNƒŠƒeƒBƒJƒ‹ƒZƒNƒVƒ‡ƒ“‚Ì‘OŒã‚Åƒƒ‚ƒŠ‚ª‘‚«Š·‚í‚é‰Â”\«‚ª‚ ‚é */
 214:.\asp\arch\arm_m_gcc\common/core_config.h **** 	ARM_MEMORY_CHANGED;
 100              		.loc 1 214 0
 101 001a 7047     		bx	lr
 102              	.L6:
 103              		.align	2
 104              	.L5:
 105 001c 00000000 		.word	_kernel_saved_iipm
 106 0020 00000000 		.word	_kernel_lock_flag
 107              		.cfi_endproc
 108              	.LFE30:
 109              		.size	x_lock_cpu, .-x_lock_cpu
 110              		.section	.text.x_unlock_cpu,"ax",%progbits
 111              		.align	1
 112              		.thumb
 113              		.thumb_func
ARM GAS  C:\TEMP\ccqvo2sw.s 			page 9


 114              		.type	x_unlock_cpu, %function
 115              	x_unlock_cpu:
 116              	.LFB31:
 215:.\asp\arch\arm_m_gcc\common/core_config.h **** }
 216:.\asp\arch\arm_m_gcc\common/core_config.h **** 
 217:.\asp\arch\arm_m_gcc\common/core_config.h **** #define t_lock_cpu()    x_lock_cpu()
 218:.\asp\arch\arm_m_gcc\common/core_config.h **** #define i_lock_cpu()    x_lock_cpu()
 219:.\asp\arch\arm_m_gcc\common/core_config.h **** 
 220:.\asp\arch\arm_m_gcc\common/core_config.h **** /*
 221:.\asp\arch\arm_m_gcc\common/core_config.h ****  *  CPUƒƒbƒNó‘Ô‚Ì‰ğœ
 222:.\asp\arch\arm_m_gcc\common/core_config.h ****  *
 223:.\asp\arch\arm_m_gcc\common/core_config.h ****  *  lock_flag‚ğfalse‚É‚µCIPMiƒn[ƒhƒEƒFƒA‚ÌŠ„‚İ—Dæ“xƒ}ƒXƒNj‚ğC
 224:.\asp\arch\arm_m_gcc\common/core_config.h ****  *  saved_iipm‚É•Û‘¶‚µ‚½’l‚É–ß‚·D
 225:.\asp\arch\arm_m_gcc\common/core_config.h ****  *
 226:.\asp\arch\arm_m_gcc\common/core_config.h ****  *  ‚±‚ÌŠÖ”‚ÍCCPUƒƒbƒNó‘Ôilock_flag‚ªtrue‚Ìó‘Ôj‚Å‚Ì‚İŒÄ‚Î‚ê‚é‚à
 227:.\asp\arch\arm_m_gcc\common/core_config.h ****  *  ‚Ì‚Æ‘z’è‚µ‚Ä‚¢‚éD
 228:.\asp\arch\arm_m_gcc\common/core_config.h ****  */
 229:.\asp\arch\arm_m_gcc\common/core_config.h **** Inline void
 230:.\asp\arch\arm_m_gcc\common/core_config.h **** x_unlock_cpu(void)
 231:.\asp\arch\arm_m_gcc\common/core_config.h **** {
 117              		.loc 1 231 0
 118              		.cfi_startproc
 119              		@ args = 0, pretend = 0, frame = 0
 120              		@ frame_needed = 0, uses_anonymous_args = 0
 121              		@ link register save eliminated.
 232:.\asp\arch\arm_m_gcc\common/core_config.h **** 	/* ƒNƒŠƒeƒBƒJƒ‹ƒZƒNƒVƒ‡ƒ“‚Ì‘OŒã‚Åƒƒ‚ƒŠ‚ª‘‚«Š·‚í‚é‰Â”\«‚ª‚ ‚é */
 233:.\asp\arch\arm_m_gcc\common/core_config.h **** 	ARM_MEMORY_CHANGED;
 122              		.loc 1 233 0
 234:.\asp\arch\arm_m_gcc\common/core_config.h **** 	lock_flag = false;
 123              		.loc 1 234 0
 124 0000 034B     		ldr	r3, .L8
 125 0002 0022     		movs	r2, #0
 235:.\asp\arch\arm_m_gcc\common/core_config.h **** 	set_basepri(saved_iipm);
 126              		.loc 1 235 0
 127 0004 0348     		ldr	r0, .L8+4
 234:.\asp\arch\arm_m_gcc\common/core_config.h **** 	lock_flag = false;
 128              		.loc 1 234 0
 129 0006 1A60     		str	r2, [r3, #0]
 130              		.loc 1 235 0
 131 0008 0168     		ldr	r1, [r0, #0]
 132              	.LVL6:
 133              	.LBB44:
 134              	.LBB45:
  93:.\asp\arch\arm_m_gcc\common/core_insn.h **** 	Asm("msr BASEPRI, %0" : : "r"(val) : "memory");
 135              		.loc 2 93 0
 136              	@ 93 ".\asp\arch\arm_m_gcc\common/core_insn.h" 1
 137 000a 81F31188 		msr BASEPRI, r1
 138              	@ 0 "" 2
 139              		.thumb
 140 000e 7047     		bx	lr
 141              	.L9:
 142              		.align	2
 143              	.L8:
 144 0010 00000000 		.word	_kernel_lock_flag
 145 0014 00000000 		.word	_kernel_saved_iipm
 146              	.LBE45:
 147              	.LBE44:
ARM GAS  C:\TEMP\ccqvo2sw.s 			page 10


 148              		.cfi_endproc
 149              	.LFE31:
 150              		.size	x_unlock_cpu, .-x_unlock_cpu
 151              		.section	.text._kernel_call_almhdr,"ax",%progbits
 152              		.align	1
 153              		.global	_kernel_call_almhdr
 154              		.thumb
 155              		.thumb_func
 156              		.type	_kernel_call_almhdr, %function
 157              	_kernel_call_almhdr:
 158              	.LFB53:
 159              		.file 3 ".\\asp\\kernel\\alarm.c"
   1:.\asp\kernel/alarm.c **** /*
   2:.\asp\kernel/alarm.c ****  *  TOPPERS/ASP Kernel
   3:.\asp\kernel/alarm.c ****  *      Toyohashi Open Platform for Embedded Real-Time Systems/
   4:.\asp\kernel/alarm.c ****  *      Advanced Standard Profile Kernel
   5:.\asp\kernel/alarm.c ****  * 
   6:.\asp\kernel/alarm.c ****  *  Copyright (C) 2000-2003 by Embedded and Real-Time Systems Laboratory
   7:.\asp\kernel/alarm.c ****  *                              Toyohashi Univ. of Technology, JAPAN
   8:.\asp\kernel/alarm.c ****  *  Copyright (C) 2005-2011 by Embedded and Real-Time Systems Laboratory
   9:.\asp\kernel/alarm.c ****  *              Graduate School of Information Science, Nagoya Univ., JAPAN
  10:.\asp\kernel/alarm.c ****  * 
  11:.\asp\kernel/alarm.c ****  *  ã‹L’˜ìŒ Ò‚ÍCˆÈ‰º‚Ì(1)`(4)‚ÌğŒ‚ğ–‚½‚·ê‡‚ÉŒÀ‚èC–{ƒ\ƒtƒgƒEƒF
  12:.\asp\kernel/alarm.c ****  *  ƒAi–{ƒ\ƒtƒgƒEƒFƒA‚ğ‰ü•Ï‚µ‚½‚à‚Ì‚ğŠÜ‚ŞDˆÈ‰º“¯‚¶j‚ğg—pE•¡»E‰ü
  13:.\asp\kernel/alarm.c ****  *  •ÏEÄ”z•ziˆÈ‰ºC—˜—p‚ÆŒÄ‚Ôj‚·‚é‚±‚Æ‚ğ–³‚Å‹–‘ø‚·‚éD
  14:.\asp\kernel/alarm.c ****  *  (1) –{ƒ\ƒtƒgƒEƒFƒA‚ğƒ\[ƒXƒR[ƒh‚ÌŒ`‚Å—˜—p‚·‚éê‡‚É‚ÍCã‹L‚Ì’˜ì
  15:.\asp\kernel/alarm.c ****  *      Œ •\¦C‚±‚Ì—˜—pğŒ‚¨‚æ‚Ñ‰º‹L‚Ì–³•ÛØ‹K’è‚ªC‚»‚Ì‚Ü‚Ü‚ÌŒ`‚Åƒ\[
  16:.\asp\kernel/alarm.c ****  *      ƒXƒR[ƒh’†‚ÉŠÜ‚Ü‚ê‚Ä‚¢‚é‚±‚ÆD
  17:.\asp\kernel/alarm.c ****  *  (2) –{ƒ\ƒtƒgƒEƒFƒA‚ğCƒ‰ƒCƒuƒ‰ƒŠŒ`®‚È‚ÇC‘¼‚Ìƒ\ƒtƒgƒEƒFƒAŠJ”­‚Ég
  18:.\asp\kernel/alarm.c ****  *      —p‚Å‚«‚éŒ`‚ÅÄ”z•z‚·‚éê‡‚É‚ÍCÄ”z•z‚É”º‚¤ƒhƒLƒ…ƒƒ“ƒgi—˜—p
  19:.\asp\kernel/alarm.c ****  *      Òƒ}ƒjƒ…ƒAƒ‹‚È‚Çj‚ÉCã‹L‚Ì’˜ìŒ •\¦C‚±‚Ì—˜—pğŒ‚¨‚æ‚Ñ‰º‹L
  20:.\asp\kernel/alarm.c ****  *      ‚Ì–³•ÛØ‹K’è‚ğŒfÚ‚·‚é‚±‚ÆD
  21:.\asp\kernel/alarm.c ****  *  (3) –{ƒ\ƒtƒgƒEƒFƒA‚ğC‹@Ší‚É‘g‚İ‚Ş‚È‚ÇC‘¼‚Ìƒ\ƒtƒgƒEƒFƒAŠJ”­‚Ég
  22:.\asp\kernel/alarm.c ****  *      —p‚Å‚«‚È‚¢Œ`‚ÅÄ”z•z‚·‚éê‡‚É‚ÍCŸ‚Ì‚¢‚¸‚ê‚©‚ÌğŒ‚ğ–‚½‚·‚±
  23:.\asp\kernel/alarm.c ****  *      ‚ÆD
  24:.\asp\kernel/alarm.c ****  *    (a) Ä”z•z‚É”º‚¤ƒhƒLƒ…ƒƒ“ƒgi—˜—pÒƒ}ƒjƒ…ƒAƒ‹‚È‚Çj‚ÉCã‹L‚Ì’˜
  25:.\asp\kernel/alarm.c ****  *        ìŒ •\¦C‚±‚Ì—˜—pğŒ‚¨‚æ‚Ñ‰º‹L‚Ì–³•ÛØ‹K’è‚ğŒfÚ‚·‚é‚±‚ÆD
  26:.\asp\kernel/alarm.c ****  *    (b) Ä”z•z‚ÌŒ`‘Ô‚ğC•Ê‚É’è‚ß‚é•û–@‚É‚æ‚Á‚ÄCTOPPERSƒvƒƒWƒFƒNƒg‚É
  27:.\asp\kernel/alarm.c ****  *        •ñ‚·‚é‚±‚ÆD
  28:.\asp\kernel/alarm.c ****  *  (4) –{ƒ\ƒtƒgƒEƒFƒA‚Ì—˜—p‚É‚æ‚è’¼Ú“I‚Ü‚½‚ÍŠÔÚ“I‚É¶‚¶‚é‚¢‚©‚È‚é‘¹
  29:.\asp\kernel/alarm.c ****  *      ŠQ‚©‚ç‚àCã‹L’˜ìŒ Ò‚¨‚æ‚ÑTOPPERSƒvƒƒWƒFƒNƒg‚ğ–ÆÓ‚·‚é‚±‚ÆD
  30:.\asp\kernel/alarm.c ****  *      ‚Ü‚½C–{ƒ\ƒtƒgƒEƒFƒA‚Ìƒ†[ƒU‚Ü‚½‚ÍƒGƒ“ƒhƒ†[ƒU‚©‚ç‚Ì‚¢‚©‚È‚é—
  31:.\asp\kernel/alarm.c ****  *      —R‚ÉŠî‚Ã‚­¿‹‚©‚ç‚àCã‹L’˜ìŒ Ò‚¨‚æ‚ÑTOPPERSƒvƒƒWƒFƒNƒg‚ğ
  32:.\asp\kernel/alarm.c ****  *      –ÆÓ‚·‚é‚±‚ÆD
  33:.\asp\kernel/alarm.c ****  * 
  34:.\asp\kernel/alarm.c ****  *  –{ƒ\ƒtƒgƒEƒFƒA‚ÍC–³•ÛØ‚Å’ñ‹Ÿ‚³‚ê‚Ä‚¢‚é‚à‚Ì‚Å‚ ‚éDã‹L’˜ìŒ Ò‚¨
  35:.\asp\kernel/alarm.c ****  *  ‚æ‚ÑTOPPERSƒvƒƒWƒFƒNƒg‚ÍC–{ƒ\ƒtƒgƒEƒFƒA‚ÉŠÖ‚µ‚ÄC“Á’è‚Ìg—p–Ú“I
  36:.\asp\kernel/alarm.c ****  *  ‚É‘Î‚·‚é“K‡«‚àŠÜ‚ß‚ÄC‚¢‚©‚È‚é•ÛØ‚às‚í‚È‚¢D‚Ü‚½C–{ƒ\ƒtƒgƒEƒF
  37:.\asp\kernel/alarm.c ****  *  ƒA‚Ì—˜—p‚É‚æ‚è’¼Ú“I‚Ü‚½‚ÍŠÔÚ“I‚É¶‚¶‚½‚¢‚©‚È‚é‘¹ŠQ‚ÉŠÖ‚µ‚Ä‚àC‚»
  38:.\asp\kernel/alarm.c ****  *  ‚ÌÓ”C‚ğ•‰‚í‚È‚¢D
  39:.\asp\kernel/alarm.c ****  * 
  40:.\asp\kernel/alarm.c ****  *  @(#) $Id: alarm.c 2133 2011-06-26 03:14:51Z ertl-hiro $
  41:.\asp\kernel/alarm.c ****  */
  42:.\asp\kernel/alarm.c **** 
  43:.\asp\kernel/alarm.c **** /*
  44:.\asp\kernel/alarm.c ****  *		ƒAƒ‰[ƒ€ƒnƒ“ƒhƒ‰‹@”\
  45:.\asp\kernel/alarm.c ****  */
ARM GAS  C:\TEMP\ccqvo2sw.s 			page 11


  46:.\asp\kernel/alarm.c **** 
  47:.\asp\kernel/alarm.c **** #include "kernel_impl.h"
  48:.\asp\kernel/alarm.c **** #include "check.h"
  49:.\asp\kernel/alarm.c **** #include "alarm.h"
  50:.\asp\kernel/alarm.c **** 
  51:.\asp\kernel/alarm.c **** /*
  52:.\asp\kernel/alarm.c ****  *  ƒgƒŒ[ƒXƒƒOƒ}ƒNƒ‚ÌƒfƒtƒHƒ‹ƒg’è‹`
  53:.\asp\kernel/alarm.c ****  */
  54:.\asp\kernel/alarm.c **** #ifndef LOG_ALM_ENTER
  55:.\asp\kernel/alarm.c **** #define LOG_ALM_ENTER(p_almcb)
  56:.\asp\kernel/alarm.c **** #endif /* LOG_ALM_ENTER */
  57:.\asp\kernel/alarm.c **** 
  58:.\asp\kernel/alarm.c **** #ifndef LOG_ALM_LEAVE
  59:.\asp\kernel/alarm.c **** #define LOG_ALM_LEAVE(p_almcb)
  60:.\asp\kernel/alarm.c **** #endif /* LOG_ALM_LEAVE */
  61:.\asp\kernel/alarm.c **** 
  62:.\asp\kernel/alarm.c **** #ifndef LOG_STA_ALM_ENTER
  63:.\asp\kernel/alarm.c **** #define LOG_STA_ALM_ENTER(almid, almtim)
  64:.\asp\kernel/alarm.c **** #endif /* LOG_STA_ALM_ENTER */
  65:.\asp\kernel/alarm.c **** 
  66:.\asp\kernel/alarm.c **** #ifndef LOG_STA_ALM_LEAVE
  67:.\asp\kernel/alarm.c **** #define LOG_STA_ALM_LEAVE(ercd)
  68:.\asp\kernel/alarm.c **** #endif /* LOG_STA_ALM_LEAVE */
  69:.\asp\kernel/alarm.c **** 
  70:.\asp\kernel/alarm.c **** #ifndef LOG_ISTA_ALM_ENTER
  71:.\asp\kernel/alarm.c **** #define LOG_ISTA_ALM_ENTER(almid, almtim)
  72:.\asp\kernel/alarm.c **** #endif /* LOG_ISTA_ALM_ENTER */
  73:.\asp\kernel/alarm.c **** 
  74:.\asp\kernel/alarm.c **** #ifndef LOG_ISTA_ALM_LEAVE
  75:.\asp\kernel/alarm.c **** #define LOG_ISTA_ALM_LEAVE(ercd)
  76:.\asp\kernel/alarm.c **** #endif /* LOG_ISTA_ALM_LEAVE */
  77:.\asp\kernel/alarm.c **** 
  78:.\asp\kernel/alarm.c **** #ifndef LOG_STP_ALM_ENTER
  79:.\asp\kernel/alarm.c **** #define LOG_STP_ALM_ENTER(almid)
  80:.\asp\kernel/alarm.c **** #endif /* LOG_STP_ALM_ENTER */
  81:.\asp\kernel/alarm.c **** 
  82:.\asp\kernel/alarm.c **** #ifndef LOG_STP_ALM_LEAVE
  83:.\asp\kernel/alarm.c **** #define LOG_STP_ALM_LEAVE(ercd)
  84:.\asp\kernel/alarm.c **** #endif /* LOG_STP_ALM_LEAVE */
  85:.\asp\kernel/alarm.c **** 
  86:.\asp\kernel/alarm.c **** #ifndef LOG_ISTP_ALM_ENTER
  87:.\asp\kernel/alarm.c **** #define LOG_ISTP_ALM_ENTER(almid)
  88:.\asp\kernel/alarm.c **** #endif /* LOG_ISTP_ALM_ENTER */
  89:.\asp\kernel/alarm.c **** 
  90:.\asp\kernel/alarm.c **** #ifndef LOG_ISTP_ALM_LEAVE
  91:.\asp\kernel/alarm.c **** #define LOG_ISTP_ALM_LEAVE(ercd)
  92:.\asp\kernel/alarm.c **** #endif /* LOG_ISTP_ALM_LEAVE */
  93:.\asp\kernel/alarm.c **** 
  94:.\asp\kernel/alarm.c **** #ifndef LOG_REF_ALM_ENTER
  95:.\asp\kernel/alarm.c **** #define LOG_REF_ALM_ENTER(almid, pk_ralm)
  96:.\asp\kernel/alarm.c **** #endif /* LOG_REF_ALM_ENTER */
  97:.\asp\kernel/alarm.c **** 
  98:.\asp\kernel/alarm.c **** #ifndef LOG_REF_ALM_LEAVE
  99:.\asp\kernel/alarm.c **** #define LOG_REF_ALM_LEAVE(ercd, pk_ralm)
 100:.\asp\kernel/alarm.c **** #endif /* LOG_REF_ALM_LEAVE */
 101:.\asp\kernel/alarm.c **** 
 102:.\asp\kernel/alarm.c **** /*
ARM GAS  C:\TEMP\ccqvo2sw.s 			page 12


 103:.\asp\kernel/alarm.c ****  *  ƒAƒ‰[ƒ€ƒnƒ“ƒhƒ‰‚Ì”
 104:.\asp\kernel/alarm.c ****  */
 105:.\asp\kernel/alarm.c **** #define tnum_alm	((uint_t)(tmax_almid - TMIN_ALMID + 1))
 106:.\asp\kernel/alarm.c **** 
 107:.\asp\kernel/alarm.c **** /*
 108:.\asp\kernel/alarm.c ****  *  ƒAƒ‰[ƒ€ƒnƒ“ƒhƒ‰ID‚©‚çƒAƒ‰[ƒ€ƒnƒ“ƒhƒ‰ŠÇ—ƒuƒƒbƒN‚ğæ‚èo‚·‚½‚ß‚Ìƒ}ƒNƒ
 109:.\asp\kernel/alarm.c ****  */
 110:.\asp\kernel/alarm.c **** #define INDEX_ALM(almid)	((uint_t)((almid) - TMIN_ALMID))
 111:.\asp\kernel/alarm.c **** #define get_almcb(almid)	(&(almcb_table[INDEX_ALM(almid)]))
 112:.\asp\kernel/alarm.c **** 
 113:.\asp\kernel/alarm.c **** /*
 114:.\asp\kernel/alarm.c ****  *  ƒAƒ‰[ƒ€ƒnƒ“ƒhƒ‰‹@”\‚Ì‰Šú‰»
 115:.\asp\kernel/alarm.c ****  */
 116:.\asp\kernel/alarm.c **** #ifdef TOPPERS_almini
 117:.\asp\kernel/alarm.c **** 
 118:.\asp\kernel/alarm.c **** void
 119:.\asp\kernel/alarm.c **** initialize_alarm(void)
 120:.\asp\kernel/alarm.c **** {
 121:.\asp\kernel/alarm.c **** 	uint_t	i;
 122:.\asp\kernel/alarm.c **** 	ALMCB	*p_almcb;
 123:.\asp\kernel/alarm.c **** 
 124:.\asp\kernel/alarm.c **** 	for (i = 0; i < tnum_alm; i++) {
 125:.\asp\kernel/alarm.c **** 		p_almcb = &(almcb_table[i]);
 126:.\asp\kernel/alarm.c **** 		p_almcb->p_alminib = &(alminib_table[i]);
 127:.\asp\kernel/alarm.c **** 		p_almcb->almsta = false;
 128:.\asp\kernel/alarm.c **** 	}
 129:.\asp\kernel/alarm.c **** }
 130:.\asp\kernel/alarm.c **** 
 131:.\asp\kernel/alarm.c **** #endif /* TOPPERS_almini */
 132:.\asp\kernel/alarm.c **** 
 133:.\asp\kernel/alarm.c **** /*
 134:.\asp\kernel/alarm.c ****  *  ƒAƒ‰[ƒ€ƒnƒ“ƒhƒ‰‚Ì“®ìŠJn
 135:.\asp\kernel/alarm.c ****  */
 136:.\asp\kernel/alarm.c **** #ifdef TOPPERS_sta_alm
 137:.\asp\kernel/alarm.c **** 
 138:.\asp\kernel/alarm.c **** ER
 139:.\asp\kernel/alarm.c **** sta_alm(ID almid, RELTIM almtim)
 140:.\asp\kernel/alarm.c **** {
 141:.\asp\kernel/alarm.c **** 	ALMCB	*p_almcb;
 142:.\asp\kernel/alarm.c **** 	ER		ercd;
 143:.\asp\kernel/alarm.c **** 
 144:.\asp\kernel/alarm.c **** 	LOG_STA_ALM_ENTER(almid, almtim);
 145:.\asp\kernel/alarm.c **** 	CHECK_TSKCTX_UNL();
 146:.\asp\kernel/alarm.c **** 	CHECK_ALMID(almid);
 147:.\asp\kernel/alarm.c **** 	CHECK_PAR(almtim <= TMAX_RELTIM);
 148:.\asp\kernel/alarm.c **** 	p_almcb = get_almcb(almid);
 149:.\asp\kernel/alarm.c **** 
 150:.\asp\kernel/alarm.c **** 	t_lock_cpu();
 151:.\asp\kernel/alarm.c **** 	if (p_almcb->almsta) {
 152:.\asp\kernel/alarm.c **** 		tmevtb_dequeue(&(p_almcb->tmevtb));
 153:.\asp\kernel/alarm.c **** 	}
 154:.\asp\kernel/alarm.c **** 	else {
 155:.\asp\kernel/alarm.c **** 		p_almcb->almsta = true;
 156:.\asp\kernel/alarm.c **** 	}
 157:.\asp\kernel/alarm.c **** 	tmevtb_enqueue(&(p_almcb->tmevtb), almtim,
 158:.\asp\kernel/alarm.c **** 								(CBACK) call_almhdr, (void *) p_almcb);
 159:.\asp\kernel/alarm.c **** 	ercd = E_OK;
ARM GAS  C:\TEMP\ccqvo2sw.s 			page 13


 160:.\asp\kernel/alarm.c **** 	t_unlock_cpu();
 161:.\asp\kernel/alarm.c **** 
 162:.\asp\kernel/alarm.c ****   error_exit:
 163:.\asp\kernel/alarm.c **** 	LOG_STA_ALM_LEAVE(ercd);
 164:.\asp\kernel/alarm.c **** 	return(ercd);
 165:.\asp\kernel/alarm.c **** }
 166:.\asp\kernel/alarm.c **** 
 167:.\asp\kernel/alarm.c **** #endif /* TOPPERS_sta_alm */
 168:.\asp\kernel/alarm.c **** 
 169:.\asp\kernel/alarm.c **** /*
 170:.\asp\kernel/alarm.c ****  *  ƒAƒ‰[ƒ€ƒnƒ“ƒhƒ‰‚Ì“®ìŠJni”ñƒ^ƒXƒNƒRƒ“ƒeƒLƒXƒg—pj
 171:.\asp\kernel/alarm.c ****  */
 172:.\asp\kernel/alarm.c **** #ifdef TOPPERS_ista_alm
 173:.\asp\kernel/alarm.c **** 
 174:.\asp\kernel/alarm.c **** ER
 175:.\asp\kernel/alarm.c **** ista_alm(ID almid, RELTIM almtim)
 176:.\asp\kernel/alarm.c **** {
 177:.\asp\kernel/alarm.c **** 	ALMCB	*p_almcb;
 178:.\asp\kernel/alarm.c **** 	ER		ercd;
 179:.\asp\kernel/alarm.c **** 
 180:.\asp\kernel/alarm.c **** 	LOG_ISTA_ALM_ENTER(almid, almtim);
 181:.\asp\kernel/alarm.c **** 	CHECK_INTCTX_UNL();
 182:.\asp\kernel/alarm.c **** 	CHECK_ALMID(almid);
 183:.\asp\kernel/alarm.c **** 	CHECK_PAR(almtim <= TMAX_RELTIM);
 184:.\asp\kernel/alarm.c **** 	p_almcb = get_almcb(almid);
 185:.\asp\kernel/alarm.c **** 
 186:.\asp\kernel/alarm.c **** 	i_lock_cpu();
 187:.\asp\kernel/alarm.c **** 	if (p_almcb->almsta) {
 188:.\asp\kernel/alarm.c **** 		tmevtb_dequeue(&(p_almcb->tmevtb));
 189:.\asp\kernel/alarm.c **** 	}
 190:.\asp\kernel/alarm.c **** 	else {
 191:.\asp\kernel/alarm.c **** 		p_almcb->almsta = true;
 192:.\asp\kernel/alarm.c **** 	}
 193:.\asp\kernel/alarm.c **** 	tmevtb_enqueue(&(p_almcb->tmevtb), almtim,
 194:.\asp\kernel/alarm.c **** 								(CBACK) call_almhdr, (void *) p_almcb);
 195:.\asp\kernel/alarm.c **** 	ercd = E_OK;
 196:.\asp\kernel/alarm.c **** 	i_unlock_cpu();
 197:.\asp\kernel/alarm.c **** 
 198:.\asp\kernel/alarm.c ****   error_exit:
 199:.\asp\kernel/alarm.c **** 	LOG_ISTA_ALM_LEAVE(ercd);
 200:.\asp\kernel/alarm.c **** 	return(ercd);
 201:.\asp\kernel/alarm.c **** }
 202:.\asp\kernel/alarm.c **** 
 203:.\asp\kernel/alarm.c **** #endif /* TOPPERS_ista_alm */
 204:.\asp\kernel/alarm.c **** 
 205:.\asp\kernel/alarm.c **** /*
 206:.\asp\kernel/alarm.c ****  *  ƒAƒ‰[ƒ€ƒnƒ“ƒhƒ‰‚Ì“®ì’â~
 207:.\asp\kernel/alarm.c ****  */
 208:.\asp\kernel/alarm.c **** #ifdef TOPPERS_stp_alm
 209:.\asp\kernel/alarm.c **** 
 210:.\asp\kernel/alarm.c **** ER
 211:.\asp\kernel/alarm.c **** stp_alm(ID almid)
 212:.\asp\kernel/alarm.c **** {
 213:.\asp\kernel/alarm.c **** 	ALMCB	*p_almcb;
 214:.\asp\kernel/alarm.c **** 	ER		ercd;
 215:.\asp\kernel/alarm.c **** 
 216:.\asp\kernel/alarm.c **** 	LOG_STP_ALM_ENTER(almid);
ARM GAS  C:\TEMP\ccqvo2sw.s 			page 14


 217:.\asp\kernel/alarm.c **** 	CHECK_TSKCTX_UNL();
 218:.\asp\kernel/alarm.c **** 	CHECK_ALMID(almid);
 219:.\asp\kernel/alarm.c **** 	p_almcb = get_almcb(almid);
 220:.\asp\kernel/alarm.c **** 
 221:.\asp\kernel/alarm.c **** 	t_lock_cpu();
 222:.\asp\kernel/alarm.c **** 	if (p_almcb->almsta) {
 223:.\asp\kernel/alarm.c **** 		p_almcb->almsta = false;
 224:.\asp\kernel/alarm.c **** 		tmevtb_dequeue(&(p_almcb->tmevtb));
 225:.\asp\kernel/alarm.c **** 	}
 226:.\asp\kernel/alarm.c **** 	ercd = E_OK;
 227:.\asp\kernel/alarm.c **** 	t_unlock_cpu();
 228:.\asp\kernel/alarm.c **** 
 229:.\asp\kernel/alarm.c ****   error_exit:
 230:.\asp\kernel/alarm.c **** 	LOG_STP_ALM_LEAVE(ercd);
 231:.\asp\kernel/alarm.c **** 	return(ercd);
 232:.\asp\kernel/alarm.c **** }
 233:.\asp\kernel/alarm.c **** 
 234:.\asp\kernel/alarm.c **** #endif /* TOPPERS_stp_alm */
 235:.\asp\kernel/alarm.c **** 
 236:.\asp\kernel/alarm.c **** /*
 237:.\asp\kernel/alarm.c ****  *  ƒAƒ‰[ƒ€ƒnƒ“ƒhƒ‰‚Ì“®ì’â~i”ñƒ^ƒXƒNƒRƒ“ƒeƒLƒXƒg—pj
 238:.\asp\kernel/alarm.c ****  */
 239:.\asp\kernel/alarm.c **** #ifdef TOPPERS_istp_alm
 240:.\asp\kernel/alarm.c **** 
 241:.\asp\kernel/alarm.c **** ER
 242:.\asp\kernel/alarm.c **** istp_alm(ID almid)
 243:.\asp\kernel/alarm.c **** {
 244:.\asp\kernel/alarm.c **** 	ALMCB	*p_almcb;
 245:.\asp\kernel/alarm.c **** 	ER		ercd;
 246:.\asp\kernel/alarm.c **** 
 247:.\asp\kernel/alarm.c **** 	LOG_ISTP_ALM_ENTER(almid);
 248:.\asp\kernel/alarm.c **** 	CHECK_INTCTX_UNL();
 249:.\asp\kernel/alarm.c **** 	CHECK_ALMID(almid);
 250:.\asp\kernel/alarm.c **** 	p_almcb = get_almcb(almid);
 251:.\asp\kernel/alarm.c **** 
 252:.\asp\kernel/alarm.c **** 	i_lock_cpu();
 253:.\asp\kernel/alarm.c **** 	if (p_almcb->almsta) {
 254:.\asp\kernel/alarm.c **** 		p_almcb->almsta = false;
 255:.\asp\kernel/alarm.c **** 		tmevtb_dequeue(&(p_almcb->tmevtb));
 256:.\asp\kernel/alarm.c **** 	}
 257:.\asp\kernel/alarm.c **** 	ercd = E_OK;
 258:.\asp\kernel/alarm.c **** 	i_unlock_cpu();
 259:.\asp\kernel/alarm.c **** 
 260:.\asp\kernel/alarm.c ****   error_exit:
 261:.\asp\kernel/alarm.c **** 	LOG_ISTP_ALM_LEAVE(ercd);
 262:.\asp\kernel/alarm.c **** 	return(ercd);
 263:.\asp\kernel/alarm.c **** }
 264:.\asp\kernel/alarm.c **** 
 265:.\asp\kernel/alarm.c **** #endif /* TOPPERS_istp_alm */
 266:.\asp\kernel/alarm.c **** 
 267:.\asp\kernel/alarm.c **** /*
 268:.\asp\kernel/alarm.c ****  *  ƒAƒ‰[ƒ€ƒnƒ“ƒhƒ‰‚Ìó‘ÔQÆ
 269:.\asp\kernel/alarm.c ****  */
 270:.\asp\kernel/alarm.c **** #ifdef TOPPERS_ref_alm
 271:.\asp\kernel/alarm.c **** 
 272:.\asp\kernel/alarm.c **** ER
 273:.\asp\kernel/alarm.c **** ref_alm(ID almid, T_RALM *pk_ralm)
ARM GAS  C:\TEMP\ccqvo2sw.s 			page 15


 274:.\asp\kernel/alarm.c **** {
 275:.\asp\kernel/alarm.c **** 	ALMCB	*p_almcb;
 276:.\asp\kernel/alarm.c **** 	ER		ercd;
 277:.\asp\kernel/alarm.c ****     
 278:.\asp\kernel/alarm.c **** 	LOG_REF_ALM_ENTER(almid, pk_ralm);
 279:.\asp\kernel/alarm.c **** 	CHECK_TSKCTX_UNL();
 280:.\asp\kernel/alarm.c **** 	CHECK_ALMID(almid);
 281:.\asp\kernel/alarm.c **** 	p_almcb = get_almcb(almid);
 282:.\asp\kernel/alarm.c **** 
 283:.\asp\kernel/alarm.c **** 	t_lock_cpu();
 284:.\asp\kernel/alarm.c **** 	if (p_almcb->almsta) {
 285:.\asp\kernel/alarm.c **** 		pk_ralm->almstat = TALM_STA;
 286:.\asp\kernel/alarm.c **** 		pk_ralm->lefttim = tmevt_lefttim(&(p_almcb->tmevtb));
 287:.\asp\kernel/alarm.c **** 	}
 288:.\asp\kernel/alarm.c **** 	else {
 289:.\asp\kernel/alarm.c **** 		pk_ralm->almstat = TALM_STP;
 290:.\asp\kernel/alarm.c **** 	}
 291:.\asp\kernel/alarm.c **** 	ercd = E_OK;
 292:.\asp\kernel/alarm.c **** 	t_unlock_cpu();
 293:.\asp\kernel/alarm.c **** 
 294:.\asp\kernel/alarm.c ****   error_exit:
 295:.\asp\kernel/alarm.c **** 	LOG_REF_ALM_LEAVE(ercd, pk_ralm);
 296:.\asp\kernel/alarm.c **** 	return(ercd);
 297:.\asp\kernel/alarm.c **** }
 298:.\asp\kernel/alarm.c **** 
 299:.\asp\kernel/alarm.c **** #endif /* TOPPERS_ref_alm */
 300:.\asp\kernel/alarm.c **** 
 301:.\asp\kernel/alarm.c **** /*
 302:.\asp\kernel/alarm.c ****  *  ƒAƒ‰[ƒ€ƒnƒ“ƒhƒ‰‹N“®ƒ‹[ƒ`ƒ“
 303:.\asp\kernel/alarm.c ****  */
 304:.\asp\kernel/alarm.c **** #ifdef TOPPERS_almcal
 305:.\asp\kernel/alarm.c **** 
 306:.\asp\kernel/alarm.c **** void
 307:.\asp\kernel/alarm.c **** call_almhdr(ALMCB *p_almcb)
 308:.\asp\kernel/alarm.c **** {
 160              		.loc 3 308 0
 161              		.cfi_startproc
 162              		@ args = 0, pretend = 0, frame = 0
 163              		@ frame_needed = 0, uses_anonymous_args = 0
 164              	.LVL7:
 165 0000 38B5     		push	{r3, r4, r5, lr}
 166              	.LCFI0:
 167              		.cfi_def_cfa_offset 16
 168              		.cfi_offset 3, -16
 169              		.cfi_offset 4, -12
 170              		.cfi_offset 5, -8
 171              		.cfi_offset 14, -4
 309:.\asp\kernel/alarm.c **** 	PRI		saved_ipm;
 310:.\asp\kernel/alarm.c **** 
 311:.\asp\kernel/alarm.c **** 	/*
 312:.\asp\kernel/alarm.c **** 	 *  ƒAƒ‰[ƒ€ƒnƒ“ƒhƒ‰‚ğ’â~ó‘Ô‚É‚·‚éD
 313:.\asp\kernel/alarm.c **** 	 */
 314:.\asp\kernel/alarm.c **** 	p_almcb->almsta = false;
 172              		.loc 3 314 0
 173 0002 0023     		movs	r3, #0
 308:.\asp\kernel/alarm.c **** {
 174              		.loc 3 308 0
ARM GAS  C:\TEMP\ccqvo2sw.s 			page 16


 175 0004 0546     		mov	r5, r0
 176              		.loc 3 314 0
 177 0006 4360     		str	r3, [r0, #4]
 178              	.LBB58:
 179              	.LBB59:
 236:.\asp\arch\arm_m_gcc\common/core_config.h **** }
 237:.\asp\arch\arm_m_gcc\common/core_config.h **** 
 238:.\asp\arch\arm_m_gcc\common/core_config.h **** #define t_unlock_cpu()    x_unlock_cpu()
 239:.\asp\arch\arm_m_gcc\common/core_config.h **** #define i_unlock_cpu()    x_unlock_cpu()
 240:.\asp\arch\arm_m_gcc\common/core_config.h **** 
 241:.\asp\arch\arm_m_gcc\common/core_config.h **** /*
 242:.\asp\arch\arm_m_gcc\common/core_config.h ****  *  CPUƒƒbƒNó‘Ô‚ÌQÆ
 243:.\asp\arch\arm_m_gcc\common/core_config.h ****  */
 244:.\asp\arch\arm_m_gcc\common/core_config.h **** Inline bool_t
 245:.\asp\arch\arm_m_gcc\common/core_config.h **** x_sense_lock(void)
 246:.\asp\arch\arm_m_gcc\common/core_config.h **** {
 247:.\asp\arch\arm_m_gcc\common/core_config.h **** 	return(lock_flag);
 248:.\asp\arch\arm_m_gcc\common/core_config.h **** }
 249:.\asp\arch\arm_m_gcc\common/core_config.h **** 
 250:.\asp\arch\arm_m_gcc\common/core_config.h **** #define t_sense_lock()    x_sense_lock()
 251:.\asp\arch\arm_m_gcc\common/core_config.h **** #define i_sense_lock()    x_sense_lock()
 252:.\asp\arch\arm_m_gcc\common/core_config.h **** 
 253:.\asp\arch\arm_m_gcc\common/core_config.h **** /*
 254:.\asp\arch\arm_m_gcc\common/core_config.h ****  *  chg_ipm‚Å—LŒø‚ÈŠ„‚İ—Dæ“x‚Ì”ÍˆÍ‚Ì”»’è
 255:.\asp\arch\arm_m_gcc\common/core_config.h ****  *
 256:.\asp\arch\arm_m_gcc\common/core_config.h ****  *  TMIN_INTPRI‚Ì’l‚É‚æ‚ç‚¸Cchg_ipm‚Å‚ÍC-(1 << TBITW_IPRI)`TIPM_ENAALLi0j
 257:.\asp\arch\arm_m_gcc\common/core_config.h ****  *  ‚Ì”ÍˆÍ‚Éİ’è‚Å‚«‚é‚±‚Æ‚Æ‚·‚éiƒ^[ƒQƒbƒg’è‹`‚ÌŠg’£jD
 258:.\asp\arch\arm_m_gcc\common/core_config.h ****  *  Š„‚İ—Dæ“x‚Ìƒrƒbƒg•(TBITW_IPRI)‚ª 8 ‚Ìê‡‚ÍC-256 ` 0 ‚ªw’è‰Â”\‚Å‚ ‚éD
 259:.\asp\arch\arm_m_gcc\common/core_config.h ****  *   
 260:.\asp\arch\arm_m_gcc\common/core_config.h ****  */
 261:.\asp\arch\arm_m_gcc\common/core_config.h **** #define VALID_INTPRI_CHGIPM(intpri) \
 262:.\asp\arch\arm_m_gcc\common/core_config.h **** 				((-((1 << TBITW_IPRI) - 1) <= (intpri) && (intpri) <= TIPM_ENAALL))
 263:.\asp\arch\arm_m_gcc\common/core_config.h **** 
 264:.\asp\arch\arm_m_gcc\common/core_config.h **** /*
 265:.\asp\arch\arm_m_gcc\common/core_config.h ****  * iƒ‚ƒfƒ‹ã‚ÌjŠ„‚İ—Dæ“xƒ}ƒXƒN‚Ìİ’è
 266:.\asp\arch\arm_m_gcc\common/core_config.h ****  *
 267:.\asp\arch\arm_m_gcc\common/core_config.h ****  *  CPUƒƒbƒNƒtƒ‰ƒO‚ªƒNƒŠƒA‚³‚ê‚Ä‚¢‚é‚ÍCƒn[ƒhƒEƒFƒA‚ÌŠ„‚İ—Dæ“xƒ}
 268:.\asp\arch\arm_m_gcc\common/core_config.h ****  *  ƒXƒN‚ğİ’è‚·‚éDCPUƒƒbƒNƒtƒ‰ƒO‚ªƒZƒbƒg‚³‚ê‚Ä‚¢‚é‚ÍCsaved_iipm
 269:.\asp\arch\arm_m_gcc\common/core_config.h ****  *  ‚ğİ’è‚µC‚³‚ç‚ÉCƒn[ƒhƒEƒFƒA‚ÌŠ„‚İ—Dæ“xƒ}ƒXƒN‚ğCİ’è‚µ‚æ‚¤‚Æ
 270:.\asp\arch\arm_m_gcc\common/core_config.h ****  *  ‚µ‚½iƒ‚ƒfƒ‹ã‚ÌjŠ„‚İ—Dæ“xƒ}ƒXƒN‚ÆTIPM_LOCK‚Ì‚‚¢•û‚Éİ’è‚·‚éD
 271:.\asp\arch\arm_m_gcc\common/core_config.h ****  */
 272:.\asp\arch\arm_m_gcc\common/core_config.h **** Inline void
 273:.\asp\arch\arm_m_gcc\common/core_config.h **** x_set_ipm(PRI intpri)
 274:.\asp\arch\arm_m_gcc\common/core_config.h **** {
 275:.\asp\arch\arm_m_gcc\common/core_config.h **** 	uint8_t   iipm = INT_IPM(intpri);
 276:.\asp\arch\arm_m_gcc\common/core_config.h **** 
 277:.\asp\arch\arm_m_gcc\common/core_config.h **** 	if (intpri == TIPM_ENAALL){
 278:.\asp\arch\arm_m_gcc\common/core_config.h **** 		iipm = IIPM_ENAALL;
 279:.\asp\arch\arm_m_gcc\common/core_config.h **** 	}
 280:.\asp\arch\arm_m_gcc\common/core_config.h **** 
 281:.\asp\arch\arm_m_gcc\common/core_config.h **** 	if (!lock_flag) {
 282:.\asp\arch\arm_m_gcc\common/core_config.h **** 		set_basepri(iipm);
 283:.\asp\arch\arm_m_gcc\common/core_config.h **** 	}
 284:.\asp\arch\arm_m_gcc\common/core_config.h **** 	else {
 285:.\asp\arch\arm_m_gcc\common/core_config.h **** 		saved_iipm = iipm;
 286:.\asp\arch\arm_m_gcc\common/core_config.h **** 		/*
 287:.\asp\arch\arm_m_gcc\common/core_config.h **** 		 *  BASEPRIƒŒƒWƒXƒ^‚Í’l‚ª¬‚³‚¢‚Ù‚Ç—Dæ“x‚ª‚‚¢‚ªCIIPM_ENAALL ‚ª
ARM GAS  C:\TEMP\ccqvo2sw.s 			page 17


 288:.\asp\arch\arm_m_gcc\common/core_config.h **** 		 *  '0'‚Å‚ ‚é‚½‚ßC’Pƒ‚É—Dæ“x”äŠr‚¾‚¯‚Å‚Í•s\•ª‚Å‚ ‚éD
 289:.\asp\arch\arm_m_gcc\common/core_config.h **** 		 */
 290:.\asp\arch\arm_m_gcc\common/core_config.h **** 		if ((iipm < IIPM_LOCK ) && (IIPM_ENAALL != iipm)) {
 291:.\asp\arch\arm_m_gcc\common/core_config.h **** 			set_basepri(iipm);
 292:.\asp\arch\arm_m_gcc\common/core_config.h **** 		}
 293:.\asp\arch\arm_m_gcc\common/core_config.h **** 		else {
 294:.\asp\arch\arm_m_gcc\common/core_config.h **** 			set_basepri(IIPM_LOCK);
 295:.\asp\arch\arm_m_gcc\common/core_config.h **** 		}
 296:.\asp\arch\arm_m_gcc\common/core_config.h **** 	}
 297:.\asp\arch\arm_m_gcc\common/core_config.h **** }
 298:.\asp\arch\arm_m_gcc\common/core_config.h **** 
 299:.\asp\arch\arm_m_gcc\common/core_config.h **** #define t_set_ipm(intpri)    x_set_ipm(intpri)
 300:.\asp\arch\arm_m_gcc\common/core_config.h **** #define i_set_ipm(intpri)    x_set_ipm(intpri)
 301:.\asp\arch\arm_m_gcc\common/core_config.h **** 
 302:.\asp\arch\arm_m_gcc\common/core_config.h **** /*
 303:.\asp\arch\arm_m_gcc\common/core_config.h ****  * iƒ‚ƒfƒ‹ã‚ÌjŠ„‚İ—Dæ“xƒ}ƒXƒN‚ÌQÆ
 304:.\asp\arch\arm_m_gcc\common/core_config.h ****  *
 305:.\asp\arch\arm_m_gcc\common/core_config.h ****  *  CPUƒƒbƒNƒtƒ‰ƒO‚ªƒNƒŠƒA‚³‚ê‚Ä‚¢‚é‚Íƒn[ƒhƒEƒFƒA‚ÌŠ„‚İ—Dæ“xƒ}
 306:.\asp\arch\arm_m_gcc\common/core_config.h ****  *  ƒXƒN‚ğCƒZƒbƒg‚³‚ê‚Ä‚¢‚é‚Ísaved_iipm‚ğQÆ‚·‚éD
 307:.\asp\arch\arm_m_gcc\common/core_config.h ****  */
 308:.\asp\arch\arm_m_gcc\common/core_config.h **** Inline PRI
 309:.\asp\arch\arm_m_gcc\common/core_config.h **** x_get_ipm(void)
 310:.\asp\arch\arm_m_gcc\common/core_config.h **** {
 311:.\asp\arch\arm_m_gcc\common/core_config.h **** 	uint8_t iipm;
 312:.\asp\arch\arm_m_gcc\common/core_config.h **** 
 313:.\asp\arch\arm_m_gcc\common/core_config.h **** 	if (!lock_flag) {
 180              		.loc 1 313 0
 181 0008 1348     		ldr	r0, .L21
 182              	.LVL8:
 183 000a 0168     		ldr	r1, [r0, #0]
 184 000c 11B9     		cbnz	r1, .L11
 185              	.LBB60:
 186              	.LBB61:
 102:.\asp\arch\arm_m_gcc\common/core_insn.h **** 	Asm("mrs  %0, BASEPRI" : "=r"(val));
 187              		.loc 2 102 0
 188              	@ 102 ".\asp\arch\arm_m_gcc\common/core_insn.h" 1
 189 000e EFF31184 		mrs  r4, BASEPRI
 190              	@ 0 "" 2
 191              	.LVL9:
 192              		.thumb
 193 0012 01E0     		b	.L20
 194              	.LVL10:
 195              	.L11:
 196              	.LBE61:
 197              	.LBE60:
 314:.\asp\arch\arm_m_gcc\common/core_config.h **** 		iipm = get_basepri();
 315:.\asp\arch\arm_m_gcc\common/core_config.h **** 	}
 316:.\asp\arch\arm_m_gcc\common/core_config.h **** 	else {
 317:.\asp\arch\arm_m_gcc\common/core_config.h **** 		iipm = saved_iipm;
 198              		.loc 1 317 0
 199 0014 114A     		ldr	r2, .L21+4
 200 0016 1468     		ldr	r4, [r2, #0]
 201              	.L20:
 202 0018 E4B2     		uxtb	r4, r4
 203              	.LVL11:
 318:.\asp\arch\arm_m_gcc\common/core_config.h **** 	}
 319:.\asp\arch\arm_m_gcc\common/core_config.h **** 
ARM GAS  C:\TEMP\ccqvo2sw.s 			page 18


 320:.\asp\arch\arm_m_gcc\common/core_config.h **** 	if (iipm == IIPM_ENAALL) {
 204              		.loc 1 320 0
 205 001a 0CB1     		cbz	r4, .L13
 321:.\asp\arch\arm_m_gcc\common/core_config.h **** 		return(TIPM_ENAALL);
 322:.\asp\arch\arm_m_gcc\common/core_config.h **** 	}
 323:.\asp\arch\arm_m_gcc\common/core_config.h **** 	else {
 324:.\asp\arch\arm_m_gcc\common/core_config.h **** 		return(EXT_IPM(iipm));
 206              		.loc 1 324 0
 207 001c 6409     		lsrs	r4, r4, #5
 208              	.LVL12:
 209 001e 083C     		subs	r4, r4, #8
 210              	.L13:
 211              	.LBE59:
 212              	.LBE58:
 315:.\asp\kernel/alarm.c **** 
 316:.\asp\kernel/alarm.c **** 	/*
 317:.\asp\kernel/alarm.c **** 	 *  ƒAƒ‰[ƒ€ƒnƒ“ƒhƒ‰‚ğCCPUƒƒbƒN‰ğœó‘Ô‚ÅŒÄ‚Ño‚·D
 318:.\asp\kernel/alarm.c **** 	 */
 319:.\asp\kernel/alarm.c **** 	saved_ipm = i_get_ipm();
 320:.\asp\kernel/alarm.c **** 	i_unlock_cpu();
 213              		.loc 3 320 0
 214 0020 FFF7FEFF 		bl	x_unlock_cpu
 215              	.LVL13:
 321:.\asp\kernel/alarm.c **** 
 322:.\asp\kernel/alarm.c **** 	LOG_ALM_ENTER(p_almcb);
 323:.\asp\kernel/alarm.c **** 	(*((ALMHDR)(p_almcb->p_alminib->almhdr)))(p_almcb->p_alminib->exinf);
 216              		.loc 3 323 0
 217 0024 2D68     		ldr	r5, [r5, #0]
 218              	.LVL14:
 219 0026 6868     		ldr	r0, [r5, #4]
 220 0028 AB68     		ldr	r3, [r5, #8]
 221 002a 9847     		blx	r3
 222              	.LVL15:
 223              	.LBB62:
 224              	.LBB63:
 247:.\asp\arch\arm_m_gcc\common/core_config.h **** 	return(lock_flag);
 225              		.loc 1 247 0
 226 002c 0A48     		ldr	r0, .L21
 227 002e 0168     		ldr	r1, [r0, #0]
 228 0030 0546     		mov	r5, r0
 229              	.LBE63:
 230              	.LBE62:
 324:.\asp\kernel/alarm.c **** 	LOG_ALM_LEAVE(p_almcb);
 325:.\asp\kernel/alarm.c **** 
 326:.\asp\kernel/alarm.c **** 	if (!i_sense_lock()) {
 231              		.loc 3 326 0
 232 0032 09B9     		cbnz	r1, .L14
 327:.\asp\kernel/alarm.c **** 		i_lock_cpu();
 233              		.loc 3 327 0
 234 0034 FFF7FEFF 		bl	x_lock_cpu
 235              	.LVL16:
 236              	.L14:
 237              	.LBB64:
 238              	.LBB65:
 277:.\asp\arch\arm_m_gcc\common/core_config.h **** 	if (intpri == TIPM_ENAALL){
 239              		.loc 1 277 0
 240 0038 14B1     		cbz	r4, .L15
ARM GAS  C:\TEMP\ccqvo2sw.s 			page 19


 275:.\asp\arch\arm_m_gcc\common/core_config.h **** 	uint8_t   iipm = INT_IPM(intpri);
 241              		.loc 1 275 0
 242 003a 6201     		lsls	r2, r4, #5
 243 003c 02F0E004 		and	r4, r2, #224
 244              	.LVL17:
 245              	.L15:
 281:.\asp\arch\arm_m_gcc\common/core_config.h **** 	if (!lock_flag) {
 246              		.loc 1 281 0
 247 0040 2B68     		ldr	r3, [r5, #0]
 248 0042 13B9     		cbnz	r3, .L16
 249              	.LVL18:
 250              	.LBB66:
 251              	.LBB67:
  93:.\asp\arch\arm_m_gcc\common/core_insn.h **** 	Asm("msr BASEPRI, %0" : : "r"(val) : "memory");
 252              		.loc 2 93 0
 253              	@ 93 ".\asp\arch\arm_m_gcc\common/core_insn.h" 1
 254 0044 84F31188 		msr BASEPRI, r4
 255              	@ 0 "" 2
 256              		.thumb
 257 0048 38BD     		pop	{r3, r4, r5, pc}
 258              	.LVL19:
 259              	.L16:
 260              	.LBE67:
 261              	.LBE66:
 285:.\asp\arch\arm_m_gcc\common/core_config.h **** 		saved_iipm = iipm;
 262              		.loc 1 285 0
 263 004a 0448     		ldr	r0, .L21+4
 264              	.LBB68:
 265              	.LBB69:
  93:.\asp\arch\arm_m_gcc\common/core_insn.h **** 	Asm("msr BASEPRI, %0" : : "r"(val) : "memory");
 266              		.loc 2 93 0
 267 004c 2021     		movs	r1, #32
 268              	.LBE69:
 269              	.LBE68:
 285:.\asp\arch\arm_m_gcc\common/core_config.h **** 		saved_iipm = iipm;
 270              		.loc 1 285 0
 271 004e 0460     		str	r4, [r0, #0]
 272              	.LVL20:
 273              	.LBB71:
 274              	.LBB70:
  93:.\asp\arch\arm_m_gcc\common/core_insn.h **** 	Asm("msr BASEPRI, %0" : : "r"(val) : "memory");
 275              		.loc 2 93 0
 276              	@ 93 ".\asp\arch\arm_m_gcc\common/core_insn.h" 1
 277 0050 81F31188 		msr BASEPRI, r1
 278              	@ 0 "" 2
 279              		.thumb
 280 0054 38BD     		pop	{r3, r4, r5, pc}
 281              	.L22:
 282 0056 00BF     		.align	2
 283              	.L21:
 284 0058 00000000 		.word	_kernel_lock_flag
 285 005c 00000000 		.word	_kernel_saved_iipm
 286              	.LBE70:
 287              	.LBE71:
 288              	.LBE65:
 289              	.LBE64:
 290              		.cfi_endproc
ARM GAS  C:\TEMP\ccqvo2sw.s 			page 20


 291              	.LFE53:
 292              		.size	_kernel_call_almhdr, .-_kernel_call_almhdr
 293              		.section	.text._kernel_initialize_alarm,"ax",%progbits
 294              		.align	1
 295              		.global	_kernel_initialize_alarm
 296              		.thumb
 297              		.thumb_func
 298              		.type	_kernel_initialize_alarm, %function
 299              	_kernel_initialize_alarm:
 300              	.LFB47:
 120:.\asp\kernel/alarm.c **** {
 301              		.loc 3 120 0
 302              		.cfi_startproc
 303              		@ args = 0, pretend = 0, frame = 0
 304              		@ frame_needed = 0, uses_anonymous_args = 0
 305              	.LVL21:
 306 0000 70B5     		push	{r4, r5, r6, lr}
 307              	.LCFI1:
 308              		.cfi_def_cfa_offset 16
 309              		.cfi_offset 4, -16
 310              		.cfi_offset 5, -12
 311              		.cfi_offset 6, -8
 312              		.cfi_offset 14, -4
 124:.\asp\kernel/alarm.c **** 	for (i = 0; i < tnum_alm; i++) {
 313              		.loc 3 124 0
 314 0002 094B     		ldr	r3, .L27
 315 0004 1868     		ldr	r0, [r3, #0]
 316 0006 0023     		movs	r3, #0
 317              	.LVL22:
 318              	.L24:
 124:.\asp\kernel/alarm.c **** 	for (i = 0; i < tnum_alm; i++) {
 319              		.loc 3 124 0 is_stmt 0 discriminator 1
 320 0008 8342     		cmp	r3, r0
 321 000a 0CD0     		beq	.L26
 322              	.L25:
 126:.\asp\kernel/alarm.c **** 		p_almcb->p_alminib = &(alminib_table[i]);
 323              		.loc 3 126 0 is_stmt 1 discriminator 2
 324 000c 074D     		ldr	r5, .L27+4
 125:.\asp\kernel/alarm.c **** 		p_almcb = &(almcb_table[i]);
 325              		.loc 3 125 0 discriminator 2
 326 000e 1421     		movs	r1, #20
 126:.\asp\kernel/alarm.c **** 		p_almcb->p_alminib = &(alminib_table[i]);
 327              		.loc 3 126 0 discriminator 2
 328 0010 0C26     		movs	r6, #12
 125:.\asp\kernel/alarm.c **** 		p_almcb = &(almcb_table[i]);
 329              		.loc 3 125 0 discriminator 2
 330 0012 5943     		muls	r1, r3, r1
 126:.\asp\kernel/alarm.c **** 		p_almcb->p_alminib = &(alminib_table[i]);
 331              		.loc 3 126 0 discriminator 2
 332 0014 06FB0355 		mla	r5, r6, r3, r5
 125:.\asp\kernel/alarm.c **** 		p_almcb = &(almcb_table[i]);
 333              		.loc 3 125 0 discriminator 2
 334 0018 054A     		ldr	r2, .L27+8
 124:.\asp\kernel/alarm.c **** 	for (i = 0; i < tnum_alm; i++) {
 335              		.loc 3 124 0 discriminator 2
 336 001a 0133     		adds	r3, r3, #1
 337              	.LVL23:
ARM GAS  C:\TEMP\ccqvo2sw.s 			page 21


 125:.\asp\kernel/alarm.c **** 		p_almcb = &(almcb_table[i]);
 338              		.loc 3 125 0 discriminator 2
 339 001c 8C18     		adds	r4, r1, r2
 340              	.LVL24:
 126:.\asp\kernel/alarm.c **** 		p_almcb->p_alminib = &(alminib_table[i]);
 341              		.loc 3 126 0 discriminator 2
 342 001e 8D50     		str	r5, [r1, r2]
 127:.\asp\kernel/alarm.c **** 		p_almcb->almsta = false;
 343              		.loc 3 127 0 discriminator 2
 344 0020 0021     		movs	r1, #0
 345 0022 6160     		str	r1, [r4, #4]
 346 0024 F0E7     		b	.L24
 347              	.LVL25:
 348              	.L26:
 129:.\asp\kernel/alarm.c **** }
 349              		.loc 3 129 0
 350 0026 70BD     		pop	{r4, r5, r6, pc}
 351              	.L28:
 352              		.align	2
 353              	.L27:
 354 0028 00000000 		.word	_kernel_tmax_almid
 355 002c 00000000 		.word	_kernel_alminib_table
 356 0030 00000000 		.word	_kernel_almcb_table
 357              		.cfi_endproc
 358              	.LFE47:
 359              		.size	_kernel_initialize_alarm, .-_kernel_initialize_alarm
 360              		.section	.text.sta_alm,"ax",%progbits
 361              		.align	1
 362              		.global	sta_alm
 363              		.thumb
 364              		.thumb_func
 365              		.type	sta_alm, %function
 366              	sta_alm:
 367              	.LFB48:
 140:.\asp\kernel/alarm.c **** {
 368              		.loc 3 140 0
 369              		.cfi_startproc
 370              		@ args = 0, pretend = 0, frame = 0
 371              		@ frame_needed = 0, uses_anonymous_args = 0
 372              	.LVL26:
 373 0000 38B5     		push	{r3, r4, r5, lr}
 374              	.LCFI2:
 375              		.cfi_def_cfa_offset 16
 376              		.cfi_offset 3, -16
 377              		.cfi_offset 4, -12
 378              		.cfi_offset 5, -8
 379              		.cfi_offset 14, -4
 140:.\asp\kernel/alarm.c **** {
 380              		.loc 3 140 0
 381 0002 0446     		mov	r4, r0
 382 0004 0D46     		mov	r5, r1
 145:.\asp\kernel/alarm.c **** 	CHECK_TSKCTX_UNL();
 383              		.loc 3 145 0
 384 0006 FFF7FEFF 		bl	sense_context
 385              	.LVL27:
 386 000a 40BB     		cbnz	r0, .L34
 387              	.LBB78:
ARM GAS  C:\TEMP\ccqvo2sw.s 			page 22


 388              	.LBB79:
 247:.\asp\arch\arm_m_gcc\common/core_config.h **** 	return(lock_flag);
 389              		.loc 1 247 0
 390 000c 184B     		ldr	r3, .L38
 391 000e 1868     		ldr	r0, [r3, #0]
 392              	.LBE79:
 393              	.LBE78:
 145:.\asp\kernel/alarm.c **** 	CHECK_TSKCTX_UNL();
 394              		.loc 3 145 0
 395 0010 28BB     		cbnz	r0, .L34
 146:.\asp\kernel/alarm.c **** 	CHECK_ALMID(almid);
 396              		.loc 3 146 0
 397 0012 002C     		cmp	r4, #0
 398 0014 26DD     		ble	.L36
 146:.\asp\kernel/alarm.c **** 	CHECK_ALMID(almid);
 399              		.loc 3 146 0 is_stmt 0 discriminator 2
 400 0016 1749     		ldr	r1, .L38+4
 401 0018 0A68     		ldr	r2, [r1, #0]
 402 001a 9442     		cmp	r4, r2
 403 001c 22DC     		bgt	.L36
 147:.\asp\kernel/alarm.c **** 	CHECK_PAR(almtim <= TMAX_RELTIM);
 404              		.loc 3 147 0 is_stmt 1
 405 001e 002D     		cmp	r5, #0
 406 0020 23DB     		blt	.L37
 148:.\asp\kernel/alarm.c **** 	p_almcb = get_almcb(almid);
 407              		.loc 3 148 0
 408 0022 154B     		ldr	r3, .L38+8
 409 0024 1420     		movs	r0, #20
 410 0026 013C     		subs	r4, r4, #1
 411              	.LVL28:
 412 0028 00FB0434 		mla	r4, r0, r4, r3
 413              	.LVL29:
 150:.\asp\kernel/alarm.c **** 	t_lock_cpu();
 414              		.loc 3 150 0
 415 002c FFF7FEFF 		bl	x_lock_cpu
 416              	.LVL30:
 151:.\asp\kernel/alarm.c **** 	if (p_almcb->almsta) {
 417              		.loc 3 151 0
 418 0030 6168     		ldr	r1, [r4, #4]
 419 0032 21B1     		cbz	r1, .L31
 420              	.LVL31:
 421              	.LBB80:
 422              	.LBB81:
 423              		.file 4 ".\\asp\\kernel\\time_event.h"
   1:.\asp\kernel/time_event.h **** /*
   2:.\asp\kernel/time_event.h ****  *  TOPPERS/ASP Kernel
   3:.\asp\kernel/time_event.h ****  *      Toyohashi Open Platform for Embedded Real-Time Systems/
   4:.\asp\kernel/time_event.h ****  *      Advanced Standard Profile Kernel
   5:.\asp\kernel/time_event.h ****  * 
   6:.\asp\kernel/time_event.h ****  *  Copyright (C) 2000-2003 by Embedded and Real-Time Systems Laboratory
   7:.\asp\kernel/time_event.h ****  *                              Toyohashi Univ. of Technology, JAPAN
   8:.\asp\kernel/time_event.h ****  *  Copyright (C) 2005-2010 by Embedded and Real-Time Systems Laboratory
   9:.\asp\kernel/time_event.h ****  *              Graduate School of Information Science, Nagoya Univ., JAPAN
  10:.\asp\kernel/time_event.h ****  * 
  11:.\asp\kernel/time_event.h ****  *  ã‹L’˜ìŒ Ò‚ÍCˆÈ‰º‚Ì(1)`(4)‚ÌğŒ‚ğ–‚½‚·ê‡‚ÉŒÀ‚èC–{ƒ\ƒtƒgƒEƒF
  12:.\asp\kernel/time_event.h ****  *  ƒAi–{ƒ\ƒtƒgƒEƒFƒA‚ğ‰ü•Ï‚µ‚½‚à‚Ì‚ğŠÜ‚ŞDˆÈ‰º“¯‚¶j‚ğg—pE•¡»E‰ü
  13:.\asp\kernel/time_event.h ****  *  •ÏEÄ”z•ziˆÈ‰ºC—˜—p‚ÆŒÄ‚Ôj‚·‚é‚±‚Æ‚ğ–³‚Å‹–‘ø‚·‚éD
ARM GAS  C:\TEMP\ccqvo2sw.s 			page 23


  14:.\asp\kernel/time_event.h ****  *  (1) –{ƒ\ƒtƒgƒEƒFƒA‚ğƒ\[ƒXƒR[ƒh‚ÌŒ`‚Å—˜—p‚·‚éê‡‚É‚ÍCã‹L‚Ì’˜ì
  15:.\asp\kernel/time_event.h ****  *      Œ •\¦C‚±‚Ì—˜—pğŒ‚¨‚æ‚Ñ‰º‹L‚Ì–³•ÛØ‹K’è‚ªC‚»‚Ì‚Ü‚Ü‚ÌŒ`‚Åƒ\[
  16:.\asp\kernel/time_event.h ****  *      ƒXƒR[ƒh’†‚ÉŠÜ‚Ü‚ê‚Ä‚¢‚é‚±‚ÆD
  17:.\asp\kernel/time_event.h ****  *  (2) –{ƒ\ƒtƒgƒEƒFƒA‚ğCƒ‰ƒCƒuƒ‰ƒŠŒ`®‚È‚ÇC‘¼‚Ìƒ\ƒtƒgƒEƒFƒAŠJ”­‚Ég
  18:.\asp\kernel/time_event.h ****  *      —p‚Å‚«‚éŒ`‚ÅÄ”z•z‚·‚éê‡‚É‚ÍCÄ”z•z‚É”º‚¤ƒhƒLƒ…ƒƒ“ƒgi—˜—p
  19:.\asp\kernel/time_event.h ****  *      Òƒ}ƒjƒ…ƒAƒ‹‚È‚Çj‚ÉCã‹L‚Ì’˜ìŒ •\¦C‚±‚Ì—˜—pğŒ‚¨‚æ‚Ñ‰º‹L
  20:.\asp\kernel/time_event.h ****  *      ‚Ì–³•ÛØ‹K’è‚ğŒfÚ‚·‚é‚±‚ÆD
  21:.\asp\kernel/time_event.h ****  *  (3) –{ƒ\ƒtƒgƒEƒFƒA‚ğC‹@Ší‚É‘g‚İ‚Ş‚È‚ÇC‘¼‚Ìƒ\ƒtƒgƒEƒFƒAŠJ”­‚Ég
  22:.\asp\kernel/time_event.h ****  *      —p‚Å‚«‚È‚¢Œ`‚ÅÄ”z•z‚·‚éê‡‚É‚ÍCŸ‚Ì‚¢‚¸‚ê‚©‚ÌğŒ‚ğ–‚½‚·‚±
  23:.\asp\kernel/time_event.h ****  *      ‚ÆD
  24:.\asp\kernel/time_event.h ****  *    (a) Ä”z•z‚É”º‚¤ƒhƒLƒ…ƒƒ“ƒgi—˜—pÒƒ}ƒjƒ…ƒAƒ‹‚È‚Çj‚ÉCã‹L‚Ì’˜
  25:.\asp\kernel/time_event.h ****  *        ìŒ •\¦C‚±‚Ì—˜—pğŒ‚¨‚æ‚Ñ‰º‹L‚Ì–³•ÛØ‹K’è‚ğŒfÚ‚·‚é‚±‚ÆD
  26:.\asp\kernel/time_event.h ****  *    (b) Ä”z•z‚ÌŒ`‘Ô‚ğC•Ê‚É’è‚ß‚é•û–@‚É‚æ‚Á‚ÄCTOPPERSƒvƒƒWƒFƒNƒg‚É
  27:.\asp\kernel/time_event.h ****  *        •ñ‚·‚é‚±‚ÆD
  28:.\asp\kernel/time_event.h ****  *  (4) –{ƒ\ƒtƒgƒEƒFƒA‚Ì—˜—p‚É‚æ‚è’¼Ú“I‚Ü‚½‚ÍŠÔÚ“I‚É¶‚¶‚é‚¢‚©‚È‚é‘¹
  29:.\asp\kernel/time_event.h ****  *      ŠQ‚©‚ç‚àCã‹L’˜ìŒ Ò‚¨‚æ‚ÑTOPPERSƒvƒƒWƒFƒNƒg‚ğ–ÆÓ‚·‚é‚±‚ÆD
  30:.\asp\kernel/time_event.h ****  *      ‚Ü‚½C–{ƒ\ƒtƒgƒEƒFƒA‚Ìƒ†[ƒU‚Ü‚½‚ÍƒGƒ“ƒhƒ†[ƒU‚©‚ç‚Ì‚¢‚©‚È‚é—
  31:.\asp\kernel/time_event.h ****  *      —R‚ÉŠî‚Ã‚­¿‹‚©‚ç‚àCã‹L’˜ìŒ Ò‚¨‚æ‚ÑTOPPERSƒvƒƒWƒFƒNƒg‚ğ
  32:.\asp\kernel/time_event.h ****  *      –ÆÓ‚·‚é‚±‚ÆD
  33:.\asp\kernel/time_event.h ****  * 
  34:.\asp\kernel/time_event.h ****  *  –{ƒ\ƒtƒgƒEƒFƒA‚ÍC–³•ÛØ‚Å’ñ‹Ÿ‚³‚ê‚Ä‚¢‚é‚à‚Ì‚Å‚ ‚éDã‹L’˜ìŒ Ò‚¨
  35:.\asp\kernel/time_event.h ****  *  ‚æ‚ÑTOPPERSƒvƒƒWƒFƒNƒg‚ÍC–{ƒ\ƒtƒgƒEƒFƒA‚ÉŠÖ‚µ‚ÄC“Á’è‚Ìg—p–Ú“I
  36:.\asp\kernel/time_event.h ****  *  ‚É‘Î‚·‚é“K‡«‚àŠÜ‚ß‚ÄC‚¢‚©‚È‚é•ÛØ‚às‚í‚È‚¢D‚Ü‚½C–{ƒ\ƒtƒgƒEƒF
  37:.\asp\kernel/time_event.h ****  *  ƒA‚Ì—˜—p‚É‚æ‚è’¼Ú“I‚Ü‚½‚ÍŠÔÚ“I‚É¶‚¶‚½‚¢‚©‚È‚é‘¹ŠQ‚ÉŠÖ‚µ‚Ä‚àC‚»
  38:.\asp\kernel/time_event.h ****  *  ‚ÌÓ”C‚ğ•‰‚í‚È‚¢D
  39:.\asp\kernel/time_event.h ****  * 
  40:.\asp\kernel/time_event.h ****  *  $Id: time_event.h 1774 2010-03-19 12:45:46Z ertl-hiro $
  41:.\asp\kernel/time_event.h ****  */
  42:.\asp\kernel/time_event.h **** 
  43:.\asp\kernel/time_event.h **** /*
  44:.\asp\kernel/time_event.h ****  *		ƒ^ƒCƒ€ƒCƒxƒ“ƒgŠÇ—ƒ‚ƒWƒ…[ƒ‹
  45:.\asp\kernel/time_event.h ****  */
  46:.\asp\kernel/time_event.h **** 
  47:.\asp\kernel/time_event.h **** #ifndef TOPPERS_TIME_EVENT_H
  48:.\asp\kernel/time_event.h **** #define TOPPERS_TIME_EVENT_H
  49:.\asp\kernel/time_event.h **** 
  50:.\asp\kernel/time_event.h **** /*
  51:.\asp\kernel/time_event.h ****  *  ƒCƒxƒ“ƒg”­¶‚Ìƒf[ƒ^Œ^‚Ì’è‹`
  52:.\asp\kernel/time_event.h ****  *
  53:.\asp\kernel/time_event.h ****  *  EVTTIM‚ÍCRELTIM‚Æ‚µ‚Äw’è‚Å‚«‚é”ÍˆÍ‚æ‚è‚àL‚¢”ÍˆÍ‚ğ•\Œ»‚Å‚«‚é•K—v
  54:.\asp\kernel/time_event.h ****  *  ‚ª‚ ‚éDƒÊITRON4.0d—l‚ÌƒXƒ^ƒ“ƒ_[ƒhƒvƒƒtƒ@ƒCƒ‹‚Å‚ÍCRELTIM‚ª16ƒrƒb
  55:.\asp\kernel/time_event.h ****  *  ƒgˆÈã‚Å‚È‚¯‚ê‚Î‚È‚ç‚È‚¢‚½‚ßCEVTTIM‚Í17ƒrƒbƒgˆÈã‚Å‚ ‚é‚±‚Æ‚ª•K—v
  56:.\asp\kernel/time_event.h ****  *  ‚Å‚ ‚éD‚»‚Ì‚½‚ßC16ƒrƒbƒg‚É‚È‚éê‡‚ª‚ ‚éuint_t‚Å‚Í‚È‚­Culong_t‚É
  57:.\asp\kernel/time_event.h ****  *  ’è‹`‚µ‚Ä‚¢‚éD
  58:.\asp\kernel/time_event.h ****  */
  59:.\asp\kernel/time_event.h **** typedef ulong_t	EVTTIM;
  60:.\asp\kernel/time_event.h **** 
  61:.\asp\kernel/time_event.h **** /* 
  62:.\asp\kernel/time_event.h ****  *  ƒ^ƒCƒ€ƒCƒxƒ“ƒgƒuƒƒbƒN‚Ìƒf[ƒ^Œ^‚Ì’è‹`
  63:.\asp\kernel/time_event.h ****  */
  64:.\asp\kernel/time_event.h **** typedef void	(*CBACK)(void *);	/* ƒR[ƒ‹ƒoƒbƒNŠÖ”‚ÌŒ^ */
  65:.\asp\kernel/time_event.h **** 
  66:.\asp\kernel/time_event.h **** typedef struct time_event_block {
  67:.\asp\kernel/time_event.h **** 	uint_t	index;			/* ƒ^ƒCƒ€ƒCƒxƒ“ƒgƒq[ƒv’†‚Å‚ÌˆÊ’u */
  68:.\asp\kernel/time_event.h **** 	CBACK	callback;		/* ƒR[ƒ‹ƒoƒbƒNŠÖ” */
  69:.\asp\kernel/time_event.h **** 	void	*arg;			/* ƒR[ƒ‹ƒoƒbƒNŠÖ”‚Ö“n‚·ˆø” */
  70:.\asp\kernel/time_event.h **** } TMEVTB;
ARM GAS  C:\TEMP\ccqvo2sw.s 			page 24


  71:.\asp\kernel/time_event.h **** 
  72:.\asp\kernel/time_event.h **** /*
  73:.\asp\kernel/time_event.h ****  *  ƒ^ƒCƒ€ƒCƒxƒ“ƒgƒq[ƒv’†‚Ìƒm[ƒh‚Ìƒf[ƒ^Œ^‚Ì’è‹`
  74:.\asp\kernel/time_event.h ****  */
  75:.\asp\kernel/time_event.h **** typedef struct time_event_node {
  76:.\asp\kernel/time_event.h **** 	EVTTIM	time;			/* ƒCƒxƒ“ƒg”­¶ */
  77:.\asp\kernel/time_event.h **** 	TMEVTB	*p_tmevtb;		/* ‘Î‰‚·‚éƒ^ƒCƒ€ƒCƒxƒ“ƒgƒuƒƒbƒN */
  78:.\asp\kernel/time_event.h **** } TMEVTN;
  79:.\asp\kernel/time_event.h **** 
  80:.\asp\kernel/time_event.h **** /*
  81:.\asp\kernel/time_event.h ****  *  ƒ^ƒCƒ€ƒCƒxƒ“ƒgƒq[ƒvikernel_cfg.cj
  82:.\asp\kernel/time_event.h ****  */
  83:.\asp\kernel/time_event.h **** extern TMEVTN	tmevt_heap[];
  84:.\asp\kernel/time_event.h **** 
  85:.\asp\kernel/time_event.h **** /*
  86:.\asp\kernel/time_event.h ****  *  Œ»İ‚ÌƒVƒXƒeƒ€i’PˆÊ: 1ƒ~ƒŠ•bj
  87:.\asp\kernel/time_event.h ****  *
  88:.\asp\kernel/time_event.h ****  *  ƒVƒXƒeƒ€‹N“®‚É0‚É‰Šú‰»‚³‚êCˆÈ~Cƒ^ƒCƒ€ƒeƒBƒbƒN‚ª‹Ÿ‹‹‚³‚ê‚é“x‚É
  89:.\asp\kernel/time_event.h ****  *  ’P’²‚É‘‰Á‚·‚éD
  90:.\asp\kernel/time_event.h ****  */
  91:.\asp\kernel/time_event.h **** extern EVTTIM	current_time;
  92:.\asp\kernel/time_event.h **** 
  93:.\asp\kernel/time_event.h **** /*
  94:.\asp\kernel/time_event.h ****  *  ƒ^ƒCƒ€ƒCƒxƒ“ƒgƒq[ƒv’†‚Å—LŒø‚ÈÅ¬‚ÌƒVƒXƒeƒ€i’PˆÊ: 1ƒ~ƒŠ•bj
  95:.\asp\kernel/time_event.h ****  */
  96:.\asp\kernel/time_event.h **** extern EVTTIM	min_time;
  97:.\asp\kernel/time_event.h **** 
  98:.\asp\kernel/time_event.h **** /*
  99:.\asp\kernel/time_event.h ****  *  Ÿ‚Ìƒ^ƒCƒ€ƒeƒBƒbƒN‚ÌƒVƒXƒeƒ€i’PˆÊ: 1ƒ~ƒŠ•bj
 100:.\asp\kernel/time_event.h ****  */
 101:.\asp\kernel/time_event.h **** extern EVTTIM	next_time;
 102:.\asp\kernel/time_event.h **** 
 103:.\asp\kernel/time_event.h **** /*
 104:.\asp\kernel/time_event.h ****  *  ƒVƒXƒeƒ€ÏZ—p•Ï”i’PˆÊ: 1/TIC_DENOƒ~ƒŠ•bj
 105:.\asp\kernel/time_event.h ****  *
 106:.\asp\kernel/time_event.h ****  *  Ÿ‚Ìƒ^ƒCƒ€ƒeƒBƒbƒN‚ÌƒVƒXƒeƒ€‚Ì‰ºˆÊŒ…‚ğ¦‚·iãˆÊŒ…‚Ínext_timejD
 107:.\asp\kernel/time_event.h ****  *  TIC_DENO‚ª1‚Ì‚ÍC‰ºˆÊŒ…‚Íí‚É0‚Å‚ ‚é‚½‚ßC‚±‚Ì•Ï”‚Í•K—v‚È‚¢D
 108:.\asp\kernel/time_event.h ****  */
 109:.\asp\kernel/time_event.h **** #if TIC_DENO != 1U
 110:.\asp\kernel/time_event.h **** extern uint_t	next_subtime;
 111:.\asp\kernel/time_event.h **** #endif /* TIC_DENO != 1U */
 112:.\asp\kernel/time_event.h **** 
 113:.\asp\kernel/time_event.h **** /*
 114:.\asp\kernel/time_event.h ****  *  ‘Š‘ÎŠÔ‚ÌŠî€i’PˆÊ: 1ƒ~ƒŠ•bj
 115:.\asp\kernel/time_event.h ****  *
 116:.\asp\kernel/time_event.h ****  *  Ÿ‚Ìƒ^ƒCƒ€ƒeƒBƒbƒN‚ÌƒVƒXƒeƒ€‚ğØ‚èã‚°‚½DTIC_DENO‚ª1‚Ì
 117:.\asp\kernel/time_event.h ****  *  ‚ÍCnext_time‚Éˆê’v‚·‚éD
 118:.\asp\kernel/time_event.h ****  */
 119:.\asp\kernel/time_event.h **** #if TIC_DENO == 1U
 120:.\asp\kernel/time_event.h **** #define	base_time	(next_time)
 121:.\asp\kernel/time_event.h **** #else /* TIC_DENO == 1U */
 122:.\asp\kernel/time_event.h **** #define	base_time	(next_time + (next_subtime > 0U ? 1U : 0U))
 123:.\asp\kernel/time_event.h **** #endif /* TIC_DENO == 1U */
 124:.\asp\kernel/time_event.h **** 
 125:.\asp\kernel/time_event.h **** /*
 126:.\asp\kernel/time_event.h ****  *  ƒ^ƒCƒ€ƒCƒxƒ“ƒgƒq[ƒv‚ÌÅŒã‚Ìg—p—Ìˆæ‚ÌƒCƒ“ƒfƒbƒNƒX
 127:.\asp\kernel/time_event.h ****  *
ARM GAS  C:\TEMP\ccqvo2sw.s 			page 25


 128:.\asp\kernel/time_event.h ****  *  ƒ^ƒCƒ€ƒCƒxƒ“ƒgƒq[ƒv‚É“o˜^‚³‚ê‚Ä‚¢‚éƒ^ƒCƒ€ƒCƒxƒ“ƒg‚Ì”‚Éˆê’v‚·‚éD
 129:.\asp\kernel/time_event.h ****  */
 130:.\asp\kernel/time_event.h **** extern uint_t	last_index;
 131:.\asp\kernel/time_event.h **** 
 132:.\asp\kernel/time_event.h **** /*
 133:.\asp\kernel/time_event.h ****  *  ƒ^ƒCƒ€ƒCƒxƒ“ƒgŠÇ—ƒ‚ƒWƒ…[ƒ‹‚Ì‰Šú‰»
 134:.\asp\kernel/time_event.h ****  */
 135:.\asp\kernel/time_event.h **** extern void	initialize_tmevt(void);
 136:.\asp\kernel/time_event.h **** 
 137:.\asp\kernel/time_event.h **** /*
 138:.\asp\kernel/time_event.h ****  *  ƒ^ƒCƒ€ƒCƒxƒ“ƒg‚Ì‘}“üˆÊ’u‚Ì’Tõ
 139:.\asp\kernel/time_event.h ****  */
 140:.\asp\kernel/time_event.h **** extern uint_t	tmevt_up(uint_t index, EVTTIM time);
 141:.\asp\kernel/time_event.h **** extern uint_t	tmevt_down(uint_t index, EVTTIM time);
 142:.\asp\kernel/time_event.h **** 
 143:.\asp\kernel/time_event.h **** /*
 144:.\asp\kernel/time_event.h ****  *  ƒ^ƒCƒ€ƒCƒxƒ“ƒgƒq[ƒv‚Ö‚Ì“o˜^‚Æíœ
 145:.\asp\kernel/time_event.h ****  */
 146:.\asp\kernel/time_event.h **** extern void	tmevtb_insert(TMEVTB *p_tmevtb, EVTTIM time);
 147:.\asp\kernel/time_event.h **** extern void	tmevtb_delete(TMEVTB *p_tmevtb);
 148:.\asp\kernel/time_event.h **** 
 149:.\asp\kernel/time_event.h **** /*
 150:.\asp\kernel/time_event.h ****  *  ƒ^ƒCƒ€ƒCƒxƒ“ƒgƒuƒƒbƒN‚Ì“o˜^i‘Š‘ÎŠÔw’èj
 151:.\asp\kernel/time_event.h ****  *
 152:.\asp\kernel/time_event.h ****  *  time‚Åw’è‚µ‚½‘Š‘ÎŠÔ‚ªŒo‰ß‚µ‚½Œã‚ÉCarg‚ğˆø”‚Æ‚µ‚Äcallback‚ªŒÄ
 153:.\asp\kernel/time_event.h ****  *  ‚Ño‚³‚ê‚é‚æ‚¤‚ÉCp_tmevtb‚Åw’è‚µ‚½ƒ^ƒCƒ€ƒCƒxƒ“ƒgƒuƒƒbƒN‚ğ“o˜^‚·
 154:.\asp\kernel/time_event.h ****  *  ‚éD
 155:.\asp\kernel/time_event.h ****  *  
 156:.\asp\kernel/time_event.h ****  */
 157:.\asp\kernel/time_event.h **** Inline void
 158:.\asp\kernel/time_event.h **** tmevtb_enqueue(TMEVTB *p_tmevtb, RELTIM time, CBACK callback, void *arg)
 159:.\asp\kernel/time_event.h **** {
 160:.\asp\kernel/time_event.h **** 	assert(time <= TMAX_RELTIM);
 161:.\asp\kernel/time_event.h **** 
 162:.\asp\kernel/time_event.h **** 	p_tmevtb->callback = callback;
 163:.\asp\kernel/time_event.h **** 	p_tmevtb->arg = arg;
 164:.\asp\kernel/time_event.h **** 	tmevtb_insert(p_tmevtb, base_time + time);
 165:.\asp\kernel/time_event.h **** }
 166:.\asp\kernel/time_event.h **** 
 167:.\asp\kernel/time_event.h **** /*
 168:.\asp\kernel/time_event.h ****  *  ƒ^ƒCƒ€ƒCƒxƒ“ƒgƒuƒƒbƒN‚Ì“o˜^iƒCƒxƒ“ƒg”­¶w’èj
 169:.\asp\kernel/time_event.h ****  *
 170:.\asp\kernel/time_event.h ****  *  time‚Åw’è‚µ‚½ƒCƒxƒ“ƒg”­¶‚ÉCarg‚ğˆø”‚Æ‚µ‚Äcallback‚ªŒÄ‚Ño
 171:.\asp\kernel/time_event.h ****  *  ‚³‚ê‚é‚æ‚¤‚ÉCp_tmevtb‚Åw’è‚µ‚½ƒ^ƒCƒ€ƒCƒxƒ“ƒgƒuƒƒbƒN‚ğ“o˜^‚·‚éD
 172:.\asp\kernel/time_event.h ****  */
 173:.\asp\kernel/time_event.h **** Inline void
 174:.\asp\kernel/time_event.h **** tmevtb_enqueue_evttim(TMEVTB *p_tmevtb, EVTTIM time, CBACK callback, void *arg)
 175:.\asp\kernel/time_event.h **** {
 176:.\asp\kernel/time_event.h **** 	p_tmevtb->callback = callback;
 177:.\asp\kernel/time_event.h **** 	p_tmevtb->arg = arg;
 178:.\asp\kernel/time_event.h **** 	tmevtb_insert(p_tmevtb, time);
 179:.\asp\kernel/time_event.h **** }
 180:.\asp\kernel/time_event.h **** 
 181:.\asp\kernel/time_event.h **** /*
 182:.\asp\kernel/time_event.h ****  *  ƒ^ƒCƒ€ƒCƒxƒ“ƒgƒuƒƒbƒN‚Ì“o˜^‰ğœ
 183:.\asp\kernel/time_event.h ****  */
 184:.\asp\kernel/time_event.h **** Inline void
ARM GAS  C:\TEMP\ccqvo2sw.s 			page 26


 185:.\asp\kernel/time_event.h **** tmevtb_dequeue(TMEVTB *p_tmevtb)
 186:.\asp\kernel/time_event.h **** {
 187:.\asp\kernel/time_event.h **** 	tmevtb_delete(p_tmevtb);
 424              		.loc 4 187 0
 425 0034 04F10800 		add	r0, r4, #8
 426              	.LVL32:
 427 0038 FFF7FEFF 		bl	_kernel_tmevtb_delete
 428              	.LVL33:
 429 003c 01E0     		b	.L32
 430              	.LVL34:
 431              	.L31:
 432              	.LBE81:
 433              	.LBE80:
 155:.\asp\kernel/alarm.c **** 		p_almcb->almsta = true;
 434              		.loc 3 155 0
 435 003e 0122     		movs	r2, #1
 436 0040 6260     		str	r2, [r4, #4]
 437              	.L32:
 438              	.LVL35:
 439              	.LBB82:
 440              	.LBB83:
 164:.\asp\kernel/time_event.h **** 	tmevtb_insert(p_tmevtb, base_time + time);
 441              		.loc 4 164 0
 442 0042 0E48     		ldr	r0, .L38+12
 162:.\asp\kernel/time_event.h **** 	p_tmevtb->callback = callback;
 443              		.loc 4 162 0
 444 0044 0E4B     		ldr	r3, .L38+16
 164:.\asp\kernel/time_event.h **** 	tmevtb_insert(p_tmevtb, base_time + time);
 445              		.loc 4 164 0
 446 0046 0168     		ldr	r1, [r0, #0]
 162:.\asp\kernel/time_event.h **** 	p_tmevtb->callback = callback;
 447              		.loc 4 162 0
 448 0048 E360     		str	r3, [r4, #12]
 164:.\asp\kernel/time_event.h **** 	tmevtb_insert(p_tmevtb, base_time + time);
 449              		.loc 4 164 0
 450 004a 04F10800 		add	r0, r4, #8
 451              	.LVL36:
 452 004e 6918     		adds	r1, r5, r1
 163:.\asp\kernel/time_event.h **** 	p_tmevtb->arg = arg;
 453              		.loc 4 163 0
 454 0050 2461     		str	r4, [r4, #16]
 164:.\asp\kernel/time_event.h **** 	tmevtb_insert(p_tmevtb, base_time + time);
 455              		.loc 4 164 0
 456 0052 FFF7FEFF 		bl	_kernel_tmevtb_insert
 457              	.LVL37:
 458              	.LBE83:
 459              	.LBE82:
 160:.\asp\kernel/alarm.c **** 	t_unlock_cpu();
 460              		.loc 3 160 0
 461 0056 FFF7FEFF 		bl	x_unlock_cpu
 462              	.LVL38:
 159:.\asp\kernel/alarm.c **** 	ercd = E_OK;
 463              		.loc 3 159 0
 464 005a 0020     		movs	r0, #0
 465 005c 38BD     		pop	{r3, r4, r5, pc}
 466              	.LVL39:
 467              	.L34:
ARM GAS  C:\TEMP\ccqvo2sw.s 			page 27


 145:.\asp\kernel/alarm.c **** 	CHECK_TSKCTX_UNL();
 468              		.loc 3 145 0
 469 005e 6FF01800 		mvn	r0, #24
 470 0062 38BD     		pop	{r3, r4, r5, pc}
 471              	.L36:
 146:.\asp\kernel/alarm.c **** 	CHECK_ALMID(almid);
 472              		.loc 3 146 0
 473 0064 6FF01100 		mvn	r0, #17
 474 0068 38BD     		pop	{r3, r4, r5, pc}
 475              	.L37:
 476              	.L30:
 147:.\asp\kernel/alarm.c **** 	CHECK_PAR(almtim <= TMAX_RELTIM);
 477              		.loc 3 147 0
 478 006a 6FF01000 		mvn	r0, #16
 479              	.LVL40:
 165:.\asp\kernel/alarm.c **** }
 480              		.loc 3 165 0
 481 006e 38BD     		pop	{r3, r4, r5, pc}
 482              	.L39:
 483              		.align	2
 484              	.L38:
 485 0070 00000000 		.word	_kernel_lock_flag
 486 0074 00000000 		.word	_kernel_tmax_almid
 487 0078 00000000 		.word	_kernel_almcb_table
 488 007c 00000000 		.word	_kernel_next_time
 489 0080 00000000 		.word	_kernel_call_almhdr
 490              		.cfi_endproc
 491              	.LFE48:
 492              		.size	sta_alm, .-sta_alm
 493              		.section	.text.ista_alm,"ax",%progbits
 494              		.align	1
 495              		.global	ista_alm
 496              		.thumb
 497              		.thumb_func
 498              		.type	ista_alm, %function
 499              	ista_alm:
 500              	.LFB49:
 176:.\asp\kernel/alarm.c **** {
 501              		.loc 3 176 0
 502              		.cfi_startproc
 503              		@ args = 0, pretend = 0, frame = 0
 504              		@ frame_needed = 0, uses_anonymous_args = 0
 505              	.LVL41:
 506 0000 38B5     		push	{r3, r4, r5, lr}
 507              	.LCFI3:
 508              		.cfi_def_cfa_offset 16
 509              		.cfi_offset 3, -16
 510              		.cfi_offset 4, -12
 511              		.cfi_offset 5, -8
 512              		.cfi_offset 14, -4
 176:.\asp\kernel/alarm.c **** {
 513              		.loc 3 176 0
 514 0002 0446     		mov	r4, r0
 515 0004 0D46     		mov	r5, r1
 181:.\asp\kernel/alarm.c **** 	CHECK_INTCTX_UNL();
 516              		.loc 3 181 0
 517 0006 FFF7FEFF 		bl	sense_context
ARM GAS  C:\TEMP\ccqvo2sw.s 			page 28


 518              	.LVL42:
 519 000a 40B3     		cbz	r0, .L45
 520              	.LBB90:
 521              	.LBB91:
 247:.\asp\arch\arm_m_gcc\common/core_config.h **** 	return(lock_flag);
 522              		.loc 1 247 0
 523 000c 184B     		ldr	r3, .L49
 524 000e 1868     		ldr	r0, [r3, #0]
 525              	.LBE91:
 526              	.LBE90:
 181:.\asp\kernel/alarm.c **** 	CHECK_INTCTX_UNL();
 527              		.loc 3 181 0
 528 0010 28BB     		cbnz	r0, .L45
 182:.\asp\kernel/alarm.c **** 	CHECK_ALMID(almid);
 529              		.loc 3 182 0
 530 0012 002C     		cmp	r4, #0
 531 0014 26DD     		ble	.L47
 182:.\asp\kernel/alarm.c **** 	CHECK_ALMID(almid);
 532              		.loc 3 182 0 is_stmt 0 discriminator 2
 533 0016 1749     		ldr	r1, .L49+4
 534 0018 0A68     		ldr	r2, [r1, #0]
 535 001a 9442     		cmp	r4, r2
 536 001c 22DC     		bgt	.L47
 183:.\asp\kernel/alarm.c **** 	CHECK_PAR(almtim <= TMAX_RELTIM);
 537              		.loc 3 183 0 is_stmt 1
 538 001e 002D     		cmp	r5, #0
 539 0020 23DB     		blt	.L48
 184:.\asp\kernel/alarm.c **** 	p_almcb = get_almcb(almid);
 540              		.loc 3 184 0
 541 0022 154B     		ldr	r3, .L49+8
 542 0024 1420     		movs	r0, #20
 543 0026 013C     		subs	r4, r4, #1
 544              	.LVL43:
 545 0028 00FB0434 		mla	r4, r0, r4, r3
 546              	.LVL44:
 186:.\asp\kernel/alarm.c **** 	i_lock_cpu();
 547              		.loc 3 186 0
 548 002c FFF7FEFF 		bl	x_lock_cpu
 549              	.LVL45:
 187:.\asp\kernel/alarm.c **** 	if (p_almcb->almsta) {
 550              		.loc 3 187 0
 551 0030 6168     		ldr	r1, [r4, #4]
 552 0032 21B1     		cbz	r1, .L42
 553              	.LVL46:
 554              	.LBB92:
 555              	.LBB93:
 556              		.loc 4 187 0
 557 0034 04F10800 		add	r0, r4, #8
 558              	.LVL47:
 559 0038 FFF7FEFF 		bl	_kernel_tmevtb_delete
 560              	.LVL48:
 561 003c 01E0     		b	.L43
 562              	.LVL49:
 563              	.L42:
 564              	.LBE93:
 565              	.LBE92:
 191:.\asp\kernel/alarm.c **** 		p_almcb->almsta = true;
ARM GAS  C:\TEMP\ccqvo2sw.s 			page 29


 566              		.loc 3 191 0
 567 003e 0122     		movs	r2, #1
 568 0040 6260     		str	r2, [r4, #4]
 569              	.L43:
 570              	.LVL50:
 571              	.LBB94:
 572              	.LBB95:
 164:.\asp\kernel/time_event.h **** 	tmevtb_insert(p_tmevtb, base_time + time);
 573              		.loc 4 164 0
 574 0042 0E48     		ldr	r0, .L49+12
 162:.\asp\kernel/time_event.h **** 	p_tmevtb->callback = callback;
 575              		.loc 4 162 0
 576 0044 0E4B     		ldr	r3, .L49+16
 164:.\asp\kernel/time_event.h **** 	tmevtb_insert(p_tmevtb, base_time + time);
 577              		.loc 4 164 0
 578 0046 0168     		ldr	r1, [r0, #0]
 162:.\asp\kernel/time_event.h **** 	p_tmevtb->callback = callback;
 579              		.loc 4 162 0
 580 0048 E360     		str	r3, [r4, #12]
 164:.\asp\kernel/time_event.h **** 	tmevtb_insert(p_tmevtb, base_time + time);
 581              		.loc 4 164 0
 582 004a 04F10800 		add	r0, r4, #8
 583              	.LVL51:
 584 004e 6918     		adds	r1, r5, r1
 163:.\asp\kernel/time_event.h **** 	p_tmevtb->arg = arg;
 585              		.loc 4 163 0
 586 0050 2461     		str	r4, [r4, #16]
 164:.\asp\kernel/time_event.h **** 	tmevtb_insert(p_tmevtb, base_time + time);
 587              		.loc 4 164 0
 588 0052 FFF7FEFF 		bl	_kernel_tmevtb_insert
 589              	.LVL52:
 590              	.LBE95:
 591              	.LBE94:
 196:.\asp\kernel/alarm.c **** 	i_unlock_cpu();
 592              		.loc 3 196 0
 593 0056 FFF7FEFF 		bl	x_unlock_cpu
 594              	.LVL53:
 195:.\asp\kernel/alarm.c **** 	ercd = E_OK;
 595              		.loc 3 195 0
 596 005a 0020     		movs	r0, #0
 597 005c 38BD     		pop	{r3, r4, r5, pc}
 598              	.LVL54:
 599              	.L45:
 181:.\asp\kernel/alarm.c **** 	CHECK_INTCTX_UNL();
 600              		.loc 3 181 0
 601 005e 6FF01800 		mvn	r0, #24
 602 0062 38BD     		pop	{r3, r4, r5, pc}
 603              	.L47:
 182:.\asp\kernel/alarm.c **** 	CHECK_ALMID(almid);
 604              		.loc 3 182 0
 605 0064 6FF01100 		mvn	r0, #17
 606 0068 38BD     		pop	{r3, r4, r5, pc}
 607              	.L48:
 608              	.L41:
 183:.\asp\kernel/alarm.c **** 	CHECK_PAR(almtim <= TMAX_RELTIM);
 609              		.loc 3 183 0
 610 006a 6FF01000 		mvn	r0, #16
ARM GAS  C:\TEMP\ccqvo2sw.s 			page 30


 611              	.LVL55:
 201:.\asp\kernel/alarm.c **** }
 612              		.loc 3 201 0
 613 006e 38BD     		pop	{r3, r4, r5, pc}
 614              	.L50:
 615              		.align	2
 616              	.L49:
 617 0070 00000000 		.word	_kernel_lock_flag
 618 0074 00000000 		.word	_kernel_tmax_almid
 619 0078 00000000 		.word	_kernel_almcb_table
 620 007c 00000000 		.word	_kernel_next_time
 621 0080 00000000 		.word	_kernel_call_almhdr
 622              		.cfi_endproc
 623              	.LFE49:
 624              		.size	ista_alm, .-ista_alm
 625              		.section	.text.stp_alm,"ax",%progbits
 626              		.align	1
 627              		.global	stp_alm
 628              		.thumb
 629              		.thumb_func
 630              		.type	stp_alm, %function
 631              	stp_alm:
 632              	.LFB50:
 212:.\asp\kernel/alarm.c **** {
 633              		.loc 3 212 0
 634              		.cfi_startproc
 635              		@ args = 0, pretend = 0, frame = 0
 636              		@ frame_needed = 0, uses_anonymous_args = 0
 637              	.LVL56:
 638 0000 38B5     		push	{r3, r4, r5, lr}
 639              	.LCFI4:
 640              		.cfi_def_cfa_offset 16
 641              		.cfi_offset 3, -16
 642              		.cfi_offset 4, -12
 643              		.cfi_offset 5, -8
 644              		.cfi_offset 14, -4
 212:.\asp\kernel/alarm.c **** {
 645              		.loc 3 212 0
 646 0002 0446     		mov	r4, r0
 217:.\asp\kernel/alarm.c **** 	CHECK_TSKCTX_UNL();
 647              		.loc 3 217 0
 648 0004 FFF7FEFF 		bl	sense_context
 649              	.LVL57:
 650 0008 D0B9     		cbnz	r0, .L55
 651              	.LBB96:
 652              	.LBB97:
 247:.\asp\arch\arm_m_gcc\common/core_config.h **** 	return(lock_flag);
 653              		.loc 1 247 0
 654 000a 104B     		ldr	r3, .L61
 655 000c 1D68     		ldr	r5, [r3, #0]
 656              	.LBE97:
 657              	.LBE96:
 217:.\asp\kernel/alarm.c **** 	CHECK_TSKCTX_UNL();
 658              		.loc 3 217 0
 659 000e BDB9     		cbnz	r5, .L55
 218:.\asp\kernel/alarm.c **** 	CHECK_ALMID(almid);
 660              		.loc 3 218 0
ARM GAS  C:\TEMP\ccqvo2sw.s 			page 31


 661 0010 002C     		cmp	r4, #0
 662 0012 18DD     		ble	.L57
 218:.\asp\kernel/alarm.c **** 	CHECK_ALMID(almid);
 663              		.loc 3 218 0 is_stmt 0 discriminator 2
 664 0014 0E48     		ldr	r0, .L61+4
 665 0016 0168     		ldr	r1, [r0, #0]
 666 0018 8C42     		cmp	r4, r1
 667 001a 14DC     		bgt	.L57
 219:.\asp\kernel/alarm.c **** 	p_almcb = get_almcb(almid);
 668              		.loc 3 219 0 is_stmt 1
 669 001c 0D4B     		ldr	r3, .L61+8
 670 001e 1422     		movs	r2, #20
 671 0020 013C     		subs	r4, r4, #1
 672              	.LVL58:
 673 0022 02FB0434 		mla	r4, r2, r4, r3
 674              	.LVL59:
 221:.\asp\kernel/alarm.c **** 	t_lock_cpu();
 675              		.loc 3 221 0
 676 0026 FFF7FEFF 		bl	x_lock_cpu
 677              	.LVL60:
 222:.\asp\kernel/alarm.c **** 	if (p_almcb->almsta) {
 678              		.loc 3 222 0
 679 002a 6068     		ldr	r0, [r4, #4]
 680 002c 20B1     		cbz	r0, .L53
 223:.\asp\kernel/alarm.c **** 		p_almcb->almsta = false;
 681              		.loc 3 223 0
 682 002e 6560     		str	r5, [r4, #4]
 683              	.LVL61:
 684              	.LBB98:
 685              	.LBB99:
 686              		.loc 4 187 0
 687 0030 04F10800 		add	r0, r4, #8
 688              	.LVL62:
 689 0034 FFF7FEFF 		bl	_kernel_tmevtb_delete
 690              	.LVL63:
 691              	.L53:
 692              	.LBE99:
 693              	.LBE98:
 227:.\asp\kernel/alarm.c **** 	t_unlock_cpu();
 694              		.loc 3 227 0
 695 0038 FFF7FEFF 		bl	x_unlock_cpu
 696              	.LVL64:
 226:.\asp\kernel/alarm.c **** 	ercd = E_OK;
 697              		.loc 3 226 0
 698 003c 0020     		movs	r0, #0
 699 003e 38BD     		pop	{r3, r4, r5, pc}
 700              	.LVL65:
 701              	.L55:
 217:.\asp\kernel/alarm.c **** 	CHECK_TSKCTX_UNL();
 702              		.loc 3 217 0
 703 0040 6FF01800 		mvn	r0, #24
 704 0044 38BD     		pop	{r3, r4, r5, pc}
 705              	.L57:
 706              	.L52:
 218:.\asp\kernel/alarm.c **** 	CHECK_ALMID(almid);
 707              		.loc 3 218 0
 708 0046 6FF01100 		mvn	r0, #17
ARM GAS  C:\TEMP\ccqvo2sw.s 			page 32


 709              	.LVL66:
 232:.\asp\kernel/alarm.c **** }
 710              		.loc 3 232 0
 711 004a 38BD     		pop	{r3, r4, r5, pc}
 712              	.L62:
 713              		.align	2
 714              	.L61:
 715 004c 00000000 		.word	_kernel_lock_flag
 716 0050 00000000 		.word	_kernel_tmax_almid
 717 0054 00000000 		.word	_kernel_almcb_table
 718              		.cfi_endproc
 719              	.LFE50:
 720              		.size	stp_alm, .-stp_alm
 721              		.section	.text.istp_alm,"ax",%progbits
 722              		.align	1
 723              		.global	istp_alm
 724              		.thumb
 725              		.thumb_func
 726              		.type	istp_alm, %function
 727              	istp_alm:
 728              	.LFB51:
 243:.\asp\kernel/alarm.c **** {
 729              		.loc 3 243 0
 730              		.cfi_startproc
 731              		@ args = 0, pretend = 0, frame = 0
 732              		@ frame_needed = 0, uses_anonymous_args = 0
 733              	.LVL67:
 734 0000 38B5     		push	{r3, r4, r5, lr}
 735              	.LCFI5:
 736              		.cfi_def_cfa_offset 16
 737              		.cfi_offset 3, -16
 738              		.cfi_offset 4, -12
 739              		.cfi_offset 5, -8
 740              		.cfi_offset 14, -4
 243:.\asp\kernel/alarm.c **** {
 741              		.loc 3 243 0
 742 0002 0446     		mov	r4, r0
 248:.\asp\kernel/alarm.c **** 	CHECK_INTCTX_UNL();
 743              		.loc 3 248 0
 744 0004 FFF7FEFF 		bl	sense_context
 745              	.LVL68:
 746 0008 D0B1     		cbz	r0, .L67
 747              	.LBB100:
 748              	.LBB101:
 247:.\asp\arch\arm_m_gcc\common/core_config.h **** 	return(lock_flag);
 749              		.loc 1 247 0
 750 000a 104B     		ldr	r3, .L73
 751 000c 1D68     		ldr	r5, [r3, #0]
 752              	.LBE101:
 753              	.LBE100:
 248:.\asp\kernel/alarm.c **** 	CHECK_INTCTX_UNL();
 754              		.loc 3 248 0
 755 000e BDB9     		cbnz	r5, .L67
 249:.\asp\kernel/alarm.c **** 	CHECK_ALMID(almid);
 756              		.loc 3 249 0
 757 0010 002C     		cmp	r4, #0
 758 0012 18DD     		ble	.L69
ARM GAS  C:\TEMP\ccqvo2sw.s 			page 33


 249:.\asp\kernel/alarm.c **** 	CHECK_ALMID(almid);
 759              		.loc 3 249 0 is_stmt 0 discriminator 2
 760 0014 0E48     		ldr	r0, .L73+4
 761 0016 0168     		ldr	r1, [r0, #0]
 762 0018 8C42     		cmp	r4, r1
 763 001a 14DC     		bgt	.L69
 250:.\asp\kernel/alarm.c **** 	p_almcb = get_almcb(almid);
 764              		.loc 3 250 0 is_stmt 1
 765 001c 0D4B     		ldr	r3, .L73+8
 766 001e 1422     		movs	r2, #20
 767 0020 013C     		subs	r4, r4, #1
 768              	.LVL69:
 769 0022 02FB0434 		mla	r4, r2, r4, r3
 770              	.LVL70:
 252:.\asp\kernel/alarm.c **** 	i_lock_cpu();
 771              		.loc 3 252 0
 772 0026 FFF7FEFF 		bl	x_lock_cpu
 773              	.LVL71:
 253:.\asp\kernel/alarm.c **** 	if (p_almcb->almsta) {
 774              		.loc 3 253 0
 775 002a 6068     		ldr	r0, [r4, #4]
 776 002c 20B1     		cbz	r0, .L65
 254:.\asp\kernel/alarm.c **** 		p_almcb->almsta = false;
 777              		.loc 3 254 0
 778 002e 6560     		str	r5, [r4, #4]
 779              	.LVL72:
 780              	.LBB102:
 781              	.LBB103:
 782              		.loc 4 187 0
 783 0030 04F10800 		add	r0, r4, #8
 784              	.LVL73:
 785 0034 FFF7FEFF 		bl	_kernel_tmevtb_delete
 786              	.LVL74:
 787              	.L65:
 788              	.LBE103:
 789              	.LBE102:
 258:.\asp\kernel/alarm.c **** 	i_unlock_cpu();
 790              		.loc 3 258 0
 791 0038 FFF7FEFF 		bl	x_unlock_cpu
 792              	.LVL75:
 257:.\asp\kernel/alarm.c **** 	ercd = E_OK;
 793              		.loc 3 257 0
 794 003c 0020     		movs	r0, #0
 795 003e 38BD     		pop	{r3, r4, r5, pc}
 796              	.LVL76:
 797              	.L67:
 248:.\asp\kernel/alarm.c **** 	CHECK_INTCTX_UNL();
 798              		.loc 3 248 0
 799 0040 6FF01800 		mvn	r0, #24
 800 0044 38BD     		pop	{r3, r4, r5, pc}
 801              	.L69:
 802              	.L64:
 249:.\asp\kernel/alarm.c **** 	CHECK_ALMID(almid);
 803              		.loc 3 249 0
 804 0046 6FF01100 		mvn	r0, #17
 805              	.LVL77:
 263:.\asp\kernel/alarm.c **** }
ARM GAS  C:\TEMP\ccqvo2sw.s 			page 34


 806              		.loc 3 263 0
 807 004a 38BD     		pop	{r3, r4, r5, pc}
 808              	.L74:
 809              		.align	2
 810              	.L73:
 811 004c 00000000 		.word	_kernel_lock_flag
 812 0050 00000000 		.word	_kernel_tmax_almid
 813 0054 00000000 		.word	_kernel_almcb_table
 814              		.cfi_endproc
 815              	.LFE51:
 816              		.size	istp_alm, .-istp_alm
 817              		.section	.text.ref_alm,"ax",%progbits
 818              		.align	1
 819              		.global	ref_alm
 820              		.thumb
 821              		.thumb_func
 822              		.type	ref_alm, %function
 823              	ref_alm:
 824              	.LFB52:
 274:.\asp\kernel/alarm.c **** {
 825              		.loc 3 274 0
 826              		.cfi_startproc
 827              		@ args = 0, pretend = 0, frame = 0
 828              		@ frame_needed = 0, uses_anonymous_args = 0
 829              	.LVL78:
 830 0000 38B5     		push	{r3, r4, r5, lr}
 831              	.LCFI6:
 832              		.cfi_def_cfa_offset 16
 833              		.cfi_offset 3, -16
 834              		.cfi_offset 4, -12
 835              		.cfi_offset 5, -8
 836              		.cfi_offset 14, -4
 274:.\asp\kernel/alarm.c **** {
 837              		.loc 3 274 0
 838 0002 0546     		mov	r5, r0
 839 0004 0C46     		mov	r4, r1
 279:.\asp\kernel/alarm.c **** 	CHECK_TSKCTX_UNL();
 840              		.loc 3 279 0
 841 0006 FFF7FEFF 		bl	sense_context
 842              	.LVL79:
 843 000a F8B9     		cbnz	r0, .L80
 844              	.LBB104:
 845              	.LBB105:
 247:.\asp\arch\arm_m_gcc\common/core_config.h **** 	return(lock_flag);
 846              		.loc 1 247 0
 847 000c 124B     		ldr	r3, .L83
 848 000e 1868     		ldr	r0, [r3, #0]
 849              	.LBE105:
 850              	.LBE104:
 279:.\asp\kernel/alarm.c **** 	CHECK_TSKCTX_UNL();
 851              		.loc 3 279 0
 852 0010 E0B9     		cbnz	r0, .L80
 280:.\asp\kernel/alarm.c **** 	CHECK_ALMID(almid);
 853              		.loc 3 280 0
 854 0012 002D     		cmp	r5, #0
 855 0014 1DDD     		ble	.L82
 280:.\asp\kernel/alarm.c **** 	CHECK_ALMID(almid);
ARM GAS  C:\TEMP\ccqvo2sw.s 			page 35


 856              		.loc 3 280 0 is_stmt 0 discriminator 2
 857 0016 1149     		ldr	r1, .L83+4
 858 0018 0A68     		ldr	r2, [r1, #0]
 859 001a 9542     		cmp	r5, r2
 860 001c 19DC     		bgt	.L82
 281:.\asp\kernel/alarm.c **** 	p_almcb = get_almcb(almid);
 861              		.loc 3 281 0 is_stmt 1
 862 001e 104B     		ldr	r3, .L83+8
 863 0020 1420     		movs	r0, #20
 864 0022 013D     		subs	r5, r5, #1
 865              	.LVL80:
 866 0024 00FB0535 		mla	r5, r0, r5, r3
 867              	.LVL81:
 283:.\asp\kernel/alarm.c **** 	t_lock_cpu();
 868              		.loc 3 283 0
 869 0028 FFF7FEFF 		bl	x_lock_cpu
 870              	.LVL82:
 284:.\asp\kernel/alarm.c **** 	if (p_almcb->almsta) {
 871              		.loc 3 284 0
 872 002c 6968     		ldr	r1, [r5, #4]
 873 002e 39B1     		cbz	r1, .L77
 285:.\asp\kernel/alarm.c **** 		pk_ralm->almstat = TALM_STA;
 874              		.loc 3 285 0
 875 0030 0223     		movs	r3, #2
 876 0032 2360     		str	r3, [r4, #0]
 286:.\asp\kernel/alarm.c **** 		pk_ralm->lefttim = tmevt_lefttim(&(p_almcb->tmevtb));
 877              		.loc 3 286 0
 878 0034 05F10800 		add	r0, r5, #8
 879 0038 FFF7FEFF 		bl	_kernel_tmevt_lefttim
 880              	.LVL83:
 881 003c 6060     		str	r0, [r4, #4]
 882 003e 01E0     		b	.L78
 883              	.L77:
 289:.\asp\kernel/alarm.c **** 		pk_ralm->almstat = TALM_STP;
 884              		.loc 3 289 0
 885 0040 0122     		movs	r2, #1
 886 0042 2260     		str	r2, [r4, #0]
 887              	.L78:
 888              	.LVL84:
 292:.\asp\kernel/alarm.c **** 	t_unlock_cpu();
 889              		.loc 3 292 0
 890 0044 FFF7FEFF 		bl	x_unlock_cpu
 891              	.LVL85:
 291:.\asp\kernel/alarm.c **** 	ercd = E_OK;
 892              		.loc 3 291 0
 893 0048 0020     		movs	r0, #0
 894 004a 38BD     		pop	{r3, r4, r5, pc}
 895              	.LVL86:
 896              	.L80:
 279:.\asp\kernel/alarm.c **** 	CHECK_TSKCTX_UNL();
 897              		.loc 3 279 0
 898 004c 6FF01800 		mvn	r0, #24
 899 0050 38BD     		pop	{r3, r4, r5, pc}
 900              	.L82:
 901              	.L76:
 280:.\asp\kernel/alarm.c **** 	CHECK_ALMID(almid);
 902              		.loc 3 280 0
ARM GAS  C:\TEMP\ccqvo2sw.s 			page 36


 903 0052 6FF01100 		mvn	r0, #17
 904              	.LVL87:
 297:.\asp\kernel/alarm.c **** }
 905              		.loc 3 297 0
 906 0056 38BD     		pop	{r3, r4, r5, pc}
 907              	.L84:
 908              		.align	2
 909              	.L83:
 910 0058 00000000 		.word	_kernel_lock_flag
 911 005c 00000000 		.word	_kernel_tmax_almid
 912 0060 00000000 		.word	_kernel_almcb_table
 913              		.cfi_endproc
 914              	.LFE52:
 915              		.size	ref_alm, .-ref_alm
 916              		.text
 917              	.Letext0:
 918              		.file 5 ".\\asp\\arch\\gcc/tool_stddef.h"
 919              		.file 6 ".\\asp\\include/t_stddef.h"
 920              		.file 7 ".\\asp\\include/kernel.h"
 921              		.file 8 ".\\asp\\kernel\\alarm.h"