ARM GAS  C:\TEMP\ccRLkGcE.s 			page 1


   1              		.syntax unified
   2              		.cpu cortex-m3
   3              		.fpu softvfp
   4              		.eabi_attribute 20, 1
   5              		.eabi_attribute 21, 1
   6              		.eabi_attribute 23, 3
   7              		.eabi_attribute 24, 1
   8              		.eabi_attribute 25, 1
   9              		.eabi_attribute 26, 1
  10              		.eabi_attribute 30, 4
  11              		.eabi_attribute 34, 1
  12              		.eabi_attribute 18, 4
  13              		.thumb
  14              		.file	"core_config.c"
  15              		.text
  16              	.Ltext0:
  17              		.cfi_sections	.debug_frame
  18              		.section	.text._kernel_set_exc_int_priority,"ax",%progbits
  19              		.align	1
  20              		.global	_kernel_set_exc_int_priority
  21              		.thumb
  22              		.thumb_func
  23              		.type	_kernel_set_exc_int_priority, %function
  24              	_kernel_set_exc_int_priority:
  25              	.LFB53:
  26              		.file 1 ".\\asp\\arch\\arm_m_gcc\\common\\core_config.c"
   1:.\asp\arch\arm_m_gcc\common/core_config.c **** /*
   2:.\asp\arch\arm_m_gcc\common/core_config.c ****  *  TOPPERS/ASP Kernel
   3:.\asp\arch\arm_m_gcc\common/core_config.c ****  *      Toyohashi Open Platform for Embedded Real-Time Systems/
   4:.\asp\arch\arm_m_gcc\common/core_config.c ****  *      Advanced Standard Profile Kernel
   5:.\asp\arch\arm_m_gcc\common/core_config.c ****  * 
   6:.\asp\arch\arm_m_gcc\common/core_config.c ****  *  Copyright (C) 2008-2011 by Embedded and Real-Time Systems Laboratory
   7:.\asp\arch\arm_m_gcc\common/core_config.c ****  *              Graduate School of Information Science, Nagoya Univ., JAPAN
   8:.\asp\arch\arm_m_gcc\common/core_config.c ****  * 
   9:.\asp\arch\arm_m_gcc\common/core_config.c ****  *  上記著作権者は，以下の(1)〜(4)の条件を満たす場合に限り，本ソフトウェ
  10:.\asp\arch\arm_m_gcc\common/core_config.c ****  *  ア（本ソフトウェアを改変したものを含む．以下同じ）を使用・複製・改
  11:.\asp\arch\arm_m_gcc\common/core_config.c ****  *  変・再配布（以下，利用と呼ぶ）することを無償で許諾する．
  12:.\asp\arch\arm_m_gcc\common/core_config.c ****  *  (1) 本ソフトウェアをソースコードの形で利用する場合には，上記の著作
  13:.\asp\arch\arm_m_gcc\common/core_config.c ****  *      権表示，この利用条件および下記の無保証規定が，そのままの形でソー
  14:.\asp\arch\arm_m_gcc\common/core_config.c ****  *      スコード中に含まれていること．
  15:.\asp\arch\arm_m_gcc\common/core_config.c ****  *  (2) 本ソフトウェアを，ライブラリ形式など，他のソフトウェア開発に使
  16:.\asp\arch\arm_m_gcc\common/core_config.c ****  *      用できる形で再配布する場合には，再配布に伴うドキュメント（利用
  17:.\asp\arch\arm_m_gcc\common/core_config.c ****  *      者マニュアルなど）に，上記の著作権表示，この利用条件および下記
  18:.\asp\arch\arm_m_gcc\common/core_config.c ****  *      の無保証規定を掲載すること．
  19:.\asp\arch\arm_m_gcc\common/core_config.c ****  *  (3) 本ソフトウェアを，機器に組み込むなど，他のソフトウェア開発に使
  20:.\asp\arch\arm_m_gcc\common/core_config.c ****  *      用できない形で再配布する場合には，次のいずれかの条件を満たすこ
  21:.\asp\arch\arm_m_gcc\common/core_config.c ****  *      と．
  22:.\asp\arch\arm_m_gcc\common/core_config.c ****  *    (a) 再配布に伴うドキュメント（利用者マニュアルなど）に，上記の著
  23:.\asp\arch\arm_m_gcc\common/core_config.c ****  *        作権表示，この利用条件および下記の無保証規定を掲載すること．
  24:.\asp\arch\arm_m_gcc\common/core_config.c ****  *    (b) 再配布の形態を，別に定める方法によって，TOPPERSプロジェクトに
  25:.\asp\arch\arm_m_gcc\common/core_config.c ****  *        報告すること．
  26:.\asp\arch\arm_m_gcc\common/core_config.c ****  *  (4) 本ソフトウェアの利用により直接的または間接的に生じるいかなる損
  27:.\asp\arch\arm_m_gcc\common/core_config.c ****  *      害からも，上記著作権者およびTOPPERSプロジェクトを免責すること．
  28:.\asp\arch\arm_m_gcc\common/core_config.c ****  *      また，本ソフトウェアのユーザまたはエンドユーザからのいかなる理
  29:.\asp\arch\arm_m_gcc\common/core_config.c ****  *      由に基づく請求からも，上記著作権者およびTOPPERSプロジェクトを
  30:.\asp\arch\arm_m_gcc\common/core_config.c ****  *      免責すること．
  31:.\asp\arch\arm_m_gcc\common/core_config.c ****  * 
ARM GAS  C:\TEMP\ccRLkGcE.s 			page 2


  32:.\asp\arch\arm_m_gcc\common/core_config.c ****  *  本ソフトウェアは，無保証で提供されているものである．上記著作権者お
  33:.\asp\arch\arm_m_gcc\common/core_config.c ****  *  よびTOPPERSプロジェクトは，本ソフトウェアに関して，特定の使用目的
  34:.\asp\arch\arm_m_gcc\common/core_config.c ****  *  に対する適合性も含めて，いかなる保証も行わない．また，本ソフトウェ
  35:.\asp\arch\arm_m_gcc\common/core_config.c ****  *  アの利用により直接的または間接的に生じたいかなる損害に関しても，そ
  36:.\asp\arch\arm_m_gcc\common/core_config.c ****  *  の責任を負わない．
  37:.\asp\arch\arm_m_gcc\common/core_config.c ****  * 
  38:.\asp\arch\arm_m_gcc\common/core_config.c ****  *  @(#) $Id: core_config.c 2193 2011-07-25 04:34:11Z ertl-honda $
  39:.\asp\arch\arm_m_gcc\common/core_config.c ****  */
  40:.\asp\arch\arm_m_gcc\common/core_config.c **** 
  41:.\asp\arch\arm_m_gcc\common/core_config.c **** /*
  42:.\asp\arch\arm_m_gcc\common/core_config.c ****  *		コア依存モジュール（ARM-M用）
  43:.\asp\arch\arm_m_gcc\common/core_config.c ****  */
  44:.\asp\arch\arm_m_gcc\common/core_config.c **** 
  45:.\asp\arch\arm_m_gcc\common/core_config.c **** #include "kernel_impl.h"
  46:.\asp\arch\arm_m_gcc\common/core_config.c **** #include "check.h"
  47:.\asp\arch\arm_m_gcc\common/core_config.c **** #include "task.h"
  48:.\asp\arch\arm_m_gcc\common/core_config.c **** 
  49:.\asp\arch\arm_m_gcc\common/core_config.c **** /*
  50:.\asp\arch\arm_m_gcc\common/core_config.c ****  *  CPUロックフラグ実現のための変数
  51:.\asp\arch\arm_m_gcc\common/core_config.c ****  */
  52:.\asp\arch\arm_m_gcc\common/core_config.c **** volatile bool_t		lock_flag;		/* CPUロックフラグの値を保持する変数 */
  53:.\asp\arch\arm_m_gcc\common/core_config.c **** volatile uint32_t	saved_iipm;		/* 割込み優先度マスクを保存する変数 */
  54:.\asp\arch\arm_m_gcc\common/core_config.c **** 
  55:.\asp\arch\arm_m_gcc\common/core_config.c **** /*
  56:.\asp\arch\arm_m_gcc\common/core_config.c ****  *  ベクタテーブル(kernel_cfg.c)
  57:.\asp\arch\arm_m_gcc\common/core_config.c ****  */
  58:.\asp\arch\arm_m_gcc\common/core_config.c **** extern const FP vector_table[];
  59:.\asp\arch\arm_m_gcc\common/core_config.c **** 
  60:.\asp\arch\arm_m_gcc\common/core_config.c **** /*
  61:.\asp\arch\arm_m_gcc\common/core_config.c ****  *  システム例外・割込みの（例外番号 4〜15）
  62:.\asp\arch\arm_m_gcc\common/core_config.c ****  *  割込み優先度設定レジスタへのアクセスのための配列
  63:.\asp\arch\arm_m_gcc\common/core_config.c ****  */
  64:.\asp\arch\arm_m_gcc\common/core_config.c **** static const unsigned int nvic_sys_pri_reg[] = {
  65:.\asp\arch\arm_m_gcc\common/core_config.c **** 	0,
  66:.\asp\arch\arm_m_gcc\common/core_config.c **** 	NVIC_SYS_PRI1,
  67:.\asp\arch\arm_m_gcc\common/core_config.c **** 	NVIC_SYS_PRI2,
  68:.\asp\arch\arm_m_gcc\common/core_config.c **** 	NVIC_SYS_PRI3
  69:.\asp\arch\arm_m_gcc\common/core_config.c **** };
  70:.\asp\arch\arm_m_gcc\common/core_config.c **** 
  71:.\asp\arch\arm_m_gcc\common/core_config.c **** /*
  72:.\asp\arch\arm_m_gcc\common/core_config.c ****  *  例外と割込みの割込み優先度をセット
  73:.\asp\arch\arm_m_gcc\common/core_config.c ****  *
  74:.\asp\arch\arm_m_gcc\common/core_config.c ****  *  excnoはARM-Mで定められている Exception Number を指定．
  75:.\asp\arch\arm_m_gcc\common/core_config.c ****  */
  76:.\asp\arch\arm_m_gcc\common/core_config.c **** void
  77:.\asp\arch\arm_m_gcc\common/core_config.c **** set_exc_int_priority(uint32_t excno, uint32_t iipm){
  27              		.loc 1 77 0
  28              		.cfi_startproc
  29              		@ args = 0, pretend = 0, frame = 0
  30              		@ frame_needed = 0, uses_anonymous_args = 0
  31              	.LVL0:
  78:.\asp\arch\arm_m_gcc\common/core_config.c **** 	uint32_t tmp, reg;
  79:.\asp\arch\arm_m_gcc\common/core_config.c **** 
  80:.\asp\arch\arm_m_gcc\common/core_config.c **** 	/*
  81:.\asp\arch\arm_m_gcc\common/core_config.c **** 	 *  割込み優先度設定レジスタの決定
  82:.\asp\arch\arm_m_gcc\common/core_config.c **** 	 */
  83:.\asp\arch\arm_m_gcc\common/core_config.c **** 	if ((EXCNO_MPU <= excno) && (excno <= IRQNO_SYSTICK)) {
ARM GAS  C:\TEMP\ccRLkGcE.s 			page 3


  32              		.loc 1 83 0
  33 0000 031F     		subs	r3, r0, #4
  34 0002 0B2B     		cmp	r3, #11
  77:.\asp\arch\arm_m_gcc\common/core_config.c **** set_exc_int_priority(uint32_t excno, uint32_t iipm){
  35              		.loc 1 77 0
  36 0004 10B5     		push	{r4, lr}
  37              	.LCFI0:
  38              		.cfi_def_cfa_offset 8
  39              		.cfi_offset 4, -8
  40              		.cfi_offset 14, -4
  41              		.loc 1 83 0
  42 0006 04D8     		bhi	.L2
  84:.\asp\arch\arm_m_gcc\common/core_config.c **** 		/*
  85:.\asp\arch\arm_m_gcc\common/core_config.c **** 		 * Exception Number 4(Memory Management)から
  86:.\asp\arch\arm_m_gcc\common/core_config.c **** 		 * Exception Number 15(SysTick)までの割込み優先度はシステム優先度
  87:.\asp\arch\arm_m_gcc\common/core_config.c **** 		 * レジスタにより設定．
  88:.\asp\arch\arm_m_gcc\common/core_config.c **** 		 */
  89:.\asp\arch\arm_m_gcc\common/core_config.c **** 		reg = nvic_sys_pri_reg[excno >> 2];
  43              		.loc 1 89 0
  44 0008 0E4C     		ldr	r4, .L6
  45 000a 8208     		lsrs	r2, r0, #2
  46 000c 54F82230 		ldr	r3, [r4, r2, lsl #2]
  47              	.LVL1:
  48 0010 09E0     		b	.L3
  49              	.LVL2:
  50              	.L2:
  90:.\asp\arch\arm_m_gcc\common/core_config.c **** 	}
  91:.\asp\arch\arm_m_gcc\common/core_config.c **** 	else if ((TMIN_INTNO < excno) && (excno <= TMAX_INTNO)){
  51              		.loc 1 91 0
  52 0012 A0F11002 		sub	r2, r0, #16
  53 0016 1F2A     		cmp	r2, #31
  54 0018 13D8     		bhi	.L1
  92:.\asp\arch\arm_m_gcc\common/core_config.c **** 		/*
  93:.\asp\arch\arm_m_gcc\common/core_config.c **** 		 * IRQ割込みなら
  94:.\asp\arch\arm_m_gcc\common/core_config.c **** 		 */
  95:.\asp\arch\arm_m_gcc\common/core_config.c **** 		reg = NVIC_PRI0 + (((excno - (TMIN_INTNO + 1)) >> 2) * 4);
  55              		.loc 1 95 0
  56 001a 22F00304 		bic	r4, r2, #3
  57 001e 04F16043 		add	r3, r4, #-536870912
  58 0022 03F56443 		add	r3, r3, #58368
  59              	.LVL3:
  60              	.L3:
  96:.\asp\arch\arm_m_gcc\common/core_config.c **** 	}
  97:.\asp\arch\arm_m_gcc\common/core_config.c **** 	else {
  98:.\asp\arch\arm_m_gcc\common/core_config.c **** 		return ;
  99:.\asp\arch\arm_m_gcc\common/core_config.c **** 	}
 100:.\asp\arch\arm_m_gcc\common/core_config.c **** 	
 101:.\asp\arch\arm_m_gcc\common/core_config.c **** 	tmp = sil_rew_mem((void *)reg);
 102:.\asp\arch\arm_m_gcc\common/core_config.c **** 	tmp &= ~(0xFF << (8 * (excno & 0x03)));
  61              		.loc 1 102 0
  62 0026 00F00300 		and	r0, r0, #3
  63              	.LVL4:
  64 002a C000     		lsls	r0, r0, #3
  65 002c FF22     		movs	r2, #255
  66 002e 02FA00F2 		lsl	r2, r2, r0
 103:.\asp\arch\arm_m_gcc\common/core_config.c **** 	tmp |= iipm << (8 * (excno & 0x03));
  67              		.loc 1 103 0
ARM GAS  C:\TEMP\ccRLkGcE.s 			page 4


  68 0032 01FA00F1 		lsl	r1, r1, r0
  69              	.LVL5:
  70              	.LBB54:
  71              	.LBB55:
  72              		.file 2 ".\\asp\\include/sil.h"
   1:.\asp\include/sil.h **** /*
   2:.\asp\include/sil.h ****  *  TOPPERS Software
   3:.\asp\include/sil.h ****  *      Toyohashi Open Platform for Embedded Real-Time Systems
   4:.\asp\include/sil.h ****  * 
   5:.\asp\include/sil.h ****  *  Copyright (C) 2000-2003 by Embedded and Real-Time Systems Laboratory
   6:.\asp\include/sil.h ****  *                              Toyohashi Univ. of Technology, JAPAN
   7:.\asp\include/sil.h ****  *  Copyright (C) 2004-2011 by Embedded and Real-Time Systems Laboratory
   8:.\asp\include/sil.h ****  *              Graduate School of Information Science, Nagoya Univ., JAPAN
   9:.\asp\include/sil.h ****  * 
  10:.\asp\include/sil.h ****  *  上記著作権者は，以下の(1)〜(4)の条件を満たす場合に限り，本ソフトウェ
  11:.\asp\include/sil.h ****  *  ア（本ソフトウェアを改変したものを含む．以下同じ）を使用・複製・改
  12:.\asp\include/sil.h ****  *  変・再配布（以下，利用と呼ぶ）することを無償で許諾する．
  13:.\asp\include/sil.h ****  *  (1) 本ソフトウェアをソースコードの形で利用する場合には，上記の著作
  14:.\asp\include/sil.h ****  *      権表示，この利用条件および下記の無保証規定が，そのままの形でソー
  15:.\asp\include/sil.h ****  *      スコード中に含まれていること．
  16:.\asp\include/sil.h ****  *  (2) 本ソフトウェアを，ライブラリ形式など，他のソフトウェア開発に使
  17:.\asp\include/sil.h ****  *      用できる形で再配布する場合には，再配布に伴うドキュメント（利用
  18:.\asp\include/sil.h ****  *      者マニュアルなど）に，上記の著作権表示，この利用条件および下記
  19:.\asp\include/sil.h ****  *      の無保証規定を掲載すること．
  20:.\asp\include/sil.h ****  *  (3) 本ソフトウェアを，機器に組み込むなど，他のソフトウェア開発に使
  21:.\asp\include/sil.h ****  *      用できない形で再配布する場合には，次のいずれかの条件を満たすこ
  22:.\asp\include/sil.h ****  *      と．
  23:.\asp\include/sil.h ****  *    (a) 再配布に伴うドキュメント（利用者マニュアルなど）に，上記の著
  24:.\asp\include/sil.h ****  *        作権表示，この利用条件および下記の無保証規定を掲載すること．
  25:.\asp\include/sil.h ****  *    (b) 再配布の形態を，別に定める方法によって，TOPPERSプロジェクトに
  26:.\asp\include/sil.h ****  *        報告すること．
  27:.\asp\include/sil.h ****  *  (4) 本ソフトウェアの利用により直接的または間接的に生じるいかなる損
  28:.\asp\include/sil.h ****  *      害からも，上記著作権者およびTOPPERSプロジェクトを免責すること．
  29:.\asp\include/sil.h ****  *      また，本ソフトウェアのユーザまたはエンドユーザからのいかなる理
  30:.\asp\include/sil.h ****  *      由に基づく請求からも，上記著作権者およびTOPPERSプロジェクトを
  31:.\asp\include/sil.h ****  *      免責すること．
  32:.\asp\include/sil.h ****  * 
  33:.\asp\include/sil.h ****  *  本ソフトウェアは，無保証で提供されているものである．上記著作権者お
  34:.\asp\include/sil.h ****  *  よびTOPPERSプロジェクトは，本ソフトウェアに関して，特定の使用目的
  35:.\asp\include/sil.h ****  *  に対する適合性も含めて，いかなる保証も行わない．また，本ソフトウェ
  36:.\asp\include/sil.h ****  *  アの利用により直接的または間接的に生じたいかなる損害に関しても，そ
  37:.\asp\include/sil.h ****  *  の責任を負わない．
  38:.\asp\include/sil.h ****  * 
  39:.\asp\include/sil.h ****  *  @(#) $Id: sil.h 2242 2011-08-26 21:00:19Z ertl-hiro $
  40:.\asp\include/sil.h ****  */
  41:.\asp\include/sil.h **** 
  42:.\asp\include/sil.h **** /*
  43:.\asp\include/sil.h ****  *		システムインタフェースレイヤ
  44:.\asp\include/sil.h ****  *
  45:.\asp\include/sil.h ****  *  システムインタフェースレイヤのサービスコールの定義・宣言とマクロな
  46:.\asp\include/sil.h ****  *  どの定義を含むヘッダファイル．
  47:.\asp\include/sil.h ****  *
  48:.\asp\include/sil.h ****  *  アセンブリ言語のソースファイルからこのファイルをインクルードする時
  49:.\asp\include/sil.h ****  *  は，TOPPERS_MACRO_ONLYを定義しておくことで，マクロ定義以外の記述を
  50:.\asp\include/sil.h ****  *  除くことができる．
  51:.\asp\include/sil.h ****  *
  52:.\asp\include/sil.h ****  *  このファイルをインクルードする前にインクルードしておくべきファイル
ARM GAS  C:\TEMP\ccRLkGcE.s 			page 5


  53:.\asp\include/sil.h ****  *  はない．
  54:.\asp\include/sil.h ****  */
  55:.\asp\include/sil.h **** 
  56:.\asp\include/sil.h **** #ifndef TOPPERS_SIL_H
  57:.\asp\include/sil.h **** #define TOPPERS_SIL_H
  58:.\asp\include/sil.h **** 
  59:.\asp\include/sil.h **** #ifdef __cplusplus
  60:.\asp\include/sil.h **** extern "C" {
  61:.\asp\include/sil.h **** #endif
  62:.\asp\include/sil.h **** 
  63:.\asp\include/sil.h **** /*
  64:.\asp\include/sil.h ****  *	TOPPERS共通のデータ型・定数・マクロ
  65:.\asp\include/sil.h ****  */
  66:.\asp\include/sil.h **** #include <t_stddef.h>
  67:.\asp\include/sil.h **** 
  68:.\asp\include/sil.h **** /*
  69:.\asp\include/sil.h ****  *  ターゲット依存部
  70:.\asp\include/sil.h ****  */
  71:.\asp\include/sil.h **** #include "target_sil.h"
  72:.\asp\include/sil.h **** 
  73:.\asp\include/sil.h **** #ifndef TOPPERS_MACRO_ONLY
  74:.\asp\include/sil.h **** 
  75:.\asp\include/sil.h **** /*
  76:.\asp\include/sil.h ****  *  全割込みロック状態の制御
  77:.\asp\include/sil.h ****  *
  78:.\asp\include/sil.h ****  *  SIL_PRE_LOC，SIL_LOC_INT()，SIL_UNL_INT()は，ターゲット依存部で用
  79:.\asp\include/sil.h ****  *  意する．デフォルトの定義は用意していない．
  80:.\asp\include/sil.h ****  */
  81:.\asp\include/sil.h **** 
  82:.\asp\include/sil.h **** /*
  83:.\asp\include/sil.h ****  *  微少時間待ち
  84:.\asp\include/sil.h ****  */
  85:.\asp\include/sil.h **** extern void	sil_dly_nse(ulong_t dlytim) throw();
  86:.\asp\include/sil.h **** 
  87:.\asp\include/sil.h **** /*
  88:.\asp\include/sil.h ****  *  エンディアンの反転
  89:.\asp\include/sil.h ****  */
  90:.\asp\include/sil.h **** #ifndef TOPPERS_SIL_REV_ENDIAN_UINT16
  91:.\asp\include/sil.h **** #define	TOPPERS_SIL_REV_ENDIAN_UINT16(data) \
  92:.\asp\include/sil.h **** 				((((data) & 0xffU) << 8) | (((data) >> 8) & 0xffU))
  93:.\asp\include/sil.h **** #endif /* TOPPERS_SIL_REV_ENDIAN_UINT16 */
  94:.\asp\include/sil.h **** 
  95:.\asp\include/sil.h **** #ifndef TOPPERS_SIL_REV_ENDIAN_UINT32
  96:.\asp\include/sil.h **** #define	TOPPERS_SIL_REV_ENDIAN_UINT32(data) \
  97:.\asp\include/sil.h **** 				((((data) & 0xffU) << 24) | (((data) & 0xff00U) << 8) \
  98:.\asp\include/sil.h **** 					| (((data) >> 8) & 0xff00U) | (((data) >> 24) & 0xffU))
  99:.\asp\include/sil.h **** #endif /* TOPPERS_SIL_REV_ENDIAN_UINT32 */
 100:.\asp\include/sil.h **** 
 101:.\asp\include/sil.h **** /*
 102:.\asp\include/sil.h ****  *  メモリ空間アクセス関数
 103:.\asp\include/sil.h ****  */
 104:.\asp\include/sil.h **** #ifndef TOPPERS_OMIT_SIL_ACCESS
 105:.\asp\include/sil.h **** 
 106:.\asp\include/sil.h **** /*
 107:.\asp\include/sil.h ****  *  8ビット単位の読出し／書込み
 108:.\asp\include/sil.h ****  */
 109:.\asp\include/sil.h **** #ifdef UINT8_MAX
ARM GAS  C:\TEMP\ccRLkGcE.s 			page 6


 110:.\asp\include/sil.h **** 
 111:.\asp\include/sil.h **** Inline uint8_t
 112:.\asp\include/sil.h **** sil_reb_mem(const uint8_t *mem)
 113:.\asp\include/sil.h **** {
 114:.\asp\include/sil.h **** 	uint8_t	data;
 115:.\asp\include/sil.h **** 
 116:.\asp\include/sil.h **** 	data = *((const volatile uint8_t *) mem);
 117:.\asp\include/sil.h **** 	return(data);
 118:.\asp\include/sil.h **** }
 119:.\asp\include/sil.h **** 
 120:.\asp\include/sil.h **** Inline void
 121:.\asp\include/sil.h **** sil_wrb_mem(uint8_t *mem, uint8_t data)
 122:.\asp\include/sil.h **** {
 123:.\asp\include/sil.h **** 	*((volatile uint8_t *) mem) = data;
 124:.\asp\include/sil.h **** }
 125:.\asp\include/sil.h **** 
 126:.\asp\include/sil.h **** #endif /* UINT8_MAX */
 127:.\asp\include/sil.h **** 
 128:.\asp\include/sil.h **** /*
 129:.\asp\include/sil.h ****  *  16ビット単位の読出し／書込み
 130:.\asp\include/sil.h ****  */
 131:.\asp\include/sil.h **** 
 132:.\asp\include/sil.h **** Inline uint16_t
 133:.\asp\include/sil.h **** sil_reh_mem(const uint16_t *mem)
 134:.\asp\include/sil.h **** {
 135:.\asp\include/sil.h **** 	uint16_t	data;
 136:.\asp\include/sil.h **** 
 137:.\asp\include/sil.h **** 	data = *((const volatile uint16_t *) mem);
 138:.\asp\include/sil.h **** 	return(data);
 139:.\asp\include/sil.h **** }
 140:.\asp\include/sil.h **** 
 141:.\asp\include/sil.h **** Inline void
 142:.\asp\include/sil.h **** sil_wrh_mem(uint16_t *mem, uint16_t data)
 143:.\asp\include/sil.h **** {
 144:.\asp\include/sil.h **** 	*((volatile uint16_t *) mem) = data;
 145:.\asp\include/sil.h **** }
 146:.\asp\include/sil.h **** 
 147:.\asp\include/sil.h **** #ifdef SIL_ENDIAN_BIG			/* ビッグエンディアンプロセッサ */
 148:.\asp\include/sil.h **** 
 149:.\asp\include/sil.h **** #define	sil_reh_bem(mem)		sil_reh_mem(mem)
 150:.\asp\include/sil.h **** #define	sil_wrh_bem(mem, data)	sil_wrh_mem(mem, data)
 151:.\asp\include/sil.h **** 
 152:.\asp\include/sil.h **** #ifndef TOPPERS_OMIT_SIL_REH_LEM
 153:.\asp\include/sil.h **** 
 154:.\asp\include/sil.h **** Inline uint16_t
 155:.\asp\include/sil.h **** sil_reh_lem(const uint16_t *mem)
 156:.\asp\include/sil.h **** {
 157:.\asp\include/sil.h **** 	uint16_t	data;
 158:.\asp\include/sil.h **** 
 159:.\asp\include/sil.h **** 	data = *((const volatile uint16_t *) mem);
 160:.\asp\include/sil.h **** 	return(TOPPERS_SIL_REV_ENDIAN_UINT16(data));
 161:.\asp\include/sil.h **** }
 162:.\asp\include/sil.h **** 
 163:.\asp\include/sil.h **** #endif /* TOPPERS_OMIT_SIL_REH_LEM */
 164:.\asp\include/sil.h **** #ifndef TOPPERS_OMIT_SIL_WRH_LEM
 165:.\asp\include/sil.h **** 
 166:.\asp\include/sil.h **** Inline void
ARM GAS  C:\TEMP\ccRLkGcE.s 			page 7


 167:.\asp\include/sil.h **** sil_wrh_lem(uint16_t *mem, uint16_t data)
 168:.\asp\include/sil.h **** {
 169:.\asp\include/sil.h **** 	*((volatile uint16_t *) mem) = TOPPERS_SIL_REV_ENDIAN_UINT16(data);
 170:.\asp\include/sil.h **** }
 171:.\asp\include/sil.h **** 
 172:.\asp\include/sil.h **** #endif /* TOPPERS_OMIT_SIL_WRH_LEM */
 173:.\asp\include/sil.h **** #else /* SIL_ENDIAN_BIG */
 174:.\asp\include/sil.h **** #ifdef SIL_ENDIAN_LITTLE		/* リトルエンディアンプロセッサ */
 175:.\asp\include/sil.h **** 
 176:.\asp\include/sil.h **** #define	sil_reh_lem(mem)		sil_reh_mem(mem)
 177:.\asp\include/sil.h **** #define	sil_wrh_lem(mem, data)	sil_wrh_mem(mem, data)
 178:.\asp\include/sil.h **** 
 179:.\asp\include/sil.h **** #ifndef TOPPERS_OMIT_SIL_REH_BEM
 180:.\asp\include/sil.h **** 
 181:.\asp\include/sil.h **** Inline uint16_t
 182:.\asp\include/sil.h **** sil_reh_bem(const uint16_t *mem)
 183:.\asp\include/sil.h **** {
 184:.\asp\include/sil.h **** 	uint16_t	data;
 185:.\asp\include/sil.h **** 
 186:.\asp\include/sil.h **** 	data = *((const volatile uint16_t *) mem);
 187:.\asp\include/sil.h **** 	return(TOPPERS_SIL_REV_ENDIAN_UINT16(data));
 188:.\asp\include/sil.h **** }
 189:.\asp\include/sil.h **** 
 190:.\asp\include/sil.h **** #endif /* TOPPERS_OMIT_SIL_REH_BEM */
 191:.\asp\include/sil.h **** #ifndef TOPPERS_OMIT_SIL_WRH_BEM
 192:.\asp\include/sil.h **** 
 193:.\asp\include/sil.h **** Inline void
 194:.\asp\include/sil.h **** sil_wrh_bem(uint16_t *mem, uint16_t data)
 195:.\asp\include/sil.h **** {
 196:.\asp\include/sil.h **** 	*((volatile uint16_t *) mem) = TOPPERS_SIL_REV_ENDIAN_UINT16(data);
 197:.\asp\include/sil.h **** }
 198:.\asp\include/sil.h **** 
 199:.\asp\include/sil.h **** #endif /* TOPPERS_OMIT_SIL_WRH_BEM */
 200:.\asp\include/sil.h **** #else /* SIL_ENDIAN_LITTLE */
 201:.\asp\include/sil.h **** 
 202:.\asp\include/sil.h **** #error Neither SIL_ENDIAN_BIG nor SIL_ENDIAN_LITTLE is defined.
 203:.\asp\include/sil.h **** 
 204:.\asp\include/sil.h **** #endif /* SIL_ENDIAN_LITTLE */
 205:.\asp\include/sil.h **** #endif /* SIL_ENDIAN_BIG */
 206:.\asp\include/sil.h **** 
 207:.\asp\include/sil.h **** /*
 208:.\asp\include/sil.h ****  *  32ビット単位の読出し／書込み
 209:.\asp\include/sil.h ****  */
 210:.\asp\include/sil.h **** 
 211:.\asp\include/sil.h **** Inline uint32_t
 212:.\asp\include/sil.h **** sil_rew_mem(const uint32_t *mem)
 213:.\asp\include/sil.h **** {
 214:.\asp\include/sil.h **** 	uint32_t	data;
 215:.\asp\include/sil.h **** 
 216:.\asp\include/sil.h **** 	data = *((const volatile uint32_t *) mem);
  73              		.loc 2 216 0
  74 0036 1C68     		ldr	r4, [r3, #0]
  75              	.LVL6:
  76              	.LBE55:
  77              	.LBE54:
 102:.\asp\arch\arm_m_gcc\common/core_config.c **** 	tmp &= ~(0xFF << (8 * (excno & 0x03)));
  78              		.loc 1 102 0
ARM GAS  C:\TEMP\ccRLkGcE.s 			page 8


  79 0038 24EA0202 		bic	r2, r4, r2
  80              	.LVL7:
  81              		.loc 1 103 0
  82 003c 42EA0100 		orr	r0, r2, r1
  83              	.LVL8:
  84              	.LBB56:
  85              	.LBB57:
 217:.\asp\include/sil.h **** 	return(data);
 218:.\asp\include/sil.h **** }
 219:.\asp\include/sil.h **** 
 220:.\asp\include/sil.h **** Inline void
 221:.\asp\include/sil.h **** sil_wrw_mem(uint32_t *mem, uint32_t data)
 222:.\asp\include/sil.h **** {
 223:.\asp\include/sil.h **** 	*((volatile uint32_t *) mem) = data;
  86              		.loc 2 223 0
  87 0040 1860     		str	r0, [r3, #0]
  88              	.LVL9:
  89              	.L1:
  90 0042 10BD     		pop	{r4, pc}
  91              	.L7:
  92              		.align	2
  93              	.L6:
  94 0044 00000000 		.word	.LANCHOR0
  95              	.LBE57:
  96              	.LBE56:
  97              		.cfi_endproc
  98              	.LFE53:
  99              		.size	_kernel_set_exc_int_priority, .-_kernel_set_exc_int_priority
 100              		.section	.text._kernel_enable_exc,"ax",%progbits
 101              		.align	1
 102              		.global	_kernel_enable_exc
 103              		.thumb
 104              		.thumb_func
 105              		.type	_kernel_enable_exc, %function
 106              	_kernel_enable_exc:
 107              	.LFB54:
 104:.\asp\arch\arm_m_gcc\common/core_config.c **** 	sil_wrw_mem((void *)reg, tmp);
 105:.\asp\arch\arm_m_gcc\common/core_config.c **** }
 106:.\asp\arch\arm_m_gcc\common/core_config.c **** 
 107:.\asp\arch\arm_m_gcc\common/core_config.c **** /*
 108:.\asp\arch\arm_m_gcc\common/core_config.c ****  *  例外の許可
 109:.\asp\arch\arm_m_gcc\common/core_config.c ****  *
 110:.\asp\arch\arm_m_gcc\common/core_config.c ****  *  Memory Management, Bus Fault, Usage Fault は禁止・許可が可能
 111:.\asp\arch\arm_m_gcc\common/core_config.c ****  */
 112:.\asp\arch\arm_m_gcc\common/core_config.c **** void
 113:.\asp\arch\arm_m_gcc\common/core_config.c **** enable_exc(EXCNO excno)
 114:.\asp\arch\arm_m_gcc\common/core_config.c **** {
 108              		.loc 1 114 0
 109              		.cfi_startproc
 110              		@ args = 0, pretend = 0, frame = 0
 111              		@ frame_needed = 0, uses_anonymous_args = 0
 112              		@ link register save eliminated.
 113              	.LVL10:
 115:.\asp\arch\arm_m_gcc\common/core_config.c **** 	uint32_t tmp;
 116:.\asp\arch\arm_m_gcc\common/core_config.c **** 
 117:.\asp\arch\arm_m_gcc\common/core_config.c **** 	switch (excno) {
 114              		.loc 1 117 0
ARM GAS  C:\TEMP\ccRLkGcE.s 			page 9


 115 0000 0528     		cmp	r0, #5
 116 0002 08D0     		beq	.L11
 117 0004 0628     		cmp	r0, #6
 118 0006 0BD0     		beq	.L12
 119 0008 0428     		cmp	r0, #4
 120 000a 0ED1     		bne	.L8
 121              	.LVL11:
 122              	.LBB58:
 123              	.LBB59:
 216:.\asp\include/sil.h **** 	data = *((const volatile uint32_t *) mem);
 124              		.loc 2 216 0
 125 000c 074B     		ldr	r3, .L14
 126 000e 1A68     		ldr	r2, [r3, #0]
 127              	.LVL12:
 128              	.LBE59:
 129              	.LBE58:
 118:.\asp\arch\arm_m_gcc\common/core_config.c **** 	  case EXCNO_MPU:
 119:.\asp\arch\arm_m_gcc\common/core_config.c **** 		tmp = sil_rew_mem((void *)NVIC_SYS_HND_CTRL);
 120:.\asp\arch\arm_m_gcc\common/core_config.c **** 		tmp |= NVIC_SYS_HND_CTRL_MEM;
 130              		.loc 1 120 0
 131 0010 42F48031 		orr	r1, r2, #65536
 132              	.LVL13:
 133 0014 08E0     		b	.L13
 134              	.LVL14:
 135              	.L11:
 136              	.LBB60:
 137              	.LBB61:
 216:.\asp\include/sil.h **** 	data = *((const volatile uint32_t *) mem);
 138              		.loc 2 216 0
 139 0016 054B     		ldr	r3, .L14
 140 0018 1A68     		ldr	r2, [r3, #0]
 141              	.LVL15:
 142              	.LBE61:
 143              	.LBE60:
 121:.\asp\arch\arm_m_gcc\common/core_config.c **** 		sil_wrw_mem((void *)NVIC_SYS_HND_CTRL, tmp);
 122:.\asp\arch\arm_m_gcc\common/core_config.c **** 		break;
 123:.\asp\arch\arm_m_gcc\common/core_config.c **** 	  case EXCNO_BUS:
 124:.\asp\arch\arm_m_gcc\common/core_config.c **** 		tmp = sil_rew_mem((void *)NVIC_SYS_HND_CTRL);
 125:.\asp\arch\arm_m_gcc\common/core_config.c **** 		tmp |= NVIC_SYS_HND_CTRL_BUS;
 144              		.loc 1 125 0
 145 001a 42F40031 		orr	r1, r2, #131072
 146              	.LVL16:
 147 001e 03E0     		b	.L13
 148              	.LVL17:
 149              	.L12:
 150              	.LBB62:
 151              	.LBB63:
 216:.\asp\include/sil.h **** 	data = *((const volatile uint32_t *) mem);
 152              		.loc 2 216 0
 153 0020 024B     		ldr	r3, .L14
 154 0022 1868     		ldr	r0, [r3, #0]
 155              	.LVL18:
 156              	.LBE63:
 157              	.LBE62:
 126:.\asp\arch\arm_m_gcc\common/core_config.c **** 		sil_wrw_mem((void *)NVIC_SYS_HND_CTRL, tmp);
 127:.\asp\arch\arm_m_gcc\common/core_config.c **** 		break;
 128:.\asp\arch\arm_m_gcc\common/core_config.c **** 	  case EXCNO_USAGE:
ARM GAS  C:\TEMP\ccRLkGcE.s 			page 10


 129:.\asp\arch\arm_m_gcc\common/core_config.c **** 		tmp = sil_rew_mem((void *)NVIC_SYS_HND_CTRL);
 130:.\asp\arch\arm_m_gcc\common/core_config.c **** 		tmp |= NVIC_SYS_HND_CTRL_USAGE;
 158              		.loc 1 130 0
 159 0024 40F48021 		orr	r1, r0, #262144
 160              	.LVL19:
 161              	.L13:
 162              	.LBB64:
 163              	.LBB65:
 164              		.loc 2 223 0
 165 0028 1960     		str	r1, [r3, #0]
 166              	.LVL20:
 167              	.L8:
 168 002a 7047     		bx	lr
 169              	.L15:
 170              		.align	2
 171              	.L14:
 172 002c 24ED00E0 		.word	-536810204
 173              	.LBE65:
 174              	.LBE64:
 175              		.cfi_endproc
 176              	.LFE54:
 177              		.size	_kernel_enable_exc, .-_kernel_enable_exc
 178              		.section	.text._kernel_disable_exc,"ax",%progbits
 179              		.align	1
 180              		.global	_kernel_disable_exc
 181              		.thumb
 182              		.thumb_func
 183              		.type	_kernel_disable_exc, %function
 184              	_kernel_disable_exc:
 185              	.LFB55:
 131:.\asp\arch\arm_m_gcc\common/core_config.c **** 		sil_wrw_mem((void *)NVIC_SYS_HND_CTRL, tmp);
 132:.\asp\arch\arm_m_gcc\common/core_config.c **** 		break;
 133:.\asp\arch\arm_m_gcc\common/core_config.c **** 	}
 134:.\asp\arch\arm_m_gcc\common/core_config.c **** }
 135:.\asp\arch\arm_m_gcc\common/core_config.c **** 
 136:.\asp\arch\arm_m_gcc\common/core_config.c **** /*
 137:.\asp\arch\arm_m_gcc\common/core_config.c ****  *  例外の禁止
 138:.\asp\arch\arm_m_gcc\common/core_config.c ****  */
 139:.\asp\arch\arm_m_gcc\common/core_config.c **** void
 140:.\asp\arch\arm_m_gcc\common/core_config.c **** disable_exc(EXCNO excno)
 141:.\asp\arch\arm_m_gcc\common/core_config.c **** {
 186              		.loc 1 141 0
 187              		.cfi_startproc
 188              		@ args = 0, pretend = 0, frame = 0
 189              		@ frame_needed = 0, uses_anonymous_args = 0
 190              		@ link register save eliminated.
 191              	.LVL21:
 142:.\asp\arch\arm_m_gcc\common/core_config.c **** 	uint32_t tmp;
 143:.\asp\arch\arm_m_gcc\common/core_config.c **** 
 144:.\asp\arch\arm_m_gcc\common/core_config.c **** 	switch (excno) {
 192              		.loc 1 144 0
 193 0000 0528     		cmp	r0, #5
 194 0002 08D0     		beq	.L19
 195 0004 0628     		cmp	r0, #6
 196 0006 0BD0     		beq	.L20
 197 0008 0428     		cmp	r0, #4
 198 000a 0ED1     		bne	.L16
ARM GAS  C:\TEMP\ccRLkGcE.s 			page 11


 199              	.LVL22:
 200              	.LBB66:
 201              	.LBB67:
 216:.\asp\include/sil.h **** 	data = *((const volatile uint32_t *) mem);
 202              		.loc 2 216 0
 203 000c 074B     		ldr	r3, .L22
 204 000e 1A68     		ldr	r2, [r3, #0]
 205              	.LVL23:
 206              	.LBE67:
 207              	.LBE66:
 145:.\asp\arch\arm_m_gcc\common/core_config.c **** 	  case EXCNO_MPU:
 146:.\asp\arch\arm_m_gcc\common/core_config.c **** 		tmp = sil_rew_mem((void *)NVIC_SYS_HND_CTRL);
 147:.\asp\arch\arm_m_gcc\common/core_config.c **** 		tmp &= ~NVIC_SYS_HND_CTRL_MEM;
 208              		.loc 1 147 0
 209 0010 22F48031 		bic	r1, r2, #65536
 210              	.LVL24:
 211 0014 08E0     		b	.L21
 212              	.LVL25:
 213              	.L19:
 214              	.LBB68:
 215              	.LBB69:
 216:.\asp\include/sil.h **** 	data = *((const volatile uint32_t *) mem);
 216              		.loc 2 216 0
 217 0016 054B     		ldr	r3, .L22
 218 0018 1A68     		ldr	r2, [r3, #0]
 219              	.LVL26:
 220              	.LBE69:
 221              	.LBE68:
 148:.\asp\arch\arm_m_gcc\common/core_config.c **** 		sil_wrw_mem((void *)NVIC_SYS_HND_CTRL, tmp);
 149:.\asp\arch\arm_m_gcc\common/core_config.c **** 		break;
 150:.\asp\arch\arm_m_gcc\common/core_config.c **** 	  case EXCNO_BUS:
 151:.\asp\arch\arm_m_gcc\common/core_config.c **** 		tmp = sil_rew_mem((void *)NVIC_SYS_HND_CTRL);
 152:.\asp\arch\arm_m_gcc\common/core_config.c **** 		tmp &= ~NVIC_SYS_HND_CTRL_BUS;
 222              		.loc 1 152 0
 223 001a 22F40031 		bic	r1, r2, #131072
 224              	.LVL27:
 225 001e 03E0     		b	.L21
 226              	.LVL28:
 227              	.L20:
 228              	.LBB70:
 229              	.LBB71:
 216:.\asp\include/sil.h **** 	data = *((const volatile uint32_t *) mem);
 230              		.loc 2 216 0
 231 0020 024B     		ldr	r3, .L22
 232 0022 1868     		ldr	r0, [r3, #0]
 233              	.LVL29:
 234              	.LBE71:
 235              	.LBE70:
 153:.\asp\arch\arm_m_gcc\common/core_config.c **** 		sil_wrw_mem((void *)NVIC_SYS_HND_CTRL, tmp);
 154:.\asp\arch\arm_m_gcc\common/core_config.c **** 		break;
 155:.\asp\arch\arm_m_gcc\common/core_config.c **** 	  case EXCNO_USAGE:
 156:.\asp\arch\arm_m_gcc\common/core_config.c **** 		tmp = sil_rew_mem((void *)NVIC_SYS_HND_CTRL);
 157:.\asp\arch\arm_m_gcc\common/core_config.c **** 		tmp &= ~NVIC_SYS_HND_CTRL_USAGE;
 236              		.loc 1 157 0
 237 0024 20F48021 		bic	r1, r0, #262144
 238              	.LVL30:
 239              	.L21:
ARM GAS  C:\TEMP\ccRLkGcE.s 			page 12


 240              	.LBB72:
 241              	.LBB73:
 242              		.loc 2 223 0
 243 0028 1960     		str	r1, [r3, #0]
 244              	.LVL31:
 245              	.L16:
 246 002a 7047     		bx	lr
 247              	.L23:
 248              		.align	2
 249              	.L22:
 250 002c 24ED00E0 		.word	-536810204
 251              	.LBE73:
 252              	.LBE72:
 253              		.cfi_endproc
 254              	.LFE55:
 255              		.size	_kernel_disable_exc, .-_kernel_disable_exc
 256              		.section	.text._kernel_core_initialize,"ax",%progbits
 257              		.align	1
 258              		.global	_kernel_core_initialize
 259              		.thumb
 260              		.thumb_func
 261              		.type	_kernel_core_initialize, %function
 262              	_kernel_core_initialize:
 263              	.LFB56:
 158:.\asp\arch\arm_m_gcc\common/core_config.c **** 		sil_wrw_mem((void *)NVIC_SYS_HND_CTRL, tmp);
 159:.\asp\arch\arm_m_gcc\common/core_config.c **** 		break;
 160:.\asp\arch\arm_m_gcc\common/core_config.c **** 	}
 161:.\asp\arch\arm_m_gcc\common/core_config.c **** }
 162:.\asp\arch\arm_m_gcc\common/core_config.c **** 
 163:.\asp\arch\arm_m_gcc\common/core_config.c **** 
 164:.\asp\arch\arm_m_gcc\common/core_config.c **** /*
 165:.\asp\arch\arm_m_gcc\common/core_config.c ****  *  コア依存の初期化
 166:.\asp\arch\arm_m_gcc\common/core_config.c ****  */
 167:.\asp\arch\arm_m_gcc\common/core_config.c **** void
 168:.\asp\arch\arm_m_gcc\common/core_config.c **** core_initialize(void)
 169:.\asp\arch\arm_m_gcc\common/core_config.c **** {
 264              		.loc 1 169 0
 265              		.cfi_startproc
 266              		@ args = 0, pretend = 0, frame = 0
 267              		@ frame_needed = 0, uses_anonymous_args = 0
 170:.\asp\arch\arm_m_gcc\common/core_config.c **** 	/*
 171:.\asp\arch\arm_m_gcc\common/core_config.c **** 	 *  CPUロックフラグ実現のための変数の初期化
 172:.\asp\arch\arm_m_gcc\common/core_config.c **** 	 */
 173:.\asp\arch\arm_m_gcc\common/core_config.c **** 	lock_flag = true;
 268              		.loc 1 173 0
 269 0000 174B     		ldr	r3, .L29
 270 0002 0122     		movs	r2, #1
 169:.\asp\arch\arm_m_gcc\common/core_config.c **** {
 271              		.loc 1 169 0
 272 0004 10B5     		push	{r4, lr}
 273              	.LCFI1:
 274              		.cfi_def_cfa_offset 8
 275              		.cfi_offset 4, -8
 276              		.cfi_offset 14, -4
 174:.\asp\arch\arm_m_gcc\common/core_config.c **** 	saved_iipm = IIPM_ENAALL;
 277              		.loc 1 174 0
 278 0006 1748     		ldr	r0, .L29+4
ARM GAS  C:\TEMP\ccRLkGcE.s 			page 13


 173:.\asp\arch\arm_m_gcc\common/core_config.c **** 	lock_flag = true;
 279              		.loc 1 173 0
 280 0008 1A60     		str	r2, [r3, #0]
 281              	.LBB88:
 282              	.LBB89:
 283              		.loc 2 223 0
 284 000a 1749     		ldr	r1, .L29+8
 285 000c 174A     		ldr	r2, .L29+12
 286              	.LBE89:
 287              	.LBE88:
 288              		.loc 1 174 0
 289 000e 0024     		movs	r4, #0
 290 0010 0460     		str	r4, [r0, #0]
 291              	.LVL32:
 292              	.LBB91:
 293              	.LBB90:
 294              		.loc 2 223 0
 295 0012 0A60     		str	r2, [r1, #0]
 296              	.LBE90:
 297              	.LBE91:
 175:.\asp\arch\arm_m_gcc\common/core_config.c **** 
 176:.\asp\arch\arm_m_gcc\common/core_config.c **** 	/*
 177:.\asp\arch\arm_m_gcc\common/core_config.c **** 	 *  ベクタテーブルを設定
 178:.\asp\arch\arm_m_gcc\common/core_config.c **** 	 */
 179:.\asp\arch\arm_m_gcc\common/core_config.c **** 	sil_wrw_mem((void*)NVIC_VECTTBL, (uint32_t)vector_table);
 180:.\asp\arch\arm_m_gcc\common/core_config.c **** 
 181:.\asp\arch\arm_m_gcc\common/core_config.c **** 	/*
 182:.\asp\arch\arm_m_gcc\common/core_config.c **** 	 *  各例外の優先度を設定
 183:.\asp\arch\arm_m_gcc\common/core_config.c **** 	 *  CPUロック状態でも発生するように，BASEPRIレジスタでマスクでき
 184:.\asp\arch\arm_m_gcc\common/core_config.c **** 	 *  ない'0'とする．
 185:.\asp\arch\arm_m_gcc\common/core_config.c **** 	 */
 186:.\asp\arch\arm_m_gcc\common/core_config.c **** 	set_exc_int_priority(EXCNO_HARD, 0);
 298              		.loc 1 186 0
 299 0014 0320     		movs	r0, #3
 300 0016 2146     		mov	r1, r4
 301 0018 FFF7FEFF 		bl	_kernel_set_exc_int_priority
 302              	.LVL33:
 187:.\asp\arch\arm_m_gcc\common/core_config.c **** 	set_exc_int_priority(EXCNO_MPU, 0);
 303              		.loc 1 187 0
 304 001c 0420     		movs	r0, #4
 305 001e 2146     		mov	r1, r4
 306 0020 FFF7FEFF 		bl	_kernel_set_exc_int_priority
 307              	.LVL34:
 188:.\asp\arch\arm_m_gcc\common/core_config.c **** 	set_exc_int_priority(EXCNO_BUS, 0);
 308              		.loc 1 188 0
 309 0024 0520     		movs	r0, #5
 310 0026 2146     		mov	r1, r4
 311 0028 FFF7FEFF 		bl	_kernel_set_exc_int_priority
 312              	.LVL35:
 189:.\asp\arch\arm_m_gcc\common/core_config.c **** 	set_exc_int_priority(EXCNO_USAGE, 0);
 313              		.loc 1 189 0
 314 002c 0620     		movs	r0, #6
 315 002e 2146     		mov	r1, r4
 316 0030 FFF7FEFF 		bl	_kernel_set_exc_int_priority
 317              	.LVL36:
 190:.\asp\arch\arm_m_gcc\common/core_config.c **** 	set_exc_int_priority(EXCNO_SVCALL, 0);
 318              		.loc 1 190 0
ARM GAS  C:\TEMP\ccRLkGcE.s 			page 14


 319 0034 0B20     		movs	r0, #11
 320 0036 2146     		mov	r1, r4
 321 0038 FFF7FEFF 		bl	_kernel_set_exc_int_priority
 322              	.LVL37:
 191:.\asp\arch\arm_m_gcc\common/core_config.c **** 	set_exc_int_priority(EXCNO_DEBUG, 0);
 323              		.loc 1 191 0
 324 003c 0C20     		movs	r0, #12
 325 003e 2146     		mov	r1, r4
 326 0040 FFF7FEFF 		bl	_kernel_set_exc_int_priority
 327              	.LVL38:
 192:.\asp\arch\arm_m_gcc\common/core_config.c **** 	set_exc_int_priority(EXCNO_PENDSV, 0);
 328              		.loc 1 192 0
 329 0044 0E20     		movs	r0, #14
 330 0046 2146     		mov	r1, r4
 331 0048 FFF7FEFF 		bl	_kernel_set_exc_int_priority
 332              	.LVL39:
 333              	.LBB92:
 334              	.LBB93:
 335              		.file 3 ".\\asp\\arch\\arm_m_gcc\\common/core_config.h"
   1:.\asp\arch\arm_m_gcc\common/core_config.h **** /*
   2:.\asp\arch\arm_m_gcc\common/core_config.h ****  *  TOPPERS/ASP Kernel
   3:.\asp\arch\arm_m_gcc\common/core_config.h ****  *      Toyohashi Open Platform for Embedded Real-Time Systems/
   4:.\asp\arch\arm_m_gcc\common/core_config.h ****  *      Advanced Standard Profile Kernel
   5:.\asp\arch\arm_m_gcc\common/core_config.h ****  * 
   6:.\asp\arch\arm_m_gcc\common/core_config.h ****  *  Copyright (C) 2008-2011,2013 by Embedded and Real-Time Systems Laboratory
   7:.\asp\arch\arm_m_gcc\common/core_config.h ****  *              Graduate School of Information Science, Nagoya Univ., JAPAN
   8:.\asp\arch\arm_m_gcc\common/core_config.h ****  * 
   9:.\asp\arch\arm_m_gcc\common/core_config.h ****  *  上記著作権者は，以下の(1)〜(4)の条件を満たす場合に限り，本ソフトウェ
  10:.\asp\arch\arm_m_gcc\common/core_config.h ****  *  ア（本ソフトウェアを改変したものを含む．以下同じ）を使用・複製・改
  11:.\asp\arch\arm_m_gcc\common/core_config.h ****  *  変・再配布（以下，利用と呼ぶ）することを無償で許諾する．
  12:.\asp\arch\arm_m_gcc\common/core_config.h ****  *  (1) 本ソフトウェアをソースコードの形で利用する場合には，上記の著作
  13:.\asp\arch\arm_m_gcc\common/core_config.h ****  *      権表示，この利用条件および下記の無保証規定が，そのままの形でソー
  14:.\asp\arch\arm_m_gcc\common/core_config.h ****  *      スコード中に含まれていること．
  15:.\asp\arch\arm_m_gcc\common/core_config.h ****  *  (2) 本ソフトウェアを，ライブラリ形式など，他のソフトウェア開発に使
  16:.\asp\arch\arm_m_gcc\common/core_config.h ****  *      用できる形で再配布する場合には，再配布に伴うドキュメント（利用
  17:.\asp\arch\arm_m_gcc\common/core_config.h ****  *      者マニュアルなど）に，上記の著作権表示，この利用条件および下記
  18:.\asp\arch\arm_m_gcc\common/core_config.h ****  *      の無保証規定を掲載すること．
  19:.\asp\arch\arm_m_gcc\common/core_config.h ****  *  (3) 本ソフトウェアを，機器に組み込むなど，他のソフトウェア開発に使
  20:.\asp\arch\arm_m_gcc\common/core_config.h ****  *      用できない形で再配布する場合には，次のいずれかの条件を満たすこ
  21:.\asp\arch\arm_m_gcc\common/core_config.h ****  *      と．
  22:.\asp\arch\arm_m_gcc\common/core_config.h ****  *    (a) 再配布に伴うドキュメント（利用者マニュアルなど）に，上記の著
  23:.\asp\arch\arm_m_gcc\common/core_config.h ****  *        作権表示，この利用条件および下記の無保証規定を掲載すること．
  24:.\asp\arch\arm_m_gcc\common/core_config.h ****  *    (b) 再配布の形態を，別に定める方法によって，TOPPERSプロジェクトに
  25:.\asp\arch\arm_m_gcc\common/core_config.h ****  *        報告すること．
  26:.\asp\arch\arm_m_gcc\common/core_config.h ****  *  (4) 本ソフトウェアの利用により直接的または間接的に生じるいかなる損
  27:.\asp\arch\arm_m_gcc\common/core_config.h ****  *      害からも，上記著作権者およびTOPPERSプロジェクトを免責すること．
  28:.\asp\arch\arm_m_gcc\common/core_config.h ****  *      また，本ソフトウェアのユーザまたはエンドユーザからのいかなる理
  29:.\asp\arch\arm_m_gcc\common/core_config.h ****  *      由に基づく請求からも，上記著作権者およびTOPPERSプロジェクトを
  30:.\asp\arch\arm_m_gcc\common/core_config.h ****  *      免責すること．
  31:.\asp\arch\arm_m_gcc\common/core_config.h ****  * 
  32:.\asp\arch\arm_m_gcc\common/core_config.h ****  *  本ソフトウェアは，無保証で提供されているものである．上記著作権者お
  33:.\asp\arch\arm_m_gcc\common/core_config.h ****  *  よびTOPPERSプロジェクトは，本ソフトウェアに関して，特定の使用目的
  34:.\asp\arch\arm_m_gcc\common/core_config.h ****  *  に対する適合性も含めて，いかなる保証も行わない．また，本ソフトウェ
  35:.\asp\arch\arm_m_gcc\common/core_config.h ****  *  アの利用により直接的または間接的に生じたいかなる損害に関しても，そ
  36:.\asp\arch\arm_m_gcc\common/core_config.h ****  *  の責任を負わない．
  37:.\asp\arch\arm_m_gcc\common/core_config.h ****  * 
  38:.\asp\arch\arm_m_gcc\common/core_config.h ****  *  @(#) $Id: core_config.h 2554 2013-10-17 02:53:02Z ertl-honda $
ARM GAS  C:\TEMP\ccRLkGcE.s 			page 15


  39:.\asp\arch\arm_m_gcc\common/core_config.h ****  */
  40:.\asp\arch\arm_m_gcc\common/core_config.h **** 
  41:.\asp\arch\arm_m_gcc\common/core_config.h **** /*
  42:.\asp\arch\arm_m_gcc\common/core_config.h ****  *		プロセッサ依存モジュール（ARM-M用）
  43:.\asp\arch\arm_m_gcc\common/core_config.h ****  *
  44:.\asp\arch\arm_m_gcc\common/core_config.h ****  *  このインクルードファイルは，target_config.h（または，そこからインク
  45:.\asp\arch\arm_m_gcc\common/core_config.h ****  *  ルードされるファイル）のみからインクルードされる．他のファイルから
  46:.\asp\arch\arm_m_gcc\common/core_config.h ****  *  直接インクルードしてはならない．
  47:.\asp\arch\arm_m_gcc\common/core_config.h ****  */
  48:.\asp\arch\arm_m_gcc\common/core_config.h **** 
  49:.\asp\arch\arm_m_gcc\common/core_config.h **** #ifndef TOPPERS_CORE_CONFIG_H
  50:.\asp\arch\arm_m_gcc\common/core_config.h **** #define TOPPERS_CORE_CONFIG_H
  51:.\asp\arch\arm_m_gcc\common/core_config.h **** 
  52:.\asp\arch\arm_m_gcc\common/core_config.h **** #ifndef TOPPERS_MACRO_ONLY
  53:.\asp\arch\arm_m_gcc\common/core_config.h **** 
  54:.\asp\arch\arm_m_gcc\common/core_config.h **** /*
  55:.\asp\arch\arm_m_gcc\common/core_config.h ****  *  プロセッサの特殊命令のインライン関数定義
  56:.\asp\arch\arm_m_gcc\common/core_config.h ****  */
  57:.\asp\arch\arm_m_gcc\common/core_config.h **** #include <core_insn.h>
  58:.\asp\arch\arm_m_gcc\common/core_config.h **** 
  59:.\asp\arch\arm_m_gcc\common/core_config.h **** /*
  60:.\asp\arch\arm_m_gcc\common/core_config.h ****  *  ターゲット依存のオブジェクト属性
  61:.\asp\arch\arm_m_gcc\common/core_config.h ****  */
  62:.\asp\arch\arm_m_gcc\common/core_config.h **** #define TARGET_INHATR  TA_NONKERNEL /* ターゲット定義の割込みハンドラ属性 */
  63:.\asp\arch\arm_m_gcc\common/core_config.h **** 
  64:.\asp\arch\arm_m_gcc\common/core_config.h **** /*
  65:.\asp\arch\arm_m_gcc\common/core_config.h ****  *  エラーチェック方法の指定
  66:.\asp\arch\arm_m_gcc\common/core_config.h ****  */
  67:.\asp\arch\arm_m_gcc\common/core_config.h **** #define CHECK_STKSZ_ALIGN	8	/* スタックサイズのアライン単位 */
  68:.\asp\arch\arm_m_gcc\common/core_config.h **** #define CHECK_FUNC_ALIGN	1	/* 関数のアライン単位 */
  69:.\asp\arch\arm_m_gcc\common/core_config.h **** #define CHECK_FUNC_NONNULL		/* 関数の非NULLチェック */
  70:.\asp\arch\arm_m_gcc\common/core_config.h **** #define CHECK_STACK_ALIGN	8	/* スタック領域のアライン単位 */
  71:.\asp\arch\arm_m_gcc\common/core_config.h **** #define CHECK_STACK_NONNULL		/* スタック領域の非NULLチェック */
  72:.\asp\arch\arm_m_gcc\common/core_config.h **** #define CHECK_MPF_ALIGN		4	/* 固定長メモリプール領域のアライン単位 */
  73:.\asp\arch\arm_m_gcc\common/core_config.h **** #define CHECK_MPF_NONNULL		/* 固定長メモリプール領域の非NULLチェック */
  74:.\asp\arch\arm_m_gcc\common/core_config.h **** #define CHECK_MB_ALIGN		4	/* 管理領域のアライン単位 */
  75:.\asp\arch\arm_m_gcc\common/core_config.h **** 
  76:.\asp\arch\arm_m_gcc\common/core_config.h **** /*
  77:.\asp\arch\arm_m_gcc\common/core_config.h ****  *  非タスクコンテキスト用のスタック初期値
  78:.\asp\arch\arm_m_gcc\common/core_config.h ****  */
  79:.\asp\arch\arm_m_gcc\common/core_config.h **** #define TOPPERS_ISTKPT(istk, istksz) ((STK_T *)((uint8_t *)(istk) + (istksz)))
  80:.\asp\arch\arm_m_gcc\common/core_config.h **** 
  81:.\asp\arch\arm_m_gcc\common/core_config.h **** /*
  82:.\asp\arch\arm_m_gcc\common/core_config.h ****  *  タスクコンテキストブロックの定義
  83:.\asp\arch\arm_m_gcc\common/core_config.h ****  */
  84:.\asp\arch\arm_m_gcc\common/core_config.h **** typedef struct task_context_block {
  85:.\asp\arch\arm_m_gcc\common/core_config.h **** 	void	*sp;		/* スタックポインタ */
  86:.\asp\arch\arm_m_gcc\common/core_config.h **** 	FP		pc;			/* プログラムカウンタ */
  87:.\asp\arch\arm_m_gcc\common/core_config.h **** } TSKCTXB;
  88:.\asp\arch\arm_m_gcc\common/core_config.h **** 
  89:.\asp\arch\arm_m_gcc\common/core_config.h **** #endif /* TOPPERS_MACRO_ONLY */
  90:.\asp\arch\arm_m_gcc\common/core_config.h **** 
  91:.\asp\arch\arm_m_gcc\common/core_config.h **** #ifndef TOPPERS_MACRO_ONLY
  92:.\asp\arch\arm_m_gcc\common/core_config.h **** /*
  93:.\asp\arch\arm_m_gcc\common/core_config.h ****  *  コンテキストの参照
  94:.\asp\arch\arm_m_gcc\common/core_config.h ****  *
  95:.\asp\arch\arm_m_gcc\common/core_config.h ****  */
ARM GAS  C:\TEMP\ccRLkGcE.s 			page 16


  96:.\asp\arch\arm_m_gcc\common/core_config.h **** Inline bool_t
  97:.\asp\arch\arm_m_gcc\common/core_config.h **** sense_context(void)
  98:.\asp\arch\arm_m_gcc\common/core_config.h **** {
  99:.\asp\arch\arm_m_gcc\common/core_config.h **** 	/*
 100:.\asp\arch\arm_m_gcc\common/core_config.h **** 	 *  PSPが有効ならタスクコンテキスト，MSPが有効なら非タスクコンテキスト
 101:.\asp\arch\arm_m_gcc\common/core_config.h **** 	 *  とする． 
 102:.\asp\arch\arm_m_gcc\common/core_config.h **** 	 */
 103:.\asp\arch\arm_m_gcc\common/core_config.h **** 	if ((get_control() & CONTROL_PSP) == CONTROL_PSP){
 104:.\asp\arch\arm_m_gcc\common/core_config.h **** 		return false;
 105:.\asp\arch\arm_m_gcc\common/core_config.h **** 	}
 106:.\asp\arch\arm_m_gcc\common/core_config.h **** 	else {
 107:.\asp\arch\arm_m_gcc\common/core_config.h **** 		return true;
 108:.\asp\arch\arm_m_gcc\common/core_config.h **** 	}
 109:.\asp\arch\arm_m_gcc\common/core_config.h **** }
 110:.\asp\arch\arm_m_gcc\common/core_config.h **** 
 111:.\asp\arch\arm_m_gcc\common/core_config.h **** #endif /* TOPPERS_MACRO_ONLY */
 112:.\asp\arch\arm_m_gcc\common/core_config.h **** 
 113:.\asp\arch\arm_m_gcc\common/core_config.h **** /*
 114:.\asp\arch\arm_m_gcc\common/core_config.h ****  *  TOPPERS標準割込み処理モデルの実現
 115:.\asp\arch\arm_m_gcc\common/core_config.h ****  *
 116:.\asp\arch\arm_m_gcc\common/core_config.h ****  *  割込み優先度マスクとしては，BASEPRIを用いる．全割込みを禁止する
 117:.\asp\arch\arm_m_gcc\common/core_config.h ****  *  機能として，FAULTMASKやPRIMASKがあるが，カーネル管理外の割込みを
 118:.\asp\arch\arm_m_gcc\common/core_config.h ****  *  サポートするため，これらはCPUロックのために用いない．
 119:.\asp\arch\arm_m_gcc\common/core_config.h ****  *  そのため，BASEPRIを用いて擬似的にCPUロックフラグを実現する．
 120:.\asp\arch\arm_m_gcc\common/core_config.h ****  *
 121:.\asp\arch\arm_m_gcc\common/core_config.h ****  *  まず，CPUロック状態を管理すための変数(lock_flag)を用意する．
 122:.\asp\arch\arm_m_gcc\common/core_config.h ****  *
 123:.\asp\arch\arm_m_gcc\common/core_config.h ****  *  CPUロックフラグがクリアされている間は，BASEPRIをモデル上の割込み
 124:.\asp\arch\arm_m_gcc\common/core_config.h ****  *  優先度マスクの値に設定する．この間は，モデル上の割込み優先度マス
 125:.\asp\arch\arm_m_gcc\common/core_config.h ****  *  クは，BASEPRIを用いる．
 126:.\asp\arch\arm_m_gcc\common/core_config.h ****  * 
 127:.\asp\arch\arm_m_gcc\common/core_config.h ****  *  それに対してCPUロックフラグがセットされいる間は，BASEPRIを，カーネ
 128:.\asp\arch\arm_m_gcc\common/core_config.h ****  *  ル管理外のものを除くすべての割込み要求をマスクする値(TIPM_LOCK)と，
 129:.\asp\arch\arm_m_gcc\common/core_config.h ****  *  モデル上の割込み優先度マスクとの高い方に設定する．この間のモデル上
 130:.\asp\arch\arm_m_gcc\common/core_config.h ****  *  の割込み優先度マスクは，そのための変数(saved_iipm, 内部表現で保持)
 131:.\asp\arch\arm_m_gcc\common/core_config.h ****  *  を用意して保持する．
 132:.\asp\arch\arm_m_gcc\common/core_config.h ****  */
 133:.\asp\arch\arm_m_gcc\common/core_config.h **** 
 134:.\asp\arch\arm_m_gcc\common/core_config.h **** /*
 135:.\asp\arch\arm_m_gcc\common/core_config.h ****  *  割込み優先度マスクの外部表現と内部表現の変換
 136:.\asp\arch\arm_m_gcc\common/core_config.h ****  *
 137:.\asp\arch\arm_m_gcc\common/core_config.h ****  *  アセンブリ言語のソースファイルからインクルードする場合のために，
 138:.\asp\arch\arm_m_gcc\common/core_config.h ****  *  CASTを使用
 139:.\asp\arch\arm_m_gcc\common/core_config.h ****  *  割込み優先度のビット幅(TBITW_IPRI)が 8 の場合は，内部優先度 255
 140:.\asp\arch\arm_m_gcc\common/core_config.h ****  *  は，外部優先度 -1 に対応する．
 141:.\asp\arch\arm_m_gcc\common/core_config.h ****  */
 142:.\asp\arch\arm_m_gcc\common/core_config.h **** #define EXT_IPM(iipm)   (CAST(PRI,((iipm >> (8 - TBITW_IPRI)) - (1 << TBITW_IPRI))))       /* 内部
 143:.\asp\arch\arm_m_gcc\common/core_config.h **** #define INT_IPM(ipm)    (((1 << TBITW_IPRI) - CAST(uint8_t, -(ipm)))  << (8 - TBITW_IPRI)) /* 外部
 144:.\asp\arch\arm_m_gcc\common/core_config.h **** 
 145:.\asp\arch\arm_m_gcc\common/core_config.h **** /*
 146:.\asp\arch\arm_m_gcc\common/core_config.h ****  *  CPUロック状態での割込み優先度マスク
 147:.\asp\arch\arm_m_gcc\common/core_config.h ****  */
 148:.\asp\arch\arm_m_gcc\common/core_config.h **** #define TIPM_LOCK    TMIN_INTPRI
 149:.\asp\arch\arm_m_gcc\common/core_config.h **** 
 150:.\asp\arch\arm_m_gcc\common/core_config.h **** /*
 151:.\asp\arch\arm_m_gcc\common/core_config.h ****  *  CPUロック状態での割込み優先度マスクの内部表現
 152:.\asp\arch\arm_m_gcc\common/core_config.h ****  *
ARM GAS  C:\TEMP\ccRLkGcE.s 			page 17


 153:.\asp\arch\arm_m_gcc\common/core_config.h ****  *  TIPM_LOCKは，CPUロック状態でのBASEPRIの値．カーネル管理外のものを
 154:.\asp\arch\arm_m_gcc\common/core_config.h ****  *  除くすべての割込みをマスクする値に定義する．  
 155:.\asp\arch\arm_m_gcc\common/core_config.h ****  */
 156:.\asp\arch\arm_m_gcc\common/core_config.h **** #define IIPM_LOCK    INT_IPM(TIPM_LOCK)
 157:.\asp\arch\arm_m_gcc\common/core_config.h **** 
 158:.\asp\arch\arm_m_gcc\common/core_config.h **** /*
 159:.\asp\arch\arm_m_gcc\common/core_config.h ****  *  TIPM_ENAALL（割込み優先度マスク全解除）の内部表現
 160:.\asp\arch\arm_m_gcc\common/core_config.h ****  *
 161:.\asp\arch\arm_m_gcc\common/core_config.h ****  *  BASEPRIに '0' を設定することで，全割込みを許可する．
 162:.\asp\arch\arm_m_gcc\common/core_config.h ****  */
 163:.\asp\arch\arm_m_gcc\common/core_config.h **** #define IIPM_ENAALL  (0)
 164:.\asp\arch\arm_m_gcc\common/core_config.h **** 
 165:.\asp\arch\arm_m_gcc\common/core_config.h **** 
 166:.\asp\arch\arm_m_gcc\common/core_config.h **** #ifndef TOPPERS_MACRO_ONLY
 167:.\asp\arch\arm_m_gcc\common/core_config.h **** 
 168:.\asp\arch\arm_m_gcc\common/core_config.h **** /*
 169:.\asp\arch\arm_m_gcc\common/core_config.h ****  *  CPUロックフラグ実現のための変数
 170:.\asp\arch\arm_m_gcc\common/core_config.h ****  * 
 171:.\asp\arch\arm_m_gcc\common/core_config.h ****  *  これらの変数は，CPUロック状態の時のみ書き換えてもよいとする．
 172:.\asp\arch\arm_m_gcc\common/core_config.h ****  *  インライン関数中で，アクセスの順序が変化しないよう，volatile を指定． 
 173:.\asp\arch\arm_m_gcc\common/core_config.h ****  */
 174:.\asp\arch\arm_m_gcc\common/core_config.h **** extern volatile bool_t  lock_flag;    /* CPUロックフラグの値を保持する変数 */
 175:.\asp\arch\arm_m_gcc\common/core_config.h **** extern volatile uint32_t saved_iipm;  /* 割込み優先度をマスクする変数 */
 176:.\asp\arch\arm_m_gcc\common/core_config.h **** 
 177:.\asp\arch\arm_m_gcc\common/core_config.h **** /*
 178:.\asp\arch\arm_m_gcc\common/core_config.h ****  *  CPUロック状態への移行
 179:.\asp\arch\arm_m_gcc\common/core_config.h ****  *
 180:.\asp\arch\arm_m_gcc\common/core_config.h ****  *  BASEPRI（ハードウェアの割込み優先度マスク）を，saved_iipmに保存し，
 181:.\asp\arch\arm_m_gcc\common/core_config.h ****  *  カーネル管理外のものを除くすべての割込みをマスクする値（TIPM_LOCK）
 182:.\asp\arch\arm_m_gcc\common/core_config.h ****  *  に設定する．また，lock_flagをtrueにする．
 183:.\asp\arch\arm_m_gcc\common/core_config.h ****  *
 184:.\asp\arch\arm_m_gcc\common/core_config.h ****  *  BASEPRIが，最初からTIPM_LOCKと同じかそれより高い場合には，それを
 185:.\asp\arch\arm_m_gcc\common/core_config.h ****  *  saved_iipmに保存するのみで，TIPM_LOCKには設定しない．これは，モデル
 186:.\asp\arch\arm_m_gcc\common/core_config.h ****  *  上の割込み優先度マスクが，TIPM_LOCKと同じかそれより高いレベルに設定
 187:.\asp\arch\arm_m_gcc\common/core_config.h ****  *  されている状態にあたる．
 188:.\asp\arch\arm_m_gcc\common/core_config.h ****  *
 189:.\asp\arch\arm_m_gcc\common/core_config.h ****  *  この関数は，CPUロック状態（lock_flagがtrueの状態）で呼ばれることは
 190:.\asp\arch\arm_m_gcc\common/core_config.h ****  *  ないものと想定している．
 191:.\asp\arch\arm_m_gcc\common/core_config.h ****  */
 192:.\asp\arch\arm_m_gcc\common/core_config.h **** Inline void
 193:.\asp\arch\arm_m_gcc\common/core_config.h **** x_lock_cpu(void)
 194:.\asp\arch\arm_m_gcc\common/core_config.h **** {
 195:.\asp\arch\arm_m_gcc\common/core_config.h **** 	uint32_t iipm;
 196:.\asp\arch\arm_m_gcc\common/core_config.h **** 
 197:.\asp\arch\arm_m_gcc\common/core_config.h **** 	/*
 198:.\asp\arch\arm_m_gcc\common/core_config.h **** 	 *  get_basepri()の返り値を直接saved_iipmに保存せず，一時変数iipm
 199:.\asp\arch\arm_m_gcc\common/core_config.h **** 	 *  を用いているのは，get_baespri()を呼んだ直後に割込みが発生し，
 200:.\asp\arch\arm_m_gcc\common/core_config.h **** 	 *  起動された割込み処理でsaved_iipmが変更される可能性があるためで
 201:.\asp\arch\arm_m_gcc\common/core_config.h **** 	 *  ある．
 202:.\asp\arch\arm_m_gcc\common/core_config.h **** 	 */
 203:.\asp\arch\arm_m_gcc\common/core_config.h **** 	iipm = get_basepri();
 204:.\asp\arch\arm_m_gcc\common/core_config.h **** 	/*
 205:.\asp\arch\arm_m_gcc\common/core_config.h **** 	 *  BASEPRIレジスタは値が小さいほど優先度が高いが，IIPM_ENAALL が
 206:.\asp\arch\arm_m_gcc\common/core_config.h **** 	 *  '0'であるため，単純に優先度比較だけでは不十分である．
 207:.\asp\arch\arm_m_gcc\common/core_config.h **** 	 */
 208:.\asp\arch\arm_m_gcc\common/core_config.h **** 	if ((IIPM_LOCK < iipm) || (IIPM_ENAALL == iipm)) {
 209:.\asp\arch\arm_m_gcc\common/core_config.h **** 		set_basepri(IIPM_LOCK);
ARM GAS  C:\TEMP\ccRLkGcE.s 			page 18


 210:.\asp\arch\arm_m_gcc\common/core_config.h **** 	}
 211:.\asp\arch\arm_m_gcc\common/core_config.h **** 	saved_iipm = iipm;
 212:.\asp\arch\arm_m_gcc\common/core_config.h **** 	lock_flag = true;
 213:.\asp\arch\arm_m_gcc\common/core_config.h **** 	/* クリティカルセクションの前後でメモリが書き換わる可能性がある */
 214:.\asp\arch\arm_m_gcc\common/core_config.h **** 	ARM_MEMORY_CHANGED;
 215:.\asp\arch\arm_m_gcc\common/core_config.h **** }
 216:.\asp\arch\arm_m_gcc\common/core_config.h **** 
 217:.\asp\arch\arm_m_gcc\common/core_config.h **** #define t_lock_cpu()    x_lock_cpu()
 218:.\asp\arch\arm_m_gcc\common/core_config.h **** #define i_lock_cpu()    x_lock_cpu()
 219:.\asp\arch\arm_m_gcc\common/core_config.h **** 
 220:.\asp\arch\arm_m_gcc\common/core_config.h **** /*
 221:.\asp\arch\arm_m_gcc\common/core_config.h ****  *  CPUロック状態の解除
 222:.\asp\arch\arm_m_gcc\common/core_config.h ****  *
 223:.\asp\arch\arm_m_gcc\common/core_config.h ****  *  lock_flagをfalseにし，IPM（ハードウェアの割込み優先度マスク）を，
 224:.\asp\arch\arm_m_gcc\common/core_config.h ****  *  saved_iipmに保存した値に戻す．
 225:.\asp\arch\arm_m_gcc\common/core_config.h ****  *
 226:.\asp\arch\arm_m_gcc\common/core_config.h ****  *  この関数は，CPUロック状態（lock_flagがtrueの状態）でのみ呼ばれるも
 227:.\asp\arch\arm_m_gcc\common/core_config.h ****  *  のと想定している．
 228:.\asp\arch\arm_m_gcc\common/core_config.h ****  */
 229:.\asp\arch\arm_m_gcc\common/core_config.h **** Inline void
 230:.\asp\arch\arm_m_gcc\common/core_config.h **** x_unlock_cpu(void)
 231:.\asp\arch\arm_m_gcc\common/core_config.h **** {
 232:.\asp\arch\arm_m_gcc\common/core_config.h **** 	/* クリティカルセクションの前後でメモリが書き換わる可能性がある */
 233:.\asp\arch\arm_m_gcc\common/core_config.h **** 	ARM_MEMORY_CHANGED;
 234:.\asp\arch\arm_m_gcc\common/core_config.h **** 	lock_flag = false;
 235:.\asp\arch\arm_m_gcc\common/core_config.h **** 	set_basepri(saved_iipm);
 236:.\asp\arch\arm_m_gcc\common/core_config.h **** }
 237:.\asp\arch\arm_m_gcc\common/core_config.h **** 
 238:.\asp\arch\arm_m_gcc\common/core_config.h **** #define t_unlock_cpu()    x_unlock_cpu()
 239:.\asp\arch\arm_m_gcc\common/core_config.h **** #define i_unlock_cpu()    x_unlock_cpu()
 240:.\asp\arch\arm_m_gcc\common/core_config.h **** 
 241:.\asp\arch\arm_m_gcc\common/core_config.h **** /*
 242:.\asp\arch\arm_m_gcc\common/core_config.h ****  *  CPUロック状態の参照
 243:.\asp\arch\arm_m_gcc\common/core_config.h ****  */
 244:.\asp\arch\arm_m_gcc\common/core_config.h **** Inline bool_t
 245:.\asp\arch\arm_m_gcc\common/core_config.h **** x_sense_lock(void)
 246:.\asp\arch\arm_m_gcc\common/core_config.h **** {
 247:.\asp\arch\arm_m_gcc\common/core_config.h **** 	return(lock_flag);
 248:.\asp\arch\arm_m_gcc\common/core_config.h **** }
 249:.\asp\arch\arm_m_gcc\common/core_config.h **** 
 250:.\asp\arch\arm_m_gcc\common/core_config.h **** #define t_sense_lock()    x_sense_lock()
 251:.\asp\arch\arm_m_gcc\common/core_config.h **** #define i_sense_lock()    x_sense_lock()
 252:.\asp\arch\arm_m_gcc\common/core_config.h **** 
 253:.\asp\arch\arm_m_gcc\common/core_config.h **** /*
 254:.\asp\arch\arm_m_gcc\common/core_config.h ****  *  chg_ipmで有効な割込み優先度の範囲の判定
 255:.\asp\arch\arm_m_gcc\common/core_config.h ****  *
 256:.\asp\arch\arm_m_gcc\common/core_config.h ****  *  TMIN_INTPRIの値によらず，chg_ipmでは，-(1 << TBITW_IPRI)〜TIPM_ENAALL（＝0）
 257:.\asp\arch\arm_m_gcc\common/core_config.h ****  *  の範囲に設定できることとする（ターゲット定義の拡張）．
 258:.\asp\arch\arm_m_gcc\common/core_config.h ****  *  割込み優先度のビット幅(TBITW_IPRI)が 8 の場合は，-256 〜 0 が指定可能である．
 259:.\asp\arch\arm_m_gcc\common/core_config.h ****  *   
 260:.\asp\arch\arm_m_gcc\common/core_config.h ****  */
 261:.\asp\arch\arm_m_gcc\common/core_config.h **** #define VALID_INTPRI_CHGIPM(intpri) \
 262:.\asp\arch\arm_m_gcc\common/core_config.h **** 				((-((1 << TBITW_IPRI) - 1) <= (intpri) && (intpri) <= TIPM_ENAALL))
 263:.\asp\arch\arm_m_gcc\common/core_config.h **** 
 264:.\asp\arch\arm_m_gcc\common/core_config.h **** /*
 265:.\asp\arch\arm_m_gcc\common/core_config.h ****  * （モデル上の）割込み優先度マスクの設定
 266:.\asp\arch\arm_m_gcc\common/core_config.h ****  *
ARM GAS  C:\TEMP\ccRLkGcE.s 			page 19


 267:.\asp\arch\arm_m_gcc\common/core_config.h ****  *  CPUロックフラグがクリアされている時は，ハードウェアの割込み優先度マ
 268:.\asp\arch\arm_m_gcc\common/core_config.h ****  *  スクを設定する．CPUロックフラグがセットされている時は，saved_iipm
 269:.\asp\arch\arm_m_gcc\common/core_config.h ****  *  を設定し，さらに，ハードウェアの割込み優先度マスクを，設定しようと
 270:.\asp\arch\arm_m_gcc\common/core_config.h ****  *  した（モデル上の）割込み優先度マスクとTIPM_LOCKの高い方に設定する．
 271:.\asp\arch\arm_m_gcc\common/core_config.h ****  */
 272:.\asp\arch\arm_m_gcc\common/core_config.h **** Inline void
 273:.\asp\arch\arm_m_gcc\common/core_config.h **** x_set_ipm(PRI intpri)
 274:.\asp\arch\arm_m_gcc\common/core_config.h **** {
 275:.\asp\arch\arm_m_gcc\common/core_config.h **** 	uint8_t   iipm = INT_IPM(intpri);
 276:.\asp\arch\arm_m_gcc\common/core_config.h **** 
 277:.\asp\arch\arm_m_gcc\common/core_config.h **** 	if (intpri == TIPM_ENAALL){
 278:.\asp\arch\arm_m_gcc\common/core_config.h **** 		iipm = IIPM_ENAALL;
 279:.\asp\arch\arm_m_gcc\common/core_config.h **** 	}
 280:.\asp\arch\arm_m_gcc\common/core_config.h **** 
 281:.\asp\arch\arm_m_gcc\common/core_config.h **** 	if (!lock_flag) {
 282:.\asp\arch\arm_m_gcc\common/core_config.h **** 		set_basepri(iipm);
 283:.\asp\arch\arm_m_gcc\common/core_config.h **** 	}
 284:.\asp\arch\arm_m_gcc\common/core_config.h **** 	else {
 285:.\asp\arch\arm_m_gcc\common/core_config.h **** 		saved_iipm = iipm;
 286:.\asp\arch\arm_m_gcc\common/core_config.h **** 		/*
 287:.\asp\arch\arm_m_gcc\common/core_config.h **** 		 *  BASEPRIレジスタは値が小さいほど優先度が高いが，IIPM_ENAALL が
 288:.\asp\arch\arm_m_gcc\common/core_config.h **** 		 *  '0'であるため，単純に優先度比較だけでは不十分である．
 289:.\asp\arch\arm_m_gcc\common/core_config.h **** 		 */
 290:.\asp\arch\arm_m_gcc\common/core_config.h **** 		if ((iipm < IIPM_LOCK ) && (IIPM_ENAALL != iipm)) {
 291:.\asp\arch\arm_m_gcc\common/core_config.h **** 			set_basepri(iipm);
 292:.\asp\arch\arm_m_gcc\common/core_config.h **** 		}
 293:.\asp\arch\arm_m_gcc\common/core_config.h **** 		else {
 294:.\asp\arch\arm_m_gcc\common/core_config.h **** 			set_basepri(IIPM_LOCK);
 295:.\asp\arch\arm_m_gcc\common/core_config.h **** 		}
 296:.\asp\arch\arm_m_gcc\common/core_config.h **** 	}
 297:.\asp\arch\arm_m_gcc\common/core_config.h **** }
 298:.\asp\arch\arm_m_gcc\common/core_config.h **** 
 299:.\asp\arch\arm_m_gcc\common/core_config.h **** #define t_set_ipm(intpri)    x_set_ipm(intpri)
 300:.\asp\arch\arm_m_gcc\common/core_config.h **** #define i_set_ipm(intpri)    x_set_ipm(intpri)
 301:.\asp\arch\arm_m_gcc\common/core_config.h **** 
 302:.\asp\arch\arm_m_gcc\common/core_config.h **** /*
 303:.\asp\arch\arm_m_gcc\common/core_config.h ****  * （モデル上の）割込み優先度マスクの参照
 304:.\asp\arch\arm_m_gcc\common/core_config.h ****  *
 305:.\asp\arch\arm_m_gcc\common/core_config.h ****  *  CPUロックフラグがクリアされている時はハードウェアの割込み優先度マ
 306:.\asp\arch\arm_m_gcc\common/core_config.h ****  *  スクを，セットされている時はsaved_iipmを参照する．
 307:.\asp\arch\arm_m_gcc\common/core_config.h ****  */
 308:.\asp\arch\arm_m_gcc\common/core_config.h **** Inline PRI
 309:.\asp\arch\arm_m_gcc\common/core_config.h **** x_get_ipm(void)
 310:.\asp\arch\arm_m_gcc\common/core_config.h **** {
 311:.\asp\arch\arm_m_gcc\common/core_config.h **** 	uint8_t iipm;
 312:.\asp\arch\arm_m_gcc\common/core_config.h **** 
 313:.\asp\arch\arm_m_gcc\common/core_config.h **** 	if (!lock_flag) {
 314:.\asp\arch\arm_m_gcc\common/core_config.h **** 		iipm = get_basepri();
 315:.\asp\arch\arm_m_gcc\common/core_config.h **** 	}
 316:.\asp\arch\arm_m_gcc\common/core_config.h **** 	else {
 317:.\asp\arch\arm_m_gcc\common/core_config.h **** 		iipm = saved_iipm;
 318:.\asp\arch\arm_m_gcc\common/core_config.h **** 	}
 319:.\asp\arch\arm_m_gcc\common/core_config.h **** 
 320:.\asp\arch\arm_m_gcc\common/core_config.h **** 	if (iipm == IIPM_ENAALL) {
 321:.\asp\arch\arm_m_gcc\common/core_config.h **** 		return(TIPM_ENAALL);
 322:.\asp\arch\arm_m_gcc\common/core_config.h **** 	}
 323:.\asp\arch\arm_m_gcc\common/core_config.h **** 	else {
ARM GAS  C:\TEMP\ccRLkGcE.s 			page 20


 324:.\asp\arch\arm_m_gcc\common/core_config.h **** 		return(EXT_IPM(iipm));
 325:.\asp\arch\arm_m_gcc\common/core_config.h **** 	}
 326:.\asp\arch\arm_m_gcc\common/core_config.h **** }
 327:.\asp\arch\arm_m_gcc\common/core_config.h **** 
 328:.\asp\arch\arm_m_gcc\common/core_config.h **** #define t_get_ipm()    x_get_ipm()
 329:.\asp\arch\arm_m_gcc\common/core_config.h **** #define i_get_ipm()    x_get_ipm()
 330:.\asp\arch\arm_m_gcc\common/core_config.h **** 
 331:.\asp\arch\arm_m_gcc\common/core_config.h **** /*
 332:.\asp\arch\arm_m_gcc\common/core_config.h ****  *  SVCハンドラ（core_support.S）
 333:.\asp\arch\arm_m_gcc\common/core_config.h ****  */
 334:.\asp\arch\arm_m_gcc\common/core_config.h **** extern void svc_handler(void);
 335:.\asp\arch\arm_m_gcc\common/core_config.h **** 
 336:.\asp\arch\arm_m_gcc\common/core_config.h **** /*
 337:.\asp\arch\arm_m_gcc\common/core_config.h ****  *  スタートアップルーチン（start.S）
 338:.\asp\arch\arm_m_gcc\common/core_config.h ****  */
 339:.\asp\arch\arm_m_gcc\common/core_config.h **** extern void _start(void);
 340:.\asp\arch\arm_m_gcc\common/core_config.h **** 
 341:.\asp\arch\arm_m_gcc\common/core_config.h **** /*
 342:.\asp\arch\arm_m_gcc\common/core_config.h ****  *  最高優先順位タスクへのディスパッチ（core_support.S）
 343:.\asp\arch\arm_m_gcc\common/core_config.h ****  *
 344:.\asp\arch\arm_m_gcc\common/core_config.h ****  *  dispatchは，タスクコンテキストから呼び出されたサービスコール処理か
 345:.\asp\arch\arm_m_gcc\common/core_config.h ****  *  ら呼び出すべきもので，タスクコンテキスト・CPUロック状態・ディスパッ
 346:.\asp\arch\arm_m_gcc\common/core_config.h ****  *  チ許可状態・（モデル上の）割込み優先度マスク全解除状態で呼び出さな
 347:.\asp\arch\arm_m_gcc\common/core_config.h ****  *  ければならない．
 348:.\asp\arch\arm_m_gcc\common/core_config.h ****  */
 349:.\asp\arch\arm_m_gcc\common/core_config.h **** extern void dispatch(void);
 350:.\asp\arch\arm_m_gcc\common/core_config.h **** 
 351:.\asp\arch\arm_m_gcc\common/core_config.h **** /*
 352:.\asp\arch\arm_m_gcc\common/core_config.h ****  *  ディスパッチャの動作開始（core_support.S）
 353:.\asp\arch\arm_m_gcc\common/core_config.h ****  *
 354:.\asp\arch\arm_m_gcc\common/core_config.h ****  *  start_dispatchは，カーネル起動時に呼び出すべきもので，すべての割込
 355:.\asp\arch\arm_m_gcc\common/core_config.h ****  *  みを禁止した状態（割込みロック状態と同等の状態）で呼び出さなければ
 356:.\asp\arch\arm_m_gcc\common/core_config.h ****  *  ならない．
 357:.\asp\arch\arm_m_gcc\common/core_config.h ****  */
 358:.\asp\arch\arm_m_gcc\common/core_config.h **** extern void start_dispatch(void) NoReturn;
 359:.\asp\arch\arm_m_gcc\common/core_config.h **** 
 360:.\asp\arch\arm_m_gcc\common/core_config.h **** /*
 361:.\asp\arch\arm_m_gcc\common/core_config.h ****  *  現在のコンテキストを捨ててディスパッチ（core_support.S）
 362:.\asp\arch\arm_m_gcc\common/core_config.h ****  *
 363:.\asp\arch\arm_m_gcc\common/core_config.h ****  *  exit_and_dispatchは，ext_tskから呼び出すべきもので，タスクコンテキ
 364:.\asp\arch\arm_m_gcc\common/core_config.h ****  *  スト・CPUロック状態・ディスパッチ許可状態・（モデル上の）割込み優先
 365:.\asp\arch\arm_m_gcc\common/core_config.h ****  *  度マスク全解除状態で呼び出さなければならない．
 366:.\asp\arch\arm_m_gcc\common/core_config.h ****  */
 367:.\asp\arch\arm_m_gcc\common/core_config.h **** extern void exit_and_dispatch(void) NoReturn;
 368:.\asp\arch\arm_m_gcc\common/core_config.h **** 
 369:.\asp\arch\arm_m_gcc\common/core_config.h **** /*
 370:.\asp\arch\arm_m_gcc\common/core_config.h ****  *  カーネルの終了処理の呼出し（core_support.S）
 371:.\asp\arch\arm_m_gcc\common/core_config.h ****  *
 372:.\asp\arch\arm_m_gcc\common/core_config.h ****  *  call_exit_kernelは，カーネルの終了時に呼び出すべきもので，非タスク
 373:.\asp\arch\arm_m_gcc\common/core_config.h ****  *  コンテキストに切り換えて，カーネルの終了処理（exit_kernel）を呼び出
 374:.\asp\arch\arm_m_gcc\common/core_config.h ****  *  す．
 375:.\asp\arch\arm_m_gcc\common/core_config.h ****  */
 376:.\asp\arch\arm_m_gcc\common/core_config.h **** extern void call_exit_kernel(void) NoReturn;
 377:.\asp\arch\arm_m_gcc\common/core_config.h **** 
 378:.\asp\arch\arm_m_gcc\common/core_config.h **** /*
 379:.\asp\arch\arm_m_gcc\common/core_config.h ****  *  タスクコンテキストの初期化
 380:.\asp\arch\arm_m_gcc\common/core_config.h ****  *
ARM GAS  C:\TEMP\ccRLkGcE.s 			page 21


 381:.\asp\arch\arm_m_gcc\common/core_config.h ****  *  タスクが休止状態から実行できる状態に移行する時に呼ばれる．この時点
 382:.\asp\arch\arm_m_gcc\common/core_config.h ****  *  でスタック領域を使ってはならない．
 383:.\asp\arch\arm_m_gcc\common/core_config.h ****  *
 384:.\asp\arch\arm_m_gcc\common/core_config.h ****  *  activate_contextを，インライン関数ではなくマクロ定義としているのは，
 385:.\asp\arch\arm_m_gcc\common/core_config.h ****  *  この時点ではTCBが定義されていないためである．
 386:.\asp\arch\arm_m_gcc\common/core_config.h ****  */
 387:.\asp\arch\arm_m_gcc\common/core_config.h **** extern void    start_r(void);
 388:.\asp\arch\arm_m_gcc\common/core_config.h **** 
 389:.\asp\arch\arm_m_gcc\common/core_config.h **** #define activate_context(p_tcb)                                         \
 390:.\asp\arch\arm_m_gcc\common/core_config.h **** {                                                                       \
 391:.\asp\arch\arm_m_gcc\common/core_config.h ****     (p_tcb)->tskctxb.sp = (void *)((uint8_t *)((p_tcb)->p_tinib->stk)    \
 392:.\asp\arch\arm_m_gcc\common/core_config.h ****                                         + (p_tcb)->p_tinib->stksz);     \
 393:.\asp\arch\arm_m_gcc\common/core_config.h ****     (p_tcb)->tskctxb.pc = (FP) start_r;                             \
 394:.\asp\arch\arm_m_gcc\common/core_config.h **** }
 395:.\asp\arch\arm_m_gcc\common/core_config.h **** 
 396:.\asp\arch\arm_m_gcc\common/core_config.h **** /*
 397:.\asp\arch\arm_m_gcc\common/core_config.h ****  *  calltexは使用しない
 398:.\asp\arch\arm_m_gcc\common/core_config.h ****  */
 399:.\asp\arch\arm_m_gcc\common/core_config.h **** #define OMIT_CALLTEX
 400:.\asp\arch\arm_m_gcc\common/core_config.h **** 
 401:.\asp\arch\arm_m_gcc\common/core_config.h **** /*
 402:.\asp\arch\arm_m_gcc\common/core_config.h ****  *  割込み番号・割込みハンドラ番号
 403:.\asp\arch\arm_m_gcc\common/core_config.h ****  *
 404:.\asp\arch\arm_m_gcc\common/core_config.h ****  *  割込みハンドラ番号(inhno)と割込み番号(intno)は，割り込み発生時に
 405:.\asp\arch\arm_m_gcc\common/core_config.h ****  *  EPSRに設定される例外番号とする． 
 406:.\asp\arch\arm_m_gcc\common/core_config.h ****  */
 407:.\asp\arch\arm_m_gcc\common/core_config.h **** 
 408:.\asp\arch\arm_m_gcc\common/core_config.h **** /*
 409:.\asp\arch\arm_m_gcc\common/core_config.h ****  *  割込み番号の範囲の判定
 410:.\asp\arch\arm_m_gcc\common/core_config.h ****  */
 411:.\asp\arch\arm_m_gcc\common/core_config.h **** #define VALID_INTNO(intno)           ((TMIN_INTNO <= (intno)) && ((intno) <= TMAX_INTNO))
 412:.\asp\arch\arm_m_gcc\common/core_config.h **** #define VALID_INTNO_DISINT(intno)    VALID_INTNO(intno)
 413:.\asp\arch\arm_m_gcc\common/core_config.h **** #define VALID_INTNO_CFGINT(intno)    VALID_INTNO(intno)
 414:.\asp\arch\arm_m_gcc\common/core_config.h **** 
 415:.\asp\arch\arm_m_gcc\common/core_config.h **** /*
 416:.\asp\arch\arm_m_gcc\common/core_config.h ****  *  割込みハンドラの設定
 417:.\asp\arch\arm_m_gcc\common/core_config.h ****  *
 418:.\asp\arch\arm_m_gcc\common/core_config.h ****  *  ベクトル番号inhnoの割込みハンドラの起動番地int_entryに設定する．割込み
 419:.\asp\arch\arm_m_gcc\common/core_config.h ****  *  ハンドラテーブル
 420:.\asp\arch\arm_m_gcc\common/core_config.h ****  */
 421:.\asp\arch\arm_m_gcc\common/core_config.h **** Inline void
 422:.\asp\arch\arm_m_gcc\common/core_config.h **** x_define_inh(INHNO inhno, FP int_entry)
 423:.\asp\arch\arm_m_gcc\common/core_config.h **** {
 424:.\asp\arch\arm_m_gcc\common/core_config.h **** 
 425:.\asp\arch\arm_m_gcc\common/core_config.h **** }
 426:.\asp\arch\arm_m_gcc\common/core_config.h **** 
 427:.\asp\arch\arm_m_gcc\common/core_config.h **** /*
 428:.\asp\arch\arm_m_gcc\common/core_config.h ****  *  割込みハンドラの出入口処理の生成マクロ
 429:.\asp\arch\arm_m_gcc\common/core_config.h ****  *
 430:.\asp\arch\arm_m_gcc\common/core_config.h ****  */
 431:.\asp\arch\arm_m_gcc\common/core_config.h **** #define INT_ENTRY(inhno, inthdr)    inthdr
 432:.\asp\arch\arm_m_gcc\common/core_config.h **** #define INTHDR_ENTRY(inhno, inhno_num, inthdr) extern void inthdr(void);
 433:.\asp\arch\arm_m_gcc\common/core_config.h **** 
 434:.\asp\arch\arm_m_gcc\common/core_config.h **** /*
 435:.\asp\arch\arm_m_gcc\common/core_config.h ****  *  割込み要求禁止フラグ
 436:.\asp\arch\arm_m_gcc\common/core_config.h ****  */
 437:.\asp\arch\arm_m_gcc\common/core_config.h **** 
ARM GAS  C:\TEMP\ccRLkGcE.s 			page 22


 438:.\asp\arch\arm_m_gcc\common/core_config.h **** /*
 439:.\asp\arch\arm_m_gcc\common/core_config.h ****  *  割込み属性が設定されているかを判別するための変数（kernel_cfg.c）
 440:.\asp\arch\arm_m_gcc\common/core_config.h ****  */
 441:.\asp\arch\arm_m_gcc\common/core_config.h **** extern const uint32_t	bitpat_cfgint[];
 442:.\asp\arch\arm_m_gcc\common/core_config.h **** 
 443:.\asp\arch\arm_m_gcc\common/core_config.h **** /*
 444:.\asp\arch\arm_m_gcc\common/core_config.h ****  *  割込み要求禁止フラグのセット
 445:.\asp\arch\arm_m_gcc\common/core_config.h ****  *
 446:.\asp\arch\arm_m_gcc\common/core_config.h ****  *  割込み属性が設定されていない割込み要求ラインに対して割込み要求禁止
 447:.\asp\arch\arm_m_gcc\common/core_config.h ****  *  フラグをクリアしようとした場合には，falseを返す．  
 448:.\asp\arch\arm_m_gcc\common/core_config.h ****  */
 449:.\asp\arch\arm_m_gcc\common/core_config.h **** Inline bool_t
 450:.\asp\arch\arm_m_gcc\common/core_config.h **** x_disable_int(INTNO intno)
 451:.\asp\arch\arm_m_gcc\common/core_config.h **** {
 452:.\asp\arch\arm_m_gcc\common/core_config.h **** 	uint32_t tmp;
 453:.\asp\arch\arm_m_gcc\common/core_config.h **** 
 454:.\asp\arch\arm_m_gcc\common/core_config.h **** 	/*
 455:.\asp\arch\arm_m_gcc\common/core_config.h **** 	 *  割込み属性が設定されていない場合
 456:.\asp\arch\arm_m_gcc\common/core_config.h **** 	 */
 457:.\asp\arch\arm_m_gcc\common/core_config.h **** 	if ((bitpat_cfgint[intno >> 5] & (1 << (intno & 0x1f))) == 0x00) {
 458:.\asp\arch\arm_m_gcc\common/core_config.h **** 		return(false);
 459:.\asp\arch\arm_m_gcc\common/core_config.h **** 	}
 460:.\asp\arch\arm_m_gcc\common/core_config.h **** 
 461:.\asp\arch\arm_m_gcc\common/core_config.h **** 	if (intno == IRQNO_SYSTICK) {
 462:.\asp\arch\arm_m_gcc\common/core_config.h **** 		tmp = sil_rew_mem((void *)SYSTIC_CONTROL_STATUS);
 463:.\asp\arch\arm_m_gcc\common/core_config.h **** 		tmp &= ~SYSTIC_TICINT;
 464:.\asp\arch\arm_m_gcc\common/core_config.h **** 		sil_wrw_mem((void *)SYSTIC_CONTROL_STATUS, tmp);
 465:.\asp\arch\arm_m_gcc\common/core_config.h **** 	}else {
 466:.\asp\arch\arm_m_gcc\common/core_config.h **** 		tmp = intno - 16;
 467:.\asp\arch\arm_m_gcc\common/core_config.h **** 		sil_wrw_mem((void *)((uint32_t *)NVIC_CLRENA0 + (tmp >> 5)),
 468:.\asp\arch\arm_m_gcc\common/core_config.h **** 					(1 << (tmp & 0x1f)));
 469:.\asp\arch\arm_m_gcc\common/core_config.h **** 	}
 470:.\asp\arch\arm_m_gcc\common/core_config.h **** 
 471:.\asp\arch\arm_m_gcc\common/core_config.h **** 	return(true);
 472:.\asp\arch\arm_m_gcc\common/core_config.h **** }
 473:.\asp\arch\arm_m_gcc\common/core_config.h **** 
 474:.\asp\arch\arm_m_gcc\common/core_config.h **** #define t_disable_int(intno) x_disable_int(intno)
 475:.\asp\arch\arm_m_gcc\common/core_config.h **** #define i_disable_int(intno) x_disable_int(intno)
 476:.\asp\arch\arm_m_gcc\common/core_config.h **** 
 477:.\asp\arch\arm_m_gcc\common/core_config.h **** /*
 478:.\asp\arch\arm_m_gcc\common/core_config.h ****  *  割込み要求禁止フラグの解除
 479:.\asp\arch\arm_m_gcc\common/core_config.h ****  *
 480:.\asp\arch\arm_m_gcc\common/core_config.h ****  *  割込み属性が設定されていない割込み要求ラインに対して割込み要求禁止
 481:.\asp\arch\arm_m_gcc\common/core_config.h ****  *  フラグをクリアしようとした場合には，falseを返す．
 482:.\asp\arch\arm_m_gcc\common/core_config.h ****  */
 483:.\asp\arch\arm_m_gcc\common/core_config.h **** Inline bool_t
 484:.\asp\arch\arm_m_gcc\common/core_config.h **** x_enable_int(INTNO intno)
 485:.\asp\arch\arm_m_gcc\common/core_config.h **** {
 486:.\asp\arch\arm_m_gcc\common/core_config.h **** 	uint32_t tmp;
 487:.\asp\arch\arm_m_gcc\common/core_config.h **** 
 488:.\asp\arch\arm_m_gcc\common/core_config.h **** 	/*
 489:.\asp\arch\arm_m_gcc\common/core_config.h **** 	 *  割込み属性が設定されていない場合
 490:.\asp\arch\arm_m_gcc\common/core_config.h **** 	 */
 491:.\asp\arch\arm_m_gcc\common/core_config.h **** 	if ((bitpat_cfgint[intno >> 5] & (1 << (intno & 0x1f))) == 0x00) {
 336              		.loc 3 491 0
 337 004c 084B     		ldr	r3, .L29+16
 338 004e 1868     		ldr	r0, [r3, #0]
ARM GAS  C:\TEMP\ccRLkGcE.s 			page 23


 339 0050 0305     		lsls	r3, r0, #20
 340 0052 04D5     		bpl	.L24
 341              	.LVL40:
 342              	.LBB94:
 343              	.LBB95:
 344              		.loc 2 223 0
 345 0054 4FF00061 		mov	r1, #134217728
 346 0058 4EF2FC02 		movw	r2, #57596
 347 005c 1160     		str	r1, [r2, #0]
 348              	.LVL41:
 349              	.L24:
 350 005e 10BD     		pop	{r4, pc}
 351              	.L30:
 352              		.align	2
 353              	.L29:
 354 0060 00000000 		.word	_kernel_lock_flag
 355 0064 00000000 		.word	_kernel_saved_iipm
 356 0068 08ED00E0 		.word	-536810232
 357 006c 00000000 		.word	_kernel_vector_table
 358 0070 00000000 		.word	_kernel_bitpat_cfgint
 359              	.LBE95:
 360              	.LBE94:
 361              	.LBE93:
 362              	.LBE92:
 363              		.cfi_endproc
 364              	.LFE56:
 365              		.size	_kernel_core_initialize, .-_kernel_core_initialize
 366              		.section	.text._kernel_core_terminate,"ax",%progbits
 367              		.align	1
 368              		.global	_kernel_core_terminate
 369              		.thumb
 370              		.thumb_func
 371              		.type	_kernel_core_terminate, %function
 372              	_kernel_core_terminate:
 373              	.LFB57:
 193:.\asp\arch\arm_m_gcc\common/core_config.c **** 
 194:.\asp\arch\arm_m_gcc\common/core_config.c **** 	/*
 195:.\asp\arch\arm_m_gcc\common/core_config.c **** 	 *  SVCハンドラを有効に
 196:.\asp\arch\arm_m_gcc\common/core_config.c **** 	 */
 197:.\asp\arch\arm_m_gcc\common/core_config.c **** 	x_enable_int(EXCNO_SVCALL);
 198:.\asp\arch\arm_m_gcc\common/core_config.c **** }
 199:.\asp\arch\arm_m_gcc\common/core_config.c **** 
 200:.\asp\arch\arm_m_gcc\common/core_config.c **** /*
 201:.\asp\arch\arm_m_gcc\common/core_config.c ****  *  コア依存の終了処理
 202:.\asp\arch\arm_m_gcc\common/core_config.c ****  */
 203:.\asp\arch\arm_m_gcc\common/core_config.c **** void
 204:.\asp\arch\arm_m_gcc\common/core_config.c **** core_terminate(void)
 205:.\asp\arch\arm_m_gcc\common/core_config.c **** {
 374              		.loc 1 205 0
 375              		.cfi_startproc
 376              		@ args = 0, pretend = 0, frame = 8
 377              		@ frame_needed = 0, uses_anonymous_args = 0
 378 0000 07B5     		push	{r0, r1, r2, lr}
 379              	.LCFI2:
 380              		.cfi_def_cfa_offset 16
 381              		.cfi_offset 0, -16
 382              		.cfi_offset 1, -12
ARM GAS  C:\TEMP\ccRLkGcE.s 			page 24


 383              		.cfi_offset 2, -8
 384              		.cfi_offset 14, -4
 206:.\asp\arch\arm_m_gcc\common/core_config.c **** 	extern void    software_term_hook(void);
 207:.\asp\arch\arm_m_gcc\common/core_config.c **** 	void (*volatile fp)(void) = software_term_hook;
 385              		.loc 1 207 0
 386 0002 034B     		ldr	r3, .L36
 387 0004 0193     		str	r3, [sp, #4]
 388              	.LVL42:
 208:.\asp\arch\arm_m_gcc\common/core_config.c **** 
 209:.\asp\arch\arm_m_gcc\common/core_config.c **** 	/*
 210:.\asp\arch\arm_m_gcc\common/core_config.c **** 	 *  software_term_hookへのポインタを，一旦volatile指定のあるfpに代
 211:.\asp\arch\arm_m_gcc\common/core_config.c **** 	 *  入してから使うのは，0との比較が最適化で削除されないようにするた
 212:.\asp\arch\arm_m_gcc\common/core_config.c **** 	 *  めである．
 213:.\asp\arch\arm_m_gcc\common/core_config.c **** 	 */
 214:.\asp\arch\arm_m_gcc\common/core_config.c **** 	if (fp != 0) {
 389              		.loc 1 214 0
 390 0006 0198     		ldr	r0, [sp, #4]
 391 0008 08B1     		cbz	r0, .L31
 215:.\asp\arch\arm_m_gcc\common/core_config.c **** 		(*fp)();
 392              		.loc 1 215 0
 393 000a 0199     		ldr	r1, [sp, #4]
 394 000c 8847     		blx	r1
 395              	.LVL43:
 396              	.L31:
 216:.\asp\arch\arm_m_gcc\common/core_config.c **** 	}
 217:.\asp\arch\arm_m_gcc\common/core_config.c **** }
 397              		.loc 1 217 0
 398 000e 0EBD     		pop	{r1, r2, r3, pc}
 399              	.L37:
 400              		.align	2
 401              	.L36:
 402 0010 00000000 		.word	software_term_hook
 403              		.cfi_endproc
 404              	.LFE57:
 405              		.size	_kernel_core_terminate, .-_kernel_core_terminate
 406              		.section	.text._kernel_x_config_int,"ax",%progbits
 407              		.align	1
 408              		.global	_kernel_x_config_int
 409              		.thumb
 410              		.thumb_func
 411              		.type	_kernel_x_config_int, %function
 412              	_kernel_x_config_int:
 413              	.LFB58:
 218:.\asp\arch\arm_m_gcc\common/core_config.c **** 
 219:.\asp\arch\arm_m_gcc\common/core_config.c **** /*
 220:.\asp\arch\arm_m_gcc\common/core_config.c ****  *  割込み要求ライン属性の設定
 221:.\asp\arch\arm_m_gcc\common/core_config.c ****  */
 222:.\asp\arch\arm_m_gcc\common/core_config.c **** void
 223:.\asp\arch\arm_m_gcc\common/core_config.c **** x_config_int(INTNO intno, ATR intatr, PRI intpri)
 224:.\asp\arch\arm_m_gcc\common/core_config.c **** {
 414              		.loc 1 224 0
 415              		.cfi_startproc
 416              		@ args = 0, pretend = 0, frame = 0
 417              		@ frame_needed = 0, uses_anonymous_args = 0
 418              	.LVL44:
 419 0000 F8B5     		push	{r3, r4, r5, r6, r7, lr}
 420              	.LCFI3:
ARM GAS  C:\TEMP\ccRLkGcE.s 			page 25


 421              		.cfi_def_cfa_offset 24
 422              		.cfi_offset 3, -24
 423              		.cfi_offset 4, -20
 424              		.cfi_offset 5, -16
 425              		.cfi_offset 6, -12
 426              		.cfi_offset 7, -8
 427              		.cfi_offset 14, -4
 428              	.LBB116:
 457:.\asp\arch\arm_m_gcc\common/core_config.h **** 	if ((bitpat_cfgint[intno >> 5] & (1 << (intno & 0x1f))) == 0x00) {
 429              		.loc 3 457 0
 430 0002 00F01F05 		and	r5, r0, #31
 431              	.LBB117:
 432 0006 0123     		movs	r3, #1
 433 0008 03FA05F5 		lsl	r5, r3, r5
 434              	.LBE117:
 435              	.LBE116:
 436              		.loc 1 224 0
 437 000c 0F46     		mov	r7, r1
 438              	.LBB127:
 439              	.LBB124:
 457:.\asp\arch\arm_m_gcc\common/core_config.h **** 	if ((bitpat_cfgint[intno >> 5] & (1 << (intno & 0x1f))) == 0x00) {
 440              		.loc 3 457 0
 441 000e 1F49     		ldr	r1, .L52
 442              	.LVL45:
 443 0010 4609     		lsrs	r6, r0, #5
 444              	.LBE124:
 445              	.LBE127:
 446              		.loc 1 224 0
 447 0012 0446     		mov	r4, r0
 448              	.LBB128:
 449              	.LBB125:
 457:.\asp\arch\arm_m_gcc\common/core_config.h **** 	if ((bitpat_cfgint[intno >> 5] & (1 << (intno & 0x1f))) == 0x00) {
 450              		.loc 3 457 0
 451 0014 51F82600 		ldr	r0, [r1, r6, lsl #2]
 452              	.LVL46:
 453 0018 0542     		tst	r5, r0
 454 001a 12D0     		beq	.L39
 461:.\asp\arch\arm_m_gcc\common/core_config.h **** 	if (intno == IRQNO_SYSTICK) {
 455              		.loc 3 461 0
 456 001c 0F2C     		cmp	r4, #15
 457 001e 05D1     		bne	.L40
 458              	.LVL47:
 459              	.LBB118:
 460              	.LBB119:
 216:.\asp\include/sil.h **** 	data = *((const volatile uint32_t *) mem);
 461              		.loc 2 216 0
 462 0020 1B4B     		ldr	r3, .L52+4
 463 0022 1868     		ldr	r0, [r3, #0]
 464              	.LVL48:
 465              	.LBE119:
 466              	.LBE118:
 463:.\asp\arch\arm_m_gcc\common/core_config.h **** 		tmp &= ~SYSTIC_TICINT;
 467              		.loc 3 463 0
 468 0024 20F00201 		bic	r1, r0, #2
 469              	.LVL49:
 470              	.LBB120:
 471              	.LBB121:
ARM GAS  C:\TEMP\ccRLkGcE.s 			page 26


 472              		.loc 2 223 0
 473 0028 1960     		str	r1, [r3, #0]
 474 002a 0AE0     		b	.L39
 475              	.LVL50:
 476              	.L40:
 477              	.LBE121:
 478              	.LBE120:
 466:.\asp\arch\arm_m_gcc\common/core_config.h **** 		tmp = intno - 16;
 479              		.loc 3 466 0
 480 002c A4F11001 		sub	r1, r4, #16
 481              	.LVL51:
 482              	.LBE125:
 468:.\asp\arch\arm_m_gcc\common/core_config.h **** 					(1 << (tmp & 0x1f)));
 483              		.loc 3 468 0
 484 0030 01F01F00 		and	r0, r1, #31
 485              	.LBB126:
 486 0034 03FA00F3 		lsl	r3, r3, r0
 467:.\asp\arch\arm_m_gcc\common/core_config.h **** 		sil_wrw_mem((void *)((uint32_t *)NVIC_CLRENA0 + (tmp >> 5)),
 487              		.loc 3 467 0
 488 0038 4FEA511E 		lsr	lr, r1, #5
 489              	.LVL52:
 490              	.LBB122:
 491              	.LBB123:
 492              		.loc 2 223 0
 493 003c 1549     		ldr	r1, .L52+8
 494              	.LVL53:
 495 003e 41F82E30 		str	r3, [r1, lr, lsl #2]
 496              	.LVL54:
 497              	.L39:
 498              	.LBE123:
 499              	.LBE122:
 500              	.LBE126:
 501              	.LBE128:
 225:.\asp\arch\arm_m_gcc\common/core_config.c **** 	assert(VALID_INTNO_CFGINT(intno));
 226:.\asp\arch\arm_m_gcc\common/core_config.c **** 	assert(TMIN_INTPRI <= intpri && intpri <= TMAX_INTPRI);
 227:.\asp\arch\arm_m_gcc\common/core_config.c **** 
 228:.\asp\arch\arm_m_gcc\common/core_config.c **** 	/* 
 229:.\asp\arch\arm_m_gcc\common/core_config.c **** 	 *  一旦割込みを禁止する
 230:.\asp\arch\arm_m_gcc\common/core_config.c **** 	 */    
 231:.\asp\arch\arm_m_gcc\common/core_config.c **** 	(void)x_disable_int(intno);
 232:.\asp\arch\arm_m_gcc\common/core_config.c **** 
 233:.\asp\arch\arm_m_gcc\common/core_config.c **** 	/*
 234:.\asp\arch\arm_m_gcc\common/core_config.c **** 	 *  割込み優先度をセット
 235:.\asp\arch\arm_m_gcc\common/core_config.c **** 	 */
 236:.\asp\arch\arm_m_gcc\common/core_config.c **** 	set_exc_int_priority(intno, INT_IPM(intpri));
 502              		.loc 1 236 0
 503 0042 5242     		negs	r2, r2
 504              	.LVL55:
 505 0044 D3B2     		uxtb	r3, r2
 506 0046 C3F10801 		rsb	r1, r3, #8
 507 004a 4901     		lsls	r1, r1, #5
 508 004c 2046     		mov	r0, r4
 509 004e FFF7FEFF 		bl	_kernel_set_exc_int_priority
 510              	.LVL56:
 237:.\asp\arch\arm_m_gcc\common/core_config.c **** 
 238:.\asp\arch\arm_m_gcc\common/core_config.c **** 	/*
 239:.\asp\arch\arm_m_gcc\common/core_config.c **** 	 *  割込み要求マスク解除(必要な場合)
ARM GAS  C:\TEMP\ccRLkGcE.s 			page 27


 240:.\asp\arch\arm_m_gcc\common/core_config.c **** 	 */
 241:.\asp\arch\arm_m_gcc\common/core_config.c **** 	if ((intatr & TA_ENAINT) != 0U) {
 511              		.loc 1 241 0
 512 0052 FA07     		lsls	r2, r7, #31
 513 0054 19D5     		bpl	.L38
 514              	.LVL57:
 515              	.LBB129:
 516              	.LBB130:
 517              		.loc 3 491 0
 518 0056 0D48     		ldr	r0, .L52
 519 0058 50F82620 		ldr	r2, [r0, r6, lsl #2]
 520 005c 1542     		tst	r5, r2
 521 005e 14D0     		beq	.L38
 492:.\asp\arch\arm_m_gcc\common/core_config.h **** 		return(false);
 493:.\asp\arch\arm_m_gcc\common/core_config.h **** 	}
 494:.\asp\arch\arm_m_gcc\common/core_config.h **** 
 495:.\asp\arch\arm_m_gcc\common/core_config.h **** 	if (intno == IRQNO_SYSTICK) {
 522              		.loc 3 495 0
 523 0060 0F2C     		cmp	r4, #15
 524 0062 05D1     		bne	.L42
 525              	.LVL58:
 526              	.LBB131:
 527              	.LBB132:
 528              	.LBB133:
 529              	.LBB134:
 216:.\asp\include/sil.h **** 	data = *((const volatile uint32_t *) mem);
 530              		.loc 2 216 0
 531 0064 0A49     		ldr	r1, .L52+4
 532 0066 0868     		ldr	r0, [r1, #0]
 533              	.LVL59:
 534              	.LBE134:
 535              	.LBE133:
 496:.\asp\arch\arm_m_gcc\common/core_config.h **** 		tmp = sil_rew_mem((void *)SYSTIC_CONTROL_STATUS);
 497:.\asp\arch\arm_m_gcc\common/core_config.h **** 		tmp |= SYSTIC_TICINT;
 536              		.loc 3 497 0
 537 0068 40F00203 		orr	r3, r0, #2
 538              	.LVL60:
 539              	.LBB135:
 540              	.LBB136:
 541              		.loc 2 223 0
 542 006c 0B60     		str	r3, [r1, #0]
 543 006e F8BD     		pop	{r3, r4, r5, r6, r7, pc}
 544              	.LVL61:
 545              	.L42:
 546              	.LBE136:
 547              	.LBE135:
 548              	.LBE132:
 549              	.LBE131:
 498:.\asp\arch\arm_m_gcc\common/core_config.h **** 		sil_wrw_mem((void *)SYSTIC_CONTROL_STATUS, tmp);
 499:.\asp\arch\arm_m_gcc\common/core_config.h **** 	}else {
 500:.\asp\arch\arm_m_gcc\common/core_config.h **** 		tmp = intno - 16;
 550              		.loc 3 500 0
 551 0070 103C     		subs	r4, r4, #16
 552              	.LVL62:
 501:.\asp\arch\arm_m_gcc\common/core_config.h **** 		sil_wrw_mem((void *)((uint32_t *)NVIC_SETENA0 + (tmp >> 5)),
 553              		.loc 3 501 0
 554 0072 6309     		lsrs	r3, r4, #5
ARM GAS  C:\TEMP\ccRLkGcE.s 			page 28


 502:.\asp\arch\arm_m_gcc\common/core_config.h **** 					(1 << (tmp & 0x1f)));
 555              		.loc 3 502 0
 556 0074 0122     		movs	r2, #1
 557              	.LBE130:
 558 0076 04F01F04 		and	r4, r4, #31
 559              	.LVL63:
 560              	.LBB139:
 561 007a 02FA04F4 		lsl	r4, r2, r4
 501:.\asp\arch\arm_m_gcc\common/core_config.h **** 		sil_wrw_mem((void *)((uint32_t *)NVIC_SETENA0 + (tmp >> 5)),
 562              		.loc 3 501 0
 563 007e 9900     		lsls	r1, r3, #2
 564 0080 01F16040 		add	r0, r1, #-536870912
 565 0084 00F56143 		add	r3, r0, #57600
 566              	.LVL64:
 567              	.LBB137:
 568              	.LBB138:
 569              		.loc 2 223 0
 570 0088 1C60     		str	r4, [r3, #0]
 571              	.LVL65:
 572              	.L38:
 573 008a F8BD     		pop	{r3, r4, r5, r6, r7, pc}
 574              	.L53:
 575              		.align	2
 576              	.L52:
 577 008c 00000000 		.word	_kernel_bitpat_cfgint
 578 0090 10E000E0 		.word	-536813552
 579 0094 80E100E0 		.word	-536813184
 580              	.LBE138:
 581              	.LBE137:
 582              	.LBE139:
 583              	.LBE129:
 584              		.cfi_endproc
 585              	.LFE58:
 586              		.size	_kernel_x_config_int, .-_kernel_x_config_int
 587              		.section	.text._kernel_default_exc_handler,"ax",%progbits
 588              		.align	1
 589              		.global	_kernel_default_exc_handler
 590              		.thumb
 591              		.thumb_func
 592              		.type	_kernel_default_exc_handler, %function
 593              	_kernel_default_exc_handler:
 594              	.LFB59:
 242:.\asp\arch\arm_m_gcc\common/core_config.c **** 		(void) x_enable_int(intno);
 243:.\asp\arch\arm_m_gcc\common/core_config.c **** 	}    
 244:.\asp\arch\arm_m_gcc\common/core_config.c **** }
 245:.\asp\arch\arm_m_gcc\common/core_config.c **** 
 246:.\asp\arch\arm_m_gcc\common/core_config.c **** 
 247:.\asp\arch\arm_m_gcc\common/core_config.c **** #ifndef OMIT_DEFAULT_EXC_HANDLER
 248:.\asp\arch\arm_m_gcc\common/core_config.c **** /*
 249:.\asp\arch\arm_m_gcc\common/core_config.c ****  *  Trapa以外の例外で登録されていない例外が発生すると呼び出される
 250:.\asp\arch\arm_m_gcc\common/core_config.c ****  */
 251:.\asp\arch\arm_m_gcc\common/core_config.c **** void
 252:.\asp\arch\arm_m_gcc\common/core_config.c **** default_exc_handler(void *p_excinf)
 253:.\asp\arch\arm_m_gcc\common/core_config.c **** {
 595              		.loc 1 253 0
 596              		.cfi_startproc
 597              		@ args = 0, pretend = 0, frame = 0
ARM GAS  C:\TEMP\ccRLkGcE.s 			page 29


 598              		@ frame_needed = 0, uses_anonymous_args = 0
 599              	.LVL66:
 600 0000 2DE9FF41 		push	{r0, r1, r2, r3, r4, r5, r6, r7, r8, lr}
 601              	.LCFI4:
 602              		.cfi_def_cfa_offset 40
 603              		.cfi_offset 0, -40
 604              		.cfi_offset 1, -36
 605              		.cfi_offset 2, -32
 606              		.cfi_offset 3, -28
 607              		.cfi_offset 4, -24
 608              		.cfi_offset 5, -20
 609              		.cfi_offset 6, -16
 610              		.cfi_offset 7, -12
 611              		.cfi_offset 8, -8
 612              		.cfi_offset 14, -4
 254:.\asp\arch\arm_m_gcc\common/core_config.c **** 	uint32_t basepri = *(((uint32_t*)p_excinf) + P_EXCINF_OFFSET_BASEPRI);
 613              		.loc 1 254 0
 614 0004 4668     		ldr	r6, [r0, #4]
 615              	.LVL67:
 255:.\asp\arch\arm_m_gcc\common/core_config.c **** 	uint32_t pc      = *(((uint32_t*)p_excinf) + P_EXCINF_OFFSET_PC);
 616              		.loc 1 255 0
 617 0006 056A     		ldr	r5, [r0, #32]
 618              	.LVL68:
 256:.\asp\arch\arm_m_gcc\common/core_config.c **** 	uint32_t xpsr    = *(((uint32_t*)p_excinf) + P_EXCINF_OFFSET_XPSR);
 619              		.loc 1 256 0
 620 0008 476A     		ldr	r7, [r0, #36]
 621              	.LVL69:
 253:.\asp\arch\arm_m_gcc\common/core_config.c **** {
 622              		.loc 1 253 0
 623 000a 0446     		mov	r4, r0
 624              	.LBB140:
 625              	.LBB141:
 626              		.file 4 ".\\asp\\arch\\arm_m_gcc\\common/core_insn.h"
   1:.\asp\arch\arm_m_gcc\common/core_insn.h **** /*
   2:.\asp\arch\arm_m_gcc\common/core_insn.h ****  *  TOPPERS/ASP Kernel
   3:.\asp\arch\arm_m_gcc\common/core_insn.h ****  *      Toyohashi Open Platform for Embedded Real-Time Systems/
   4:.\asp\arch\arm_m_gcc\common/core_insn.h ****  *      Advanced Standard Profile Kernel
   5:.\asp\arch\arm_m_gcc\common/core_insn.h ****  * 
   6:.\asp\arch\arm_m_gcc\common/core_insn.h ****  *  Copyright (C) 2008 by Embedded and Real-Time Systems Laboratory
   7:.\asp\arch\arm_m_gcc\common/core_insn.h ****  *              Graduate School of Information Science, Nagoya Univ., JAPAN
   8:.\asp\arch\arm_m_gcc\common/core_insn.h ****  * 
   9:.\asp\arch\arm_m_gcc\common/core_insn.h ****  *  上記著作権者は，以下の(1)〜(4)の条件を満たす場合に限り，本ソフトウェ
  10:.\asp\arch\arm_m_gcc\common/core_insn.h ****  *  ア（本ソフトウェアを改変したものを含む．以下同じ）を使用・複製・改
  11:.\asp\arch\arm_m_gcc\common/core_insn.h ****  *  変・再配布（以下，利用と呼ぶ）することを無償で許諾する．
  12:.\asp\arch\arm_m_gcc\common/core_insn.h ****  *  (1) 本ソフトウェアをソースコードの形で利用する場合には，上記の著作
  13:.\asp\arch\arm_m_gcc\common/core_insn.h ****  *      権表示，この利用条件および下記の無保証規定が，そのままの形でソー
  14:.\asp\arch\arm_m_gcc\common/core_insn.h ****  *      スコード中に含まれていること．
  15:.\asp\arch\arm_m_gcc\common/core_insn.h ****  *  (2) 本ソフトウェアを，ライブラリ形式など，他のソフトウェア開発に使
  16:.\asp\arch\arm_m_gcc\common/core_insn.h ****  *      用できる形で再配布する場合には，再配布に伴うドキュメント（利用
  17:.\asp\arch\arm_m_gcc\common/core_insn.h ****  *      者マニュアルなど）に，上記の著作権表示，この利用条件および下記
  18:.\asp\arch\arm_m_gcc\common/core_insn.h ****  *      の無保証規定を掲載すること．
  19:.\asp\arch\arm_m_gcc\common/core_insn.h ****  *  (3) 本ソフトウェアを，機器に組み込むなど，他のソフトウェア開発に使
  20:.\asp\arch\arm_m_gcc\common/core_insn.h ****  *      用できない形で再配布する場合には，次のいずれかの条件を満たすこ
  21:.\asp\arch\arm_m_gcc\common/core_insn.h ****  *      と．
  22:.\asp\arch\arm_m_gcc\common/core_insn.h ****  *    (a) 再配布に伴うドキュメント（利用者マニュアルなど）に，上記の著
  23:.\asp\arch\arm_m_gcc\common/core_insn.h ****  *        作権表示，この利用条件および下記の無保証規定を掲載すること．
  24:.\asp\arch\arm_m_gcc\common/core_insn.h ****  *    (b) 再配布の形態を，別に定める方法によって，TOPPERSプロジェクトに
ARM GAS  C:\TEMP\ccRLkGcE.s 			page 30


  25:.\asp\arch\arm_m_gcc\common/core_insn.h ****  *        報告すること．
  26:.\asp\arch\arm_m_gcc\common/core_insn.h ****  *  (4) 本ソフトウェアの利用により直接的または間接的に生じるいかなる損
  27:.\asp\arch\arm_m_gcc\common/core_insn.h ****  *      害からも，上記著作権者およびTOPPERSプロジェクトを免責すること．
  28:.\asp\arch\arm_m_gcc\common/core_insn.h ****  *      また，本ソフトウェアのユーザまたはエンドユーザからのいかなる理
  29:.\asp\arch\arm_m_gcc\common/core_insn.h ****  *      由に基づく請求からも，上記著作権者およびTOPPERSプロジェクトを
  30:.\asp\arch\arm_m_gcc\common/core_insn.h ****  *      免責すること．
  31:.\asp\arch\arm_m_gcc\common/core_insn.h ****  * 
  32:.\asp\arch\arm_m_gcc\common/core_insn.h ****  *  本ソフトウェアは，無保証で提供されているものである．上記著作権者お
  33:.\asp\arch\arm_m_gcc\common/core_insn.h ****  *  よびTOPPERSプロジェクトは，本ソフトウェアに関して，特定の使用目的
  34:.\asp\arch\arm_m_gcc\common/core_insn.h ****  *  に対する適合性も含めて，いかなる保証も行わない．また，本ソフトウェ
  35:.\asp\arch\arm_m_gcc\common/core_insn.h ****  *  アの利用により直接的または間接的に生じたいかなる損害に関しても，そ
  36:.\asp\arch\arm_m_gcc\common/core_insn.h ****  *  の責任を負わない．
  37:.\asp\arch\arm_m_gcc\common/core_insn.h ****  * 
  38:.\asp\arch\arm_m_gcc\common/core_insn.h ****  *  @(#) $Id: core_insn.h 2310 2012-02-23 02:14:28Z ertl-honda $
  39:.\asp\arch\arm_m_gcc\common/core_insn.h ****  */
  40:.\asp\arch\arm_m_gcc\common/core_insn.h **** 
  41:.\asp\arch\arm_m_gcc\common/core_insn.h **** 
  42:.\asp\arch\arm_m_gcc\common/core_insn.h **** /*
  43:.\asp\arch\arm_m_gcc\common/core_insn.h ****  *  コア依存の特殊命令のインライン関数定義（ARM-M用）
  44:.\asp\arch\arm_m_gcc\common/core_insn.h ****  */
  45:.\asp\arch\arm_m_gcc\common/core_insn.h **** 
  46:.\asp\arch\arm_m_gcc\common/core_insn.h **** #ifndef CORE_INSN_H
  47:.\asp\arch\arm_m_gcc\common/core_insn.h **** #define CORE_INSN_H
  48:.\asp\arch\arm_m_gcc\common/core_insn.h **** 
  49:.\asp\arch\arm_m_gcc\common/core_insn.h **** #include <arm_m.h>
  50:.\asp\arch\arm_m_gcc\common/core_insn.h **** 
  51:.\asp\arch\arm_m_gcc\common/core_insn.h **** /*
  52:.\asp\arch\arm_m_gcc\common/core_insn.h ****  *  メモリが変更されることをコンパイラに伝えるためのマクロ
  53:.\asp\arch\arm_m_gcc\common/core_insn.h ****  */
  54:.\asp\arch\arm_m_gcc\common/core_insn.h **** #define ARM_MEMORY_CHANGED Asm("":::"memory")
  55:.\asp\arch\arm_m_gcc\common/core_insn.h **** 
  56:.\asp\arch\arm_m_gcc\common/core_insn.h **** /*
  57:.\asp\arch\arm_m_gcc\common/core_insn.h ****  *  FAULTMASKのセット
  58:.\asp\arch\arm_m_gcc\common/core_insn.h ****  */
  59:.\asp\arch\arm_m_gcc\common/core_insn.h **** Inline void
  60:.\asp\arch\arm_m_gcc\common/core_insn.h **** set_faultmask(void){
  61:.\asp\arch\arm_m_gcc\common/core_insn.h **** 	Asm("cpsid f":::"memory");
  62:.\asp\arch\arm_m_gcc\common/core_insn.h **** }
  63:.\asp\arch\arm_m_gcc\common/core_insn.h **** 
  64:.\asp\arch\arm_m_gcc\common/core_insn.h **** /*
  65:.\asp\arch\arm_m_gcc\common/core_insn.h ****  *  FAULTMASKのクリア
  66:.\asp\arch\arm_m_gcc\common/core_insn.h ****  */
  67:.\asp\arch\arm_m_gcc\common/core_insn.h **** Inline void
  68:.\asp\arch\arm_m_gcc\common/core_insn.h **** clear_faultmask(void){
  69:.\asp\arch\arm_m_gcc\common/core_insn.h **** 	Asm("cpsie f":::"memory");
  70:.\asp\arch\arm_m_gcc\common/core_insn.h **** }
  71:.\asp\arch\arm_m_gcc\common/core_insn.h **** 
  72:.\asp\arch\arm_m_gcc\common/core_insn.h **** /*
  73:.\asp\arch\arm_m_gcc\common/core_insn.h ****  *  PRIMASKのセット
  74:.\asp\arch\arm_m_gcc\common/core_insn.h ****  */
  75:.\asp\arch\arm_m_gcc\common/core_insn.h **** Inline void
  76:.\asp\arch\arm_m_gcc\common/core_insn.h **** set_primask(void){
  77:.\asp\arch\arm_m_gcc\common/core_insn.h **** 	Asm("cpsid i":::"memory");
  78:.\asp\arch\arm_m_gcc\common/core_insn.h **** }
  79:.\asp\arch\arm_m_gcc\common/core_insn.h **** 
  80:.\asp\arch\arm_m_gcc\common/core_insn.h **** /*
  81:.\asp\arch\arm_m_gcc\common/core_insn.h ****  *  PRIMASKのクリア
ARM GAS  C:\TEMP\ccRLkGcE.s 			page 31


  82:.\asp\arch\arm_m_gcc\common/core_insn.h ****  */
  83:.\asp\arch\arm_m_gcc\common/core_insn.h **** Inline void
  84:.\asp\arch\arm_m_gcc\common/core_insn.h **** clear_primask(void){
  85:.\asp\arch\arm_m_gcc\common/core_insn.h **** 	Asm("cpsie i":::"memory");
  86:.\asp\arch\arm_m_gcc\common/core_insn.h **** }
  87:.\asp\arch\arm_m_gcc\common/core_insn.h **** 
  88:.\asp\arch\arm_m_gcc\common/core_insn.h **** /*
  89:.\asp\arch\arm_m_gcc\common/core_insn.h ****  *  BASEPRIのセット
  90:.\asp\arch\arm_m_gcc\common/core_insn.h ****  */
  91:.\asp\arch\arm_m_gcc\common/core_insn.h **** Inline void
  92:.\asp\arch\arm_m_gcc\common/core_insn.h **** set_basepri(uint32_t val){
  93:.\asp\arch\arm_m_gcc\common/core_insn.h **** 	Asm("msr BASEPRI, %0" : : "r"(val) : "memory");
  94:.\asp\arch\arm_m_gcc\common/core_insn.h **** }
  95:.\asp\arch\arm_m_gcc\common/core_insn.h **** 
  96:.\asp\arch\arm_m_gcc\common/core_insn.h **** /*
  97:.\asp\arch\arm_m_gcc\common/core_insn.h ****  *  BASEPRIの取得
  98:.\asp\arch\arm_m_gcc\common/core_insn.h ****  */
  99:.\asp\arch\arm_m_gcc\common/core_insn.h **** Inline uint32_t
 100:.\asp\arch\arm_m_gcc\common/core_insn.h **** get_basepri(void){
 101:.\asp\arch\arm_m_gcc\common/core_insn.h **** 	uint32_t val;
 102:.\asp\arch\arm_m_gcc\common/core_insn.h **** 	Asm("mrs  %0, BASEPRI" : "=r"(val));
 103:.\asp\arch\arm_m_gcc\common/core_insn.h **** 	return(val);
 104:.\asp\arch\arm_m_gcc\common/core_insn.h **** }
 105:.\asp\arch\arm_m_gcc\common/core_insn.h **** 
 106:.\asp\arch\arm_m_gcc\common/core_insn.h **** /*
 107:.\asp\arch\arm_m_gcc\common/core_insn.h ****  *  CONTROLのセット
 108:.\asp\arch\arm_m_gcc\common/core_insn.h ****  */
 109:.\asp\arch\arm_m_gcc\common/core_insn.h **** Inline void
 110:.\asp\arch\arm_m_gcc\common/core_insn.h **** set_control(uint32_t val){
 111:.\asp\arch\arm_m_gcc\common/core_insn.h **** 	/*
 112:.\asp\arch\arm_m_gcc\common/core_insn.h **** 	 *  controlレジスタセット後にはisbが必須
 113:.\asp\arch\arm_m_gcc\common/core_insn.h **** 	 *  [ARMv7-M Architecture Reference Manaual(DDI0403B) A3-37]
 114:.\asp\arch\arm_m_gcc\common/core_insn.h **** 	 */
 115:.\asp\arch\arm_m_gcc\common/core_insn.h **** 	Asm("msr control, %0 \n"
 116:.\asp\arch\arm_m_gcc\common/core_insn.h **** 		" isb"
 117:.\asp\arch\arm_m_gcc\common/core_insn.h **** 		: : "r"(val) : "memory");
 118:.\asp\arch\arm_m_gcc\common/core_insn.h **** }
 119:.\asp\arch\arm_m_gcc\common/core_insn.h **** 
 120:.\asp\arch\arm_m_gcc\common/core_insn.h **** /*
 121:.\asp\arch\arm_m_gcc\common/core_insn.h ****  *  CONTROLの取得
 122:.\asp\arch\arm_m_gcc\common/core_insn.h ****  */
 123:.\asp\arch\arm_m_gcc\common/core_insn.h **** Inline uint32_t
 124:.\asp\arch\arm_m_gcc\common/core_insn.h **** get_control(void){
 125:.\asp\arch\arm_m_gcc\common/core_insn.h **** 	uint32_t val;
 126:.\asp\arch\arm_m_gcc\common/core_insn.h **** 	Asm("mrs  %0, CONTROL" : "=r"(val));
 127:.\asp\arch\arm_m_gcc\common/core_insn.h **** 	return(val);
 128:.\asp\arch\arm_m_gcc\common/core_insn.h **** }
 129:.\asp\arch\arm_m_gcc\common/core_insn.h **** 
 130:.\asp\arch\arm_m_gcc\common/core_insn.h **** /*
 131:.\asp\arch\arm_m_gcc\common/core_insn.h ****  *  ステータスレジスタ（CPSR）の現在値の読出し
 132:.\asp\arch\arm_m_gcc\common/core_insn.h ****  */
 133:.\asp\arch\arm_m_gcc\common/core_insn.h **** Inline uint32_t
 134:.\asp\arch\arm_m_gcc\common/core_insn.h **** get_ipsr(void)
 135:.\asp\arch\arm_m_gcc\common/core_insn.h **** {
 136:.\asp\arch\arm_m_gcc\common/core_insn.h ****     uint32_t sr;
 137:.\asp\arch\arm_m_gcc\common/core_insn.h ****     Asm("mrs  %0, ipsr" : "=r"(sr));
 627              		.loc 4 137 0
ARM GAS  C:\TEMP\ccRLkGcE.s 			page 32


 628              	@ 137 ".\asp\arch\arm_m_gcc\common/core_insn.h" 1
 629 000c EFF30588 		mrs  r8, ipsr
 630              	@ 0 "" 2
 631              	.LVL70:
 632              		.thumb
 633              	.LBE141:
 634              	.LBE140:
 257:.\asp\arch\arm_m_gcc\common/core_config.c **** 	uint32_t excno   = get_ipsr() & IPSR_ISR_NUMBER;
 258:.\asp\arch\arm_m_gcc\common/core_config.c **** 
 259:.\asp\arch\arm_m_gcc\common/core_config.c **** 	syslog(LOG_EMERG, "\nUnregistered Exception occurs.");
 635              		.loc 1 259 0
 636 0010 0020     		movs	r0, #0
 637              	.LVL71:
 638 0012 0849     		ldr	r1, .L55
 639 0014 FFF7FEFF 		bl	syslog
 640              	.LVL72:
 257:.\asp\arch\arm_m_gcc\common/core_config.c **** 	uint32_t excno   = get_ipsr() & IPSR_ISR_NUMBER;
 641              		.loc 1 257 0
 642 0018 4FEAC852 		lsl	r2, r8, #23
 260:.\asp\arch\arm_m_gcc\common/core_config.c **** 	syslog(LOG_EMERG, "Excno = %08x PC = %08x XPSR = %08x basepri = %08X, p_excinf = %08X",
 643              		.loc 1 260 0
 644 001c 0020     		movs	r0, #0
 645 001e 0649     		ldr	r1, .L55+4
 646 0020 D20D     		lsrs	r2, r2, #23
 647 0022 2B46     		mov	r3, r5
 648 0024 0097     		str	r7, [sp, #0]
 649 0026 0196     		str	r6, [sp, #4]
 650 0028 0294     		str	r4, [sp, #8]
 651 002a FFF7FEFF 		bl	syslog
 652              	.LVL73:
 261:.\asp\arch\arm_m_gcc\common/core_config.c **** 		   excno, pc, xpsr, basepri, p_excinf);
 262:.\asp\arch\arm_m_gcc\common/core_config.c **** 
 263:.\asp\arch\arm_m_gcc\common/core_config.c **** 	target_exit();
 653              		.loc 1 263 0
 654 002e FFF7FEFF 		bl	_kernel_target_exit
 655              	.LVL74:
 656              	.L56:
 657 0032 00BF     		.align	2
 658              	.L55:
 659 0034 00000000 		.word	.LC0
 660 0038 20000000 		.word	.LC1
 661              		.cfi_endproc
 662              	.LFE59:
 663              		.size	_kernel_default_exc_handler, .-_kernel_default_exc_handler
 664              		.section	.text._kernel_default_int_handler,"ax",%progbits
 665              		.align	1
 666              		.global	_kernel_default_int_handler
 667              		.thumb
 668              		.thumb_func
 669              		.type	_kernel_default_int_handler, %function
 670              	_kernel_default_int_handler:
 671              	.LFB60:
 264:.\asp\arch\arm_m_gcc\common/core_config.c **** }
 265:.\asp\arch\arm_m_gcc\common/core_config.c **** #endif /* OMIT_DEFAULT_EXC_HANDLER */
 266:.\asp\arch\arm_m_gcc\common/core_config.c **** 
 267:.\asp\arch\arm_m_gcc\common/core_config.c **** #ifndef OMIT_DEFAULT_INT_HANDLER
 268:.\asp\arch\arm_m_gcc\common/core_config.c **** /*
ARM GAS  C:\TEMP\ccRLkGcE.s 			page 33


 269:.\asp\arch\arm_m_gcc\common/core_config.c ****  *  未登録の割込みが発生した場合に呼び出される
 270:.\asp\arch\arm_m_gcc\common/core_config.c ****  */
 271:.\asp\arch\arm_m_gcc\common/core_config.c **** void
 272:.\asp\arch\arm_m_gcc\common/core_config.c **** default_int_handler(void *p_excinf)
 273:.\asp\arch\arm_m_gcc\common/core_config.c **** {
 672              		.loc 1 273 0
 673              		.cfi_startproc
 674              		@ args = 0, pretend = 0, frame = 0
 675              		@ frame_needed = 0, uses_anonymous_args = 0
 676              	.LVL75:
 677 0000 2DE9FF41 		push	{r0, r1, r2, r3, r4, r5, r6, r7, r8, lr}
 678              	.LCFI5:
 679              		.cfi_def_cfa_offset 40
 680              		.cfi_offset 0, -40
 681              		.cfi_offset 1, -36
 682              		.cfi_offset 2, -32
 683              		.cfi_offset 3, -28
 684              		.cfi_offset 4, -24
 685              		.cfi_offset 5, -20
 686              		.cfi_offset 6, -16
 687              		.cfi_offset 7, -12
 688              		.cfi_offset 8, -8
 689              		.cfi_offset 14, -4
 274:.\asp\arch\arm_m_gcc\common/core_config.c **** 	uint32_t basepri = *(((uint32_t*)p_excinf) + P_EXCINF_OFFSET_BASEPRI);
 690              		.loc 1 274 0
 691 0004 4668     		ldr	r6, [r0, #4]
 692              	.LVL76:
 275:.\asp\arch\arm_m_gcc\common/core_config.c **** 	uint32_t pc      = *(((uint32_t*)p_excinf) + P_EXCINF_OFFSET_PC);
 693              		.loc 1 275 0
 694 0006 056A     		ldr	r5, [r0, #32]
 695              	.LVL77:
 276:.\asp\arch\arm_m_gcc\common/core_config.c **** 	uint32_t xpsr    = *(((uint32_t*)p_excinf) + P_EXCINF_OFFSET_XPSR);
 696              		.loc 1 276 0
 697 0008 476A     		ldr	r7, [r0, #36]
 698              	.LVL78:
 273:.\asp\arch\arm_m_gcc\common/core_config.c **** {
 699              		.loc 1 273 0
 700 000a 0446     		mov	r4, r0
 701              	.LBB142:
 702              	.LBB143:
 703              		.loc 4 137 0
 704              	@ 137 ".\asp\arch\arm_m_gcc\common/core_insn.h" 1
 705 000c EFF30588 		mrs  r8, ipsr
 706              	@ 0 "" 2
 707              	.LVL79:
 708              		.thumb
 709              	.LBE143:
 710              	.LBE142:
 277:.\asp\arch\arm_m_gcc\common/core_config.c **** 	uint32_t excno   = get_ipsr() & IPSR_ISR_NUMBER;
 278:.\asp\arch\arm_m_gcc\common/core_config.c **** 
 279:.\asp\arch\arm_m_gcc\common/core_config.c **** 	syslog(LOG_EMERG, "\nUnregistered Interrupt occurs.");
 711              		.loc 1 279 0
 712 0010 0020     		movs	r0, #0
 713              	.LVL80:
 714 0012 0849     		ldr	r1, .L58
 715 0014 FFF7FEFF 		bl	syslog
 716              	.LVL81:
ARM GAS  C:\TEMP\ccRLkGcE.s 			page 34


 277:.\asp\arch\arm_m_gcc\common/core_config.c **** 	uint32_t excno   = get_ipsr() & IPSR_ISR_NUMBER;
 717              		.loc 1 277 0
 718 0018 4FEAC852 		lsl	r2, r8, #23
 280:.\asp\arch\arm_m_gcc\common/core_config.c **** 	syslog(LOG_EMERG, "Excno = %08x PC = %08x XPSR = %08x basepri = %08X, p_excinf = %08X",
 719              		.loc 1 280 0
 720 001c 0020     		movs	r0, #0
 721 001e 0649     		ldr	r1, .L58+4
 722 0020 D20D     		lsrs	r2, r2, #23
 723 0022 2B46     		mov	r3, r5
 724 0024 0097     		str	r7, [sp, #0]
 725 0026 0196     		str	r6, [sp, #4]
 726 0028 0294     		str	r4, [sp, #8]
 727 002a FFF7FEFF 		bl	syslog
 728              	.LVL82:
 281:.\asp\arch\arm_m_gcc\common/core_config.c **** 		   excno, pc, xpsr, basepri, p_excinf);
 282:.\asp\arch\arm_m_gcc\common/core_config.c **** 
 283:.\asp\arch\arm_m_gcc\common/core_config.c **** 	target_exit();
 729              		.loc 1 283 0
 730 002e FFF7FEFF 		bl	_kernel_target_exit
 731              	.LVL83:
 732              	.L59:
 733 0032 00BF     		.align	2
 734              	.L58:
 735 0034 63000000 		.word	.LC2
 736 0038 20000000 		.word	.LC1
 737              		.cfi_endproc
 738              	.LFE60:
 739              		.size	_kernel_default_int_handler, .-_kernel_default_int_handler
 740              		.comm	_kernel_saved_iipm,4,4
 741              		.comm	_kernel_lock_flag,4,4
 742              		.section	.rodata
 743              		.align	2
 744              		.set	.LANCHOR0,. + 0
 745              		.type	nvic_sys_pri_reg, %object
 746              		.size	nvic_sys_pri_reg, 16
 747              	nvic_sys_pri_reg:
 748 0000 00000000 		.word	0
 749 0004 18ED00E0 		.word	-536810216
 750 0008 1CED00E0 		.word	-536810212
 751 000c 20ED00E0 		.word	-536810208
 752              		.section	.rodata.str1.1,"aMS",%progbits,1
 753              	.LC0:
 754 0000 0A556E72 		.ascii	"\012Unregistered Exception occurs.\000"
 754      65676973 
 754      74657265 
 754      64204578 
 754      63657074 
 755              	.LC1:
 756 0020 4578636E 		.ascii	"Excno = %08x PC = %08x XPSR = %08x basepri = %08X, "
 756      6F203D20 
 756      25303878 
 756      20504320 
 756      3D202530 
 757 0053 705F6578 		.ascii	"p_excinf = %08X\000"
 757      63696E66 
 757      203D2025 
 757      30385800 
ARM GAS  C:\TEMP\ccRLkGcE.s 			page 35


 758              	.LC2:
 759 0063 0A556E72 		.ascii	"\012Unregistered Interrupt occurs.\000"
 759      65676973 
 759      74657265 
 759      6420496E 
 759      74657272 
 760              		.text
 761              	.Letext0:
 762              		.file 5 ".\\asp\\arch\\gcc/tool_stddef.h"
 763              		.file 6 ".\\asp\\include/t_stddef.h"
 764              		.file 7 ".\\asp\\include/kernel.h"
 765              		.file 8 ".\\asp\\kernel/time_event.h"
 766              		.file 9 ".\\asp\\target\\cy8ckit050_gcc/target_config.h"
 767              		.file 10 ".\\asp\\include/t_syslog.h"