ARM GAS  C:\TEMP\ccKz4dSg.s 			page 1


   1              		.syntax unified
   2              		.cpu cortex-m3
   3              		.fpu softvfp
   4              		.eabi_attribute 20, 1
   5              		.eabi_attribute 21, 1
   6              		.eabi_attribute 23, 3
   7              		.eabi_attribute 24, 1
   8              		.eabi_attribute 25, 1
   9              		.eabi_attribute 26, 1
  10              		.eabi_attribute 30, 4
  11              		.eabi_attribute 34, 1
  12              		.eabi_attribute 18, 4
  13              		.thumb
  14              		.file	"core_timer.c"
  15              		.text
  16              	.Ltext0:
  17              		.cfi_sections	.debug_frame
  18              		.section	.text.target_timer_initialize,"ax",%progbits
  19              		.align	1
  20              		.global	target_timer_initialize
  21              		.thumb
  22              		.thumb_func
  23              		.type	target_timer_initialize, %function
  24              	target_timer_initialize:
  25              	.LFB49:
  26              		.file 1 ".\\asp\\arch\\arm_m_gcc\\common\\core_timer.c"
   1:.\asp\arch\arm_m_gcc\common/core_timer.c **** /*
   2:.\asp\arch\arm_m_gcc\common/core_timer.c ****  *  TOPPERS/ASP Kernel
   3:.\asp\arch\arm_m_gcc\common/core_timer.c ****  *      Toyohashi Open Platform for Embedded Real-Time Systems/
   4:.\asp\arch\arm_m_gcc\common/core_timer.c ****  *      Advanced Standard Profile Kernel
   5:.\asp\arch\arm_m_gcc\common/core_timer.c ****  * 
   6:.\asp\arch\arm_m_gcc\common/core_timer.c ****  *  Copyright (C) 2008-2011 by Embedded and Real-Time Systems Laboratory
   7:.\asp\arch\arm_m_gcc\common/core_timer.c ****  *              Graduate School of Information Science, Nagoya Univ., JAPAN
   8:.\asp\arch\arm_m_gcc\common/core_timer.c ****  * 
   9:.\asp\arch\arm_m_gcc\common/core_timer.c ****  *  上記著作権者は，以下の(1)〜(4)の条件を満たす場合に限り，本ソフトウェ
  10:.\asp\arch\arm_m_gcc\common/core_timer.c ****  *  ア（本ソフトウェアを改変したものを含む．以下同じ）を使用・複製・改
  11:.\asp\arch\arm_m_gcc\common/core_timer.c ****  *  変・再配布（以下，利用と呼ぶ）することを無償で許諾する．
  12:.\asp\arch\arm_m_gcc\common/core_timer.c ****  *  (1) 本ソフトウェアをソースコードの形で利用する場合には，上記の著作
  13:.\asp\arch\arm_m_gcc\common/core_timer.c ****  *      権表示，この利用条件および下記の無保証規定が，そのままの形でソー
  14:.\asp\arch\arm_m_gcc\common/core_timer.c ****  *      スコード中に含まれていること．
  15:.\asp\arch\arm_m_gcc\common/core_timer.c ****  *  (2) 本ソフトウェアを，ライブラリ形式など，他のソフトウェア開発に使
  16:.\asp\arch\arm_m_gcc\common/core_timer.c ****  *      用できる形で再配布する場合には，再配布に伴うドキュメント（利用
  17:.\asp\arch\arm_m_gcc\common/core_timer.c ****  *      者マニュアルなど）に，上記の著作権表示，この利用条件および下記
  18:.\asp\arch\arm_m_gcc\common/core_timer.c ****  *      の無保証規定を掲載すること．
  19:.\asp\arch\arm_m_gcc\common/core_timer.c ****  *  (3) 本ソフトウェアを，機器に組み込むなど，他のソフトウェア開発に使
  20:.\asp\arch\arm_m_gcc\common/core_timer.c ****  *      用できない形で再配布する場合には，次のいずれかの条件を満たすこ
  21:.\asp\arch\arm_m_gcc\common/core_timer.c ****  *      と．
  22:.\asp\arch\arm_m_gcc\common/core_timer.c ****  *    (a) 再配布に伴うドキュメント（利用者マニュアルなど）に，上記の著
  23:.\asp\arch\arm_m_gcc\common/core_timer.c ****  *        作権表示，この利用条件および下記の無保証規定を掲載すること．
  24:.\asp\arch\arm_m_gcc\common/core_timer.c ****  *    (b) 再配布の形態を，別に定める方法によって，TOPPERSプロジェクトに
  25:.\asp\arch\arm_m_gcc\common/core_timer.c ****  *        報告すること．
  26:.\asp\arch\arm_m_gcc\common/core_timer.c ****  *  (4) 本ソフトウェアの利用により直接的または間接的に生じるいかなる損
  27:.\asp\arch\arm_m_gcc\common/core_timer.c ****  *      害からも，上記著作権者およびTOPPERSプロジェクトを免責すること．
  28:.\asp\arch\arm_m_gcc\common/core_timer.c ****  *      また，本ソフトウェアのユーザまたはエンドユーザからのいかなる理
  29:.\asp\arch\arm_m_gcc\common/core_timer.c ****  *      由に基づく請求からも，上記著作権者およびTOPPERSプロジェクトを
  30:.\asp\arch\arm_m_gcc\common/core_timer.c ****  *      免責すること．
  31:.\asp\arch\arm_m_gcc\common/core_timer.c ****  * 
ARM GAS  C:\TEMP\ccKz4dSg.s 			page 2


  32:.\asp\arch\arm_m_gcc\common/core_timer.c ****  *  本ソフトウェアは，無保証で提供されているものである．上記著作権者お
  33:.\asp\arch\arm_m_gcc\common/core_timer.c ****  *  よびTOPPERSプロジェクトは，本ソフトウェアに関して，特定の使用目的
  34:.\asp\arch\arm_m_gcc\common/core_timer.c ****  *  に対する適合性も含めて，いかなる保証も行わない．また，本ソフトウェ
  35:.\asp\arch\arm_m_gcc\common/core_timer.c ****  *  アの利用により直接的または間接的に生じたいかなる損害に関しても，そ
  36:.\asp\arch\arm_m_gcc\common/core_timer.c ****  *  の責任を負わない．
  37:.\asp\arch\arm_m_gcc\common/core_timer.c ****  * 
  38:.\asp\arch\arm_m_gcc\common/core_timer.c ****  *  @(#) $Id: core_timer.c 2308 2012-01-31 12:08:18Z ertl-honda $
  39:.\asp\arch\arm_m_gcc\common/core_timer.c ****  */
  40:.\asp\arch\arm_m_gcc\common/core_timer.c **** 
  41:.\asp\arch\arm_m_gcc\common/core_timer.c **** /*
  42:.\asp\arch\arm_m_gcc\common/core_timer.c ****  *  タイマドライバ（SYSTIC用）
  43:.\asp\arch\arm_m_gcc\common/core_timer.c ****  */
  44:.\asp\arch\arm_m_gcc\common/core_timer.c **** #include <sil.h>
  45:.\asp\arch\arm_m_gcc\common/core_timer.c **** #include "kernel_impl.h"
  46:.\asp\arch\arm_m_gcc\common/core_timer.c **** #include "time_event.h"
  47:.\asp\arch\arm_m_gcc\common/core_timer.c **** #include "target_timer.h"
  48:.\asp\arch\arm_m_gcc\common/core_timer.c **** 
  49:.\asp\arch\arm_m_gcc\common/core_timer.c **** /*
  50:.\asp\arch\arm_m_gcc\common/core_timer.c ****  *  タイマの起動処理
  51:.\asp\arch\arm_m_gcc\common/core_timer.c ****  */
  52:.\asp\arch\arm_m_gcc\common/core_timer.c **** void
  53:.\asp\arch\arm_m_gcc\common/core_timer.c **** target_timer_initialize(intptr_t exinf)
  54:.\asp\arch\arm_m_gcc\common/core_timer.c **** {
  27              		.loc 1 54 0
  28              		.cfi_startproc
  29              		@ args = 0, pretend = 0, frame = 0
  30              		@ frame_needed = 0, uses_anonymous_args = 0
  31              		@ link register save eliminated.
  32              	.LVL0:
  33              	.LBB22:
  34              	.LBB23:
  35              		.file 2 ".\\asp\\include/sil.h"
   1:.\asp\include/sil.h **** /*
   2:.\asp\include/sil.h ****  *  TOPPERS Software
   3:.\asp\include/sil.h ****  *      Toyohashi Open Platform for Embedded Real-Time Systems
   4:.\asp\include/sil.h ****  * 
   5:.\asp\include/sil.h ****  *  Copyright (C) 2000-2003 by Embedded and Real-Time Systems Laboratory
   6:.\asp\include/sil.h ****  *                              Toyohashi Univ. of Technology, JAPAN
   7:.\asp\include/sil.h ****  *  Copyright (C) 2004-2011 by Embedded and Real-Time Systems Laboratory
   8:.\asp\include/sil.h ****  *              Graduate School of Information Science, Nagoya Univ., JAPAN
   9:.\asp\include/sil.h ****  * 
  10:.\asp\include/sil.h ****  *  上記著作権者は，以下の(1)〜(4)の条件を満たす場合に限り，本ソフトウェ
  11:.\asp\include/sil.h ****  *  ア（本ソフトウェアを改変したものを含む．以下同じ）を使用・複製・改
  12:.\asp\include/sil.h ****  *  変・再配布（以下，利用と呼ぶ）することを無償で許諾する．
  13:.\asp\include/sil.h ****  *  (1) 本ソフトウェアをソースコードの形で利用する場合には，上記の著作
  14:.\asp\include/sil.h ****  *      権表示，この利用条件および下記の無保証規定が，そのままの形でソー
  15:.\asp\include/sil.h ****  *      スコード中に含まれていること．
  16:.\asp\include/sil.h ****  *  (2) 本ソフトウェアを，ライブラリ形式など，他のソフトウェア開発に使
  17:.\asp\include/sil.h ****  *      用できる形で再配布する場合には，再配布に伴うドキュメント（利用
  18:.\asp\include/sil.h ****  *      者マニュアルなど）に，上記の著作権表示，この利用条件および下記
  19:.\asp\include/sil.h ****  *      の無保証規定を掲載すること．
  20:.\asp\include/sil.h ****  *  (3) 本ソフトウェアを，機器に組み込むなど，他のソフトウェア開発に使
  21:.\asp\include/sil.h ****  *      用できない形で再配布する場合には，次のいずれかの条件を満たすこ
  22:.\asp\include/sil.h ****  *      と．
  23:.\asp\include/sil.h ****  *    (a) 再配布に伴うドキュメント（利用者マニュアルなど）に，上記の著
  24:.\asp\include/sil.h ****  *        作権表示，この利用条件および下記の無保証規定を掲載すること．
  25:.\asp\include/sil.h ****  *    (b) 再配布の形態を，別に定める方法によって，TOPPERSプロジェクトに
ARM GAS  C:\TEMP\ccKz4dSg.s 			page 3


  26:.\asp\include/sil.h ****  *        報告すること．
  27:.\asp\include/sil.h ****  *  (4) 本ソフトウェアの利用により直接的または間接的に生じるいかなる損
  28:.\asp\include/sil.h ****  *      害からも，上記著作権者およびTOPPERSプロジェクトを免責すること．
  29:.\asp\include/sil.h ****  *      また，本ソフトウェアのユーザまたはエンドユーザからのいかなる理
  30:.\asp\include/sil.h ****  *      由に基づく請求からも，上記著作権者およびTOPPERSプロジェクトを
  31:.\asp\include/sil.h ****  *      免責すること．
  32:.\asp\include/sil.h ****  * 
  33:.\asp\include/sil.h ****  *  本ソフトウェアは，無保証で提供されているものである．上記著作権者お
  34:.\asp\include/sil.h ****  *  よびTOPPERSプロジェクトは，本ソフトウェアに関して，特定の使用目的
  35:.\asp\include/sil.h ****  *  に対する適合性も含めて，いかなる保証も行わない．また，本ソフトウェ
  36:.\asp\include/sil.h ****  *  アの利用により直接的または間接的に生じたいかなる損害に関しても，そ
  37:.\asp\include/sil.h ****  *  の責任を負わない．
  38:.\asp\include/sil.h ****  * 
  39:.\asp\include/sil.h ****  *  @(#) $Id: sil.h 2242 2011-08-26 21:00:19Z ertl-hiro $
  40:.\asp\include/sil.h ****  */
  41:.\asp\include/sil.h **** 
  42:.\asp\include/sil.h **** /*
  43:.\asp\include/sil.h ****  *		システムインタフェースレイヤ
  44:.\asp\include/sil.h ****  *
  45:.\asp\include/sil.h ****  *  システムインタフェースレイヤのサービスコールの定義・宣言とマクロな
  46:.\asp\include/sil.h ****  *  どの定義を含むヘッダファイル．
  47:.\asp\include/sil.h ****  *
  48:.\asp\include/sil.h ****  *  アセンブリ言語のソースファイルからこのファイルをインクルードする時
  49:.\asp\include/sil.h ****  *  は，TOPPERS_MACRO_ONLYを定義しておくことで，マクロ定義以外の記述を
  50:.\asp\include/sil.h ****  *  除くことができる．
  51:.\asp\include/sil.h ****  *
  52:.\asp\include/sil.h ****  *  このファイルをインクルードする前にインクルードしておくべきファイル
  53:.\asp\include/sil.h ****  *  はない．
  54:.\asp\include/sil.h ****  */
  55:.\asp\include/sil.h **** 
  56:.\asp\include/sil.h **** #ifndef TOPPERS_SIL_H
  57:.\asp\include/sil.h **** #define TOPPERS_SIL_H
  58:.\asp\include/sil.h **** 
  59:.\asp\include/sil.h **** #ifdef __cplusplus
  60:.\asp\include/sil.h **** extern "C" {
  61:.\asp\include/sil.h **** #endif
  62:.\asp\include/sil.h **** 
  63:.\asp\include/sil.h **** /*
  64:.\asp\include/sil.h ****  *	TOPPERS共通のデータ型・定数・マクロ
  65:.\asp\include/sil.h ****  */
  66:.\asp\include/sil.h **** #include <t_stddef.h>
  67:.\asp\include/sil.h **** 
  68:.\asp\include/sil.h **** /*
  69:.\asp\include/sil.h ****  *  ターゲット依存部
  70:.\asp\include/sil.h ****  */
  71:.\asp\include/sil.h **** #include "target_sil.h"
  72:.\asp\include/sil.h **** 
  73:.\asp\include/sil.h **** #ifndef TOPPERS_MACRO_ONLY
  74:.\asp\include/sil.h **** 
  75:.\asp\include/sil.h **** /*
  76:.\asp\include/sil.h ****  *  全割込みロック状態の制御
  77:.\asp\include/sil.h ****  *
  78:.\asp\include/sil.h ****  *  SIL_PRE_LOC，SIL_LOC_INT()，SIL_UNL_INT()は，ターゲット依存部で用
  79:.\asp\include/sil.h ****  *  意する．デフォルトの定義は用意していない．
  80:.\asp\include/sil.h ****  */
  81:.\asp\include/sil.h **** 
  82:.\asp\include/sil.h **** /*
ARM GAS  C:\TEMP\ccKz4dSg.s 			page 4


  83:.\asp\include/sil.h ****  *  微少時間待ち
  84:.\asp\include/sil.h ****  */
  85:.\asp\include/sil.h **** extern void	sil_dly_nse(ulong_t dlytim) throw();
  86:.\asp\include/sil.h **** 
  87:.\asp\include/sil.h **** /*
  88:.\asp\include/sil.h ****  *  エンディアンの反転
  89:.\asp\include/sil.h ****  */
  90:.\asp\include/sil.h **** #ifndef TOPPERS_SIL_REV_ENDIAN_UINT16
  91:.\asp\include/sil.h **** #define	TOPPERS_SIL_REV_ENDIAN_UINT16(data) \
  92:.\asp\include/sil.h **** 				((((data) & 0xffU) << 8) | (((data) >> 8) & 0xffU))
  93:.\asp\include/sil.h **** #endif /* TOPPERS_SIL_REV_ENDIAN_UINT16 */
  94:.\asp\include/sil.h **** 
  95:.\asp\include/sil.h **** #ifndef TOPPERS_SIL_REV_ENDIAN_UINT32
  96:.\asp\include/sil.h **** #define	TOPPERS_SIL_REV_ENDIAN_UINT32(data) \
  97:.\asp\include/sil.h **** 				((((data) & 0xffU) << 24) | (((data) & 0xff00U) << 8) \
  98:.\asp\include/sil.h **** 					| (((data) >> 8) & 0xff00U) | (((data) >> 24) & 0xffU))
  99:.\asp\include/sil.h **** #endif /* TOPPERS_SIL_REV_ENDIAN_UINT32 */
 100:.\asp\include/sil.h **** 
 101:.\asp\include/sil.h **** /*
 102:.\asp\include/sil.h ****  *  メモリ空間アクセス関数
 103:.\asp\include/sil.h ****  */
 104:.\asp\include/sil.h **** #ifndef TOPPERS_OMIT_SIL_ACCESS
 105:.\asp\include/sil.h **** 
 106:.\asp\include/sil.h **** /*
 107:.\asp\include/sil.h ****  *  8ビット単位の読出し／書込み
 108:.\asp\include/sil.h ****  */
 109:.\asp\include/sil.h **** #ifdef UINT8_MAX
 110:.\asp\include/sil.h **** 
 111:.\asp\include/sil.h **** Inline uint8_t
 112:.\asp\include/sil.h **** sil_reb_mem(const uint8_t *mem)
 113:.\asp\include/sil.h **** {
 114:.\asp\include/sil.h **** 	uint8_t	data;
 115:.\asp\include/sil.h **** 
 116:.\asp\include/sil.h **** 	data = *((const volatile uint8_t *) mem);
 117:.\asp\include/sil.h **** 	return(data);
 118:.\asp\include/sil.h **** }
 119:.\asp\include/sil.h **** 
 120:.\asp\include/sil.h **** Inline void
 121:.\asp\include/sil.h **** sil_wrb_mem(uint8_t *mem, uint8_t data)
 122:.\asp\include/sil.h **** {
 123:.\asp\include/sil.h **** 	*((volatile uint8_t *) mem) = data;
 124:.\asp\include/sil.h **** }
 125:.\asp\include/sil.h **** 
 126:.\asp\include/sil.h **** #endif /* UINT8_MAX */
 127:.\asp\include/sil.h **** 
 128:.\asp\include/sil.h **** /*
 129:.\asp\include/sil.h ****  *  16ビット単位の読出し／書込み
 130:.\asp\include/sil.h ****  */
 131:.\asp\include/sil.h **** 
 132:.\asp\include/sil.h **** Inline uint16_t
 133:.\asp\include/sil.h **** sil_reh_mem(const uint16_t *mem)
 134:.\asp\include/sil.h **** {
 135:.\asp\include/sil.h **** 	uint16_t	data;
 136:.\asp\include/sil.h **** 
 137:.\asp\include/sil.h **** 	data = *((const volatile uint16_t *) mem);
 138:.\asp\include/sil.h **** 	return(data);
 139:.\asp\include/sil.h **** }
ARM GAS  C:\TEMP\ccKz4dSg.s 			page 5


 140:.\asp\include/sil.h **** 
 141:.\asp\include/sil.h **** Inline void
 142:.\asp\include/sil.h **** sil_wrh_mem(uint16_t *mem, uint16_t data)
 143:.\asp\include/sil.h **** {
 144:.\asp\include/sil.h **** 	*((volatile uint16_t *) mem) = data;
 145:.\asp\include/sil.h **** }
 146:.\asp\include/sil.h **** 
 147:.\asp\include/sil.h **** #ifdef SIL_ENDIAN_BIG			/* ビッグエンディアンプロセッサ */
 148:.\asp\include/sil.h **** 
 149:.\asp\include/sil.h **** #define	sil_reh_bem(mem)		sil_reh_mem(mem)
 150:.\asp\include/sil.h **** #define	sil_wrh_bem(mem, data)	sil_wrh_mem(mem, data)
 151:.\asp\include/sil.h **** 
 152:.\asp\include/sil.h **** #ifndef TOPPERS_OMIT_SIL_REH_LEM
 153:.\asp\include/sil.h **** 
 154:.\asp\include/sil.h **** Inline uint16_t
 155:.\asp\include/sil.h **** sil_reh_lem(const uint16_t *mem)
 156:.\asp\include/sil.h **** {
 157:.\asp\include/sil.h **** 	uint16_t	data;
 158:.\asp\include/sil.h **** 
 159:.\asp\include/sil.h **** 	data = *((const volatile uint16_t *) mem);
 160:.\asp\include/sil.h **** 	return(TOPPERS_SIL_REV_ENDIAN_UINT16(data));
 161:.\asp\include/sil.h **** }
 162:.\asp\include/sil.h **** 
 163:.\asp\include/sil.h **** #endif /* TOPPERS_OMIT_SIL_REH_LEM */
 164:.\asp\include/sil.h **** #ifndef TOPPERS_OMIT_SIL_WRH_LEM
 165:.\asp\include/sil.h **** 
 166:.\asp\include/sil.h **** Inline void
 167:.\asp\include/sil.h **** sil_wrh_lem(uint16_t *mem, uint16_t data)
 168:.\asp\include/sil.h **** {
 169:.\asp\include/sil.h **** 	*((volatile uint16_t *) mem) = TOPPERS_SIL_REV_ENDIAN_UINT16(data);
 170:.\asp\include/sil.h **** }
 171:.\asp\include/sil.h **** 
 172:.\asp\include/sil.h **** #endif /* TOPPERS_OMIT_SIL_WRH_LEM */
 173:.\asp\include/sil.h **** #else /* SIL_ENDIAN_BIG */
 174:.\asp\include/sil.h **** #ifdef SIL_ENDIAN_LITTLE		/* リトルエンディアンプロセッサ */
 175:.\asp\include/sil.h **** 
 176:.\asp\include/sil.h **** #define	sil_reh_lem(mem)		sil_reh_mem(mem)
 177:.\asp\include/sil.h **** #define	sil_wrh_lem(mem, data)	sil_wrh_mem(mem, data)
 178:.\asp\include/sil.h **** 
 179:.\asp\include/sil.h **** #ifndef TOPPERS_OMIT_SIL_REH_BEM
 180:.\asp\include/sil.h **** 
 181:.\asp\include/sil.h **** Inline uint16_t
 182:.\asp\include/sil.h **** sil_reh_bem(const uint16_t *mem)
 183:.\asp\include/sil.h **** {
 184:.\asp\include/sil.h **** 	uint16_t	data;
 185:.\asp\include/sil.h **** 
 186:.\asp\include/sil.h **** 	data = *((const volatile uint16_t *) mem);
 187:.\asp\include/sil.h **** 	return(TOPPERS_SIL_REV_ENDIAN_UINT16(data));
 188:.\asp\include/sil.h **** }
 189:.\asp\include/sil.h **** 
 190:.\asp\include/sil.h **** #endif /* TOPPERS_OMIT_SIL_REH_BEM */
 191:.\asp\include/sil.h **** #ifndef TOPPERS_OMIT_SIL_WRH_BEM
 192:.\asp\include/sil.h **** 
 193:.\asp\include/sil.h **** Inline void
 194:.\asp\include/sil.h **** sil_wrh_bem(uint16_t *mem, uint16_t data)
 195:.\asp\include/sil.h **** {
 196:.\asp\include/sil.h **** 	*((volatile uint16_t *) mem) = TOPPERS_SIL_REV_ENDIAN_UINT16(data);
ARM GAS  C:\TEMP\ccKz4dSg.s 			page 6


 197:.\asp\include/sil.h **** }
 198:.\asp\include/sil.h **** 
 199:.\asp\include/sil.h **** #endif /* TOPPERS_OMIT_SIL_WRH_BEM */
 200:.\asp\include/sil.h **** #else /* SIL_ENDIAN_LITTLE */
 201:.\asp\include/sil.h **** 
 202:.\asp\include/sil.h **** #error Neither SIL_ENDIAN_BIG nor SIL_ENDIAN_LITTLE is defined.
 203:.\asp\include/sil.h **** 
 204:.\asp\include/sil.h **** #endif /* SIL_ENDIAN_LITTLE */
 205:.\asp\include/sil.h **** #endif /* SIL_ENDIAN_BIG */
 206:.\asp\include/sil.h **** 
 207:.\asp\include/sil.h **** /*
 208:.\asp\include/sil.h ****  *  32ビット単位の読出し／書込み
 209:.\asp\include/sil.h ****  */
 210:.\asp\include/sil.h **** 
 211:.\asp\include/sil.h **** Inline uint32_t
 212:.\asp\include/sil.h **** sil_rew_mem(const uint32_t *mem)
 213:.\asp\include/sil.h **** {
 214:.\asp\include/sil.h **** 	uint32_t	data;
 215:.\asp\include/sil.h **** 
 216:.\asp\include/sil.h **** 	data = *((const volatile uint32_t *) mem);
  36              		.loc 2 216 0
  37 0000 074B     		ldr	r3, .L2
  38              	.LBE23:
  39              	.LBE22:
  40              	.LBB25:
  41              	.LBB26:
 217:.\asp\include/sil.h **** 	return(data);
 218:.\asp\include/sil.h **** }
 219:.\asp\include/sil.h **** 
 220:.\asp\include/sil.h **** Inline void
 221:.\asp\include/sil.h **** sil_wrw_mem(uint32_t *mem, uint32_t data)
 222:.\asp\include/sil.h **** {
 223:.\asp\include/sil.h **** 	*((volatile uint32_t *) mem) = data;
  42              		.loc 2 223 0
  43 0002 0849     		ldr	r1, .L2+4
  44              	.LBE26:
  45              	.LBE25:
  46              	.LBB29:
  47              	.LBB24:
 216:.\asp\include/sil.h **** 	data = *((const volatile uint32_t *) mem);
  48              		.loc 2 216 0
  49 0004 1A68     		ldr	r2, [r3, #0]
  50              	.LVL1:
  51              	.LBE24:
  52              	.LBE29:
  55:.\asp\arch\arm_m_gcc\common/core_timer.c **** 	CLOCK    cyc;
  56:.\asp\arch\arm_m_gcc\common/core_timer.c **** 	uint32_t tmp;
  57:.\asp\arch\arm_m_gcc\common/core_timer.c **** 
  58:.\asp\arch\arm_m_gcc\common/core_timer.c **** #ifdef SYSTIC_USE_CALIBRATION
  59:.\asp\arch\arm_m_gcc\common/core_timer.c **** 	/* CALIBRATIONレジスタの値を使用 */
  60:.\asp\arch\arm_m_gcc\common/core_timer.c **** 	cyc = (sil_rew_mem((void *)SYSTIC_CALIBRATION) & SYSTIC_TENMS) / 10;
  61:.\asp\arch\arm_m_gcc\common/core_timer.c **** #else 
  62:.\asp\arch\arm_m_gcc\common/core_timer.c **** 	cyc = TO_CLOCK(TIC_NUME, TIC_DENO) - 1;
  63:.\asp\arch\arm_m_gcc\common/core_timer.c **** #endif /* SYSTIC_USE_CALIBRATION */
  64:.\asp\arch\arm_m_gcc\common/core_timer.c **** 
  65:.\asp\arch\arm_m_gcc\common/core_timer.c **** 	/* 停止 */
  66:.\asp\arch\arm_m_gcc\common/core_timer.c **** 	tmp = sil_rew_mem((void *)SYSTIC_CONTROL_STATUS);
ARM GAS  C:\TEMP\ccKz4dSg.s 			page 7


  67:.\asp\arch\arm_m_gcc\common/core_timer.c **** 	tmp &= ~SYSTIC_ENABLE;
  53              		.loc 1 67 0
  54 0006 22F00100 		bic	r0, r2, #1
  55              	.LVL2:
  56              	.LBB30:
  57              	.LBB27:
  58              		.loc 2 223 0
  59 000a 45F6BF52 		movw	r2, #23999
  60              	.LVL3:
  61              	.LBE27:
  62              	.LBE30:
  63              	.LBB31:
  64              	.LBB32:
  65 000e 1860     		str	r0, [r3, #0]
  66              	.LVL4:
  67              	.LBE32:
  68              	.LBE31:
  69              	.LBB33:
  70              	.LBB28:
  71 0010 0A60     		str	r2, [r1, #0]
  72              	.LVL5:
  73              	.LBE28:
  74              	.LBE33:
  75              	.LBB34:
  76              	.LBB35:
  77 0012 4A60     		str	r2, [r1, #4]
  78              	.LVL6:
  79              	.LBE35:
  80              	.LBE34:
  81              	.LBB36:
  82              	.LBB37:
 216:.\asp\include/sil.h **** 	data = *((const volatile uint32_t *) mem);
  83              		.loc 2 216 0
  84 0014 1868     		ldr	r0, [r3, #0]
  85              	.LVL7:
  86              	.LBE37:
  87              	.LBE36:
  68:.\asp\arch\arm_m_gcc\common/core_timer.c **** 	sil_wrw_mem((void *)SYSTIC_CONTROL_STATUS, tmp);
  69:.\asp\arch\arm_m_gcc\common/core_timer.c **** 
  70:.\asp\arch\arm_m_gcc\common/core_timer.c **** 	sil_wrw_mem((void *)SYSTIC_RELOAD_VALUE, cyc);
  71:.\asp\arch\arm_m_gcc\common/core_timer.c **** 	sil_wrw_mem((void *)SYSTIC_CURRENT_VALUE, cyc);
  72:.\asp\arch\arm_m_gcc\common/core_timer.c **** 
  73:.\asp\arch\arm_m_gcc\common/core_timer.c **** 	tmp = sil_rew_mem((void *)SYSTIC_CONTROL_STATUS);
  74:.\asp\arch\arm_m_gcc\common/core_timer.c **** 
  75:.\asp\arch\arm_m_gcc\common/core_timer.c **** #ifdef SYSTIC_USE_STCLK
  76:.\asp\arch\arm_m_gcc\common/core_timer.c **** 	/* 外部クロックの使用 */
  77:.\asp\arch\arm_m_gcc\common/core_timer.c **** 	tmp |= SYSTIC_ENABLE;
  78:.\asp\arch\arm_m_gcc\common/core_timer.c **** #else
  79:.\asp\arch\arm_m_gcc\common/core_timer.c **** 	/* プロセッサクロックの使用 */
  80:.\asp\arch\arm_m_gcc\common/core_timer.c **** 	tmp |= SYSTIC_ENABLE|SYSTIC_CLKSOURCE;
  88              		.loc 1 80 0
  89 0016 40F00502 		orr	r2, r0, #5
  90              	.LVL8:
  91              	.LBB38:
  92              	.LBB39:
  93              		.loc 2 223 0
  94 001a 1A60     		str	r2, [r3, #0]
ARM GAS  C:\TEMP\ccKz4dSg.s 			page 8


  95 001c 7047     		bx	lr
  96              	.L3:
  97 001e 00BF     		.align	2
  98              	.L2:
  99 0020 10E000E0 		.word	-536813552
 100 0024 14E000E0 		.word	-536813548
 101              	.LBE39:
 102              	.LBE38:
 103              		.cfi_endproc
 104              	.LFE49:
 105              		.size	target_timer_initialize, .-target_timer_initialize
 106              		.section	.text.target_timer_terminate,"ax",%progbits
 107              		.align	1
 108              		.global	target_timer_terminate
 109              		.thumb
 110              		.thumb_func
 111              		.type	target_timer_terminate, %function
 112              	target_timer_terminate:
 113              	.LFB50:
  81:.\asp\arch\arm_m_gcc\common/core_timer.c **** #endif /* SYSTIC_USE_STCLK */
  82:.\asp\arch\arm_m_gcc\common/core_timer.c **** 
  83:.\asp\arch\arm_m_gcc\common/core_timer.c **** 	sil_wrw_mem((void *)SYSTIC_CONTROL_STATUS, tmp);
  84:.\asp\arch\arm_m_gcc\common/core_timer.c **** }
  85:.\asp\arch\arm_m_gcc\common/core_timer.c **** 
  86:.\asp\arch\arm_m_gcc\common/core_timer.c **** /*
  87:.\asp\arch\arm_m_gcc\common/core_timer.c ****  *  タイマの停止処理
  88:.\asp\arch\arm_m_gcc\common/core_timer.c ****  */
  89:.\asp\arch\arm_m_gcc\common/core_timer.c **** void
  90:.\asp\arch\arm_m_gcc\common/core_timer.c **** target_timer_terminate(intptr_t exinf)
  91:.\asp\arch\arm_m_gcc\common/core_timer.c **** {
 114              		.loc 1 91 0
 115              		.cfi_startproc
 116              		@ args = 0, pretend = 0, frame = 0
 117              		@ frame_needed = 0, uses_anonymous_args = 0
 118              		@ link register save eliminated.
 119              	.LVL9:
 120              	.LBB40:
 121              	.LBB41:
 122              		.loc 2 223 0
 123 0000 014B     		ldr	r3, .L5
 124 0002 0022     		movs	r2, #0
 125 0004 1A60     		str	r2, [r3, #0]
 126 0006 7047     		bx	lr
 127              	.L6:
 128              		.align	2
 129              	.L5:
 130 0008 10E000E0 		.word	-536813552
 131              	.LBE41:
 132              	.LBE40:
 133              		.cfi_endproc
 134              	.LFE50:
 135              		.size	target_timer_terminate, .-target_timer_terminate
 136              		.section	.text.target_timer_handler,"ax",%progbits
 137              		.align	1
 138              		.global	target_timer_handler
 139              		.thumb
 140              		.thumb_func
ARM GAS  C:\TEMP\ccKz4dSg.s 			page 9


 141              		.type	target_timer_handler, %function
 142              	target_timer_handler:
 143              	.LFB51:
  92:.\asp\arch\arm_m_gcc\common/core_timer.c **** 	/* タイマを停止 */
  93:.\asp\arch\arm_m_gcc\common/core_timer.c **** 	sil_wrw_mem((void*)SYSTIC_CONTROL_STATUS, 0x00);
  94:.\asp\arch\arm_m_gcc\common/core_timer.c **** }
  95:.\asp\arch\arm_m_gcc\common/core_timer.c **** 
  96:.\asp\arch\arm_m_gcc\common/core_timer.c **** /*
  97:.\asp\arch\arm_m_gcc\common/core_timer.c ****  *  タイマ割込みハンドラ
  98:.\asp\arch\arm_m_gcc\common/core_timer.c ****  */
  99:.\asp\arch\arm_m_gcc\common/core_timer.c **** void
 100:.\asp\arch\arm_m_gcc\common/core_timer.c **** target_timer_handler(void)
 101:.\asp\arch\arm_m_gcc\common/core_timer.c **** {
 144              		.loc 1 101 0
 145              		.cfi_startproc
 146              		@ args = 0, pretend = 0, frame = 0
 147              		@ frame_needed = 0, uses_anonymous_args = 0
 148              		@ link register save eliminated.
 149              	.LVL10:
 150              	.LBB42:
 151              	.LBB43:
 216:.\asp\include/sil.h **** 	data = *((const volatile uint32_t *) mem);
 152              		.loc 2 216 0
 153 0000 014B     		ldr	r3, .L8
 154 0002 1B68     		ldr	r3, [r3, #0]
 155              	.LBE43:
 156              	.LBE42:
 102:.\asp\arch\arm_m_gcc\common/core_timer.c **** 	/* probe_int のため，COUNTFLAGをクリア */
 103:.\asp\arch\arm_m_gcc\common/core_timer.c **** 	sil_rew_mem((void *)SYSTIC_CONTROL_STATUS);
 104:.\asp\arch\arm_m_gcc\common/core_timer.c **** 
 105:.\asp\arch\arm_m_gcc\common/core_timer.c **** 	i_begin_int(INTNO_TIMER);
 106:.\asp\arch\arm_m_gcc\common/core_timer.c **** 	signal_time();                    /* タイムティックの供給 */
 107:.\asp\arch\arm_m_gcc\common/core_timer.c **** 	i_end_int(INTNO_TIMER);
 108:.\asp\arch\arm_m_gcc\common/core_timer.c **** }
 157              		.loc 1 108 0
 106:.\asp\arch\arm_m_gcc\common/core_timer.c **** 	signal_time();                    /* タイムティックの供給 */
 158              		.loc 1 106 0
 159 0004 FFF7FEBF 		b	_kernel_signal_time
 160              	.LVL11:
 161              	.L9:
 162              		.align	2
 163              	.L8:
 164 0008 10E000E0 		.word	-536813552
 165              		.cfi_endproc
 166              	.LFE51:
 167              		.size	target_timer_handler, .-target_timer_handler
 168              		.text
 169              	.Letext0:
 170              		.file 3 ".\\asp\\arch\\gcc/tool_stddef.h"
 171              		.file 4 ".\\asp\\include/t_stddef.h"
 172              		.file 5 ".\\asp\\include/kernel.h"
 173              		.file 6 ".\\asp\\kernel/time_event.h"
 174              		.file 7 ".\\asp\\arch/arm_m_gcc/common/core_timer.h"
 175              		.file 8 ".\\asp\\arch\\arm_m_gcc\\common/core_config.h"