ARM GAS  C:\TEMP\ccwY9sv5.s 			page 1


   1              		.syntax unified
   2              		.cpu cortex-m3
   3              		.fpu softvfp
   4              		.eabi_attribute 20, 1
   5              		.eabi_attribute 21, 1
   6              		.eabi_attribute 23, 3
   7              		.eabi_attribute 24, 1
   8              		.eabi_attribute 25, 1
   9              		.eabi_attribute 26, 1
  10              		.eabi_attribute 30, 4
  11              		.eabi_attribute 34, 1
  12              		.eabi_attribute 18, 4
  13              		.thumb
  14              		.file	"cyclic.c"
  15              		.text
  16              	.Ltext0:
  17              		.cfi_sections	.debug_frame
  18              		.section	.text.x_lock_cpu,"ax",%progbits
  19              		.align	1
  20              		.thumb
  21              		.thumb_func
  22              		.type	x_lock_cpu, %function
  23              	x_lock_cpu:
  24              	.LFB30:
  25              		.file 1 ".\\asp\\arch\\arm_m_gcc\\common/core_config.h"
   1:.\asp\arch\arm_m_gcc\common/core_config.h **** /*
   2:.\asp\arch\arm_m_gcc\common/core_config.h ****  *  TOPPERS/ASP Kernel
   3:.\asp\arch\arm_m_gcc\common/core_config.h ****  *      Toyohashi Open Platform for Embedded Real-Time Systems/
   4:.\asp\arch\arm_m_gcc\common/core_config.h ****  *      Advanced Standard Profile Kernel
   5:.\asp\arch\arm_m_gcc\common/core_config.h ****  * 
   6:.\asp\arch\arm_m_gcc\common/core_config.h ****  *  Copyright (C) 2008-2011,2013 by Embedded and Real-Time Systems Laboratory
   7:.\asp\arch\arm_m_gcc\common/core_config.h ****  *              Graduate School of Information Science, Nagoya Univ., JAPAN
   8:.\asp\arch\arm_m_gcc\common/core_config.h ****  * 
   9:.\asp\arch\arm_m_gcc\common/core_config.h ****  *  ã‹L’˜ìŒ Ò‚ÍCˆÈ‰º‚Ì(1)`(4)‚ÌğŒ‚ğ–‚½‚·ê‡‚ÉŒÀ‚èC–{ƒ\ƒtƒgƒEƒF
  10:.\asp\arch\arm_m_gcc\common/core_config.h ****  *  ƒAi–{ƒ\ƒtƒgƒEƒFƒA‚ğ‰ü•Ï‚µ‚½‚à‚Ì‚ğŠÜ‚ŞDˆÈ‰º“¯‚¶j‚ğg—pE•¡»E‰ü
  11:.\asp\arch\arm_m_gcc\common/core_config.h ****  *  •ÏEÄ”z•ziˆÈ‰ºC—˜—p‚ÆŒÄ‚Ôj‚·‚é‚±‚Æ‚ğ–³‚Å‹–‘ø‚·‚éD
  12:.\asp\arch\arm_m_gcc\common/core_config.h ****  *  (1) –{ƒ\ƒtƒgƒEƒFƒA‚ğƒ\[ƒXƒR[ƒh‚ÌŒ`‚Å—˜—p‚·‚éê‡‚É‚ÍCã‹L‚Ì’˜ì
  13:.\asp\arch\arm_m_gcc\common/core_config.h ****  *      Œ •\¦C‚±‚Ì—˜—pğŒ‚¨‚æ‚Ñ‰º‹L‚Ì–³•ÛØ‹K’è‚ªC‚»‚Ì‚Ü‚Ü‚ÌŒ`‚Åƒ\[
  14:.\asp\arch\arm_m_gcc\common/core_config.h ****  *      ƒXƒR[ƒh’†‚ÉŠÜ‚Ü‚ê‚Ä‚¢‚é‚±‚ÆD
  15:.\asp\arch\arm_m_gcc\common/core_config.h ****  *  (2) –{ƒ\ƒtƒgƒEƒFƒA‚ğCƒ‰ƒCƒuƒ‰ƒŠŒ`®‚È‚ÇC‘¼‚Ìƒ\ƒtƒgƒEƒFƒAŠJ”­‚Ég
  16:.\asp\arch\arm_m_gcc\common/core_config.h ****  *      —p‚Å‚«‚éŒ`‚ÅÄ”z•z‚·‚éê‡‚É‚ÍCÄ”z•z‚É”º‚¤ƒhƒLƒ…ƒƒ“ƒgi—˜—p
  17:.\asp\arch\arm_m_gcc\common/core_config.h ****  *      Òƒ}ƒjƒ…ƒAƒ‹‚È‚Çj‚ÉCã‹L‚Ì’˜ìŒ •\¦C‚±‚Ì—˜—pğŒ‚¨‚æ‚Ñ‰º‹L
  18:.\asp\arch\arm_m_gcc\common/core_config.h ****  *      ‚Ì–³•ÛØ‹K’è‚ğŒfÚ‚·‚é‚±‚ÆD
  19:.\asp\arch\arm_m_gcc\common/core_config.h ****  *  (3) –{ƒ\ƒtƒgƒEƒFƒA‚ğC‹@Ší‚É‘g‚İ‚Ş‚È‚ÇC‘¼‚Ìƒ\ƒtƒgƒEƒFƒAŠJ”­‚Ég
  20:.\asp\arch\arm_m_gcc\common/core_config.h ****  *      —p‚Å‚«‚È‚¢Œ`‚ÅÄ”z•z‚·‚éê‡‚É‚ÍCŸ‚Ì‚¢‚¸‚ê‚©‚ÌğŒ‚ğ–‚½‚·‚±
  21:.\asp\arch\arm_m_gcc\common/core_config.h ****  *      ‚ÆD
  22:.\asp\arch\arm_m_gcc\common/core_config.h ****  *    (a) Ä”z•z‚É”º‚¤ƒhƒLƒ…ƒƒ“ƒgi—˜—pÒƒ}ƒjƒ…ƒAƒ‹‚È‚Çj‚ÉCã‹L‚Ì’˜
  23:.\asp\arch\arm_m_gcc\common/core_config.h ****  *        ìŒ •\¦C‚±‚Ì—˜—pğŒ‚¨‚æ‚Ñ‰º‹L‚Ì–³•ÛØ‹K’è‚ğŒfÚ‚·‚é‚±‚ÆD
  24:.\asp\arch\arm_m_gcc\common/core_config.h ****  *    (b) Ä”z•z‚ÌŒ`‘Ô‚ğC•Ê‚É’è‚ß‚é•û–@‚É‚æ‚Á‚ÄCTOPPERSƒvƒƒWƒFƒNƒg‚É
  25:.\asp\arch\arm_m_gcc\common/core_config.h ****  *        •ñ‚·‚é‚±‚ÆD
  26:.\asp\arch\arm_m_gcc\common/core_config.h ****  *  (4) –{ƒ\ƒtƒgƒEƒFƒA‚Ì—˜—p‚É‚æ‚è’¼Ú“I‚Ü‚½‚ÍŠÔÚ“I‚É¶‚¶‚é‚¢‚©‚È‚é‘¹
  27:.\asp\arch\arm_m_gcc\common/core_config.h ****  *      ŠQ‚©‚ç‚àCã‹L’˜ìŒ Ò‚¨‚æ‚ÑTOPPERSƒvƒƒWƒFƒNƒg‚ğ–ÆÓ‚·‚é‚±‚ÆD
  28:.\asp\arch\arm_m_gcc\common/core_config.h ****  *      ‚Ü‚½C–{ƒ\ƒtƒgƒEƒFƒA‚Ìƒ†[ƒU‚Ü‚½‚ÍƒGƒ“ƒhƒ†[ƒU‚©‚ç‚Ì‚¢‚©‚È‚é—
  29:.\asp\arch\arm_m_gcc\common/core_config.h ****  *      —R‚ÉŠî‚Ã‚­¿‹‚©‚ç‚àCã‹L’˜ìŒ Ò‚¨‚æ‚ÑTOPPERSƒvƒƒWƒFƒNƒg‚ğ
  30:.\asp\arch\arm_m_gcc\common/core_config.h ****  *      –ÆÓ‚·‚é‚±‚ÆD
  31:.\asp\arch\arm_m_gcc\common/core_config.h ****  * 
  32:.\asp\arch\arm_m_gcc\common/core_config.h ****  *  –{ƒ\ƒtƒgƒEƒFƒA‚ÍC–³•ÛØ‚Å’ñ‹Ÿ‚³‚ê‚Ä‚¢‚é‚à‚Ì‚Å‚ ‚éDã‹L’˜ìŒ Ò‚¨
ARM GAS  C:\TEMP\ccwY9sv5.s 			page 2


  33:.\asp\arch\arm_m_gcc\common/core_config.h ****  *  ‚æ‚ÑTOPPERSƒvƒƒWƒFƒNƒg‚ÍC–{ƒ\ƒtƒgƒEƒFƒA‚ÉŠÖ‚µ‚ÄC“Á’è‚Ìg—p–Ú“I
  34:.\asp\arch\arm_m_gcc\common/core_config.h ****  *  ‚É‘Î‚·‚é“K‡«‚àŠÜ‚ß‚ÄC‚¢‚©‚È‚é•ÛØ‚às‚í‚È‚¢D‚Ü‚½C–{ƒ\ƒtƒgƒEƒF
  35:.\asp\arch\arm_m_gcc\common/core_config.h ****  *  ƒA‚Ì—˜—p‚É‚æ‚è’¼Ú“I‚Ü‚½‚ÍŠÔÚ“I‚É¶‚¶‚½‚¢‚©‚È‚é‘¹ŠQ‚ÉŠÖ‚µ‚Ä‚àC‚»
  36:.\asp\arch\arm_m_gcc\common/core_config.h ****  *  ‚ÌÓ”C‚ğ•‰‚í‚È‚¢D
  37:.\asp\arch\arm_m_gcc\common/core_config.h ****  * 
  38:.\asp\arch\arm_m_gcc\common/core_config.h ****  *  @(#) $Id: core_config.h 2554 2013-10-17 02:53:02Z ertl-honda $
  39:.\asp\arch\arm_m_gcc\common/core_config.h ****  */
  40:.\asp\arch\arm_m_gcc\common/core_config.h **** 
  41:.\asp\arch\arm_m_gcc\common/core_config.h **** /*
  42:.\asp\arch\arm_m_gcc\common/core_config.h ****  *		ƒvƒƒZƒbƒTˆË‘¶ƒ‚ƒWƒ…[ƒ‹iARM-M—pj
  43:.\asp\arch\arm_m_gcc\common/core_config.h ****  *
  44:.\asp\arch\arm_m_gcc\common/core_config.h ****  *  ‚±‚ÌƒCƒ“ƒNƒ‹[ƒhƒtƒ@ƒCƒ‹‚ÍCtarget_config.hi‚Ü‚½‚ÍC‚»‚±‚©‚çƒCƒ“ƒN
  45:.\asp\arch\arm_m_gcc\common/core_config.h ****  *  ƒ‹[ƒh‚³‚ê‚éƒtƒ@ƒCƒ‹j‚Ì‚İ‚©‚çƒCƒ“ƒNƒ‹[ƒh‚³‚ê‚éD‘¼‚Ìƒtƒ@ƒCƒ‹‚©‚ç
  46:.\asp\arch\arm_m_gcc\common/core_config.h ****  *  ’¼ÚƒCƒ“ƒNƒ‹[ƒh‚µ‚Ä‚Í‚È‚ç‚È‚¢D
  47:.\asp\arch\arm_m_gcc\common/core_config.h ****  */
  48:.\asp\arch\arm_m_gcc\common/core_config.h **** 
  49:.\asp\arch\arm_m_gcc\common/core_config.h **** #ifndef TOPPERS_CORE_CONFIG_H
  50:.\asp\arch\arm_m_gcc\common/core_config.h **** #define TOPPERS_CORE_CONFIG_H
  51:.\asp\arch\arm_m_gcc\common/core_config.h **** 
  52:.\asp\arch\arm_m_gcc\common/core_config.h **** #ifndef TOPPERS_MACRO_ONLY
  53:.\asp\arch\arm_m_gcc\common/core_config.h **** 
  54:.\asp\arch\arm_m_gcc\common/core_config.h **** /*
  55:.\asp\arch\arm_m_gcc\common/core_config.h ****  *  ƒvƒƒZƒbƒT‚Ì“Áê–½—ß‚ÌƒCƒ“ƒ‰ƒCƒ“ŠÖ”’è‹`
  56:.\asp\arch\arm_m_gcc\common/core_config.h ****  */
  57:.\asp\arch\arm_m_gcc\common/core_config.h **** #include <core_insn.h>
  58:.\asp\arch\arm_m_gcc\common/core_config.h **** 
  59:.\asp\arch\arm_m_gcc\common/core_config.h **** /*
  60:.\asp\arch\arm_m_gcc\common/core_config.h ****  *  ƒ^[ƒQƒbƒgˆË‘¶‚ÌƒIƒuƒWƒFƒNƒg‘®«
  61:.\asp\arch\arm_m_gcc\common/core_config.h ****  */
  62:.\asp\arch\arm_m_gcc\common/core_config.h **** #define TARGET_INHATR  TA_NONKERNEL /* ƒ^[ƒQƒbƒg’è‹`‚ÌŠ„‚İƒnƒ“ƒhƒ‰‘®« */
  63:.\asp\arch\arm_m_gcc\common/core_config.h **** 
  64:.\asp\arch\arm_m_gcc\common/core_config.h **** /*
  65:.\asp\arch\arm_m_gcc\common/core_config.h ****  *  ƒGƒ‰[ƒ`ƒFƒbƒN•û–@‚Ìw’è
  66:.\asp\arch\arm_m_gcc\common/core_config.h ****  */
  67:.\asp\arch\arm_m_gcc\common/core_config.h **** #define CHECK_STKSZ_ALIGN	8	/* ƒXƒ^ƒbƒNƒTƒCƒY‚ÌƒAƒ‰ƒCƒ“’PˆÊ */
  68:.\asp\arch\arm_m_gcc\common/core_config.h **** #define CHECK_FUNC_ALIGN	1	/* ŠÖ”‚ÌƒAƒ‰ƒCƒ“’PˆÊ */
  69:.\asp\arch\arm_m_gcc\common/core_config.h **** #define CHECK_FUNC_NONNULL		/* ŠÖ”‚Ì”ñNULLƒ`ƒFƒbƒN */
  70:.\asp\arch\arm_m_gcc\common/core_config.h **** #define CHECK_STACK_ALIGN	8	/* ƒXƒ^ƒbƒN—Ìˆæ‚ÌƒAƒ‰ƒCƒ“’PˆÊ */
  71:.\asp\arch\arm_m_gcc\common/core_config.h **** #define CHECK_STACK_NONNULL		/* ƒXƒ^ƒbƒN—Ìˆæ‚Ì”ñNULLƒ`ƒFƒbƒN */
  72:.\asp\arch\arm_m_gcc\common/core_config.h **** #define CHECK_MPF_ALIGN		4	/* ŒÅ’è’·ƒƒ‚ƒŠƒv[ƒ‹—Ìˆæ‚ÌƒAƒ‰ƒCƒ“’PˆÊ */
  73:.\asp\arch\arm_m_gcc\common/core_config.h **** #define CHECK_MPF_NONNULL		/* ŒÅ’è’·ƒƒ‚ƒŠƒv[ƒ‹—Ìˆæ‚Ì”ñNULLƒ`ƒFƒbƒN */
  74:.\asp\arch\arm_m_gcc\common/core_config.h **** #define CHECK_MB_ALIGN		4	/* ŠÇ——Ìˆæ‚ÌƒAƒ‰ƒCƒ“’PˆÊ */
  75:.\asp\arch\arm_m_gcc\common/core_config.h **** 
  76:.\asp\arch\arm_m_gcc\common/core_config.h **** /*
  77:.\asp\arch\arm_m_gcc\common/core_config.h ****  *  ”ñƒ^ƒXƒNƒRƒ“ƒeƒLƒXƒg—p‚ÌƒXƒ^ƒbƒN‰Šú’l
  78:.\asp\arch\arm_m_gcc\common/core_config.h ****  */
  79:.\asp\arch\arm_m_gcc\common/core_config.h **** #define TOPPERS_ISTKPT(istk, istksz) ((STK_T *)((uint8_t *)(istk) + (istksz)))
  80:.\asp\arch\arm_m_gcc\common/core_config.h **** 
  81:.\asp\arch\arm_m_gcc\common/core_config.h **** /*
  82:.\asp\arch\arm_m_gcc\common/core_config.h ****  *  ƒ^ƒXƒNƒRƒ“ƒeƒLƒXƒgƒuƒƒbƒN‚Ì’è‹`
  83:.\asp\arch\arm_m_gcc\common/core_config.h ****  */
  84:.\asp\arch\arm_m_gcc\common/core_config.h **** typedef struct task_context_block {
  85:.\asp\arch\arm_m_gcc\common/core_config.h **** 	void	*sp;		/* ƒXƒ^ƒbƒNƒ|ƒCƒ“ƒ^ */
  86:.\asp\arch\arm_m_gcc\common/core_config.h **** 	FP		pc;			/* ƒvƒƒOƒ‰ƒ€ƒJƒEƒ“ƒ^ */
  87:.\asp\arch\arm_m_gcc\common/core_config.h **** } TSKCTXB;
  88:.\asp\arch\arm_m_gcc\common/core_config.h **** 
  89:.\asp\arch\arm_m_gcc\common/core_config.h **** #endif /* TOPPERS_MACRO_ONLY */
ARM GAS  C:\TEMP\ccwY9sv5.s 			page 3


  90:.\asp\arch\arm_m_gcc\common/core_config.h **** 
  91:.\asp\arch\arm_m_gcc\common/core_config.h **** #ifndef TOPPERS_MACRO_ONLY
  92:.\asp\arch\arm_m_gcc\common/core_config.h **** /*
  93:.\asp\arch\arm_m_gcc\common/core_config.h ****  *  ƒRƒ“ƒeƒLƒXƒg‚ÌQÆ
  94:.\asp\arch\arm_m_gcc\common/core_config.h ****  *
  95:.\asp\arch\arm_m_gcc\common/core_config.h ****  */
  96:.\asp\arch\arm_m_gcc\common/core_config.h **** Inline bool_t
  97:.\asp\arch\arm_m_gcc\common/core_config.h **** sense_context(void)
  98:.\asp\arch\arm_m_gcc\common/core_config.h **** {
  99:.\asp\arch\arm_m_gcc\common/core_config.h **** 	/*
 100:.\asp\arch\arm_m_gcc\common/core_config.h **** 	 *  PSP‚ª—LŒø‚È‚çƒ^ƒXƒNƒRƒ“ƒeƒLƒXƒgCMSP‚ª—LŒø‚È‚ç”ñƒ^ƒXƒNƒRƒ“ƒeƒLƒXƒg
 101:.\asp\arch\arm_m_gcc\common/core_config.h **** 	 *  ‚Æ‚·‚éD 
 102:.\asp\arch\arm_m_gcc\common/core_config.h **** 	 */
 103:.\asp\arch\arm_m_gcc\common/core_config.h **** 	if ((get_control() & CONTROL_PSP) == CONTROL_PSP){
 104:.\asp\arch\arm_m_gcc\common/core_config.h **** 		return false;
 105:.\asp\arch\arm_m_gcc\common/core_config.h **** 	}
 106:.\asp\arch\arm_m_gcc\common/core_config.h **** 	else {
 107:.\asp\arch\arm_m_gcc\common/core_config.h **** 		return true;
 108:.\asp\arch\arm_m_gcc\common/core_config.h **** 	}
 109:.\asp\arch\arm_m_gcc\common/core_config.h **** }
 110:.\asp\arch\arm_m_gcc\common/core_config.h **** 
 111:.\asp\arch\arm_m_gcc\common/core_config.h **** #endif /* TOPPERS_MACRO_ONLY */
 112:.\asp\arch\arm_m_gcc\common/core_config.h **** 
 113:.\asp\arch\arm_m_gcc\common/core_config.h **** /*
 114:.\asp\arch\arm_m_gcc\common/core_config.h ****  *  TOPPERS•W€Š„‚İˆ—ƒ‚ƒfƒ‹‚ÌÀŒ»
 115:.\asp\arch\arm_m_gcc\common/core_config.h ****  *
 116:.\asp\arch\arm_m_gcc\common/core_config.h ****  *  Š„‚İ—Dæ“xƒ}ƒXƒN‚Æ‚µ‚Ä‚ÍCBASEPRI‚ğ—p‚¢‚éD‘SŠ„‚İ‚ğ‹Ö~‚·‚é
 117:.\asp\arch\arm_m_gcc\common/core_config.h ****  *  ‹@”\‚Æ‚µ‚ÄCFAULTMASK‚âPRIMASK‚ª‚ ‚é‚ªCƒJ[ƒlƒ‹ŠÇ—ŠO‚ÌŠ„‚İ‚ğ
 118:.\asp\arch\arm_m_gcc\common/core_config.h ****  *  ƒTƒ|[ƒg‚·‚é‚½‚ßC‚±‚ê‚ç‚ÍCPUƒƒbƒN‚Ì‚½‚ß‚É—p‚¢‚È‚¢D
 119:.\asp\arch\arm_m_gcc\common/core_config.h ****  *  ‚»‚Ì‚½‚ßCBASEPRI‚ğ—p‚¢‚Ä‹[—“I‚ÉCPUƒƒbƒNƒtƒ‰ƒO‚ğÀŒ»‚·‚éD
 120:.\asp\arch\arm_m_gcc\common/core_config.h ****  *
 121:.\asp\arch\arm_m_gcc\common/core_config.h ****  *  ‚Ü‚¸CCPUƒƒbƒNó‘Ô‚ğŠÇ—‚·‚½‚ß‚Ì•Ï”(lock_flag)‚ğ—pˆÓ‚·‚éD
 122:.\asp\arch\arm_m_gcc\common/core_config.h ****  *
 123:.\asp\arch\arm_m_gcc\common/core_config.h ****  *  CPUƒƒbƒNƒtƒ‰ƒO‚ªƒNƒŠƒA‚³‚ê‚Ä‚¢‚éŠÔ‚ÍCBASEPRI‚ğƒ‚ƒfƒ‹ã‚ÌŠ„‚İ
 124:.\asp\arch\arm_m_gcc\common/core_config.h ****  *  —Dæ“xƒ}ƒXƒN‚Ì’l‚Éİ’è‚·‚éD‚±‚ÌŠÔ‚ÍCƒ‚ƒfƒ‹ã‚ÌŠ„‚İ—Dæ“xƒ}ƒX
 125:.\asp\arch\arm_m_gcc\common/core_config.h ****  *  ƒN‚ÍCBASEPRI‚ğ—p‚¢‚éD
 126:.\asp\arch\arm_m_gcc\common/core_config.h ****  * 
 127:.\asp\arch\arm_m_gcc\common/core_config.h ****  *  ‚»‚ê‚É‘Î‚µ‚ÄCPUƒƒbƒNƒtƒ‰ƒO‚ªƒZƒbƒg‚³‚ê‚¢‚éŠÔ‚ÍCBASEPRI‚ğCƒJ[ƒl
 128:.\asp\arch\arm_m_gcc\common/core_config.h ****  *  ƒ‹ŠÇ—ŠO‚Ì‚à‚Ì‚ğœ‚­‚·‚×‚Ä‚ÌŠ„‚İ—v‹‚ğƒ}ƒXƒN‚·‚é’l(TIPM_LOCK)‚ÆC
 129:.\asp\arch\arm_m_gcc\common/core_config.h ****  *  ƒ‚ƒfƒ‹ã‚ÌŠ„‚İ—Dæ“xƒ}ƒXƒN‚Æ‚Ì‚‚¢•û‚Éİ’è‚·‚éD‚±‚ÌŠÔ‚Ìƒ‚ƒfƒ‹ã
 130:.\asp\arch\arm_m_gcc\common/core_config.h ****  *  ‚ÌŠ„‚İ—Dæ“xƒ}ƒXƒN‚ÍC‚»‚Ì‚½‚ß‚Ì•Ï”(saved_iipm, “à•”•\Œ»‚Å•Û)
 131:.\asp\arch\arm_m_gcc\common/core_config.h ****  *  ‚ğ—pˆÓ‚µ‚Ä•Û‚·‚éD
 132:.\asp\arch\arm_m_gcc\common/core_config.h ****  */
 133:.\asp\arch\arm_m_gcc\common/core_config.h **** 
 134:.\asp\arch\arm_m_gcc\common/core_config.h **** /*
 135:.\asp\arch\arm_m_gcc\common/core_config.h ****  *  Š„‚İ—Dæ“xƒ}ƒXƒN‚ÌŠO•”•\Œ»‚Æ“à•”•\Œ»‚Ì•ÏŠ·
 136:.\asp\arch\arm_m_gcc\common/core_config.h ****  *
 137:.\asp\arch\arm_m_gcc\common/core_config.h ****  *  ƒAƒZƒ“ƒuƒŠŒ¾Œê‚Ìƒ\[ƒXƒtƒ@ƒCƒ‹‚©‚çƒCƒ“ƒNƒ‹[ƒh‚·‚éê‡‚Ì‚½‚ß‚ÉC
 138:.\asp\arch\arm_m_gcc\common/core_config.h ****  *  CAST‚ğg—p
 139:.\asp\arch\arm_m_gcc\common/core_config.h ****  *  Š„‚İ—Dæ“x‚Ìƒrƒbƒg•(TBITW_IPRI)‚ª 8 ‚Ìê‡‚ÍC“à•”—Dæ“x 255
 140:.\asp\arch\arm_m_gcc\common/core_config.h ****  *  ‚ÍCŠO•”—Dæ“x -1 ‚É‘Î‰‚·‚éD
 141:.\asp\arch\arm_m_gcc\common/core_config.h ****  */
 142:.\asp\arch\arm_m_gcc\common/core_config.h **** #define EXT_IPM(iipm)   (CAST(PRI,((iipm >> (8 - TBITW_IPRI)) - (1 << TBITW_IPRI))))       /* “à•”•
 143:.\asp\arch\arm_m_gcc\common/core_config.h **** #define INT_IPM(ipm)    (((1 << TBITW_IPRI) - CAST(uint8_t, -(ipm)))  << (8 - TBITW_IPRI)) /* ŠO•”•
 144:.\asp\arch\arm_m_gcc\common/core_config.h **** 
 145:.\asp\arch\arm_m_gcc\common/core_config.h **** /*
 146:.\asp\arch\arm_m_gcc\common/core_config.h ****  *  CPUƒƒbƒNó‘Ô‚Å‚ÌŠ„‚İ—Dæ“xƒ}ƒXƒN
ARM GAS  C:\TEMP\ccwY9sv5.s 			page 4


 147:.\asp\arch\arm_m_gcc\common/core_config.h ****  */
 148:.\asp\arch\arm_m_gcc\common/core_config.h **** #define TIPM_LOCK    TMIN_INTPRI
 149:.\asp\arch\arm_m_gcc\common/core_config.h **** 
 150:.\asp\arch\arm_m_gcc\common/core_config.h **** /*
 151:.\asp\arch\arm_m_gcc\common/core_config.h ****  *  CPUƒƒbƒNó‘Ô‚Å‚ÌŠ„‚İ—Dæ“xƒ}ƒXƒN‚Ì“à•”•\Œ»
 152:.\asp\arch\arm_m_gcc\common/core_config.h ****  *
 153:.\asp\arch\arm_m_gcc\common/core_config.h ****  *  TIPM_LOCK‚ÍCCPUƒƒbƒNó‘Ô‚Å‚ÌBASEPRI‚Ì’lDƒJ[ƒlƒ‹ŠÇ—ŠO‚Ì‚à‚Ì‚ğ
 154:.\asp\arch\arm_m_gcc\common/core_config.h ****  *  œ‚­‚·‚×‚Ä‚ÌŠ„‚İ‚ğƒ}ƒXƒN‚·‚é’l‚É’è‹`‚·‚éD  
 155:.\asp\arch\arm_m_gcc\common/core_config.h ****  */
 156:.\asp\arch\arm_m_gcc\common/core_config.h **** #define IIPM_LOCK    INT_IPM(TIPM_LOCK)
 157:.\asp\arch\arm_m_gcc\common/core_config.h **** 
 158:.\asp\arch\arm_m_gcc\common/core_config.h **** /*
 159:.\asp\arch\arm_m_gcc\common/core_config.h ****  *  TIPM_ENAALLiŠ„‚İ—Dæ“xƒ}ƒXƒN‘S‰ğœj‚Ì“à•”•\Œ»
 160:.\asp\arch\arm_m_gcc\common/core_config.h ****  *
 161:.\asp\arch\arm_m_gcc\common/core_config.h ****  *  BASEPRI‚É '0' ‚ğİ’è‚·‚é‚±‚Æ‚ÅC‘SŠ„‚İ‚ğ‹–‰Â‚·‚éD
 162:.\asp\arch\arm_m_gcc\common/core_config.h ****  */
 163:.\asp\arch\arm_m_gcc\common/core_config.h **** #define IIPM_ENAALL  (0)
 164:.\asp\arch\arm_m_gcc\common/core_config.h **** 
 165:.\asp\arch\arm_m_gcc\common/core_config.h **** 
 166:.\asp\arch\arm_m_gcc\common/core_config.h **** #ifndef TOPPERS_MACRO_ONLY
 167:.\asp\arch\arm_m_gcc\common/core_config.h **** 
 168:.\asp\arch\arm_m_gcc\common/core_config.h **** /*
 169:.\asp\arch\arm_m_gcc\common/core_config.h ****  *  CPUƒƒbƒNƒtƒ‰ƒOÀŒ»‚Ì‚½‚ß‚Ì•Ï”
 170:.\asp\arch\arm_m_gcc\common/core_config.h ****  * 
 171:.\asp\arch\arm_m_gcc\common/core_config.h ****  *  ‚±‚ê‚ç‚Ì•Ï”‚ÍCCPUƒƒbƒNó‘Ô‚Ì‚Ì‚İ‘‚«Š·‚¦‚Ä‚à‚æ‚¢‚Æ‚·‚éD
 172:.\asp\arch\arm_m_gcc\common/core_config.h ****  *  ƒCƒ“ƒ‰ƒCƒ“ŠÖ”’†‚ÅCƒAƒNƒZƒX‚Ì‡˜‚ª•Ï‰»‚µ‚È‚¢‚æ‚¤Cvolatile ‚ğw’èD 
 173:.\asp\arch\arm_m_gcc\common/core_config.h ****  */
 174:.\asp\arch\arm_m_gcc\common/core_config.h **** extern volatile bool_t  lock_flag;    /* CPUƒƒbƒNƒtƒ‰ƒO‚Ì’l‚ğ•Û‚·‚é•Ï” */
 175:.\asp\arch\arm_m_gcc\common/core_config.h **** extern volatile uint32_t saved_iipm;  /* Š„‚İ—Dæ“x‚ğƒ}ƒXƒN‚·‚é•Ï” */
 176:.\asp\arch\arm_m_gcc\common/core_config.h **** 
 177:.\asp\arch\arm_m_gcc\common/core_config.h **** /*
 178:.\asp\arch\arm_m_gcc\common/core_config.h ****  *  CPUƒƒbƒNó‘Ô‚Ö‚ÌˆÚs
 179:.\asp\arch\arm_m_gcc\common/core_config.h ****  *
 180:.\asp\arch\arm_m_gcc\common/core_config.h ****  *  BASEPRIiƒn[ƒhƒEƒFƒA‚ÌŠ„‚İ—Dæ“xƒ}ƒXƒNj‚ğCsaved_iipm‚É•Û‘¶‚µC
 181:.\asp\arch\arm_m_gcc\common/core_config.h ****  *  ƒJ[ƒlƒ‹ŠÇ—ŠO‚Ì‚à‚Ì‚ğœ‚­‚·‚×‚Ä‚ÌŠ„‚İ‚ğƒ}ƒXƒN‚·‚é’liTIPM_LOCKj
 182:.\asp\arch\arm_m_gcc\common/core_config.h ****  *  ‚Éİ’è‚·‚éD‚Ü‚½Clock_flag‚ğtrue‚É‚·‚éD
 183:.\asp\arch\arm_m_gcc\common/core_config.h ****  *
 184:.\asp\arch\arm_m_gcc\common/core_config.h ****  *  BASEPRI‚ªCÅ‰‚©‚çTIPM_LOCK‚Æ“¯‚¶‚©‚»‚ê‚æ‚è‚‚¢ê‡‚É‚ÍC‚»‚ê‚ğ
 185:.\asp\arch\arm_m_gcc\common/core_config.h ****  *  saved_iipm‚É•Û‘¶‚·‚é‚Ì‚İ‚ÅCTIPM_LOCK‚É‚Íİ’è‚µ‚È‚¢D‚±‚ê‚ÍCƒ‚ƒfƒ‹
 186:.\asp\arch\arm_m_gcc\common/core_config.h ****  *  ã‚ÌŠ„‚İ—Dæ“xƒ}ƒXƒN‚ªCTIPM_LOCK‚Æ“¯‚¶‚©‚»‚ê‚æ‚è‚‚¢ƒŒƒxƒ‹‚Éİ’è
 187:.\asp\arch\arm_m_gcc\common/core_config.h ****  *  ‚³‚ê‚Ä‚¢‚éó‘Ô‚É‚ ‚½‚éD
 188:.\asp\arch\arm_m_gcc\common/core_config.h ****  *
 189:.\asp\arch\arm_m_gcc\common/core_config.h ****  *  ‚±‚ÌŠÖ”‚ÍCCPUƒƒbƒNó‘Ôilock_flag‚ªtrue‚Ìó‘Ôj‚ÅŒÄ‚Î‚ê‚é‚±‚Æ‚Í
 190:.\asp\arch\arm_m_gcc\common/core_config.h ****  *  ‚È‚¢‚à‚Ì‚Æ‘z’è‚µ‚Ä‚¢‚éD
 191:.\asp\arch\arm_m_gcc\common/core_config.h ****  */
 192:.\asp\arch\arm_m_gcc\common/core_config.h **** Inline void
 193:.\asp\arch\arm_m_gcc\common/core_config.h **** x_lock_cpu(void)
 194:.\asp\arch\arm_m_gcc\common/core_config.h **** {
  26              		.loc 1 194 0
  27              		.cfi_startproc
  28              		@ args = 0, pretend = 0, frame = 0
  29              		@ frame_needed = 0, uses_anonymous_args = 0
  30              		@ link register save eliminated.
  31              	.LBB32:
  32              	.LBB33:
  33              		.file 2 ".\\asp\\arch\\arm_m_gcc\\common/core_insn.h"
   1:.\asp\arch\arm_m_gcc\common/core_insn.h **** /*
ARM GAS  C:\TEMP\ccwY9sv5.s 			page 5


   2:.\asp\arch\arm_m_gcc\common/core_insn.h ****  *  TOPPERS/ASP Kernel
   3:.\asp\arch\arm_m_gcc\common/core_insn.h ****  *      Toyohashi Open Platform for Embedded Real-Time Systems/
   4:.\asp\arch\arm_m_gcc\common/core_insn.h ****  *      Advanced Standard Profile Kernel
   5:.\asp\arch\arm_m_gcc\common/core_insn.h ****  * 
   6:.\asp\arch\arm_m_gcc\common/core_insn.h ****  *  Copyright (C) 2008 by Embedded and Real-Time Systems Laboratory
   7:.\asp\arch\arm_m_gcc\common/core_insn.h ****  *              Graduate School of Information Science, Nagoya Univ., JAPAN
   8:.\asp\arch\arm_m_gcc\common/core_insn.h ****  * 
   9:.\asp\arch\arm_m_gcc\common/core_insn.h ****  *  ã‹L’˜ìŒ Ò‚ÍCˆÈ‰º‚Ì(1)`(4)‚ÌğŒ‚ğ–‚½‚·ê‡‚ÉŒÀ‚èC–{ƒ\ƒtƒgƒEƒF
  10:.\asp\arch\arm_m_gcc\common/core_insn.h ****  *  ƒAi–{ƒ\ƒtƒgƒEƒFƒA‚ğ‰ü•Ï‚µ‚½‚à‚Ì‚ğŠÜ‚ŞDˆÈ‰º“¯‚¶j‚ğg—pE•¡»E‰ü
  11:.\asp\arch\arm_m_gcc\common/core_insn.h ****  *  •ÏEÄ”z•ziˆÈ‰ºC—˜—p‚ÆŒÄ‚Ôj‚·‚é‚±‚Æ‚ğ–³‚Å‹–‘ø‚·‚éD
  12:.\asp\arch\arm_m_gcc\common/core_insn.h ****  *  (1) –{ƒ\ƒtƒgƒEƒFƒA‚ğƒ\[ƒXƒR[ƒh‚ÌŒ`‚Å—˜—p‚·‚éê‡‚É‚ÍCã‹L‚Ì’˜ì
  13:.\asp\arch\arm_m_gcc\common/core_insn.h ****  *      Œ •\¦C‚±‚Ì—˜—pğŒ‚¨‚æ‚Ñ‰º‹L‚Ì–³•ÛØ‹K’è‚ªC‚»‚Ì‚Ü‚Ü‚ÌŒ`‚Åƒ\[
  14:.\asp\arch\arm_m_gcc\common/core_insn.h ****  *      ƒXƒR[ƒh’†‚ÉŠÜ‚Ü‚ê‚Ä‚¢‚é‚±‚ÆD
  15:.\asp\arch\arm_m_gcc\common/core_insn.h ****  *  (2) –{ƒ\ƒtƒgƒEƒFƒA‚ğCƒ‰ƒCƒuƒ‰ƒŠŒ`®‚È‚ÇC‘¼‚Ìƒ\ƒtƒgƒEƒFƒAŠJ”­‚Ég
  16:.\asp\arch\arm_m_gcc\common/core_insn.h ****  *      —p‚Å‚«‚éŒ`‚ÅÄ”z•z‚·‚éê‡‚É‚ÍCÄ”z•z‚É”º‚¤ƒhƒLƒ…ƒƒ“ƒgi—˜—p
  17:.\asp\arch\arm_m_gcc\common/core_insn.h ****  *      Òƒ}ƒjƒ…ƒAƒ‹‚È‚Çj‚ÉCã‹L‚Ì’˜ìŒ •\¦C‚±‚Ì—˜—pğŒ‚¨‚æ‚Ñ‰º‹L
  18:.\asp\arch\arm_m_gcc\common/core_insn.h ****  *      ‚Ì–³•ÛØ‹K’è‚ğŒfÚ‚·‚é‚±‚ÆD
  19:.\asp\arch\arm_m_gcc\common/core_insn.h ****  *  (3) –{ƒ\ƒtƒgƒEƒFƒA‚ğC‹@Ší‚É‘g‚İ‚Ş‚È‚ÇC‘¼‚Ìƒ\ƒtƒgƒEƒFƒAŠJ”­‚Ég
  20:.\asp\arch\arm_m_gcc\common/core_insn.h ****  *      —p‚Å‚«‚È‚¢Œ`‚ÅÄ”z•z‚·‚éê‡‚É‚ÍCŸ‚Ì‚¢‚¸‚ê‚©‚ÌğŒ‚ğ–‚½‚·‚±
  21:.\asp\arch\arm_m_gcc\common/core_insn.h ****  *      ‚ÆD
  22:.\asp\arch\arm_m_gcc\common/core_insn.h ****  *    (a) Ä”z•z‚É”º‚¤ƒhƒLƒ…ƒƒ“ƒgi—˜—pÒƒ}ƒjƒ…ƒAƒ‹‚È‚Çj‚ÉCã‹L‚Ì’˜
  23:.\asp\arch\arm_m_gcc\common/core_insn.h ****  *        ìŒ •\¦C‚±‚Ì—˜—pğŒ‚¨‚æ‚Ñ‰º‹L‚Ì–³•ÛØ‹K’è‚ğŒfÚ‚·‚é‚±‚ÆD
  24:.\asp\arch\arm_m_gcc\common/core_insn.h ****  *    (b) Ä”z•z‚ÌŒ`‘Ô‚ğC•Ê‚É’è‚ß‚é•û–@‚É‚æ‚Á‚ÄCTOPPERSƒvƒƒWƒFƒNƒg‚É
  25:.\asp\arch\arm_m_gcc\common/core_insn.h ****  *        •ñ‚·‚é‚±‚ÆD
  26:.\asp\arch\arm_m_gcc\common/core_insn.h ****  *  (4) –{ƒ\ƒtƒgƒEƒFƒA‚Ì—˜—p‚É‚æ‚è’¼Ú“I‚Ü‚½‚ÍŠÔÚ“I‚É¶‚¶‚é‚¢‚©‚È‚é‘¹
  27:.\asp\arch\arm_m_gcc\common/core_insn.h ****  *      ŠQ‚©‚ç‚àCã‹L’˜ìŒ Ò‚¨‚æ‚ÑTOPPERSƒvƒƒWƒFƒNƒg‚ğ–ÆÓ‚·‚é‚±‚ÆD
  28:.\asp\arch\arm_m_gcc\common/core_insn.h ****  *      ‚Ü‚½C–{ƒ\ƒtƒgƒEƒFƒA‚Ìƒ†[ƒU‚Ü‚½‚ÍƒGƒ“ƒhƒ†[ƒU‚©‚ç‚Ì‚¢‚©‚È‚é—
  29:.\asp\arch\arm_m_gcc\common/core_insn.h ****  *      —R‚ÉŠî‚Ã‚­¿‹‚©‚ç‚àCã‹L’˜ìŒ Ò‚¨‚æ‚ÑTOPPERSƒvƒƒWƒFƒNƒg‚ğ
  30:.\asp\arch\arm_m_gcc\common/core_insn.h ****  *      –ÆÓ‚·‚é‚±‚ÆD
  31:.\asp\arch\arm_m_gcc\common/core_insn.h ****  * 
  32:.\asp\arch\arm_m_gcc\common/core_insn.h ****  *  –{ƒ\ƒtƒgƒEƒFƒA‚ÍC–³•ÛØ‚Å’ñ‹Ÿ‚³‚ê‚Ä‚¢‚é‚à‚Ì‚Å‚ ‚éDã‹L’˜ìŒ Ò‚¨
  33:.\asp\arch\arm_m_gcc\common/core_insn.h ****  *  ‚æ‚ÑTOPPERSƒvƒƒWƒFƒNƒg‚ÍC–{ƒ\ƒtƒgƒEƒFƒA‚ÉŠÖ‚µ‚ÄC“Á’è‚Ìg—p–Ú“I
  34:.\asp\arch\arm_m_gcc\common/core_insn.h ****  *  ‚É‘Î‚·‚é“K‡«‚àŠÜ‚ß‚ÄC‚¢‚©‚È‚é•ÛØ‚às‚í‚È‚¢D‚Ü‚½C–{ƒ\ƒtƒgƒEƒF
  35:.\asp\arch\arm_m_gcc\common/core_insn.h ****  *  ƒA‚Ì—˜—p‚É‚æ‚è’¼Ú“I‚Ü‚½‚ÍŠÔÚ“I‚É¶‚¶‚½‚¢‚©‚È‚é‘¹ŠQ‚ÉŠÖ‚µ‚Ä‚àC‚»
  36:.\asp\arch\arm_m_gcc\common/core_insn.h ****  *  ‚ÌÓ”C‚ğ•‰‚í‚È‚¢D
  37:.\asp\arch\arm_m_gcc\common/core_insn.h ****  * 
  38:.\asp\arch\arm_m_gcc\common/core_insn.h ****  *  @(#) $Id: core_insn.h 2310 2012-02-23 02:14:28Z ertl-honda $
  39:.\asp\arch\arm_m_gcc\common/core_insn.h ****  */
  40:.\asp\arch\arm_m_gcc\common/core_insn.h **** 
  41:.\asp\arch\arm_m_gcc\common/core_insn.h **** 
  42:.\asp\arch\arm_m_gcc\common/core_insn.h **** /*
  43:.\asp\arch\arm_m_gcc\common/core_insn.h ****  *  ƒRƒAˆË‘¶‚Ì“Áê–½—ß‚ÌƒCƒ“ƒ‰ƒCƒ“ŠÖ”’è‹`iARM-M—pj
  44:.\asp\arch\arm_m_gcc\common/core_insn.h ****  */
  45:.\asp\arch\arm_m_gcc\common/core_insn.h **** 
  46:.\asp\arch\arm_m_gcc\common/core_insn.h **** #ifndef CORE_INSN_H
  47:.\asp\arch\arm_m_gcc\common/core_insn.h **** #define CORE_INSN_H
  48:.\asp\arch\arm_m_gcc\common/core_insn.h **** 
  49:.\asp\arch\arm_m_gcc\common/core_insn.h **** #include <arm_m.h>
  50:.\asp\arch\arm_m_gcc\common/core_insn.h **** 
  51:.\asp\arch\arm_m_gcc\common/core_insn.h **** /*
  52:.\asp\arch\arm_m_gcc\common/core_insn.h ****  *  ƒƒ‚ƒŠ‚ª•ÏX‚³‚ê‚é‚±‚Æ‚ğƒRƒ“ƒpƒCƒ‰‚É“`‚¦‚é‚½‚ß‚Ìƒ}ƒNƒ
  53:.\asp\arch\arm_m_gcc\common/core_insn.h ****  */
  54:.\asp\arch\arm_m_gcc\common/core_insn.h **** #define ARM_MEMORY_CHANGED Asm("":::"memory")
  55:.\asp\arch\arm_m_gcc\common/core_insn.h **** 
  56:.\asp\arch\arm_m_gcc\common/core_insn.h **** /*
  57:.\asp\arch\arm_m_gcc\common/core_insn.h ****  *  FAULTMASK‚ÌƒZƒbƒg
  58:.\asp\arch\arm_m_gcc\common/core_insn.h ****  */
ARM GAS  C:\TEMP\ccwY9sv5.s 			page 6


  59:.\asp\arch\arm_m_gcc\common/core_insn.h **** Inline void
  60:.\asp\arch\arm_m_gcc\common/core_insn.h **** set_faultmask(void){
  61:.\asp\arch\arm_m_gcc\common/core_insn.h **** 	Asm("cpsid f":::"memory");
  62:.\asp\arch\arm_m_gcc\common/core_insn.h **** }
  63:.\asp\arch\arm_m_gcc\common/core_insn.h **** 
  64:.\asp\arch\arm_m_gcc\common/core_insn.h **** /*
  65:.\asp\arch\arm_m_gcc\common/core_insn.h ****  *  FAULTMASK‚ÌƒNƒŠƒA
  66:.\asp\arch\arm_m_gcc\common/core_insn.h ****  */
  67:.\asp\arch\arm_m_gcc\common/core_insn.h **** Inline void
  68:.\asp\arch\arm_m_gcc\common/core_insn.h **** clear_faultmask(void){
  69:.\asp\arch\arm_m_gcc\common/core_insn.h **** 	Asm("cpsie f":::"memory");
  70:.\asp\arch\arm_m_gcc\common/core_insn.h **** }
  71:.\asp\arch\arm_m_gcc\common/core_insn.h **** 
  72:.\asp\arch\arm_m_gcc\common/core_insn.h **** /*
  73:.\asp\arch\arm_m_gcc\common/core_insn.h ****  *  PRIMASK‚ÌƒZƒbƒg
  74:.\asp\arch\arm_m_gcc\common/core_insn.h ****  */
  75:.\asp\arch\arm_m_gcc\common/core_insn.h **** Inline void
  76:.\asp\arch\arm_m_gcc\common/core_insn.h **** set_primask(void){
  77:.\asp\arch\arm_m_gcc\common/core_insn.h **** 	Asm("cpsid i":::"memory");
  78:.\asp\arch\arm_m_gcc\common/core_insn.h **** }
  79:.\asp\arch\arm_m_gcc\common/core_insn.h **** 
  80:.\asp\arch\arm_m_gcc\common/core_insn.h **** /*
  81:.\asp\arch\arm_m_gcc\common/core_insn.h ****  *  PRIMASK‚ÌƒNƒŠƒA
  82:.\asp\arch\arm_m_gcc\common/core_insn.h ****  */
  83:.\asp\arch\arm_m_gcc\common/core_insn.h **** Inline void
  84:.\asp\arch\arm_m_gcc\common/core_insn.h **** clear_primask(void){
  85:.\asp\arch\arm_m_gcc\common/core_insn.h **** 	Asm("cpsie i":::"memory");
  86:.\asp\arch\arm_m_gcc\common/core_insn.h **** }
  87:.\asp\arch\arm_m_gcc\common/core_insn.h **** 
  88:.\asp\arch\arm_m_gcc\common/core_insn.h **** /*
  89:.\asp\arch\arm_m_gcc\common/core_insn.h ****  *  BASEPRI‚ÌƒZƒbƒg
  90:.\asp\arch\arm_m_gcc\common/core_insn.h ****  */
  91:.\asp\arch\arm_m_gcc\common/core_insn.h **** Inline void
  92:.\asp\arch\arm_m_gcc\common/core_insn.h **** set_basepri(uint32_t val){
  93:.\asp\arch\arm_m_gcc\common/core_insn.h **** 	Asm("msr BASEPRI, %0" : : "r"(val) : "memory");
  94:.\asp\arch\arm_m_gcc\common/core_insn.h **** }
  95:.\asp\arch\arm_m_gcc\common/core_insn.h **** 
  96:.\asp\arch\arm_m_gcc\common/core_insn.h **** /*
  97:.\asp\arch\arm_m_gcc\common/core_insn.h ****  *  BASEPRI‚Ìæ“¾
  98:.\asp\arch\arm_m_gcc\common/core_insn.h ****  */
  99:.\asp\arch\arm_m_gcc\common/core_insn.h **** Inline uint32_t
 100:.\asp\arch\arm_m_gcc\common/core_insn.h **** get_basepri(void){
 101:.\asp\arch\arm_m_gcc\common/core_insn.h **** 	uint32_t val;
 102:.\asp\arch\arm_m_gcc\common/core_insn.h **** 	Asm("mrs  %0, BASEPRI" : "=r"(val));
  34              		.loc 2 102 0
  35              	@ 102 ".\asp\arch\arm_m_gcc\common/core_insn.h" 1
  36 0000 EFF31183 		mrs  r3, BASEPRI
  37              	@ 0 "" 2
  38              	.LVL0:
  39              		.thumb
  40              	.LBE33:
  41              	.LBE32:
 195:.\asp\arch\arm_m_gcc\common/core_config.h **** 	uint32_t iipm;
 196:.\asp\arch\arm_m_gcc\common/core_config.h **** 
 197:.\asp\arch\arm_m_gcc\common/core_config.h **** 	/*
 198:.\asp\arch\arm_m_gcc\common/core_config.h **** 	 *  get_basepri()‚Ì•Ô‚è’l‚ğ’¼Úsaved_iipm‚É•Û‘¶‚¹‚¸Cˆê•Ï”iipm
 199:.\asp\arch\arm_m_gcc\common/core_config.h **** 	 *  ‚ğ—p‚¢‚Ä‚¢‚é‚Ì‚ÍCget_baespri()‚ğŒÄ‚ñ‚¾’¼Œã‚ÉŠ„‚İ‚ª”­¶‚µC
ARM GAS  C:\TEMP\ccwY9sv5.s 			page 7


 200:.\asp\arch\arm_m_gcc\common/core_config.h **** 	 *  ‹N“®‚³‚ê‚½Š„‚İˆ—‚Åsaved_iipm‚ª•ÏX‚³‚ê‚é‰Â”\«‚ª‚ ‚é‚½‚ß‚Å
 201:.\asp\arch\arm_m_gcc\common/core_config.h **** 	 *  ‚ ‚éD
 202:.\asp\arch\arm_m_gcc\common/core_config.h **** 	 */
 203:.\asp\arch\arm_m_gcc\common/core_config.h **** 	iipm = get_basepri();
 204:.\asp\arch\arm_m_gcc\common/core_config.h **** 	/*
 205:.\asp\arch\arm_m_gcc\common/core_config.h **** 	 *  BASEPRIƒŒƒWƒXƒ^‚Í’l‚ª¬‚³‚¢‚Ù‚Ç—Dæ“x‚ª‚‚¢‚ªCIIPM_ENAALL ‚ª
 206:.\asp\arch\arm_m_gcc\common/core_config.h **** 	 *  '0'‚Å‚ ‚é‚½‚ßC’Pƒ‚É—Dæ“x”äŠr‚¾‚¯‚Å‚Í•s\•ª‚Å‚ ‚éD
 207:.\asp\arch\arm_m_gcc\common/core_config.h **** 	 */
 208:.\asp\arch\arm_m_gcc\common/core_config.h **** 	if ((IIPM_LOCK < iipm) || (IIPM_ENAALL == iipm)) {
  42              		.loc 1 208 0
  43 0004 5A1E     		subs	r2, r3, #1
  44 0006 1F2A     		cmp	r2, #31
  45 0008 02D9     		bls	.L2
  46              	.LVL1:
  47              	.LBB34:
  48              	.LBB35:
  93:.\asp\arch\arm_m_gcc\common/core_insn.h **** 	Asm("msr BASEPRI, %0" : : "r"(val) : "memory");
  49              		.loc 2 93 0
  50 000a 2020     		movs	r0, #32
  51              	@ 93 ".\asp\arch\arm_m_gcc\common/core_insn.h" 1
  52 000c 80F31188 		msr BASEPRI, r0
  53              	@ 0 "" 2
  54              	.LVL2:
  55              		.thumb
  56              	.L2:
  57              	.LBE35:
  58              	.LBE34:
 209:.\asp\arch\arm_m_gcc\common/core_config.h **** 		set_basepri(IIPM_LOCK);
 210:.\asp\arch\arm_m_gcc\common/core_config.h **** 	}
 211:.\asp\arch\arm_m_gcc\common/core_config.h **** 	saved_iipm = iipm;
  59              		.loc 1 211 0
  60 0010 0249     		ldr	r1, .L4
 212:.\asp\arch\arm_m_gcc\common/core_config.h **** 	lock_flag = true;
  61              		.loc 1 212 0
  62 0012 0122     		movs	r2, #1
 211:.\asp\arch\arm_m_gcc\common/core_config.h **** 	saved_iipm = iipm;
  63              		.loc 1 211 0
  64 0014 0B60     		str	r3, [r1, #0]
  65              		.loc 1 212 0
  66 0016 024B     		ldr	r3, .L4+4
  67              	.LVL3:
  68 0018 1A60     		str	r2, [r3, #0]
 213:.\asp\arch\arm_m_gcc\common/core_config.h **** 	/* ƒNƒŠƒeƒBƒJƒ‹ƒZƒNƒVƒ‡ƒ“‚Ì‘OŒã‚Åƒƒ‚ƒŠ‚ª‘‚«Š·‚í‚é‰Â”\«‚ª‚ ‚é */
 214:.\asp\arch\arm_m_gcc\common/core_config.h **** 	ARM_MEMORY_CHANGED;
  69              		.loc 1 214 0
  70 001a 7047     		bx	lr
  71              	.L5:
  72              		.align	2
  73              	.L4:
  74 001c 00000000 		.word	_kernel_saved_iipm
  75 0020 00000000 		.word	_kernel_lock_flag
  76              		.cfi_endproc
  77              	.LFE30:
  78              		.size	x_lock_cpu, .-x_lock_cpu
  79              		.section	.text.x_unlock_cpu,"ax",%progbits
  80              		.align	1
  81              		.thumb
ARM GAS  C:\TEMP\ccwY9sv5.s 			page 8


  82              		.thumb_func
  83              		.type	x_unlock_cpu, %function
  84              	x_unlock_cpu:
  85              	.LFB31:
 215:.\asp\arch\arm_m_gcc\common/core_config.h **** }
 216:.\asp\arch\arm_m_gcc\common/core_config.h **** 
 217:.\asp\arch\arm_m_gcc\common/core_config.h **** #define t_lock_cpu()    x_lock_cpu()
 218:.\asp\arch\arm_m_gcc\common/core_config.h **** #define i_lock_cpu()    x_lock_cpu()
 219:.\asp\arch\arm_m_gcc\common/core_config.h **** 
 220:.\asp\arch\arm_m_gcc\common/core_config.h **** /*
 221:.\asp\arch\arm_m_gcc\common/core_config.h ****  *  CPUƒƒbƒNó‘Ô‚Ì‰ğœ
 222:.\asp\arch\arm_m_gcc\common/core_config.h ****  *
 223:.\asp\arch\arm_m_gcc\common/core_config.h ****  *  lock_flag‚ğfalse‚É‚µCIPMiƒn[ƒhƒEƒFƒA‚ÌŠ„‚İ—Dæ“xƒ}ƒXƒNj‚ğC
 224:.\asp\arch\arm_m_gcc\common/core_config.h ****  *  saved_iipm‚É•Û‘¶‚µ‚½’l‚É–ß‚·D
 225:.\asp\arch\arm_m_gcc\common/core_config.h ****  *
 226:.\asp\arch\arm_m_gcc\common/core_config.h ****  *  ‚±‚ÌŠÖ”‚ÍCCPUƒƒbƒNó‘Ôilock_flag‚ªtrue‚Ìó‘Ôj‚Å‚Ì‚İŒÄ‚Î‚ê‚é‚à
 227:.\asp\arch\arm_m_gcc\common/core_config.h ****  *  ‚Ì‚Æ‘z’è‚µ‚Ä‚¢‚éD
 228:.\asp\arch\arm_m_gcc\common/core_config.h ****  */
 229:.\asp\arch\arm_m_gcc\common/core_config.h **** Inline void
 230:.\asp\arch\arm_m_gcc\common/core_config.h **** x_unlock_cpu(void)
 231:.\asp\arch\arm_m_gcc\common/core_config.h **** {
  86              		.loc 1 231 0
  87              		.cfi_startproc
  88              		@ args = 0, pretend = 0, frame = 0
  89              		@ frame_needed = 0, uses_anonymous_args = 0
  90              		@ link register save eliminated.
 232:.\asp\arch\arm_m_gcc\common/core_config.h **** 	/* ƒNƒŠƒeƒBƒJƒ‹ƒZƒNƒVƒ‡ƒ“‚Ì‘OŒã‚Åƒƒ‚ƒŠ‚ª‘‚«Š·‚í‚é‰Â”\«‚ª‚ ‚é */
 233:.\asp\arch\arm_m_gcc\common/core_config.h **** 	ARM_MEMORY_CHANGED;
  91              		.loc 1 233 0
 234:.\asp\arch\arm_m_gcc\common/core_config.h **** 	lock_flag = false;
  92              		.loc 1 234 0
  93 0000 034B     		ldr	r3, .L7
  94 0002 0022     		movs	r2, #0
 235:.\asp\arch\arm_m_gcc\common/core_config.h **** 	set_basepri(saved_iipm);
  95              		.loc 1 235 0
  96 0004 0348     		ldr	r0, .L7+4
 234:.\asp\arch\arm_m_gcc\common/core_config.h **** 	lock_flag = false;
  97              		.loc 1 234 0
  98 0006 1A60     		str	r2, [r3, #0]
  99              		.loc 1 235 0
 100 0008 0168     		ldr	r1, [r0, #0]
 101              	.LVL4:
 102              	.LBB36:
 103              	.LBB37:
  93:.\asp\arch\arm_m_gcc\common/core_insn.h **** 	Asm("msr BASEPRI, %0" : : "r"(val) : "memory");
 104              		.loc 2 93 0
 105              	@ 93 ".\asp\arch\arm_m_gcc\common/core_insn.h" 1
 106 000a 81F31188 		msr BASEPRI, r1
 107              	@ 0 "" 2
 108              		.thumb
 109 000e 7047     		bx	lr
 110              	.L8:
 111              		.align	2
 112              	.L7:
 113 0010 00000000 		.word	_kernel_lock_flag
 114 0014 00000000 		.word	_kernel_saved_iipm
 115              	.LBE37:
ARM GAS  C:\TEMP\ccwY9sv5.s 			page 9


 116              	.LBE36:
 117              		.cfi_endproc
 118              	.LFE31:
 119              		.size	x_unlock_cpu, .-x_unlock_cpu
 120              		.section	.text._kernel_call_cychdr,"ax",%progbits
 121              		.align	1
 122              		.global	_kernel_call_cychdr
 123              		.thumb
 124              		.thumb_func
 125              		.type	_kernel_call_cychdr, %function
 126              	_kernel_call_cychdr:
 127              	.LFB52:
 128              		.file 3 ".\\asp\\kernel\\cyclic.c"
   1:.\asp\kernel/cyclic.c **** /*
   2:.\asp\kernel/cyclic.c ****  *  TOPPERS/ASP Kernel
   3:.\asp\kernel/cyclic.c ****  *      Toyohashi Open Platform for Embedded Real-Time Systems/
   4:.\asp\kernel/cyclic.c ****  *      Advanced Standard Profile Kernel
   5:.\asp\kernel/cyclic.c ****  * 
   6:.\asp\kernel/cyclic.c ****  *  Copyright (C) 2000-2003 by Embedded and Real-Time Systems Laboratory
   7:.\asp\kernel/cyclic.c ****  *                              Toyohashi Univ. of Technology, JAPAN
   8:.\asp\kernel/cyclic.c ****  *  Copyright (C) 2005-2011 by Embedded and Real-Time Systems Laboratory
   9:.\asp\kernel/cyclic.c ****  *              Graduate School of Information Science, Nagoya Univ., JAPAN
  10:.\asp\kernel/cyclic.c ****  * 
  11:.\asp\kernel/cyclic.c ****  *  ã‹L’˜ìŒ Ò‚ÍCˆÈ‰º‚Ì(1)`(4)‚ÌğŒ‚ğ–‚½‚·ê‡‚ÉŒÀ‚èC–{ƒ\ƒtƒgƒEƒF
  12:.\asp\kernel/cyclic.c ****  *  ƒAi–{ƒ\ƒtƒgƒEƒFƒA‚ğ‰ü•Ï‚µ‚½‚à‚Ì‚ğŠÜ‚ŞDˆÈ‰º“¯‚¶j‚ğg—pE•¡»E‰ü
  13:.\asp\kernel/cyclic.c ****  *  •ÏEÄ”z•ziˆÈ‰ºC—˜—p‚ÆŒÄ‚Ôj‚·‚é‚±‚Æ‚ğ–³‚Å‹–‘ø‚·‚éD
  14:.\asp\kernel/cyclic.c ****  *  (1) –{ƒ\ƒtƒgƒEƒFƒA‚ğƒ\[ƒXƒR[ƒh‚ÌŒ`‚Å—˜—p‚·‚éê‡‚É‚ÍCã‹L‚Ì’˜ì
  15:.\asp\kernel/cyclic.c ****  *      Œ •\¦C‚±‚Ì—˜—pğŒ‚¨‚æ‚Ñ‰º‹L‚Ì–³•ÛØ‹K’è‚ªC‚»‚Ì‚Ü‚Ü‚ÌŒ`‚Åƒ\[
  16:.\asp\kernel/cyclic.c ****  *      ƒXƒR[ƒh’†‚ÉŠÜ‚Ü‚ê‚Ä‚¢‚é‚±‚ÆD
  17:.\asp\kernel/cyclic.c ****  *  (2) –{ƒ\ƒtƒgƒEƒFƒA‚ğCƒ‰ƒCƒuƒ‰ƒŠŒ`®‚È‚ÇC‘¼‚Ìƒ\ƒtƒgƒEƒFƒAŠJ”­‚Ég
  18:.\asp\kernel/cyclic.c ****  *      —p‚Å‚«‚éŒ`‚ÅÄ”z•z‚·‚éê‡‚É‚ÍCÄ”z•z‚É”º‚¤ƒhƒLƒ…ƒƒ“ƒgi—˜—p
  19:.\asp\kernel/cyclic.c ****  *      Òƒ}ƒjƒ…ƒAƒ‹‚È‚Çj‚ÉCã‹L‚Ì’˜ìŒ •\¦C‚±‚Ì—˜—pğŒ‚¨‚æ‚Ñ‰º‹L
  20:.\asp\kernel/cyclic.c ****  *      ‚Ì–³•ÛØ‹K’è‚ğŒfÚ‚·‚é‚±‚ÆD
  21:.\asp\kernel/cyclic.c ****  *  (3) –{ƒ\ƒtƒgƒEƒFƒA‚ğC‹@Ší‚É‘g‚İ‚Ş‚È‚ÇC‘¼‚Ìƒ\ƒtƒgƒEƒFƒAŠJ”­‚Ég
  22:.\asp\kernel/cyclic.c ****  *      —p‚Å‚«‚È‚¢Œ`‚ÅÄ”z•z‚·‚éê‡‚É‚ÍCŸ‚Ì‚¢‚¸‚ê‚©‚ÌğŒ‚ğ–‚½‚·‚±
  23:.\asp\kernel/cyclic.c ****  *      ‚ÆD
  24:.\asp\kernel/cyclic.c ****  *    (a) Ä”z•z‚É”º‚¤ƒhƒLƒ…ƒƒ“ƒgi—˜—pÒƒ}ƒjƒ…ƒAƒ‹‚È‚Çj‚ÉCã‹L‚Ì’˜
  25:.\asp\kernel/cyclic.c ****  *        ìŒ •\¦C‚±‚Ì—˜—pğŒ‚¨‚æ‚Ñ‰º‹L‚Ì–³•ÛØ‹K’è‚ğŒfÚ‚·‚é‚±‚ÆD
  26:.\asp\kernel/cyclic.c ****  *    (b) Ä”z•z‚ÌŒ`‘Ô‚ğC•Ê‚É’è‚ß‚é•û–@‚É‚æ‚Á‚ÄCTOPPERSƒvƒƒWƒFƒNƒg‚É
  27:.\asp\kernel/cyclic.c ****  *        •ñ‚·‚é‚±‚ÆD
  28:.\asp\kernel/cyclic.c ****  *  (4) –{ƒ\ƒtƒgƒEƒFƒA‚Ì—˜—p‚É‚æ‚è’¼Ú“I‚Ü‚½‚ÍŠÔÚ“I‚É¶‚¶‚é‚¢‚©‚È‚é‘¹
  29:.\asp\kernel/cyclic.c ****  *      ŠQ‚©‚ç‚àCã‹L’˜ìŒ Ò‚¨‚æ‚ÑTOPPERSƒvƒƒWƒFƒNƒg‚ğ–ÆÓ‚·‚é‚±‚ÆD
  30:.\asp\kernel/cyclic.c ****  *      ‚Ü‚½C–{ƒ\ƒtƒgƒEƒFƒA‚Ìƒ†[ƒU‚Ü‚½‚ÍƒGƒ“ƒhƒ†[ƒU‚©‚ç‚Ì‚¢‚©‚È‚é—
  31:.\asp\kernel/cyclic.c ****  *      —R‚ÉŠî‚Ã‚­¿‹‚©‚ç‚àCã‹L’˜ìŒ Ò‚¨‚æ‚ÑTOPPERSƒvƒƒWƒFƒNƒg‚ğ
  32:.\asp\kernel/cyclic.c ****  *      –ÆÓ‚·‚é‚±‚ÆD
  33:.\asp\kernel/cyclic.c ****  * 
  34:.\asp\kernel/cyclic.c ****  *  –{ƒ\ƒtƒgƒEƒFƒA‚ÍC–³•ÛØ‚Å’ñ‹Ÿ‚³‚ê‚Ä‚¢‚é‚à‚Ì‚Å‚ ‚éDã‹L’˜ìŒ Ò‚¨
  35:.\asp\kernel/cyclic.c ****  *  ‚æ‚ÑTOPPERSƒvƒƒWƒFƒNƒg‚ÍC–{ƒ\ƒtƒgƒEƒFƒA‚ÉŠÖ‚µ‚ÄC“Á’è‚Ìg—p–Ú“I
  36:.\asp\kernel/cyclic.c ****  *  ‚É‘Î‚·‚é“K‡«‚àŠÜ‚ß‚ÄC‚¢‚©‚È‚é•ÛØ‚às‚í‚È‚¢D‚Ü‚½C–{ƒ\ƒtƒgƒEƒF
  37:.\asp\kernel/cyclic.c ****  *  ƒA‚Ì—˜—p‚É‚æ‚è’¼Ú“I‚Ü‚½‚ÍŠÔÚ“I‚É¶‚¶‚½‚¢‚©‚È‚é‘¹ŠQ‚ÉŠÖ‚µ‚Ä‚àC‚»
  38:.\asp\kernel/cyclic.c ****  *  ‚ÌÓ”C‚ğ•‰‚í‚È‚¢D
  39:.\asp\kernel/cyclic.c ****  * 
  40:.\asp\kernel/cyclic.c ****  *  @(#) $Id: cyclic.c 2133 2011-06-26 03:14:51Z ertl-hiro $
  41:.\asp\kernel/cyclic.c ****  */
  42:.\asp\kernel/cyclic.c **** 
  43:.\asp\kernel/cyclic.c **** /*
  44:.\asp\kernel/cyclic.c ****  *		üŠúƒnƒ“ƒhƒ‰‹@”\
ARM GAS  C:\TEMP\ccwY9sv5.s 			page 10


  45:.\asp\kernel/cyclic.c ****  */
  46:.\asp\kernel/cyclic.c **** 
  47:.\asp\kernel/cyclic.c **** #include "kernel_impl.h"
  48:.\asp\kernel/cyclic.c **** #include "check.h"
  49:.\asp\kernel/cyclic.c **** #include "cyclic.h"
  50:.\asp\kernel/cyclic.c **** 
  51:.\asp\kernel/cyclic.c **** /*
  52:.\asp\kernel/cyclic.c ****  *  ƒgƒŒ[ƒXƒƒOƒ}ƒNƒ‚ÌƒfƒtƒHƒ‹ƒg’è‹`
  53:.\asp\kernel/cyclic.c ****  */
  54:.\asp\kernel/cyclic.c **** #ifndef LOG_CYC_ENTER
  55:.\asp\kernel/cyclic.c **** #define LOG_CYC_ENTER(p_cyccb)
  56:.\asp\kernel/cyclic.c **** #endif /* LOG_CYC_ENTER */
  57:.\asp\kernel/cyclic.c **** 
  58:.\asp\kernel/cyclic.c **** #ifndef LOG_CYC_LEAVE
  59:.\asp\kernel/cyclic.c **** #define LOG_CYC_LEAVE(p_cyccb)
  60:.\asp\kernel/cyclic.c **** #endif /* LOG_CYC_LEAVE */
  61:.\asp\kernel/cyclic.c **** 
  62:.\asp\kernel/cyclic.c **** #ifndef LOG_STA_CYC_ENTER
  63:.\asp\kernel/cyclic.c **** #define LOG_STA_CYC_ENTER(cycid)
  64:.\asp\kernel/cyclic.c **** #endif /* LOG_STA_CYC_ENTER */
  65:.\asp\kernel/cyclic.c **** 
  66:.\asp\kernel/cyclic.c **** #ifndef LOG_STA_CYC_LEAVE
  67:.\asp\kernel/cyclic.c **** #define LOG_STA_CYC_LEAVE(ercd)
  68:.\asp\kernel/cyclic.c **** #endif /* LOG_STA_CYC_LEAVE */
  69:.\asp\kernel/cyclic.c **** 
  70:.\asp\kernel/cyclic.c **** #ifndef LOG_STP_CYC_ENTER
  71:.\asp\kernel/cyclic.c **** #define LOG_STP_CYC_ENTER(cycid)
  72:.\asp\kernel/cyclic.c **** #endif /* LOG_STP_CYC_ENTER */
  73:.\asp\kernel/cyclic.c **** 
  74:.\asp\kernel/cyclic.c **** #ifndef LOG_STP_CYC_LEAVE
  75:.\asp\kernel/cyclic.c **** #define LOG_STP_CYC_LEAVE(ercd)
  76:.\asp\kernel/cyclic.c **** #endif /* LOG_STP_CYC_LEAVE */
  77:.\asp\kernel/cyclic.c **** 
  78:.\asp\kernel/cyclic.c **** #ifndef LOG_REF_CYC_ENTER
  79:.\asp\kernel/cyclic.c **** #define LOG_REF_CYC_ENTER(cycid, pk_rcyc)
  80:.\asp\kernel/cyclic.c **** #endif /* LOG_REF_CYC_ENTER */
  81:.\asp\kernel/cyclic.c **** 
  82:.\asp\kernel/cyclic.c **** #ifndef LOG_REF_CYC_LEAVE
  83:.\asp\kernel/cyclic.c **** #define LOG_REF_CYC_LEAVE(ercd, pk_rcyc)
  84:.\asp\kernel/cyclic.c **** #endif /* LOG_REF_CYC_LEAVE */
  85:.\asp\kernel/cyclic.c **** 
  86:.\asp\kernel/cyclic.c **** /*
  87:.\asp\kernel/cyclic.c ****  *  üŠúƒnƒ“ƒhƒ‰‚Ì”
  88:.\asp\kernel/cyclic.c ****  */
  89:.\asp\kernel/cyclic.c **** #define tnum_cyc	((uint_t)(tmax_cycid - TMIN_CYCID + 1))
  90:.\asp\kernel/cyclic.c **** 
  91:.\asp\kernel/cyclic.c **** /*
  92:.\asp\kernel/cyclic.c ****  *  üŠúƒnƒ“ƒhƒ‰ID‚©‚çüŠúƒnƒ“ƒhƒ‰ŠÇ—ƒuƒƒbƒN‚ğæ‚èo‚·‚½‚ß‚Ìƒ}ƒNƒ
  93:.\asp\kernel/cyclic.c ****  */
  94:.\asp\kernel/cyclic.c **** #define INDEX_CYC(cycid)	((uint_t)((cycid) - TMIN_CYCID))
  95:.\asp\kernel/cyclic.c **** #define get_cyccb(cycid)	(&(cyccb_table[INDEX_CYC(cycid)]))
  96:.\asp\kernel/cyclic.c **** 
  97:.\asp\kernel/cyclic.c **** /*
  98:.\asp\kernel/cyclic.c ****  *  üŠúƒnƒ“ƒhƒ‰‹N“®‚Ì‚½‚ß‚Ìƒ^ƒCƒ€ƒCƒxƒ“ƒgƒuƒƒbƒN‚Ì“o˜^
  99:.\asp\kernel/cyclic.c ****  */
 100:.\asp\kernel/cyclic.c **** Inline void
 101:.\asp\kernel/cyclic.c **** tmevtb_enqueue_cyc(CYCCB *p_cyccb, EVTTIM evttim)
ARM GAS  C:\TEMP\ccwY9sv5.s 			page 11


 102:.\asp\kernel/cyclic.c **** {
 103:.\asp\kernel/cyclic.c **** 	tmevtb_enqueue_evttim(&(p_cyccb->tmevtb), evttim,
 104:.\asp\kernel/cyclic.c **** 								(CBACK) call_cychdr, (void *) p_cyccb);
 105:.\asp\kernel/cyclic.c **** 	p_cyccb->evttim = evttim;
 106:.\asp\kernel/cyclic.c **** }
 107:.\asp\kernel/cyclic.c **** 
 108:.\asp\kernel/cyclic.c **** /*
 109:.\asp\kernel/cyclic.c ****  *  üŠúƒnƒ“ƒhƒ‰‹@”\‚Ì‰Šú‰»
 110:.\asp\kernel/cyclic.c ****  */
 111:.\asp\kernel/cyclic.c **** #ifdef TOPPERS_cycini
 112:.\asp\kernel/cyclic.c **** 
 113:.\asp\kernel/cyclic.c **** void
 114:.\asp\kernel/cyclic.c **** initialize_cyclic(void)
 115:.\asp\kernel/cyclic.c **** {
 116:.\asp\kernel/cyclic.c **** 	uint_t	i;
 117:.\asp\kernel/cyclic.c **** 	CYCCB	*p_cyccb;
 118:.\asp\kernel/cyclic.c **** 
 119:.\asp\kernel/cyclic.c **** 	for (i = 0; i < tnum_cyc; i++) {
 120:.\asp\kernel/cyclic.c **** 		p_cyccb = &(cyccb_table[i]);
 121:.\asp\kernel/cyclic.c **** 		p_cyccb->p_cycinib = &(cycinib_table[i]);
 122:.\asp\kernel/cyclic.c **** 		if ((p_cyccb->p_cycinib->cycatr & TA_STA) != 0U) {
 123:.\asp\kernel/cyclic.c **** 			p_cyccb->cycsta = true;
 124:.\asp\kernel/cyclic.c **** 			tmevtb_enqueue_cyc(p_cyccb, (EVTTIM)(p_cyccb->p_cycinib->cycphs));
 125:.\asp\kernel/cyclic.c **** 		}
 126:.\asp\kernel/cyclic.c **** 		else {
 127:.\asp\kernel/cyclic.c **** 			p_cyccb->cycsta = false;
 128:.\asp\kernel/cyclic.c **** 		}
 129:.\asp\kernel/cyclic.c **** 	}
 130:.\asp\kernel/cyclic.c **** }
 131:.\asp\kernel/cyclic.c **** 
 132:.\asp\kernel/cyclic.c **** #endif /* TOPPERS_cycini */
 133:.\asp\kernel/cyclic.c **** 
 134:.\asp\kernel/cyclic.c **** /*
 135:.\asp\kernel/cyclic.c ****  *  üŠúƒnƒ“ƒhƒ‰‚Ì“®ìŠJn
 136:.\asp\kernel/cyclic.c ****  */
 137:.\asp\kernel/cyclic.c **** #ifdef TOPPERS_sta_cyc
 138:.\asp\kernel/cyclic.c **** 
 139:.\asp\kernel/cyclic.c **** ER
 140:.\asp\kernel/cyclic.c **** sta_cyc(ID cycid)
 141:.\asp\kernel/cyclic.c **** {
 142:.\asp\kernel/cyclic.c **** 	CYCCB	*p_cyccb;
 143:.\asp\kernel/cyclic.c **** 	ER		ercd;
 144:.\asp\kernel/cyclic.c **** 
 145:.\asp\kernel/cyclic.c **** 	LOG_STA_CYC_ENTER(cycid);
 146:.\asp\kernel/cyclic.c **** 	CHECK_TSKCTX_UNL();
 147:.\asp\kernel/cyclic.c **** 	CHECK_CYCID(cycid);
 148:.\asp\kernel/cyclic.c **** 	p_cyccb = get_cyccb(cycid);
 149:.\asp\kernel/cyclic.c **** 
 150:.\asp\kernel/cyclic.c **** 	t_lock_cpu();
 151:.\asp\kernel/cyclic.c **** 	if (p_cyccb->cycsta) {
 152:.\asp\kernel/cyclic.c **** 		tmevtb_dequeue(&(p_cyccb->tmevtb));
 153:.\asp\kernel/cyclic.c **** 	}
 154:.\asp\kernel/cyclic.c **** 	else {
 155:.\asp\kernel/cyclic.c **** 		p_cyccb->cycsta = true;
 156:.\asp\kernel/cyclic.c **** 	}
 157:.\asp\kernel/cyclic.c **** 	tmevtb_enqueue_cyc(p_cyccb, base_time + p_cyccb->p_cycinib->cycphs);
 158:.\asp\kernel/cyclic.c **** 	ercd = E_OK;
ARM GAS  C:\TEMP\ccwY9sv5.s 			page 12


 159:.\asp\kernel/cyclic.c **** 	t_unlock_cpu();
 160:.\asp\kernel/cyclic.c **** 
 161:.\asp\kernel/cyclic.c ****   error_exit:
 162:.\asp\kernel/cyclic.c **** 	LOG_STA_CYC_LEAVE(ercd);
 163:.\asp\kernel/cyclic.c **** 	return(ercd);
 164:.\asp\kernel/cyclic.c **** }
 165:.\asp\kernel/cyclic.c **** 
 166:.\asp\kernel/cyclic.c **** #endif /* TOPPERS_sta_cyc */
 167:.\asp\kernel/cyclic.c **** 
 168:.\asp\kernel/cyclic.c **** /*
 169:.\asp\kernel/cyclic.c ****  *  üŠúƒnƒ“ƒhƒ‰‚Ì“®ì’â~
 170:.\asp\kernel/cyclic.c ****  */
 171:.\asp\kernel/cyclic.c **** #ifdef TOPPERS_stp_cyc
 172:.\asp\kernel/cyclic.c **** 
 173:.\asp\kernel/cyclic.c **** ER
 174:.\asp\kernel/cyclic.c **** stp_cyc(ID cycid)
 175:.\asp\kernel/cyclic.c **** {
 176:.\asp\kernel/cyclic.c **** 	CYCCB	*p_cyccb;
 177:.\asp\kernel/cyclic.c **** 	ER		ercd;
 178:.\asp\kernel/cyclic.c **** 
 179:.\asp\kernel/cyclic.c **** 	LOG_STP_CYC_ENTER(cycid);
 180:.\asp\kernel/cyclic.c **** 	CHECK_TSKCTX_UNL();
 181:.\asp\kernel/cyclic.c **** 	CHECK_CYCID(cycid);
 182:.\asp\kernel/cyclic.c **** 	p_cyccb = get_cyccb(cycid);
 183:.\asp\kernel/cyclic.c **** 
 184:.\asp\kernel/cyclic.c **** 	t_lock_cpu();
 185:.\asp\kernel/cyclic.c **** 	if (p_cyccb->cycsta) {
 186:.\asp\kernel/cyclic.c **** 		p_cyccb->cycsta = false;
 187:.\asp\kernel/cyclic.c **** 		tmevtb_dequeue(&(p_cyccb->tmevtb));
 188:.\asp\kernel/cyclic.c **** 	}
 189:.\asp\kernel/cyclic.c **** 	ercd = E_OK;
 190:.\asp\kernel/cyclic.c **** 	t_unlock_cpu();
 191:.\asp\kernel/cyclic.c **** 
 192:.\asp\kernel/cyclic.c ****   error_exit:
 193:.\asp\kernel/cyclic.c **** 	LOG_STP_CYC_LEAVE(ercd);
 194:.\asp\kernel/cyclic.c **** 	return(ercd);
 195:.\asp\kernel/cyclic.c **** }
 196:.\asp\kernel/cyclic.c **** 
 197:.\asp\kernel/cyclic.c **** #endif /* TOPPERS_stp_cyc */
 198:.\asp\kernel/cyclic.c **** 
 199:.\asp\kernel/cyclic.c **** /*
 200:.\asp\kernel/cyclic.c ****  *  üŠúƒnƒ“ƒhƒ‰‚Ìó‘ÔQÆ
 201:.\asp\kernel/cyclic.c ****  */
 202:.\asp\kernel/cyclic.c **** #ifdef TOPPERS_ref_cyc
 203:.\asp\kernel/cyclic.c **** 
 204:.\asp\kernel/cyclic.c **** ER
 205:.\asp\kernel/cyclic.c **** ref_cyc(ID cycid, T_RCYC *pk_rcyc)
 206:.\asp\kernel/cyclic.c **** {
 207:.\asp\kernel/cyclic.c **** 	CYCCB	*p_cyccb;
 208:.\asp\kernel/cyclic.c **** 	ER		ercd;
 209:.\asp\kernel/cyclic.c ****     
 210:.\asp\kernel/cyclic.c **** 	LOG_REF_CYC_ENTER(cycid, pk_rcyc);
 211:.\asp\kernel/cyclic.c **** 	CHECK_TSKCTX_UNL();
 212:.\asp\kernel/cyclic.c **** 	CHECK_CYCID(cycid);
 213:.\asp\kernel/cyclic.c **** 	p_cyccb = get_cyccb(cycid);
 214:.\asp\kernel/cyclic.c **** 
 215:.\asp\kernel/cyclic.c **** 	t_lock_cpu();
ARM GAS  C:\TEMP\ccwY9sv5.s 			page 13


 216:.\asp\kernel/cyclic.c **** 	if (p_cyccb->cycsta) {
 217:.\asp\kernel/cyclic.c **** 		pk_rcyc->cycstat = TCYC_STA;
 218:.\asp\kernel/cyclic.c **** 		pk_rcyc->lefttim = tmevt_lefttim(&(p_cyccb->tmevtb));
 219:.\asp\kernel/cyclic.c **** 	}
 220:.\asp\kernel/cyclic.c **** 	else {
 221:.\asp\kernel/cyclic.c **** 		pk_rcyc->cycstat = TCYC_STP;
 222:.\asp\kernel/cyclic.c **** 	}
 223:.\asp\kernel/cyclic.c **** 	ercd = E_OK;
 224:.\asp\kernel/cyclic.c **** 	t_unlock_cpu();
 225:.\asp\kernel/cyclic.c **** 
 226:.\asp\kernel/cyclic.c ****   error_exit:
 227:.\asp\kernel/cyclic.c **** 	LOG_REF_CYC_LEAVE(ercd, pk_rcyc);
 228:.\asp\kernel/cyclic.c **** 	return(ercd);
 229:.\asp\kernel/cyclic.c **** }
 230:.\asp\kernel/cyclic.c **** 
 231:.\asp\kernel/cyclic.c **** #endif /* TOPPERS_ref_cyc */
 232:.\asp\kernel/cyclic.c **** 
 233:.\asp\kernel/cyclic.c **** /*
 234:.\asp\kernel/cyclic.c ****  *  üŠúƒnƒ“ƒhƒ‰‹N“®ƒ‹[ƒ`ƒ“
 235:.\asp\kernel/cyclic.c ****  */
 236:.\asp\kernel/cyclic.c **** #ifdef TOPPERS_cyccal
 237:.\asp\kernel/cyclic.c **** 
 238:.\asp\kernel/cyclic.c **** void
 239:.\asp\kernel/cyclic.c **** call_cychdr(CYCCB *p_cyccb)
 240:.\asp\kernel/cyclic.c **** {
 129              		.loc 3 240 0
 130              		.cfi_startproc
 131              		@ args = 0, pretend = 0, frame = 0
 132              		@ frame_needed = 0, uses_anonymous_args = 0
 133              	.LVL5:
 134 0000 38B5     		push	{r3, r4, r5, lr}
 135              	.LCFI0:
 136              		.cfi_def_cfa_offset 16
 137              		.cfi_offset 3, -16
 138              		.cfi_offset 4, -12
 139              		.cfi_offset 5, -8
 140              		.cfi_offset 14, -4
 241:.\asp\kernel/cyclic.c **** 	PRI		saved_ipm;
 242:.\asp\kernel/cyclic.c **** 
 243:.\asp\kernel/cyclic.c **** 	/*
 244:.\asp\kernel/cyclic.c **** 	 *  Ÿ‰ñ‚Ì‹N“®‚Ì‚½‚ß‚Ìƒ^ƒCƒ€ƒCƒxƒ“ƒgƒuƒƒbƒN‚ğ“o˜^‚·‚éD
 245:.\asp\kernel/cyclic.c **** 	 *
 246:.\asp\kernel/cyclic.c **** 	 *  “¯‚¶ƒ^ƒCƒ€ƒeƒBƒbƒN‚ÅüŠúƒnƒ“ƒhƒ‰‚ğÄ“x‹N“®‚·‚×‚«ê‡‚É‚ÍC‚±‚Ì
 247:.\asp\kernel/cyclic.c **** 	 *  ŠÖ”‚©‚çsignal_time‚É–ß‚Á‚½Œã‚ÉCÄ“x‚±‚ÌŠÖ”‚ªŒÄ‚Î‚ê‚é‚±‚Æ‚É‚È
 248:.\asp\kernel/cyclic.c **** 	 *  ‚éD
 249:.\asp\kernel/cyclic.c **** 	 */
 250:.\asp\kernel/cyclic.c **** 	tmevtb_enqueue_cyc(p_cyccb, p_cyccb->evttim + p_cyccb->p_cycinib->cyctim);
 141              		.loc 3 250 0
 142 0002 0368     		ldr	r3, [r0, #0]
 240:.\asp\kernel/cyclic.c **** {
 143              		.loc 3 240 0
 144 0004 0446     		mov	r4, r0
 145              		.loc 3 250 0
 146 0006 DD68     		ldr	r5, [r3, #12]
 147 0008 8068     		ldr	r0, [r0, #8]
 148              	.LVL6:
 149              	.LBB54:
ARM GAS  C:\TEMP\ccwY9sv5.s 			page 14


 150              	.LBB55:
 151              	.LBB56:
 152              	.LBB57:
 153              		.file 4 ".\\asp\\kernel\\time_event.h"
   1:.\asp\kernel/time_event.h **** /*
   2:.\asp\kernel/time_event.h ****  *  TOPPERS/ASP Kernel
   3:.\asp\kernel/time_event.h ****  *      Toyohashi Open Platform for Embedded Real-Time Systems/
   4:.\asp\kernel/time_event.h ****  *      Advanced Standard Profile Kernel
   5:.\asp\kernel/time_event.h ****  * 
   6:.\asp\kernel/time_event.h ****  *  Copyright (C) 2000-2003 by Embedded and Real-Time Systems Laboratory
   7:.\asp\kernel/time_event.h ****  *                              Toyohashi Univ. of Technology, JAPAN
   8:.\asp\kernel/time_event.h ****  *  Copyright (C) 2005-2010 by Embedded and Real-Time Systems Laboratory
   9:.\asp\kernel/time_event.h ****  *              Graduate School of Information Science, Nagoya Univ., JAPAN
  10:.\asp\kernel/time_event.h ****  * 
  11:.\asp\kernel/time_event.h ****  *  ã‹L’˜ìŒ Ò‚ÍCˆÈ‰º‚Ì(1)`(4)‚ÌğŒ‚ğ–‚½‚·ê‡‚ÉŒÀ‚èC–{ƒ\ƒtƒgƒEƒF
  12:.\asp\kernel/time_event.h ****  *  ƒAi–{ƒ\ƒtƒgƒEƒFƒA‚ğ‰ü•Ï‚µ‚½‚à‚Ì‚ğŠÜ‚ŞDˆÈ‰º“¯‚¶j‚ğg—pE•¡»E‰ü
  13:.\asp\kernel/time_event.h ****  *  •ÏEÄ”z•ziˆÈ‰ºC—˜—p‚ÆŒÄ‚Ôj‚·‚é‚±‚Æ‚ğ–³‚Å‹–‘ø‚·‚éD
  14:.\asp\kernel/time_event.h ****  *  (1) –{ƒ\ƒtƒgƒEƒFƒA‚ğƒ\[ƒXƒR[ƒh‚ÌŒ`‚Å—˜—p‚·‚éê‡‚É‚ÍCã‹L‚Ì’˜ì
  15:.\asp\kernel/time_event.h ****  *      Œ •\¦C‚±‚Ì—˜—pğŒ‚¨‚æ‚Ñ‰º‹L‚Ì–³•ÛØ‹K’è‚ªC‚»‚Ì‚Ü‚Ü‚ÌŒ`‚Åƒ\[
  16:.\asp\kernel/time_event.h ****  *      ƒXƒR[ƒh’†‚ÉŠÜ‚Ü‚ê‚Ä‚¢‚é‚±‚ÆD
  17:.\asp\kernel/time_event.h ****  *  (2) –{ƒ\ƒtƒgƒEƒFƒA‚ğCƒ‰ƒCƒuƒ‰ƒŠŒ`®‚È‚ÇC‘¼‚Ìƒ\ƒtƒgƒEƒFƒAŠJ”­‚Ég
  18:.\asp\kernel/time_event.h ****  *      —p‚Å‚«‚éŒ`‚ÅÄ”z•z‚·‚éê‡‚É‚ÍCÄ”z•z‚É”º‚¤ƒhƒLƒ…ƒƒ“ƒgi—˜—p
  19:.\asp\kernel/time_event.h ****  *      Òƒ}ƒjƒ…ƒAƒ‹‚È‚Çj‚ÉCã‹L‚Ì’˜ìŒ •\¦C‚±‚Ì—˜—pğŒ‚¨‚æ‚Ñ‰º‹L
  20:.\asp\kernel/time_event.h ****  *      ‚Ì–³•ÛØ‹K’è‚ğŒfÚ‚·‚é‚±‚ÆD
  21:.\asp\kernel/time_event.h ****  *  (3) –{ƒ\ƒtƒgƒEƒFƒA‚ğC‹@Ší‚É‘g‚İ‚Ş‚È‚ÇC‘¼‚Ìƒ\ƒtƒgƒEƒFƒAŠJ”­‚Ég
  22:.\asp\kernel/time_event.h ****  *      —p‚Å‚«‚È‚¢Œ`‚ÅÄ”z•z‚·‚éê‡‚É‚ÍCŸ‚Ì‚¢‚¸‚ê‚©‚ÌğŒ‚ğ–‚½‚·‚±
  23:.\asp\kernel/time_event.h ****  *      ‚ÆD
  24:.\asp\kernel/time_event.h ****  *    (a) Ä”z•z‚É”º‚¤ƒhƒLƒ…ƒƒ“ƒgi—˜—pÒƒ}ƒjƒ…ƒAƒ‹‚È‚Çj‚ÉCã‹L‚Ì’˜
  25:.\asp\kernel/time_event.h ****  *        ìŒ •\¦C‚±‚Ì—˜—pğŒ‚¨‚æ‚Ñ‰º‹L‚Ì–³•ÛØ‹K’è‚ğŒfÚ‚·‚é‚±‚ÆD
  26:.\asp\kernel/time_event.h ****  *    (b) Ä”z•z‚ÌŒ`‘Ô‚ğC•Ê‚É’è‚ß‚é•û–@‚É‚æ‚Á‚ÄCTOPPERSƒvƒƒWƒFƒNƒg‚É
  27:.\asp\kernel/time_event.h ****  *        •ñ‚·‚é‚±‚ÆD
  28:.\asp\kernel/time_event.h ****  *  (4) –{ƒ\ƒtƒgƒEƒFƒA‚Ì—˜—p‚É‚æ‚è’¼Ú“I‚Ü‚½‚ÍŠÔÚ“I‚É¶‚¶‚é‚¢‚©‚È‚é‘¹
  29:.\asp\kernel/time_event.h ****  *      ŠQ‚©‚ç‚àCã‹L’˜ìŒ Ò‚¨‚æ‚ÑTOPPERSƒvƒƒWƒFƒNƒg‚ğ–ÆÓ‚·‚é‚±‚ÆD
  30:.\asp\kernel/time_event.h ****  *      ‚Ü‚½C–{ƒ\ƒtƒgƒEƒFƒA‚Ìƒ†[ƒU‚Ü‚½‚ÍƒGƒ“ƒhƒ†[ƒU‚©‚ç‚Ì‚¢‚©‚È‚é—
  31:.\asp\kernel/time_event.h ****  *      —R‚ÉŠî‚Ã‚­¿‹‚©‚ç‚àCã‹L’˜ìŒ Ò‚¨‚æ‚ÑTOPPERSƒvƒƒWƒFƒNƒg‚ğ
  32:.\asp\kernel/time_event.h ****  *      –ÆÓ‚·‚é‚±‚ÆD
  33:.\asp\kernel/time_event.h ****  * 
  34:.\asp\kernel/time_event.h ****  *  –{ƒ\ƒtƒgƒEƒFƒA‚ÍC–³•ÛØ‚Å’ñ‹Ÿ‚³‚ê‚Ä‚¢‚é‚à‚Ì‚Å‚ ‚éDã‹L’˜ìŒ Ò‚¨
  35:.\asp\kernel/time_event.h ****  *  ‚æ‚ÑTOPPERSƒvƒƒWƒFƒNƒg‚ÍC–{ƒ\ƒtƒgƒEƒFƒA‚ÉŠÖ‚µ‚ÄC“Á’è‚Ìg—p–Ú“I
  36:.\asp\kernel/time_event.h ****  *  ‚É‘Î‚·‚é“K‡«‚àŠÜ‚ß‚ÄC‚¢‚©‚È‚é•ÛØ‚às‚í‚È‚¢D‚Ü‚½C–{ƒ\ƒtƒgƒEƒF
  37:.\asp\kernel/time_event.h ****  *  ƒA‚Ì—˜—p‚É‚æ‚è’¼Ú“I‚Ü‚½‚ÍŠÔÚ“I‚É¶‚¶‚½‚¢‚©‚È‚é‘¹ŠQ‚ÉŠÖ‚µ‚Ä‚àC‚»
  38:.\asp\kernel/time_event.h ****  *  ‚ÌÓ”C‚ğ•‰‚í‚È‚¢D
  39:.\asp\kernel/time_event.h ****  * 
  40:.\asp\kernel/time_event.h ****  *  $Id: time_event.h 1774 2010-03-19 12:45:46Z ertl-hiro $
  41:.\asp\kernel/time_event.h ****  */
  42:.\asp\kernel/time_event.h **** 
  43:.\asp\kernel/time_event.h **** /*
  44:.\asp\kernel/time_event.h ****  *		ƒ^ƒCƒ€ƒCƒxƒ“ƒgŠÇ—ƒ‚ƒWƒ…[ƒ‹
  45:.\asp\kernel/time_event.h ****  */
  46:.\asp\kernel/time_event.h **** 
  47:.\asp\kernel/time_event.h **** #ifndef TOPPERS_TIME_EVENT_H
  48:.\asp\kernel/time_event.h **** #define TOPPERS_TIME_EVENT_H
  49:.\asp\kernel/time_event.h **** 
  50:.\asp\kernel/time_event.h **** /*
  51:.\asp\kernel/time_event.h ****  *  ƒCƒxƒ“ƒg”­¶‚Ìƒf[ƒ^Œ^‚Ì’è‹`
  52:.\asp\kernel/time_event.h ****  *
  53:.\asp\kernel/time_event.h ****  *  EVTTIM‚ÍCRELTIM‚Æ‚µ‚Äw’è‚Å‚«‚é”ÍˆÍ‚æ‚è‚àL‚¢”ÍˆÍ‚ğ•\Œ»‚Å‚«‚é•K—v
ARM GAS  C:\TEMP\ccwY9sv5.s 			page 15


  54:.\asp\kernel/time_event.h ****  *  ‚ª‚ ‚éDƒÊITRON4.0d—l‚ÌƒXƒ^ƒ“ƒ_[ƒhƒvƒƒtƒ@ƒCƒ‹‚Å‚ÍCRELTIM‚ª16ƒrƒb
  55:.\asp\kernel/time_event.h ****  *  ƒgˆÈã‚Å‚È‚¯‚ê‚Î‚È‚ç‚È‚¢‚½‚ßCEVTTIM‚Í17ƒrƒbƒgˆÈã‚Å‚ ‚é‚±‚Æ‚ª•K—v
  56:.\asp\kernel/time_event.h ****  *  ‚Å‚ ‚éD‚»‚Ì‚½‚ßC16ƒrƒbƒg‚É‚È‚éê‡‚ª‚ ‚éuint_t‚Å‚Í‚È‚­Culong_t‚É
  57:.\asp\kernel/time_event.h ****  *  ’è‹`‚µ‚Ä‚¢‚éD
  58:.\asp\kernel/time_event.h ****  */
  59:.\asp\kernel/time_event.h **** typedef ulong_t	EVTTIM;
  60:.\asp\kernel/time_event.h **** 
  61:.\asp\kernel/time_event.h **** /* 
  62:.\asp\kernel/time_event.h ****  *  ƒ^ƒCƒ€ƒCƒxƒ“ƒgƒuƒƒbƒN‚Ìƒf[ƒ^Œ^‚Ì’è‹`
  63:.\asp\kernel/time_event.h ****  */
  64:.\asp\kernel/time_event.h **** typedef void	(*CBACK)(void *);	/* ƒR[ƒ‹ƒoƒbƒNŠÖ”‚ÌŒ^ */
  65:.\asp\kernel/time_event.h **** 
  66:.\asp\kernel/time_event.h **** typedef struct time_event_block {
  67:.\asp\kernel/time_event.h **** 	uint_t	index;			/* ƒ^ƒCƒ€ƒCƒxƒ“ƒgƒq[ƒv’†‚Å‚ÌˆÊ’u */
  68:.\asp\kernel/time_event.h **** 	CBACK	callback;		/* ƒR[ƒ‹ƒoƒbƒNŠÖ” */
  69:.\asp\kernel/time_event.h **** 	void	*arg;			/* ƒR[ƒ‹ƒoƒbƒNŠÖ”‚Ö“n‚·ˆø” */
  70:.\asp\kernel/time_event.h **** } TMEVTB;
  71:.\asp\kernel/time_event.h **** 
  72:.\asp\kernel/time_event.h **** /*
  73:.\asp\kernel/time_event.h ****  *  ƒ^ƒCƒ€ƒCƒxƒ“ƒgƒq[ƒv’†‚Ìƒm[ƒh‚Ìƒf[ƒ^Œ^‚Ì’è‹`
  74:.\asp\kernel/time_event.h ****  */
  75:.\asp\kernel/time_event.h **** typedef struct time_event_node {
  76:.\asp\kernel/time_event.h **** 	EVTTIM	time;			/* ƒCƒxƒ“ƒg”­¶ */
  77:.\asp\kernel/time_event.h **** 	TMEVTB	*p_tmevtb;		/* ‘Î‰‚·‚éƒ^ƒCƒ€ƒCƒxƒ“ƒgƒuƒƒbƒN */
  78:.\asp\kernel/time_event.h **** } TMEVTN;
  79:.\asp\kernel/time_event.h **** 
  80:.\asp\kernel/time_event.h **** /*
  81:.\asp\kernel/time_event.h ****  *  ƒ^ƒCƒ€ƒCƒxƒ“ƒgƒq[ƒvikernel_cfg.cj
  82:.\asp\kernel/time_event.h ****  */
  83:.\asp\kernel/time_event.h **** extern TMEVTN	tmevt_heap[];
  84:.\asp\kernel/time_event.h **** 
  85:.\asp\kernel/time_event.h **** /*
  86:.\asp\kernel/time_event.h ****  *  Œ»İ‚ÌƒVƒXƒeƒ€i’PˆÊ: 1ƒ~ƒŠ•bj
  87:.\asp\kernel/time_event.h ****  *
  88:.\asp\kernel/time_event.h ****  *  ƒVƒXƒeƒ€‹N“®‚É0‚É‰Šú‰»‚³‚êCˆÈ~Cƒ^ƒCƒ€ƒeƒBƒbƒN‚ª‹Ÿ‹‹‚³‚ê‚é“x‚É
  89:.\asp\kernel/time_event.h ****  *  ’P’²‚É‘‰Á‚·‚éD
  90:.\asp\kernel/time_event.h ****  */
  91:.\asp\kernel/time_event.h **** extern EVTTIM	current_time;
  92:.\asp\kernel/time_event.h **** 
  93:.\asp\kernel/time_event.h **** /*
  94:.\asp\kernel/time_event.h ****  *  ƒ^ƒCƒ€ƒCƒxƒ“ƒgƒq[ƒv’†‚Å—LŒø‚ÈÅ¬‚ÌƒVƒXƒeƒ€i’PˆÊ: 1ƒ~ƒŠ•bj
  95:.\asp\kernel/time_event.h ****  */
  96:.\asp\kernel/time_event.h **** extern EVTTIM	min_time;
  97:.\asp\kernel/time_event.h **** 
  98:.\asp\kernel/time_event.h **** /*
  99:.\asp\kernel/time_event.h ****  *  Ÿ‚Ìƒ^ƒCƒ€ƒeƒBƒbƒN‚ÌƒVƒXƒeƒ€i’PˆÊ: 1ƒ~ƒŠ•bj
 100:.\asp\kernel/time_event.h ****  */
 101:.\asp\kernel/time_event.h **** extern EVTTIM	next_time;
 102:.\asp\kernel/time_event.h **** 
 103:.\asp\kernel/time_event.h **** /*
 104:.\asp\kernel/time_event.h ****  *  ƒVƒXƒeƒ€ÏZ—p•Ï”i’PˆÊ: 1/TIC_DENOƒ~ƒŠ•bj
 105:.\asp\kernel/time_event.h ****  *
 106:.\asp\kernel/time_event.h ****  *  Ÿ‚Ìƒ^ƒCƒ€ƒeƒBƒbƒN‚ÌƒVƒXƒeƒ€‚Ì‰ºˆÊŒ…‚ğ¦‚·iãˆÊŒ…‚Ínext_timejD
 107:.\asp\kernel/time_event.h ****  *  TIC_DENO‚ª1‚Ì‚ÍC‰ºˆÊŒ…‚Íí‚É0‚Å‚ ‚é‚½‚ßC‚±‚Ì•Ï”‚Í•K—v‚È‚¢D
 108:.\asp\kernel/time_event.h ****  */
 109:.\asp\kernel/time_event.h **** #if TIC_DENO != 1U
 110:.\asp\kernel/time_event.h **** extern uint_t	next_subtime;
ARM GAS  C:\TEMP\ccwY9sv5.s 			page 16


 111:.\asp\kernel/time_event.h **** #endif /* TIC_DENO != 1U */
 112:.\asp\kernel/time_event.h **** 
 113:.\asp\kernel/time_event.h **** /*
 114:.\asp\kernel/time_event.h ****  *  ‘Š‘ÎŠÔ‚ÌŠî€i’PˆÊ: 1ƒ~ƒŠ•bj
 115:.\asp\kernel/time_event.h ****  *
 116:.\asp\kernel/time_event.h ****  *  Ÿ‚Ìƒ^ƒCƒ€ƒeƒBƒbƒN‚ÌƒVƒXƒeƒ€‚ğØ‚èã‚°‚½DTIC_DENO‚ª1‚Ì
 117:.\asp\kernel/time_event.h ****  *  ‚ÍCnext_time‚Éˆê’v‚·‚éD
 118:.\asp\kernel/time_event.h ****  */
 119:.\asp\kernel/time_event.h **** #if TIC_DENO == 1U
 120:.\asp\kernel/time_event.h **** #define	base_time	(next_time)
 121:.\asp\kernel/time_event.h **** #else /* TIC_DENO == 1U */
 122:.\asp\kernel/time_event.h **** #define	base_time	(next_time + (next_subtime > 0U ? 1U : 0U))
 123:.\asp\kernel/time_event.h **** #endif /* TIC_DENO == 1U */
 124:.\asp\kernel/time_event.h **** 
 125:.\asp\kernel/time_event.h **** /*
 126:.\asp\kernel/time_event.h ****  *  ƒ^ƒCƒ€ƒCƒxƒ“ƒgƒq[ƒv‚ÌÅŒã‚Ìg—p—Ìˆæ‚ÌƒCƒ“ƒfƒbƒNƒX
 127:.\asp\kernel/time_event.h ****  *
 128:.\asp\kernel/time_event.h ****  *  ƒ^ƒCƒ€ƒCƒxƒ“ƒgƒq[ƒv‚É“o˜^‚³‚ê‚Ä‚¢‚éƒ^ƒCƒ€ƒCƒxƒ“ƒg‚Ì”‚Éˆê’v‚·‚éD
 129:.\asp\kernel/time_event.h ****  */
 130:.\asp\kernel/time_event.h **** extern uint_t	last_index;
 131:.\asp\kernel/time_event.h **** 
 132:.\asp\kernel/time_event.h **** /*
 133:.\asp\kernel/time_event.h ****  *  ƒ^ƒCƒ€ƒCƒxƒ“ƒgŠÇ—ƒ‚ƒWƒ…[ƒ‹‚Ì‰Šú‰»
 134:.\asp\kernel/time_event.h ****  */
 135:.\asp\kernel/time_event.h **** extern void	initialize_tmevt(void);
 136:.\asp\kernel/time_event.h **** 
 137:.\asp\kernel/time_event.h **** /*
 138:.\asp\kernel/time_event.h ****  *  ƒ^ƒCƒ€ƒCƒxƒ“ƒg‚Ì‘}“üˆÊ’u‚Ì’Tõ
 139:.\asp\kernel/time_event.h ****  */
 140:.\asp\kernel/time_event.h **** extern uint_t	tmevt_up(uint_t index, EVTTIM time);
 141:.\asp\kernel/time_event.h **** extern uint_t	tmevt_down(uint_t index, EVTTIM time);
 142:.\asp\kernel/time_event.h **** 
 143:.\asp\kernel/time_event.h **** /*
 144:.\asp\kernel/time_event.h ****  *  ƒ^ƒCƒ€ƒCƒxƒ“ƒgƒq[ƒv‚Ö‚Ì“o˜^‚Æíœ
 145:.\asp\kernel/time_event.h ****  */
 146:.\asp\kernel/time_event.h **** extern void	tmevtb_insert(TMEVTB *p_tmevtb, EVTTIM time);
 147:.\asp\kernel/time_event.h **** extern void	tmevtb_delete(TMEVTB *p_tmevtb);
 148:.\asp\kernel/time_event.h **** 
 149:.\asp\kernel/time_event.h **** /*
 150:.\asp\kernel/time_event.h ****  *  ƒ^ƒCƒ€ƒCƒxƒ“ƒgƒuƒƒbƒN‚Ì“o˜^i‘Š‘ÎŠÔw’èj
 151:.\asp\kernel/time_event.h ****  *
 152:.\asp\kernel/time_event.h ****  *  time‚Åw’è‚µ‚½‘Š‘ÎŠÔ‚ªŒo‰ß‚µ‚½Œã‚ÉCarg‚ğˆø”‚Æ‚µ‚Äcallback‚ªŒÄ
 153:.\asp\kernel/time_event.h ****  *  ‚Ño‚³‚ê‚é‚æ‚¤‚ÉCp_tmevtb‚Åw’è‚µ‚½ƒ^ƒCƒ€ƒCƒxƒ“ƒgƒuƒƒbƒN‚ğ“o˜^‚·
 154:.\asp\kernel/time_event.h ****  *  ‚éD
 155:.\asp\kernel/time_event.h ****  *  
 156:.\asp\kernel/time_event.h ****  */
 157:.\asp\kernel/time_event.h **** Inline void
 158:.\asp\kernel/time_event.h **** tmevtb_enqueue(TMEVTB *p_tmevtb, RELTIM time, CBACK callback, void *arg)
 159:.\asp\kernel/time_event.h **** {
 160:.\asp\kernel/time_event.h **** 	assert(time <= TMAX_RELTIM);
 161:.\asp\kernel/time_event.h **** 
 162:.\asp\kernel/time_event.h **** 	p_tmevtb->callback = callback;
 163:.\asp\kernel/time_event.h **** 	p_tmevtb->arg = arg;
 164:.\asp\kernel/time_event.h **** 	tmevtb_insert(p_tmevtb, base_time + time);
 165:.\asp\kernel/time_event.h **** }
 166:.\asp\kernel/time_event.h **** 
 167:.\asp\kernel/time_event.h **** /*
ARM GAS  C:\TEMP\ccwY9sv5.s 			page 17


 168:.\asp\kernel/time_event.h ****  *  ƒ^ƒCƒ€ƒCƒxƒ“ƒgƒuƒƒbƒN‚Ì“o˜^iƒCƒxƒ“ƒg”­¶w’èj
 169:.\asp\kernel/time_event.h ****  *
 170:.\asp\kernel/time_event.h ****  *  time‚Åw’è‚µ‚½ƒCƒxƒ“ƒg”­¶‚ÉCarg‚ğˆø”‚Æ‚µ‚Äcallback‚ªŒÄ‚Ño
 171:.\asp\kernel/time_event.h ****  *  ‚³‚ê‚é‚æ‚¤‚ÉCp_tmevtb‚Åw’è‚µ‚½ƒ^ƒCƒ€ƒCƒxƒ“ƒgƒuƒƒbƒN‚ğ“o˜^‚·‚éD
 172:.\asp\kernel/time_event.h ****  */
 173:.\asp\kernel/time_event.h **** Inline void
 174:.\asp\kernel/time_event.h **** tmevtb_enqueue_evttim(TMEVTB *p_tmevtb, EVTTIM time, CBACK callback, void *arg)
 175:.\asp\kernel/time_event.h **** {
 176:.\asp\kernel/time_event.h **** 	p_tmevtb->callback = callback;
 154              		.loc 4 176 0
 155 000a 1849     		ldr	r1, .L20
 156              	.LBE57:
 157              	.LBE56:
 158              	.LBE55:
 159              	.LBE54:
 160              		.loc 3 250 0
 161 000c 2D18     		adds	r5, r5, r0
 162              	.LVL7:
 163              	.LBB62:
 164              	.LBB60:
 165              	.LBB59:
 166              	.LBB58:
 167              		.loc 4 176 0
 168 000e 2161     		str	r1, [r4, #16]
 177:.\asp\kernel/time_event.h **** 	p_tmevtb->arg = arg;
 169              		.loc 4 177 0
 170 0010 6461     		str	r4, [r4, #20]
 178:.\asp\kernel/time_event.h **** 	tmevtb_insert(p_tmevtb, time);
 171              		.loc 4 178 0
 172 0012 04F10C00 		add	r0, r4, #12
 173              	.LVL8:
 174 0016 2946     		mov	r1, r5
 175 0018 FFF7FEFF 		bl	_kernel_tmevtb_insert
 176              	.LVL9:
 177              	.LBE58:
 178              	.LBE59:
 179              	.LBE60:
 180              	.LBE62:
 181              	.LBB63:
 182              	.LBB64:
 236:.\asp\arch\arm_m_gcc\common/core_config.h **** }
 237:.\asp\arch\arm_m_gcc\common/core_config.h **** 
 238:.\asp\arch\arm_m_gcc\common/core_config.h **** #define t_unlock_cpu()    x_unlock_cpu()
 239:.\asp\arch\arm_m_gcc\common/core_config.h **** #define i_unlock_cpu()    x_unlock_cpu()
 240:.\asp\arch\arm_m_gcc\common/core_config.h **** 
 241:.\asp\arch\arm_m_gcc\common/core_config.h **** /*
 242:.\asp\arch\arm_m_gcc\common/core_config.h ****  *  CPUƒƒbƒNó‘Ô‚ÌQÆ
 243:.\asp\arch\arm_m_gcc\common/core_config.h ****  */
 244:.\asp\arch\arm_m_gcc\common/core_config.h **** Inline bool_t
 245:.\asp\arch\arm_m_gcc\common/core_config.h **** x_sense_lock(void)
 246:.\asp\arch\arm_m_gcc\common/core_config.h **** {
 247:.\asp\arch\arm_m_gcc\common/core_config.h **** 	return(lock_flag);
 248:.\asp\arch\arm_m_gcc\common/core_config.h **** }
 249:.\asp\arch\arm_m_gcc\common/core_config.h **** 
 250:.\asp\arch\arm_m_gcc\common/core_config.h **** #define t_sense_lock()    x_sense_lock()
 251:.\asp\arch\arm_m_gcc\common/core_config.h **** #define i_sense_lock()    x_sense_lock()
 252:.\asp\arch\arm_m_gcc\common/core_config.h **** 
ARM GAS  C:\TEMP\ccwY9sv5.s 			page 18


 253:.\asp\arch\arm_m_gcc\common/core_config.h **** /*
 254:.\asp\arch\arm_m_gcc\common/core_config.h ****  *  chg_ipm‚Å—LŒø‚ÈŠ„‚İ—Dæ“x‚Ì”ÍˆÍ‚Ì”»’è
 255:.\asp\arch\arm_m_gcc\common/core_config.h ****  *
 256:.\asp\arch\arm_m_gcc\common/core_config.h ****  *  TMIN_INTPRI‚Ì’l‚É‚æ‚ç‚¸Cchg_ipm‚Å‚ÍC-(1 << TBITW_IPRI)`TIPM_ENAALLi0j
 257:.\asp\arch\arm_m_gcc\common/core_config.h ****  *  ‚Ì”ÍˆÍ‚Éİ’è‚Å‚«‚é‚±‚Æ‚Æ‚·‚éiƒ^[ƒQƒbƒg’è‹`‚ÌŠg’£jD
 258:.\asp\arch\arm_m_gcc\common/core_config.h ****  *  Š„‚İ—Dæ“x‚Ìƒrƒbƒg•(TBITW_IPRI)‚ª 8 ‚Ìê‡‚ÍC-256 ` 0 ‚ªw’è‰Â”\‚Å‚ ‚éD
 259:.\asp\arch\arm_m_gcc\common/core_config.h ****  *   
 260:.\asp\arch\arm_m_gcc\common/core_config.h ****  */
 261:.\asp\arch\arm_m_gcc\common/core_config.h **** #define VALID_INTPRI_CHGIPM(intpri) \
 262:.\asp\arch\arm_m_gcc\common/core_config.h **** 				((-((1 << TBITW_IPRI) - 1) <= (intpri) && (intpri) <= TIPM_ENAALL))
 263:.\asp\arch\arm_m_gcc\common/core_config.h **** 
 264:.\asp\arch\arm_m_gcc\common/core_config.h **** /*
 265:.\asp\arch\arm_m_gcc\common/core_config.h ****  * iƒ‚ƒfƒ‹ã‚ÌjŠ„‚İ—Dæ“xƒ}ƒXƒN‚Ìİ’è
 266:.\asp\arch\arm_m_gcc\common/core_config.h ****  *
 267:.\asp\arch\arm_m_gcc\common/core_config.h ****  *  CPUƒƒbƒNƒtƒ‰ƒO‚ªƒNƒŠƒA‚³‚ê‚Ä‚¢‚é‚ÍCƒn[ƒhƒEƒFƒA‚ÌŠ„‚İ—Dæ“xƒ}
 268:.\asp\arch\arm_m_gcc\common/core_config.h ****  *  ƒXƒN‚ğİ’è‚·‚éDCPUƒƒbƒNƒtƒ‰ƒO‚ªƒZƒbƒg‚³‚ê‚Ä‚¢‚é‚ÍCsaved_iipm
 269:.\asp\arch\arm_m_gcc\common/core_config.h ****  *  ‚ğİ’è‚µC‚³‚ç‚ÉCƒn[ƒhƒEƒFƒA‚ÌŠ„‚İ—Dæ“xƒ}ƒXƒN‚ğCİ’è‚µ‚æ‚¤‚Æ
 270:.\asp\arch\arm_m_gcc\common/core_config.h ****  *  ‚µ‚½iƒ‚ƒfƒ‹ã‚ÌjŠ„‚İ—Dæ“xƒ}ƒXƒN‚ÆTIPM_LOCK‚Ì‚‚¢•û‚Éİ’è‚·‚éD
 271:.\asp\arch\arm_m_gcc\common/core_config.h ****  */
 272:.\asp\arch\arm_m_gcc\common/core_config.h **** Inline void
 273:.\asp\arch\arm_m_gcc\common/core_config.h **** x_set_ipm(PRI intpri)
 274:.\asp\arch\arm_m_gcc\common/core_config.h **** {
 275:.\asp\arch\arm_m_gcc\common/core_config.h **** 	uint8_t   iipm = INT_IPM(intpri);
 276:.\asp\arch\arm_m_gcc\common/core_config.h **** 
 277:.\asp\arch\arm_m_gcc\common/core_config.h **** 	if (intpri == TIPM_ENAALL){
 278:.\asp\arch\arm_m_gcc\common/core_config.h **** 		iipm = IIPM_ENAALL;
 279:.\asp\arch\arm_m_gcc\common/core_config.h **** 	}
 280:.\asp\arch\arm_m_gcc\common/core_config.h **** 
 281:.\asp\arch\arm_m_gcc\common/core_config.h **** 	if (!lock_flag) {
 282:.\asp\arch\arm_m_gcc\common/core_config.h **** 		set_basepri(iipm);
 283:.\asp\arch\arm_m_gcc\common/core_config.h **** 	}
 284:.\asp\arch\arm_m_gcc\common/core_config.h **** 	else {
 285:.\asp\arch\arm_m_gcc\common/core_config.h **** 		saved_iipm = iipm;
 286:.\asp\arch\arm_m_gcc\common/core_config.h **** 		/*
 287:.\asp\arch\arm_m_gcc\common/core_config.h **** 		 *  BASEPRIƒŒƒWƒXƒ^‚Í’l‚ª¬‚³‚¢‚Ù‚Ç—Dæ“x‚ª‚‚¢‚ªCIIPM_ENAALL ‚ª
 288:.\asp\arch\arm_m_gcc\common/core_config.h **** 		 *  '0'‚Å‚ ‚é‚½‚ßC’Pƒ‚É—Dæ“x”äŠr‚¾‚¯‚Å‚Í•s\•ª‚Å‚ ‚éD
 289:.\asp\arch\arm_m_gcc\common/core_config.h **** 		 */
 290:.\asp\arch\arm_m_gcc\common/core_config.h **** 		if ((iipm < IIPM_LOCK ) && (IIPM_ENAALL != iipm)) {
 291:.\asp\arch\arm_m_gcc\common/core_config.h **** 			set_basepri(iipm);
 292:.\asp\arch\arm_m_gcc\common/core_config.h **** 		}
 293:.\asp\arch\arm_m_gcc\common/core_config.h **** 		else {
 294:.\asp\arch\arm_m_gcc\common/core_config.h **** 			set_basepri(IIPM_LOCK);
 295:.\asp\arch\arm_m_gcc\common/core_config.h **** 		}
 296:.\asp\arch\arm_m_gcc\common/core_config.h **** 	}
 297:.\asp\arch\arm_m_gcc\common/core_config.h **** }
 298:.\asp\arch\arm_m_gcc\common/core_config.h **** 
 299:.\asp\arch\arm_m_gcc\common/core_config.h **** #define t_set_ipm(intpri)    x_set_ipm(intpri)
 300:.\asp\arch\arm_m_gcc\common/core_config.h **** #define i_set_ipm(intpri)    x_set_ipm(intpri)
 301:.\asp\arch\arm_m_gcc\common/core_config.h **** 
 302:.\asp\arch\arm_m_gcc\common/core_config.h **** /*
 303:.\asp\arch\arm_m_gcc\common/core_config.h ****  * iƒ‚ƒfƒ‹ã‚ÌjŠ„‚İ—Dæ“xƒ}ƒXƒN‚ÌQÆ
 304:.\asp\arch\arm_m_gcc\common/core_config.h ****  *
 305:.\asp\arch\arm_m_gcc\common/core_config.h ****  *  CPUƒƒbƒNƒtƒ‰ƒO‚ªƒNƒŠƒA‚³‚ê‚Ä‚¢‚é‚Íƒn[ƒhƒEƒFƒA‚ÌŠ„‚İ—Dæ“xƒ}
 306:.\asp\arch\arm_m_gcc\common/core_config.h ****  *  ƒXƒN‚ğCƒZƒbƒg‚³‚ê‚Ä‚¢‚é‚Ísaved_iipm‚ğQÆ‚·‚éD
 307:.\asp\arch\arm_m_gcc\common/core_config.h ****  */
 308:.\asp\arch\arm_m_gcc\common/core_config.h **** Inline PRI
 309:.\asp\arch\arm_m_gcc\common/core_config.h **** x_get_ipm(void)
ARM GAS  C:\TEMP\ccwY9sv5.s 			page 19


 310:.\asp\arch\arm_m_gcc\common/core_config.h **** {
 311:.\asp\arch\arm_m_gcc\common/core_config.h **** 	uint8_t iipm;
 312:.\asp\arch\arm_m_gcc\common/core_config.h **** 
 313:.\asp\arch\arm_m_gcc\common/core_config.h **** 	if (!lock_flag) {
 183              		.loc 1 313 0
 184 001c 144A     		ldr	r2, .L20+4
 185              	.LBE64:
 186              	.LBE63:
 187              	.LBB68:
 188              	.LBB61:
 105:.\asp\kernel/cyclic.c **** 	p_cyccb->evttim = evttim;
 189              		.loc 3 105 0
 190 001e A560     		str	r5, [r4, #8]
 191              	.LBE61:
 192              	.LBE68:
 193              	.LBB69:
 194              	.LBB67:
 195              		.loc 1 313 0
 196 0020 1368     		ldr	r3, [r2, #0]
 197 0022 13B9     		cbnz	r3, .L10
 198              	.LBB65:
 199              	.LBB66:
 200              		.loc 2 102 0
 201              	@ 102 ".\asp\arch\arm_m_gcc\common/core_insn.h" 1
 202 0024 EFF31185 		mrs  r5, BASEPRI
 203              	@ 0 "" 2
 204              	.LVL10:
 205              		.thumb
 206 0028 01E0     		b	.L19
 207              	.LVL11:
 208              	.L10:
 209              	.LBE66:
 210              	.LBE65:
 314:.\asp\arch\arm_m_gcc\common/core_config.h **** 		iipm = get_basepri();
 315:.\asp\arch\arm_m_gcc\common/core_config.h **** 	}
 316:.\asp\arch\arm_m_gcc\common/core_config.h **** 	else {
 317:.\asp\arch\arm_m_gcc\common/core_config.h **** 		iipm = saved_iipm;
 211              		.loc 1 317 0
 212 002a 1248     		ldr	r0, .L20+8
 213 002c 0568     		ldr	r5, [r0, #0]
 214              	.LVL12:
 215              	.L19:
 216 002e EDB2     		uxtb	r5, r5
 217              	.LVL13:
 318:.\asp\arch\arm_m_gcc\common/core_config.h **** 	}
 319:.\asp\arch\arm_m_gcc\common/core_config.h **** 
 320:.\asp\arch\arm_m_gcc\common/core_config.h **** 	if (iipm == IIPM_ENAALL) {
 218              		.loc 1 320 0
 219 0030 0DB1     		cbz	r5, .L12
 321:.\asp\arch\arm_m_gcc\common/core_config.h **** 		return(TIPM_ENAALL);
 322:.\asp\arch\arm_m_gcc\common/core_config.h **** 	}
 323:.\asp\arch\arm_m_gcc\common/core_config.h **** 	else {
 324:.\asp\arch\arm_m_gcc\common/core_config.h **** 		return(EXT_IPM(iipm));
 220              		.loc 1 324 0
 221 0032 6D09     		lsrs	r5, r5, #5
 222              	.LVL14:
 223 0034 083D     		subs	r5, r5, #8
ARM GAS  C:\TEMP\ccwY9sv5.s 			page 20


 224              	.L12:
 225              	.LBE67:
 226              	.LBE69:
 251:.\asp\kernel/cyclic.c **** 
 252:.\asp\kernel/cyclic.c **** 	/*
 253:.\asp\kernel/cyclic.c **** 	 *  üŠúƒnƒ“ƒhƒ‰‚ğCCPUƒƒbƒN‰ğœó‘Ô‚ÅŒÄ‚Ño‚·D
 254:.\asp\kernel/cyclic.c **** 	 */
 255:.\asp\kernel/cyclic.c **** 	saved_ipm = i_get_ipm();
 256:.\asp\kernel/cyclic.c **** 	i_unlock_cpu();
 227              		.loc 3 256 0
 228 0036 FFF7FEFF 		bl	x_unlock_cpu
 229              	.LVL15:
 257:.\asp\kernel/cyclic.c **** 
 258:.\asp\kernel/cyclic.c **** 	LOG_CYC_ENTER(p_cyccb);
 259:.\asp\kernel/cyclic.c **** 	(*((CYCHDR)(p_cyccb->p_cycinib->cychdr)))(p_cyccb->p_cycinib->exinf);
 230              		.loc 3 259 0
 231 003a 2468     		ldr	r4, [r4, #0]
 232              	.LVL16:
 233 003c A168     		ldr	r1, [r4, #8]
 234 003e 6068     		ldr	r0, [r4, #4]
 235 0040 8847     		blx	r1
 236              	.LVL17:
 237              	.LBB70:
 238              	.LBB71:
 247:.\asp\arch\arm_m_gcc\common/core_config.h **** 	return(lock_flag);
 239              		.loc 1 247 0
 240 0042 0B4B     		ldr	r3, .L20+4
 241 0044 1A68     		ldr	r2, [r3, #0]
 242 0046 1C46     		mov	r4, r3
 243              	.LBE71:
 244              	.LBE70:
 260:.\asp\kernel/cyclic.c **** 	LOG_CYC_LEAVE(p_cyccb);
 261:.\asp\kernel/cyclic.c **** 
 262:.\asp\kernel/cyclic.c **** 	if (!i_sense_lock()) {
 245              		.loc 3 262 0
 246 0048 0AB9     		cbnz	r2, .L13
 263:.\asp\kernel/cyclic.c **** 		i_lock_cpu();
 247              		.loc 3 263 0
 248 004a FFF7FEFF 		bl	x_lock_cpu
 249              	.LVL18:
 250              	.L13:
 251              	.LBB72:
 252              	.LBB73:
 277:.\asp\arch\arm_m_gcc\common/core_config.h **** 	if (intpri == TIPM_ENAALL){
 253              		.loc 1 277 0
 254 004e 15B1     		cbz	r5, .L14
 275:.\asp\arch\arm_m_gcc\common/core_config.h **** 	uint8_t   iipm = INT_IPM(intpri);
 255              		.loc 1 275 0
 256 0050 6801     		lsls	r0, r5, #5
 257 0052 00F0E005 		and	r5, r0, #224
 258              	.LVL19:
 259              	.L14:
 281:.\asp\arch\arm_m_gcc\common/core_config.h **** 	if (!lock_flag) {
 260              		.loc 1 281 0
 261 0056 2168     		ldr	r1, [r4, #0]
 262 0058 11B9     		cbnz	r1, .L15
 263              	.LVL20:
ARM GAS  C:\TEMP\ccwY9sv5.s 			page 21


 264              	.LBB74:
 265              	.LBB75:
  93:.\asp\arch\arm_m_gcc\common/core_insn.h **** 	Asm("msr BASEPRI, %0" : : "r"(val) : "memory");
 266              		.loc 2 93 0
 267              	@ 93 ".\asp\arch\arm_m_gcc\common/core_insn.h" 1
 268 005a 85F31188 		msr BASEPRI, r5
 269              	@ 0 "" 2
 270              		.thumb
 271 005e 38BD     		pop	{r3, r4, r5, pc}
 272              	.LVL21:
 273              	.L15:
 274              	.LBE75:
 275              	.LBE74:
 285:.\asp\arch\arm_m_gcc\common/core_config.h **** 		saved_iipm = iipm;
 276              		.loc 1 285 0
 277 0060 044B     		ldr	r3, .L20+8
 278              	.LBB76:
 279              	.LBB77:
  93:.\asp\arch\arm_m_gcc\common/core_insn.h **** 	Asm("msr BASEPRI, %0" : : "r"(val) : "memory");
 280              		.loc 2 93 0
 281 0062 2022     		movs	r2, #32
 282              	.LBE77:
 283              	.LBE76:
 285:.\asp\arch\arm_m_gcc\common/core_config.h **** 		saved_iipm = iipm;
 284              		.loc 1 285 0
 285 0064 1D60     		str	r5, [r3, #0]
 286              	.LVL22:
 287              	.LBB79:
 288              	.LBB78:
  93:.\asp\arch\arm_m_gcc\common/core_insn.h **** 	Asm("msr BASEPRI, %0" : : "r"(val) : "memory");
 289              		.loc 2 93 0
 290              	@ 93 ".\asp\arch\arm_m_gcc\common/core_insn.h" 1
 291 0066 82F31188 		msr BASEPRI, r2
 292              	@ 0 "" 2
 293              		.thumb
 294 006a 38BD     		pop	{r3, r4, r5, pc}
 295              	.L21:
 296              		.align	2
 297              	.L20:
 298 006c 00000000 		.word	_kernel_call_cychdr
 299 0070 00000000 		.word	_kernel_lock_flag
 300 0074 00000000 		.word	_kernel_saved_iipm
 301              	.LBE78:
 302              	.LBE79:
 303              	.LBE73:
 304              	.LBE72:
 305              		.cfi_endproc
 306              	.LFE52:
 307              		.size	_kernel_call_cychdr, .-_kernel_call_cychdr
 308              		.section	.text._kernel_initialize_cyclic,"ax",%progbits
 309              		.align	1
 310              		.global	_kernel_initialize_cyclic
 311              		.thumb
 312              		.thumb_func
 313              		.type	_kernel_initialize_cyclic, %function
 314              	_kernel_initialize_cyclic:
 315              	.LFB48:
ARM GAS  C:\TEMP\ccwY9sv5.s 			page 22


 115:.\asp\kernel/cyclic.c **** {
 316              		.loc 3 115 0
 317              		.cfi_startproc
 318              		@ args = 0, pretend = 0, frame = 0
 319              		@ frame_needed = 0, uses_anonymous_args = 0
 320              	.LVL23:
 321 0000 70B5     		push	{r4, r5, r6, lr}
 322              	.LCFI1:
 323              		.cfi_def_cfa_offset 16
 324              		.cfi_offset 4, -16
 325              		.cfi_offset 5, -12
 326              		.cfi_offset 6, -8
 327              		.cfi_offset 14, -4
 119:.\asp\kernel/cyclic.c **** 	for (i = 0; i < tnum_cyc; i++) {
 328              		.loc 3 119 0
 329 0002 0025     		movs	r5, #0
 330              	.LVL24:
 331              	.L23:
 119:.\asp\kernel/cyclic.c **** 	for (i = 0; i < tnum_cyc; i++) {
 332              		.loc 3 119 0 is_stmt 0 discriminator 1
 333 0004 104B     		ldr	r3, .L28
 334 0006 1868     		ldr	r0, [r3, #0]
 335 0008 8542     		cmp	r5, r0
 336 000a 1CD2     		bcs	.L27
 337              	.L26:
 121:.\asp\kernel/cyclic.c **** 		p_cyccb->p_cycinib = &(cycinib_table[i]);
 338              		.loc 3 121 0 is_stmt 1
 339 000c 1421     		movs	r1, #20
 340 000e 6943     		muls	r1, r5, r1
 120:.\asp\kernel/cyclic.c **** 		p_cyccb = &(cyccb_table[i]);
 341              		.loc 3 120 0
 342 0010 1826     		movs	r6, #24
 343 0012 6E43     		muls	r6, r5, r6
 121:.\asp\kernel/cyclic.c **** 		p_cyccb->p_cycinib = &(cycinib_table[i]);
 344              		.loc 3 121 0
 345 0014 0D4A     		ldr	r2, .L28+4
 120:.\asp\kernel/cyclic.c **** 		p_cyccb = &(cyccb_table[i]);
 346              		.loc 3 120 0
 347 0016 0E48     		ldr	r0, .L28+8
 121:.\asp\kernel/cyclic.c **** 		p_cyccb->p_cycinib = &(cycinib_table[i]);
 348              		.loc 3 121 0
 349 0018 8B18     		adds	r3, r1, r2
 120:.\asp\kernel/cyclic.c **** 		p_cyccb = &(cyccb_table[i]);
 350              		.loc 3 120 0
 351 001a 3418     		adds	r4, r6, r0
 352              	.LVL25:
 121:.\asp\kernel/cyclic.c **** 		p_cyccb->p_cycinib = &(cycinib_table[i]);
 353              		.loc 3 121 0
 354 001c 3350     		str	r3, [r6, r0]
 122:.\asp\kernel/cyclic.c **** 		if ((p_cyccb->p_cycinib->cycatr & TA_STA) != 0U) {
 355              		.loc 3 122 0
 356 001e 8858     		ldr	r0, [r1, r2]
 357 0020 10F00201 		ands	r1, r0, #2
 358 0024 0CD0     		beq	.L24
 123:.\asp\kernel/cyclic.c **** 			p_cyccb->cycsta = true;
 359              		.loc 3 123 0
 360 0026 0126     		movs	r6, #1
ARM GAS  C:\TEMP\ccwY9sv5.s 			page 23


 361 0028 6660     		str	r6, [r4, #4]
 362              	.LBB84:
 363              	.LBB85:
 364              	.LBB86:
 365              	.LBB87:
 176:.\asp\kernel/time_event.h **** 	p_tmevtb->callback = callback;
 366              		.loc 4 176 0
 367 002a 0A4A     		ldr	r2, .L28+12
 368              	.LBE87:
 369              	.LBE86:
 370              	.LBE85:
 371              	.LBE84:
 124:.\asp\kernel/cyclic.c **** 			tmevtb_enqueue_cyc(p_cyccb, (EVTTIM)(p_cyccb->p_cycinib->cycphs));
 372              		.loc 3 124 0
 373 002c 1E69     		ldr	r6, [r3, #16]
 374              	.LVL26:
 375              	.LBB91:
 376              	.LBB90:
 377              	.LBB89:
 378              	.LBB88:
 176:.\asp\kernel/time_event.h **** 	p_tmevtb->callback = callback;
 379              		.loc 4 176 0
 380 002e 2261     		str	r2, [r4, #16]
 177:.\asp\kernel/time_event.h **** 	p_tmevtb->arg = arg;
 381              		.loc 4 177 0
 382 0030 6461     		str	r4, [r4, #20]
 383              		.loc 4 178 0
 384 0032 04F10C00 		add	r0, r4, #12
 385              	.LVL27:
 386 0036 3146     		mov	r1, r6
 387 0038 FFF7FEFF 		bl	_kernel_tmevtb_insert
 388              	.LVL28:
 389              	.LBE88:
 390              	.LBE89:
 105:.\asp\kernel/cyclic.c **** 	p_cyccb->evttim = evttim;
 391              		.loc 3 105 0
 392 003c A660     		str	r6, [r4, #8]
 393 003e 00E0     		b	.L25
 394              	.LVL29:
 395              	.L24:
 396              	.LBE90:
 397              	.LBE91:
 127:.\asp\kernel/cyclic.c **** 			p_cyccb->cycsta = false;
 398              		.loc 3 127 0
 399 0040 6160     		str	r1, [r4, #4]
 400              	.L25:
 119:.\asp\kernel/cyclic.c **** 	for (i = 0; i < tnum_cyc; i++) {
 401              		.loc 3 119 0
 402 0042 0135     		adds	r5, r5, #1
 403              	.LVL30:
 404 0044 DEE7     		b	.L23
 405              	.LVL31:
 406              	.L27:
 130:.\asp\kernel/cyclic.c **** }
 407              		.loc 3 130 0
 408 0046 70BD     		pop	{r4, r5, r6, pc}
 409              	.L29:
ARM GAS  C:\TEMP\ccwY9sv5.s 			page 24


 410              		.align	2
 411              	.L28:
 412 0048 00000000 		.word	_kernel_tmax_cycid
 413 004c 00000000 		.word	_kernel_cycinib_table
 414 0050 00000000 		.word	_kernel_cyccb_table
 415 0054 00000000 		.word	_kernel_call_cychdr
 416              		.cfi_endproc
 417              	.LFE48:
 418              		.size	_kernel_initialize_cyclic, .-_kernel_initialize_cyclic
 419              		.section	.text.sta_cyc,"ax",%progbits
 420              		.align	1
 421              		.global	sta_cyc
 422              		.thumb
 423              		.thumb_func
 424              		.type	sta_cyc, %function
 425              	sta_cyc:
 426              	.LFB49:
 141:.\asp\kernel/cyclic.c **** {
 427              		.loc 3 141 0
 428              		.cfi_startproc
 429              		@ args = 0, pretend = 0, frame = 0
 430              		@ frame_needed = 0, uses_anonymous_args = 0
 431              	.LVL32:
 432 0000 70B5     		push	{r4, r5, r6, lr}
 433              	.LCFI2:
 434              		.cfi_def_cfa_offset 16
 435              		.cfi_offset 4, -16
 436              		.cfi_offset 5, -12
 437              		.cfi_offset 6, -8
 438              		.cfi_offset 14, -4
 439              	.LBB104:
 440              	.LBB105:
 441              	.LBB106:
 442              	.LBB107:
 103:.\asp\arch\arm_m_gcc\common/core_insn.h **** 	return(val);
 104:.\asp\arch\arm_m_gcc\common/core_insn.h **** }
 105:.\asp\arch\arm_m_gcc\common/core_insn.h **** 
 106:.\asp\arch\arm_m_gcc\common/core_insn.h **** /*
 107:.\asp\arch\arm_m_gcc\common/core_insn.h ****  *  CONTROL‚ÌƒZƒbƒg
 108:.\asp\arch\arm_m_gcc\common/core_insn.h ****  */
 109:.\asp\arch\arm_m_gcc\common/core_insn.h **** Inline void
 110:.\asp\arch\arm_m_gcc\common/core_insn.h **** set_control(uint32_t val){
 111:.\asp\arch\arm_m_gcc\common/core_insn.h **** 	/*
 112:.\asp\arch\arm_m_gcc\common/core_insn.h **** 	 *  controlƒŒƒWƒXƒ^ƒZƒbƒgŒã‚É‚Íisb‚ª•K{
 113:.\asp\arch\arm_m_gcc\common/core_insn.h **** 	 *  [ARMv7-M Architecture Reference Manaual(DDI0403B) A3-37]
 114:.\asp\arch\arm_m_gcc\common/core_insn.h **** 	 */
 115:.\asp\arch\arm_m_gcc\common/core_insn.h **** 	Asm("msr control, %0 \n"
 116:.\asp\arch\arm_m_gcc\common/core_insn.h **** 		" isb"
 117:.\asp\arch\arm_m_gcc\common/core_insn.h **** 		: : "r"(val) : "memory");
 118:.\asp\arch\arm_m_gcc\common/core_insn.h **** }
 119:.\asp\arch\arm_m_gcc\common/core_insn.h **** 
 120:.\asp\arch\arm_m_gcc\common/core_insn.h **** /*
 121:.\asp\arch\arm_m_gcc\common/core_insn.h ****  *  CONTROL‚Ìæ“¾
 122:.\asp\arch\arm_m_gcc\common/core_insn.h ****  */
 123:.\asp\arch\arm_m_gcc\common/core_insn.h **** Inline uint32_t
 124:.\asp\arch\arm_m_gcc\common/core_insn.h **** get_control(void){
 125:.\asp\arch\arm_m_gcc\common/core_insn.h **** 	uint32_t val;
ARM GAS  C:\TEMP\ccwY9sv5.s 			page 25


 126:.\asp\arch\arm_m_gcc\common/core_insn.h **** 	Asm("mrs  %0, CONTROL" : "=r"(val));
 443              		.loc 2 126 0
 444              	@ 126 ".\asp\arch\arm_m_gcc\common/core_insn.h" 1
 445 0002 EFF31483 		mrs  r3, CONTROL
 446              	@ 0 "" 2
 447              	.LVL33:
 448              		.thumb
 449              	.LBE107:
 450              	.LBE106:
 103:.\asp\arch\arm_m_gcc\common/core_config.h **** 	if ((get_control() & CONTROL_PSP) == CONTROL_PSP){
 451              		.loc 1 103 0
 452 0006 9B07     		lsls	r3, r3, #30
 453              	.LVL34:
 454 0008 02D5     		bpl	.L38
 455              	.L31:
 456              	.LBE105:
 457              	.LBE104:
 458              	.LBB108:
 459              	.LBB109:
 247:.\asp\arch\arm_m_gcc\common/core_config.h **** 	return(lock_flag);
 460              		.loc 1 247 0
 461 000a 1849     		ldr	r1, .L41
 462 000c 0A68     		ldr	r2, [r1, #0]
 463              	.LBE109:
 464              	.LBE108:
 146:.\asp\kernel/cyclic.c **** 	CHECK_TSKCTX_UNL();
 465              		.loc 3 146 0
 466 000e 12B1     		cbz	r2, .L40
 467              	.L38:
 468              	.L32:
 469 0010 6FF01800 		mvn	r0, #24
 470              	.LVL35:
 471 0014 70BD     		pop	{r4, r5, r6, pc}
 472              	.LVL36:
 473              	.L40:
 147:.\asp\kernel/cyclic.c **** 	CHECK_CYCID(cycid);
 474              		.loc 3 147 0
 475 0016 0028     		cmp	r0, #0
 476 0018 25DD     		ble	.L37
 147:.\asp\kernel/cyclic.c **** 	CHECK_CYCID(cycid);
 477              		.loc 3 147 0 is_stmt 0 discriminator 2
 478 001a 154B     		ldr	r3, .L41+4
 479 001c 1968     		ldr	r1, [r3, #0]
 480 001e 8842     		cmp	r0, r1
 481 0020 21DC     		bgt	.L37
 148:.\asp\kernel/cyclic.c **** 	p_cyccb = get_cyccb(cycid);
 482              		.loc 3 148 0 is_stmt 1
 483 0022 0138     		subs	r0, r0, #1
 484              	.LVL37:
 485 0024 1826     		movs	r6, #24
 486 0026 4643     		muls	r6, r0, r6
 487 0028 124D     		ldr	r5, .L41+8
 150:.\asp\kernel/cyclic.c **** 	t_lock_cpu();
 488              		.loc 3 150 0
 489 002a FFF7FEFF 		bl	x_lock_cpu
 490              	.LVL38:
 148:.\asp\kernel/cyclic.c **** 	p_cyccb = get_cyccb(cycid);
ARM GAS  C:\TEMP\ccwY9sv5.s 			page 26


 491              		.loc 3 148 0
 492 002e 7419     		adds	r4, r6, r5
 493              	.LVL39:
 151:.\asp\kernel/cyclic.c **** 	if (p_cyccb->cycsta) {
 494              		.loc 3 151 0
 495 0030 6268     		ldr	r2, [r4, #4]
 496 0032 22B1     		cbz	r2, .L33
 497              	.LVL40:
 498              	.LBB110:
 499              	.LBB111:
 179:.\asp\kernel/time_event.h **** }
 180:.\asp\kernel/time_event.h **** 
 181:.\asp\kernel/time_event.h **** /*
 182:.\asp\kernel/time_event.h ****  *  ƒ^ƒCƒ€ƒCƒxƒ“ƒgƒuƒƒbƒN‚Ì“o˜^‰ğœ
 183:.\asp\kernel/time_event.h ****  */
 184:.\asp\kernel/time_event.h **** Inline void
 185:.\asp\kernel/time_event.h **** tmevtb_dequeue(TMEVTB *p_tmevtb)
 186:.\asp\kernel/time_event.h **** {
 187:.\asp\kernel/time_event.h **** 	tmevtb_delete(p_tmevtb);
 500              		.loc 4 187 0
 501 0034 04F10C00 		add	r0, r4, #12
 502              	.LVL41:
 503 0038 FFF7FEFF 		bl	_kernel_tmevtb_delete
 504              	.LVL42:
 505 003c 01E0     		b	.L34
 506              	.LVL43:
 507              	.L33:
 508              	.LBE111:
 509              	.LBE110:
 155:.\asp\kernel/cyclic.c **** 		p_cyccb->cycsta = true;
 510              		.loc 3 155 0
 511 003e 0123     		movs	r3, #1
 512 0040 6360     		str	r3, [r4, #4]
 513              	.L34:
 157:.\asp\kernel/cyclic.c **** 	tmevtb_enqueue_cyc(p_cyccb, base_time + p_cyccb->p_cycinib->cycphs);
 514              		.loc 3 157 0
 515 0042 7159     		ldr	r1, [r6, r5]
 516 0044 0C4D     		ldr	r5, .L41+12
 517 0046 0869     		ldr	r0, [r1, #16]
 518 0048 2A68     		ldr	r2, [r5, #0]
 519              	.LBB112:
 520              	.LBB113:
 521              	.LBB114:
 522              	.LBB115:
 176:.\asp\kernel/time_event.h **** 	p_tmevtb->callback = callback;
 523              		.loc 4 176 0
 524 004a 0C4B     		ldr	r3, .L41+16
 525              	.LBE115:
 526              	.LBE114:
 527              	.LBE113:
 528              	.LBE112:
 157:.\asp\kernel/cyclic.c **** 	tmevtb_enqueue_cyc(p_cyccb, base_time + p_cyccb->p_cycinib->cycphs);
 529              		.loc 3 157 0
 530 004c 8518     		adds	r5, r0, r2
 531              	.LVL44:
 532              	.LBB119:
 533              	.LBB118:
ARM GAS  C:\TEMP\ccwY9sv5.s 			page 27


 534              	.LBB117:
 535              	.LBB116:
 176:.\asp\kernel/time_event.h **** 	p_tmevtb->callback = callback;
 536              		.loc 4 176 0
 537 004e 2361     		str	r3, [r4, #16]
 178:.\asp\kernel/time_event.h **** 	tmevtb_insert(p_tmevtb, time);
 538              		.loc 4 178 0
 539 0050 04F10C00 		add	r0, r4, #12
 540              	.LVL45:
 541 0054 2946     		mov	r1, r5
 177:.\asp\kernel/time_event.h **** 	p_tmevtb->arg = arg;
 542              		.loc 4 177 0
 543 0056 6461     		str	r4, [r4, #20]
 178:.\asp\kernel/time_event.h **** 	tmevtb_insert(p_tmevtb, time);
 544              		.loc 4 178 0
 545 0058 FFF7FEFF 		bl	_kernel_tmevtb_insert
 546              	.LVL46:
 547              	.LBE116:
 548              	.LBE117:
 105:.\asp\kernel/cyclic.c **** 	p_cyccb->evttim = evttim;
 549              		.loc 3 105 0
 550 005c A560     		str	r5, [r4, #8]
 551              	.LVL47:
 552              	.LBE118:
 553              	.LBE119:
 159:.\asp\kernel/cyclic.c **** 	t_unlock_cpu();
 554              		.loc 3 159 0
 555 005e FFF7FEFF 		bl	x_unlock_cpu
 556              	.LVL48:
 158:.\asp\kernel/cyclic.c **** 	ercd = E_OK;
 557              		.loc 3 158 0
 558 0062 0020     		movs	r0, #0
 559 0064 70BD     		pop	{r4, r5, r6, pc}
 560              	.LVL49:
 561              	.L37:
 147:.\asp\kernel/cyclic.c **** 	CHECK_CYCID(cycid);
 562              		.loc 3 147 0
 563 0066 6FF01100 		mvn	r0, #17
 564              	.LVL50:
 565 006a 70BD     		pop	{r4, r5, r6, pc}
 566              	.L42:
 567              		.align	2
 568              	.L41:
 569 006c 00000000 		.word	_kernel_lock_flag
 570 0070 00000000 		.word	_kernel_tmax_cycid
 571 0074 00000000 		.word	_kernel_cyccb_table
 572 0078 00000000 		.word	_kernel_next_time
 573 007c 00000000 		.word	_kernel_call_cychdr
 574              		.cfi_endproc
 575              	.LFE49:
 576              		.size	sta_cyc, .-sta_cyc
 577              		.section	.text.stp_cyc,"ax",%progbits
 578              		.align	1
 579              		.global	stp_cyc
 580              		.thumb
 581              		.thumb_func
 582              		.type	stp_cyc, %function
ARM GAS  C:\TEMP\ccwY9sv5.s 			page 28


 583              	stp_cyc:
 584              	.LFB50:
 175:.\asp\kernel/cyclic.c **** {
 585              		.loc 3 175 0
 586              		.cfi_startproc
 587              		@ args = 0, pretend = 0, frame = 0
 588              		@ frame_needed = 0, uses_anonymous_args = 0
 589              	.LVL51:
 590 0000 38B5     		push	{r3, r4, r5, lr}
 591              	.LCFI3:
 592              		.cfi_def_cfa_offset 16
 593              		.cfi_offset 3, -16
 594              		.cfi_offset 4, -12
 595              		.cfi_offset 5, -8
 596              		.cfi_offset 14, -4
 597              	.LBB128:
 598              	.LBB129:
 599              	.LBB130:
 600              	.LBB131:
 601              		.loc 2 126 0
 602              	@ 126 ".\asp\arch\arm_m_gcc\common/core_insn.h" 1
 603 0002 EFF31483 		mrs  r3, CONTROL
 604              	@ 0 "" 2
 605              	.LVL52:
 606              		.thumb
 607              	.LBE131:
 608              	.LBE130:
 103:.\asp\arch\arm_m_gcc\common/core_config.h **** 	if ((get_control() & CONTROL_PSP) == CONTROL_PSP){
 609              		.loc 1 103 0
 610 0006 9A07     		lsls	r2, r3, #30
 611 0008 02D5     		bpl	.L50
 612              	.L44:
 613              	.LBE129:
 614              	.LBE128:
 615              	.LBB132:
 616              	.LBB133:
 247:.\asp\arch\arm_m_gcc\common/core_config.h **** 	return(lock_flag);
 617              		.loc 1 247 0
 618 000a 1049     		ldr	r1, .L56
 619 000c 0D68     		ldr	r5, [r1, #0]
 620              	.LBE133:
 621              	.LBE132:
 180:.\asp\kernel/cyclic.c **** 	CHECK_TSKCTX_UNL();
 622              		.loc 3 180 0
 623 000e 15B1     		cbz	r5, .L55
 624              	.L50:
 625              	.L45:
 626 0010 6FF01800 		mvn	r0, #24
 627              	.LVL53:
 628 0014 38BD     		pop	{r3, r4, r5, pc}
 629              	.LVL54:
 630              	.L55:
 181:.\asp\kernel/cyclic.c **** 	CHECK_CYCID(cycid);
 631              		.loc 3 181 0
 632 0016 0028     		cmp	r0, #0
 633 0018 15DD     		ble	.L49
 181:.\asp\kernel/cyclic.c **** 	CHECK_CYCID(cycid);
ARM GAS  C:\TEMP\ccwY9sv5.s 			page 29


 634              		.loc 3 181 0 is_stmt 0 discriminator 2
 635 001a 0D4A     		ldr	r2, .L56+4
 636 001c 1368     		ldr	r3, [r2, #0]
 637              	.LVL55:
 638 001e 9842     		cmp	r0, r3
 639 0020 11DC     		bgt	.L49
 182:.\asp\kernel/cyclic.c **** 	p_cyccb = get_cyccb(cycid);
 640              		.loc 3 182 0 is_stmt 1
 641 0022 0C49     		ldr	r1, .L56+8
 642 0024 0138     		subs	r0, r0, #1
 643              	.LVL56:
 644 0026 1824     		movs	r4, #24
 645 0028 04FB0014 		mla	r4, r4, r0, r1
 646              	.LVL57:
 184:.\asp\kernel/cyclic.c **** 	t_lock_cpu();
 647              		.loc 3 184 0
 648 002c FFF7FEFF 		bl	x_lock_cpu
 649              	.LVL58:
 185:.\asp\kernel/cyclic.c **** 	if (p_cyccb->cycsta) {
 650              		.loc 3 185 0
 651 0030 6268     		ldr	r2, [r4, #4]
 652 0032 22B1     		cbz	r2, .L46
 186:.\asp\kernel/cyclic.c **** 		p_cyccb->cycsta = false;
 653              		.loc 3 186 0
 654 0034 6560     		str	r5, [r4, #4]
 655              	.LVL59:
 656              	.LBB134:
 657              	.LBB135:
 658              		.loc 4 187 0
 659 0036 04F10C00 		add	r0, r4, #12
 660              	.LVL60:
 661 003a FFF7FEFF 		bl	_kernel_tmevtb_delete
 662              	.LVL61:
 663              	.L46:
 664              	.LBE135:
 665              	.LBE134:
 190:.\asp\kernel/cyclic.c **** 	t_unlock_cpu();
 666              		.loc 3 190 0
 667 003e FFF7FEFF 		bl	x_unlock_cpu
 668              	.LVL62:
 189:.\asp\kernel/cyclic.c **** 	ercd = E_OK;
 669              		.loc 3 189 0
 670 0042 0020     		movs	r0, #0
 671 0044 38BD     		pop	{r3, r4, r5, pc}
 672              	.LVL63:
 673              	.L49:
 181:.\asp\kernel/cyclic.c **** 	CHECK_CYCID(cycid);
 674              		.loc 3 181 0
 675 0046 6FF01100 		mvn	r0, #17
 676              	.LVL64:
 677 004a 38BD     		pop	{r3, r4, r5, pc}
 678              	.L57:
 679              		.align	2
 680              	.L56:
 681 004c 00000000 		.word	_kernel_lock_flag
 682 0050 00000000 		.word	_kernel_tmax_cycid
 683 0054 00000000 		.word	_kernel_cyccb_table
ARM GAS  C:\TEMP\ccwY9sv5.s 			page 30


 684              		.cfi_endproc
 685              	.LFE50:
 686              		.size	stp_cyc, .-stp_cyc
 687              		.section	.text.ref_cyc,"ax",%progbits
 688              		.align	1
 689              		.global	ref_cyc
 690              		.thumb
 691              		.thumb_func
 692              		.type	ref_cyc, %function
 693              	ref_cyc:
 694              	.LFB51:
 206:.\asp\kernel/cyclic.c **** {
 695              		.loc 3 206 0
 696              		.cfi_startproc
 697              		@ args = 0, pretend = 0, frame = 0
 698              		@ frame_needed = 0, uses_anonymous_args = 0
 699              	.LVL65:
 700 0000 38B5     		push	{r3, r4, r5, lr}
 701              	.LCFI4:
 702              		.cfi_def_cfa_offset 16
 703              		.cfi_offset 3, -16
 704              		.cfi_offset 4, -12
 705              		.cfi_offset 5, -8
 706              		.cfi_offset 14, -4
 206:.\asp\kernel/cyclic.c **** {
 707              		.loc 3 206 0
 708 0002 0C46     		mov	r4, r1
 709              	.LBB142:
 710              	.LBB143:
 711              	.LBB144:
 712              	.LBB145:
 713              		.loc 2 126 0
 714              	@ 126 ".\asp\arch\arm_m_gcc\common/core_insn.h" 1
 715 0004 EFF31483 		mrs  r3, CONTROL
 716              	@ 0 "" 2
 717              	.LVL66:
 718              		.thumb
 719              	.LBE145:
 720              	.LBE144:
 103:.\asp\arch\arm_m_gcc\common/core_config.h **** 	if ((get_control() & CONTROL_PSP) == CONTROL_PSP){
 721              		.loc 1 103 0
 722 0008 9907     		lsls	r1, r3, #30
 723              	.LVL67:
 724 000a 02D5     		bpl	.L66
 725              	.L59:
 726              	.LBE143:
 727              	.LBE142:
 728              	.LBB146:
 729              	.LBB147:
 247:.\asp\arch\arm_m_gcc\common/core_config.h **** 	return(lock_flag);
 730              		.loc 1 247 0
 731 000c 1249     		ldr	r1, .L69
 732 000e 0A68     		ldr	r2, [r1, #0]
 733              	.LBE147:
 734              	.LBE146:
 211:.\asp\kernel/cyclic.c **** 	CHECK_TSKCTX_UNL();
 735              		.loc 3 211 0
ARM GAS  C:\TEMP\ccwY9sv5.s 			page 31


 736 0010 12B1     		cbz	r2, .L68
 737              	.L66:
 738              	.L60:
 739 0012 6FF01800 		mvn	r0, #24
 740              	.LVL68:
 741 0016 38BD     		pop	{r3, r4, r5, pc}
 742              	.LVL69:
 743              	.L68:
 212:.\asp\kernel/cyclic.c **** 	CHECK_CYCID(cycid);
 744              		.loc 3 212 0
 745 0018 0028     		cmp	r0, #0
 746 001a 1ADD     		ble	.L65
 212:.\asp\kernel/cyclic.c **** 	CHECK_CYCID(cycid);
 747              		.loc 3 212 0 is_stmt 0 discriminator 2
 748 001c 0F4B     		ldr	r3, .L69+4
 749              	.LVL70:
 750 001e 1968     		ldr	r1, [r3, #0]
 751 0020 8842     		cmp	r0, r1
 752 0022 16DC     		bgt	.L65
 213:.\asp\kernel/cyclic.c **** 	p_cyccb = get_cyccb(cycid);
 753              		.loc 3 213 0 is_stmt 1
 754 0024 0E4A     		ldr	r2, .L69+8
 755 0026 0138     		subs	r0, r0, #1
 756              	.LVL71:
 757 0028 1825     		movs	r5, #24
 758 002a 05FB0025 		mla	r5, r5, r0, r2
 759              	.LVL72:
 215:.\asp\kernel/cyclic.c **** 	t_lock_cpu();
 760              		.loc 3 215 0
 761 002e FFF7FEFF 		bl	x_lock_cpu
 762              	.LVL73:
 216:.\asp\kernel/cyclic.c **** 	if (p_cyccb->cycsta) {
 763              		.loc 3 216 0
 764 0032 6B68     		ldr	r3, [r5, #4]
 765 0034 3BB1     		cbz	r3, .L61
 217:.\asp\kernel/cyclic.c **** 		pk_rcyc->cycstat = TCYC_STA;
 766              		.loc 3 217 0
 767 0036 0220     		movs	r0, #2
 768 0038 2060     		str	r0, [r4, #0]
 218:.\asp\kernel/cyclic.c **** 		pk_rcyc->lefttim = tmevt_lefttim(&(p_cyccb->tmevtb));
 769              		.loc 3 218 0
 770 003a 05F10C00 		add	r0, r5, #12
 771 003e FFF7FEFF 		bl	_kernel_tmevt_lefttim
 772              	.LVL74:
 773 0042 6060     		str	r0, [r4, #4]
 774 0044 01E0     		b	.L62
 775              	.L61:
 221:.\asp\kernel/cyclic.c **** 		pk_rcyc->cycstat = TCYC_STP;
 776              		.loc 3 221 0
 777 0046 0121     		movs	r1, #1
 778 0048 2160     		str	r1, [r4, #0]
 779              	.L62:
 780              	.LVL75:
 224:.\asp\kernel/cyclic.c **** 	t_unlock_cpu();
 781              		.loc 3 224 0
 782 004a FFF7FEFF 		bl	x_unlock_cpu
 783              	.LVL76:
ARM GAS  C:\TEMP\ccwY9sv5.s 			page 32


 223:.\asp\kernel/cyclic.c **** 	ercd = E_OK;
 784              		.loc 3 223 0
 785 004e 0020     		movs	r0, #0
 786 0050 38BD     		pop	{r3, r4, r5, pc}
 787              	.LVL77:
 788              	.L65:
 212:.\asp\kernel/cyclic.c **** 	CHECK_CYCID(cycid);
 789              		.loc 3 212 0
 790 0052 6FF01100 		mvn	r0, #17
 791              	.LVL78:
 792 0056 38BD     		pop	{r3, r4, r5, pc}
 793              	.L70:
 794              		.align	2
 795              	.L69:
 796 0058 00000000 		.word	_kernel_lock_flag
 797 005c 00000000 		.word	_kernel_tmax_cycid
 798 0060 00000000 		.word	_kernel_cyccb_table
 799              		.cfi_endproc
 800              	.LFE51:
 801              		.size	ref_cyc, .-ref_cyc
 802              		.text
 803              	.Letext0:
 804              		.file 5 ".\\asp\\arch\\gcc/tool_stddef.h"
 805              		.file 6 ".\\asp\\include/t_stddef.h"
 806              		.file 7 ".\\asp\\include/kernel.h"
 807              		.file 8 ".\\asp\\kernel\\cyclic.h"