ARM GAS  C:\TEMP\ccgZdH4l.s 			page 1


   1              		.syntax unified
   2              		.cpu cortex-m3
   3              		.fpu softvfp
   4              		.eabi_attribute 20, 1
   5              		.eabi_attribute 21, 1
   6              		.eabi_attribute 23, 3
   7              		.eabi_attribute 24, 1
   8              		.eabi_attribute 25, 1
   9              		.eabi_attribute 26, 1
  10              		.eabi_attribute 30, 4
  11              		.eabi_attribute 34, 1
  12              		.eabi_attribute 18, 4
  13              		.thumb
  14              		.file	"cyfitter_cfg.c"
  15              		.text
  16              	.Ltext0:
  17              		.cfi_sections	.debug_frame
  18              		.section	.text.SetAnalogRoutingPumps,"ax",%progbits
  19              		.align	1
  20              		.global	SetAnalogRoutingPumps
  21              		.thumb
  22              		.thumb_func
  23              		.type	SetAnalogRoutingPumps, %function
  24              	SetAnalogRoutingPumps:
  25              	.LFB7:
  26              		.file 1 ".\\Generated_Source\\PSoC5\\cyfitter_cfg.c"
   1:.\Generated_Source\PSoC5/cyfitter_cfg.c **** /*******************************************************************************
   2:.\Generated_Source\PSoC5/cyfitter_cfg.c **** * FILENAME: cyfitter_cfg.c
   3:.\Generated_Source\PSoC5/cyfitter_cfg.c **** * PSoC Creator 3.0 Component Pack 7
   4:.\Generated_Source\PSoC5/cyfitter_cfg.c **** *
   5:.\Generated_Source\PSoC5/cyfitter_cfg.c **** * Description:
   6:.\Generated_Source\PSoC5/cyfitter_cfg.c **** * This file is automatically generated by PSoC Creator with device 
   7:.\Generated_Source\PSoC5/cyfitter_cfg.c **** * initialization code.  Except for the user defined sections in
   8:.\Generated_Source\PSoC5/cyfitter_cfg.c **** * CyClockStartupError(), this file should not be modified.
   9:.\Generated_Source\PSoC5/cyfitter_cfg.c **** *
  10:.\Generated_Source\PSoC5/cyfitter_cfg.c **** ********************************************************************************
  11:.\Generated_Source\PSoC5/cyfitter_cfg.c **** * Copyright 2013, Cypress Semiconductor Corporation.  All rights reserved.
  12:.\Generated_Source\PSoC5/cyfitter_cfg.c **** * You may use this file only in accordance with the license, terms, conditions, 
  13:.\Generated_Source\PSoC5/cyfitter_cfg.c **** * disclaimers, and limitations in the end user license agreement accompanying 
  14:.\Generated_Source\PSoC5/cyfitter_cfg.c **** * the software package with which this file was provided.
  15:.\Generated_Source\PSoC5/cyfitter_cfg.c **** ********************************************************************************/
  16:.\Generated_Source\PSoC5/cyfitter_cfg.c **** 
  17:.\Generated_Source\PSoC5/cyfitter_cfg.c **** #include <string.h>
  18:.\Generated_Source\PSoC5/cyfitter_cfg.c **** #include <cytypes.h>
  19:.\Generated_Source\PSoC5/cyfitter_cfg.c **** #include <cydevice_trm.h>
  20:.\Generated_Source\PSoC5/cyfitter_cfg.c **** #include <cyfitter.h>
  21:.\Generated_Source\PSoC5/cyfitter_cfg.c **** #include <CyLib.h>
  22:.\Generated_Source\PSoC5/cyfitter_cfg.c **** #include <cyfitter_cfg.h>
  23:.\Generated_Source\PSoC5/cyfitter_cfg.c **** 
  24:.\Generated_Source\PSoC5/cyfitter_cfg.c **** #define CY_NEED_CYCLOCKSTARTUPERROR 1
  25:.\Generated_Source\PSoC5/cyfitter_cfg.c **** 
  26:.\Generated_Source\PSoC5/cyfitter_cfg.c **** 
  27:.\Generated_Source\PSoC5/cyfitter_cfg.c **** #if defined(__GNUC__) || defined(__ARMCC_VERSION)
  28:.\Generated_Source\PSoC5/cyfitter_cfg.c ****     #define CYPACKED 
  29:.\Generated_Source\PSoC5/cyfitter_cfg.c ****     #define CYPACKED_ATTR __attribute__ ((packed))
  30:.\Generated_Source\PSoC5/cyfitter_cfg.c ****     #define CYALIGNED __attribute__ ((aligned))
  31:.\Generated_Source\PSoC5/cyfitter_cfg.c ****     #define CY_CFG_UNUSED __attribute__ ((unused))
ARM GAS  C:\TEMP\ccgZdH4l.s 			page 2


  32:.\Generated_Source\PSoC5/cyfitter_cfg.c ****     #define CY_CFG_SECTION __attribute__ ((section(".psocinit")))
  33:.\Generated_Source\PSoC5/cyfitter_cfg.c ****     
  34:.\Generated_Source\PSoC5/cyfitter_cfg.c ****     #if defined(__ARMCC_VERSION)
  35:.\Generated_Source\PSoC5/cyfitter_cfg.c ****         #define CY_CFG_MEMORY_BARRIER() __memory_changed()
  36:.\Generated_Source\PSoC5/cyfitter_cfg.c ****     #else
  37:.\Generated_Source\PSoC5/cyfitter_cfg.c ****         #define CY_CFG_MEMORY_BARRIER() __sync_synchronize()
  38:.\Generated_Source\PSoC5/cyfitter_cfg.c ****     #endif
  39:.\Generated_Source\PSoC5/cyfitter_cfg.c ****     
  40:.\Generated_Source\PSoC5/cyfitter_cfg.c **** #elif defined(__ICCARM__)
  41:.\Generated_Source\PSoC5/cyfitter_cfg.c ****     #include <intrinsics.h>
  42:.\Generated_Source\PSoC5/cyfitter_cfg.c **** 
  43:.\Generated_Source\PSoC5/cyfitter_cfg.c ****     #define CYPACKED __packed
  44:.\Generated_Source\PSoC5/cyfitter_cfg.c ****     #define CYPACKED_ATTR 
  45:.\Generated_Source\PSoC5/cyfitter_cfg.c ****     #define CYALIGNED _Pragma("data_alignment=4")
  46:.\Generated_Source\PSoC5/cyfitter_cfg.c ****     #define CY_CFG_UNUSED _Pragma("diag_suppress=Pe177")
  47:.\Generated_Source\PSoC5/cyfitter_cfg.c ****     #define CY_CFG_SECTION _Pragma("location=\".psocinit\"")
  48:.\Generated_Source\PSoC5/cyfitter_cfg.c ****     
  49:.\Generated_Source\PSoC5/cyfitter_cfg.c ****     #define CY_CFG_MEMORY_BARRIER() __DMB()
  50:.\Generated_Source\PSoC5/cyfitter_cfg.c ****     
  51:.\Generated_Source\PSoC5/cyfitter_cfg.c **** #else
  52:.\Generated_Source\PSoC5/cyfitter_cfg.c ****     #error Unsupported toolchain
  53:.\Generated_Source\PSoC5/cyfitter_cfg.c **** #endif
  54:.\Generated_Source\PSoC5/cyfitter_cfg.c **** 
  55:.\Generated_Source\PSoC5/cyfitter_cfg.c **** 
  56:.\Generated_Source\PSoC5/cyfitter_cfg.c **** CY_CFG_UNUSED
  57:.\Generated_Source\PSoC5/cyfitter_cfg.c **** static void CYMEMZERO(void *s, size_t n);
  58:.\Generated_Source\PSoC5/cyfitter_cfg.c **** CY_CFG_UNUSED
  59:.\Generated_Source\PSoC5/cyfitter_cfg.c **** static void CYMEMZERO(void *s, size_t n)
  60:.\Generated_Source\PSoC5/cyfitter_cfg.c **** {
  61:.\Generated_Source\PSoC5/cyfitter_cfg.c **** 	(void)memset(s, 0, n);
  62:.\Generated_Source\PSoC5/cyfitter_cfg.c **** }
  63:.\Generated_Source\PSoC5/cyfitter_cfg.c **** CY_CFG_UNUSED
  64:.\Generated_Source\PSoC5/cyfitter_cfg.c **** static void CYCONFIGCPY(void *dest, const void *src, size_t n);
  65:.\Generated_Source\PSoC5/cyfitter_cfg.c **** CY_CFG_UNUSED
  66:.\Generated_Source\PSoC5/cyfitter_cfg.c **** static void CYCONFIGCPY(void *dest, const void *src, size_t n)
  67:.\Generated_Source\PSoC5/cyfitter_cfg.c **** {
  68:.\Generated_Source\PSoC5/cyfitter_cfg.c **** 	(void)memcpy(dest, src, n);
  69:.\Generated_Source\PSoC5/cyfitter_cfg.c **** }
  70:.\Generated_Source\PSoC5/cyfitter_cfg.c **** CY_CFG_UNUSED
  71:.\Generated_Source\PSoC5/cyfitter_cfg.c **** static void CYCONFIGCPYCODE(void *dest, const void *src, size_t n);
  72:.\Generated_Source\PSoC5/cyfitter_cfg.c **** CY_CFG_UNUSED
  73:.\Generated_Source\PSoC5/cyfitter_cfg.c **** static void CYCONFIGCPYCODE(void *dest, const void *src, size_t n)
  74:.\Generated_Source\PSoC5/cyfitter_cfg.c **** {
  75:.\Generated_Source\PSoC5/cyfitter_cfg.c **** 	(void)memcpy(dest, src, n);
  76:.\Generated_Source\PSoC5/cyfitter_cfg.c **** }
  77:.\Generated_Source\PSoC5/cyfitter_cfg.c **** 
  78:.\Generated_Source\PSoC5/cyfitter_cfg.c **** 
  79:.\Generated_Source\PSoC5/cyfitter_cfg.c **** 
  80:.\Generated_Source\PSoC5/cyfitter_cfg.c **** /* Clock startup error codes                                                   */
  81:.\Generated_Source\PSoC5/cyfitter_cfg.c **** #define CYCLOCKSTART_NO_ERROR    0u
  82:.\Generated_Source\PSoC5/cyfitter_cfg.c **** #define CYCLOCKSTART_XTAL_ERROR  1u
  83:.\Generated_Source\PSoC5/cyfitter_cfg.c **** #define CYCLOCKSTART_32KHZ_ERROR 2u
  84:.\Generated_Source\PSoC5/cyfitter_cfg.c **** #define CYCLOCKSTART_PLL_ERROR   3u
  85:.\Generated_Source\PSoC5/cyfitter_cfg.c **** 
  86:.\Generated_Source\PSoC5/cyfitter_cfg.c **** #ifdef CY_NEED_CYCLOCKSTARTUPERROR
  87:.\Generated_Source\PSoC5/cyfitter_cfg.c **** /*******************************************************************************
  88:.\Generated_Source\PSoC5/cyfitter_cfg.c **** * Function Name: CyClockStartupError
ARM GAS  C:\TEMP\ccgZdH4l.s 			page 3


  89:.\Generated_Source\PSoC5/cyfitter_cfg.c **** ********************************************************************************
  90:.\Generated_Source\PSoC5/cyfitter_cfg.c **** * Summary:
  91:.\Generated_Source\PSoC5/cyfitter_cfg.c **** *  If an error is encountered during clock configuration (crystal startup error,
  92:.\Generated_Source\PSoC5/cyfitter_cfg.c **** *  PLL lock error, etc.), the system will end up here.  Unless reimplemented by
  93:.\Generated_Source\PSoC5/cyfitter_cfg.c **** *  the customer, this function will stop in an infinite loop.
  94:.\Generated_Source\PSoC5/cyfitter_cfg.c **** *
  95:.\Generated_Source\PSoC5/cyfitter_cfg.c **** * Parameters:
  96:.\Generated_Source\PSoC5/cyfitter_cfg.c **** *   void
  97:.\Generated_Source\PSoC5/cyfitter_cfg.c **** *
  98:.\Generated_Source\PSoC5/cyfitter_cfg.c **** * Return:
  99:.\Generated_Source\PSoC5/cyfitter_cfg.c **** *   void
 100:.\Generated_Source\PSoC5/cyfitter_cfg.c **** *
 101:.\Generated_Source\PSoC5/cyfitter_cfg.c **** *******************************************************************************/
 102:.\Generated_Source\PSoC5/cyfitter_cfg.c **** CY_CFG_UNUSED
 103:.\Generated_Source\PSoC5/cyfitter_cfg.c **** static void CyClockStartupError(uint8 errorCode);
 104:.\Generated_Source\PSoC5/cyfitter_cfg.c **** CY_CFG_UNUSED
 105:.\Generated_Source\PSoC5/cyfitter_cfg.c **** static void CyClockStartupError(uint8 errorCode)
 106:.\Generated_Source\PSoC5/cyfitter_cfg.c **** {
 107:.\Generated_Source\PSoC5/cyfitter_cfg.c ****     /* To remove the compiler warning if errorCode not used.                */
 108:.\Generated_Source\PSoC5/cyfitter_cfg.c ****     errorCode = errorCode;
 109:.\Generated_Source\PSoC5/cyfitter_cfg.c **** 
 110:.\Generated_Source\PSoC5/cyfitter_cfg.c ****     /* `#START CyClockStartupError` */
 111:.\Generated_Source\PSoC5/cyfitter_cfg.c **** 
 112:.\Generated_Source\PSoC5/cyfitter_cfg.c ****     /* If we have a clock startup error (bad MHz crystal, PLL lock, etc.),  */
 113:.\Generated_Source\PSoC5/cyfitter_cfg.c ****     /* we will end up here to allow the customer to implement something to  */
 114:.\Generated_Source\PSoC5/cyfitter_cfg.c ****     /* deal with the clock condition.                                       */
 115:.\Generated_Source\PSoC5/cyfitter_cfg.c **** 
 116:.\Generated_Source\PSoC5/cyfitter_cfg.c ****     /* `#END` */
 117:.\Generated_Source\PSoC5/cyfitter_cfg.c **** 
 118:.\Generated_Source\PSoC5/cyfitter_cfg.c ****     /* If nothing else, stop here since the clocks have not started         */
 119:.\Generated_Source\PSoC5/cyfitter_cfg.c ****     /* correctly.                                                           */
 120:.\Generated_Source\PSoC5/cyfitter_cfg.c ****     while(1) {}
 121:.\Generated_Source\PSoC5/cyfitter_cfg.c **** }
 122:.\Generated_Source\PSoC5/cyfitter_cfg.c **** #endif
 123:.\Generated_Source\PSoC5/cyfitter_cfg.c **** 
 124:.\Generated_Source\PSoC5/cyfitter_cfg.c **** #define CY_CFG_BASE_ADDR_COUNT 16u
 125:.\Generated_Source\PSoC5/cyfitter_cfg.c **** CYPACKED typedef struct
 126:.\Generated_Source\PSoC5/cyfitter_cfg.c **** {
 127:.\Generated_Source\PSoC5/cyfitter_cfg.c **** 	uint8 offset;
 128:.\Generated_Source\PSoC5/cyfitter_cfg.c **** 	uint8 value;
 129:.\Generated_Source\PSoC5/cyfitter_cfg.c **** } CYPACKED_ATTR cy_cfg_addrvalue_t;
 130:.\Generated_Source\PSoC5/cyfitter_cfg.c **** 
 131:.\Generated_Source\PSoC5/cyfitter_cfg.c **** #define cy_cfg_addr_table ((const uint32 CYFAR *)0x48000000u)
 132:.\Generated_Source\PSoC5/cyfitter_cfg.c **** #define cy_cfg_data_table ((const cy_cfg_addrvalue_t CYFAR *)0x48000040u)
 133:.\Generated_Source\PSoC5/cyfitter_cfg.c **** 
 134:.\Generated_Source\PSoC5/cyfitter_cfg.c **** /* IOPINS0_3 Address: CYREG_PRT3_DR Size (bytes): 10 */
 135:.\Generated_Source\PSoC5/cyfitter_cfg.c **** #define BS_IOPINS0_3_VAL ((const uint8 CYFAR *)0x480003D4u)
 136:.\Generated_Source\PSoC5/cyfitter_cfg.c **** 
 137:.\Generated_Source\PSoC5/cyfitter_cfg.c **** 
 138:.\Generated_Source\PSoC5/cyfitter_cfg.c **** /*******************************************************************************
 139:.\Generated_Source\PSoC5/cyfitter_cfg.c **** * Function Name: cfg_write_bytes32
 140:.\Generated_Source\PSoC5/cyfitter_cfg.c **** ********************************************************************************
 141:.\Generated_Source\PSoC5/cyfitter_cfg.c **** * Summary:
 142:.\Generated_Source\PSoC5/cyfitter_cfg.c **** *  This function is used for setting up the chip configuration areas that
 143:.\Generated_Source\PSoC5/cyfitter_cfg.c **** *  contain relatively sparse data.
 144:.\Generated_Source\PSoC5/cyfitter_cfg.c **** *
 145:.\Generated_Source\PSoC5/cyfitter_cfg.c **** * Parameters:
ARM GAS  C:\TEMP\ccgZdH4l.s 			page 4


 146:.\Generated_Source\PSoC5/cyfitter_cfg.c **** *   void
 147:.\Generated_Source\PSoC5/cyfitter_cfg.c **** *
 148:.\Generated_Source\PSoC5/cyfitter_cfg.c **** * Return:
 149:.\Generated_Source\PSoC5/cyfitter_cfg.c **** *   void
 150:.\Generated_Source\PSoC5/cyfitter_cfg.c **** *
 151:.\Generated_Source\PSoC5/cyfitter_cfg.c **** *******************************************************************************/
 152:.\Generated_Source\PSoC5/cyfitter_cfg.c **** static void cfg_write_bytes32(const uint32 addr_table[], const cy_cfg_addrvalue_t data_table[]);
 153:.\Generated_Source\PSoC5/cyfitter_cfg.c **** static void cfg_write_bytes32(const uint32 addr_table[], const cy_cfg_addrvalue_t data_table[])
 154:.\Generated_Source\PSoC5/cyfitter_cfg.c **** {
 155:.\Generated_Source\PSoC5/cyfitter_cfg.c **** 	/* For 32-bit little-endian architectures */
 156:.\Generated_Source\PSoC5/cyfitter_cfg.c **** 	uint32 i, j = 0u;
 157:.\Generated_Source\PSoC5/cyfitter_cfg.c **** 	for (i = 0u; i < CY_CFG_BASE_ADDR_COUNT; i++)
 158:.\Generated_Source\PSoC5/cyfitter_cfg.c **** 	{
 159:.\Generated_Source\PSoC5/cyfitter_cfg.c **** 		uint32 baseAddr = addr_table[i];
 160:.\Generated_Source\PSoC5/cyfitter_cfg.c **** 		uint8 count = (uint8)baseAddr;
 161:.\Generated_Source\PSoC5/cyfitter_cfg.c **** 		baseAddr &= 0xFFFFFF00u;
 162:.\Generated_Source\PSoC5/cyfitter_cfg.c **** 		while (count != 0u)
 163:.\Generated_Source\PSoC5/cyfitter_cfg.c **** 		{
 164:.\Generated_Source\PSoC5/cyfitter_cfg.c **** 			CY_SET_XTND_REG8((void CYFAR *)(baseAddr + data_table[j].offset), data_table[j].value);
 165:.\Generated_Source\PSoC5/cyfitter_cfg.c **** 			j++;
 166:.\Generated_Source\PSoC5/cyfitter_cfg.c **** 			count--;
 167:.\Generated_Source\PSoC5/cyfitter_cfg.c **** 		}
 168:.\Generated_Source\PSoC5/cyfitter_cfg.c **** 	}
 169:.\Generated_Source\PSoC5/cyfitter_cfg.c **** }
 170:.\Generated_Source\PSoC5/cyfitter_cfg.c **** 
 171:.\Generated_Source\PSoC5/cyfitter_cfg.c **** /*******************************************************************************
 172:.\Generated_Source\PSoC5/cyfitter_cfg.c **** * Function Name: ClockSetup
 173:.\Generated_Source\PSoC5/cyfitter_cfg.c **** ********************************************************************************
 174:.\Generated_Source\PSoC5/cyfitter_cfg.c **** *
 175:.\Generated_Source\PSoC5/cyfitter_cfg.c **** * Summary:
 176:.\Generated_Source\PSoC5/cyfitter_cfg.c **** *  Performs the initialization of all of the clocks in the device based on the
 177:.\Generated_Source\PSoC5/cyfitter_cfg.c **** *  settings in the Clock tab of the DWR.  This includes enabling the requested
 178:.\Generated_Source\PSoC5/cyfitter_cfg.c **** *  clocks and setting the necessary dividers to produce the desired frequency. 
 179:.\Generated_Source\PSoC5/cyfitter_cfg.c **** *
 180:.\Generated_Source\PSoC5/cyfitter_cfg.c **** * Parameters:
 181:.\Generated_Source\PSoC5/cyfitter_cfg.c **** *  void
 182:.\Generated_Source\PSoC5/cyfitter_cfg.c **** *
 183:.\Generated_Source\PSoC5/cyfitter_cfg.c **** * Return:
 184:.\Generated_Source\PSoC5/cyfitter_cfg.c **** *  void
 185:.\Generated_Source\PSoC5/cyfitter_cfg.c **** *
 186:.\Generated_Source\PSoC5/cyfitter_cfg.c **** *******************************************************************************/
 187:.\Generated_Source\PSoC5/cyfitter_cfg.c **** static void ClockSetup(void);
 188:.\Generated_Source\PSoC5/cyfitter_cfg.c **** static void ClockSetup(void)
 189:.\Generated_Source\PSoC5/cyfitter_cfg.c **** {
 190:.\Generated_Source\PSoC5/cyfitter_cfg.c **** 	uint32 timeout;
 191:.\Generated_Source\PSoC5/cyfitter_cfg.c **** 	uint8 pllLock;
 192:.\Generated_Source\PSoC5/cyfitter_cfg.c **** 
 193:.\Generated_Source\PSoC5/cyfitter_cfg.c **** 
 194:.\Generated_Source\PSoC5/cyfitter_cfg.c **** 	/* Configure Digital Clocks based on settings from Clock DWR */
 195:.\Generated_Source\PSoC5/cyfitter_cfg.c **** 	CY_SET_XTND_REG16((void CYFAR *)(CYREG_CLKDIST_DCFG0_CFG0), 0x009Bu);
 196:.\Generated_Source\PSoC5/cyfitter_cfg.c **** 	CY_SET_XTND_REG8((void CYFAR *)(CYREG_CLKDIST_DCFG0_CFG0 + 0x2u), 0x18u);
 197:.\Generated_Source\PSoC5/cyfitter_cfg.c **** 
 198:.\Generated_Source\PSoC5/cyfitter_cfg.c **** 	/* Configure ILO based on settings from Clock DWR */
 199:.\Generated_Source\PSoC5/cyfitter_cfg.c **** 	CY_SET_XTND_REG8((void CYFAR *)(CYREG_SLOWCLK_ILO_CR0), 0x02u);
 200:.\Generated_Source\PSoC5/cyfitter_cfg.c **** 	CY_SET_XTND_REG8((void CYFAR *)(CYREG_CLKDIST_CR), 0x08u);
 201:.\Generated_Source\PSoC5/cyfitter_cfg.c **** 
 202:.\Generated_Source\PSoC5/cyfitter_cfg.c **** 	/* Configure XTAL based on settings from Clock DWR */
ARM GAS  C:\TEMP\ccgZdH4l.s 			page 5


 203:.\Generated_Source\PSoC5/cyfitter_cfg.c **** 	CY_SET_XTND_REG16((void CYFAR *)(CYREG_FASTCLK_XMHZ_CFG0), 0x3313u);
 204:.\Generated_Source\PSoC5/cyfitter_cfg.c **** 	CY_SET_XTND_REG8((void CYFAR *)(CYREG_FASTCLK_XMHZ_CSR), 0x05u);
 205:.\Generated_Source\PSoC5/cyfitter_cfg.c **** 	/* Wait up to 130000us for the XTAL to lock */
 206:.\Generated_Source\PSoC5/cyfitter_cfg.c **** 	CY_GET_XTND_REG8((void CYFAR *)CYREG_FASTCLK_XMHZ_CSR);
 207:.\Generated_Source\PSoC5/cyfitter_cfg.c **** 	for (timeout = 130000u / 10u; (timeout > 0u) && ((CY_GET_XTND_REG8((void CYFAR *)CYREG_FASTCLK_XMH
 208:.\Generated_Source\PSoC5/cyfitter_cfg.c **** 	{ 
 209:.\Generated_Source\PSoC5/cyfitter_cfg.c **** 		
 210:.\Generated_Source\PSoC5/cyfitter_cfg.c **** 		CyDelayCycles(10u * 48u); /* Delay 10us based on 48MHz clock */
 211:.\Generated_Source\PSoC5/cyfitter_cfg.c **** 	}
 212:.\Generated_Source\PSoC5/cyfitter_cfg.c **** 	if (timeout == 0u)
 213:.\Generated_Source\PSoC5/cyfitter_cfg.c **** 	{
 214:.\Generated_Source\PSoC5/cyfitter_cfg.c **** 		CyClockStartupError(CYCLOCKSTART_XTAL_ERROR);
 215:.\Generated_Source\PSoC5/cyfitter_cfg.c **** 	}
 216:.\Generated_Source\PSoC5/cyfitter_cfg.c **** 
 217:.\Generated_Source\PSoC5/cyfitter_cfg.c **** 	/* Configure PLL based on settings from Clock DWR */
 218:.\Generated_Source\PSoC5/cyfitter_cfg.c **** 	CY_SET_XTND_REG16((void CYFAR *)(CYREG_FASTCLK_PLL_P), 0x0708u);
 219:.\Generated_Source\PSoC5/cyfitter_cfg.c **** 	CY_SET_XTND_REG8((void CYFAR *)(CYREG_CLKDIST_CR), 0x09u);
 220:.\Generated_Source\PSoC5/cyfitter_cfg.c **** 	CY_SET_XTND_REG16((void CYFAR *)(CYREG_FASTCLK_PLL_CFG0), 0x1251u);
 221:.\Generated_Source\PSoC5/cyfitter_cfg.c **** 	/* Wait up to 250us for the PLL to lock */
 222:.\Generated_Source\PSoC5/cyfitter_cfg.c **** 	pllLock = 0u;
 223:.\Generated_Source\PSoC5/cyfitter_cfg.c **** 	for (timeout = 250u / 10u; (timeout > 0u) && (pllLock != 0x03u); timeout--)
 224:.\Generated_Source\PSoC5/cyfitter_cfg.c **** 	{ 
 225:.\Generated_Source\PSoC5/cyfitter_cfg.c **** 		pllLock = 0x03u & ((uint8)((uint8)pllLock << 1) | ((CY_GET_XTND_REG8((void CYFAR *)CYREG_FASTCLK_
 226:.\Generated_Source\PSoC5/cyfitter_cfg.c **** 		CyDelayCycles(10u * 48u); /* Delay 10us based on 48MHz clock */
 227:.\Generated_Source\PSoC5/cyfitter_cfg.c **** 	}
 228:.\Generated_Source\PSoC5/cyfitter_cfg.c **** 	/* If we ran out of time the PLL didn't lock so go to the error function */
 229:.\Generated_Source\PSoC5/cyfitter_cfg.c **** 	if (timeout == 0u)
 230:.\Generated_Source\PSoC5/cyfitter_cfg.c **** 	{
 231:.\Generated_Source\PSoC5/cyfitter_cfg.c **** 		CyClockStartupError(CYCLOCKSTART_PLL_ERROR);
 232:.\Generated_Source\PSoC5/cyfitter_cfg.c **** 	}
 233:.\Generated_Source\PSoC5/cyfitter_cfg.c **** 
 234:.\Generated_Source\PSoC5/cyfitter_cfg.c **** 	/* Configure Bus/Master Clock based on settings from Clock DWR */
 235:.\Generated_Source\PSoC5/cyfitter_cfg.c **** 	CY_SET_XTND_REG16((void CYFAR *)(CYREG_CLKDIST_MSTR0), 0x0100u);
 236:.\Generated_Source\PSoC5/cyfitter_cfg.c **** 
 237:.\Generated_Source\PSoC5/cyfitter_cfg.c **** 	/* Configure IMO based on settings from Clock DWR */
 238:.\Generated_Source\PSoC5/cyfitter_cfg.c **** 	CY_SET_XTND_REG8((void CYFAR *)(CYREG_FASTCLK_IMO_CR), 0x03u);
 239:.\Generated_Source\PSoC5/cyfitter_cfg.c **** 	CY_SET_XTND_REG8((void CYFAR *)(CYREG_IMO_TR1), (CY_GET_XTND_REG8((void CYFAR *)CYREG_FLSHID_CUST_
 240:.\Generated_Source\PSoC5/cyfitter_cfg.c **** 	CY_SET_XTND_REG8((void CYFAR *)(CYREG_CLKDIST_MSTR0), 0x07u);
 241:.\Generated_Source\PSoC5/cyfitter_cfg.c **** 	CY_SET_XTND_REG8((void CYFAR *)(CYREG_CLKDIST_BCFG0), 0x00u);
 242:.\Generated_Source\PSoC5/cyfitter_cfg.c **** 	CY_SET_XTND_REG8((void CYFAR *)(CYREG_CLKDIST_BCFG2), 0x48u);
 243:.\Generated_Source\PSoC5/cyfitter_cfg.c **** 	CY_SET_XTND_REG8((void CYFAR *)(CYREG_CLKDIST_MSTR0), 0x00u);
 244:.\Generated_Source\PSoC5/cyfitter_cfg.c **** 	CY_SET_XTND_REG8((void CYFAR *)(CYREG_CLKDIST_LD), 0x02u);
 245:.\Generated_Source\PSoC5/cyfitter_cfg.c **** 
 246:.\Generated_Source\PSoC5/cyfitter_cfg.c **** 	CY_SET_XTND_REG8((void CYFAR *)(CYREG_PM_ACT_CFG2), ((CY_GET_XTND_REG8((void CYFAR *)CYREG_PM_ACT_
 247:.\Generated_Source\PSoC5/cyfitter_cfg.c **** }
 248:.\Generated_Source\PSoC5/cyfitter_cfg.c **** 
 249:.\Generated_Source\PSoC5/cyfitter_cfg.c **** 
 250:.\Generated_Source\PSoC5/cyfitter_cfg.c **** /* Analog API Functions */
 251:.\Generated_Source\PSoC5/cyfitter_cfg.c **** 
 252:.\Generated_Source\PSoC5/cyfitter_cfg.c **** 
 253:.\Generated_Source\PSoC5/cyfitter_cfg.c **** /*******************************************************************************
 254:.\Generated_Source\PSoC5/cyfitter_cfg.c **** * Function Name: AnalogSetDefault
 255:.\Generated_Source\PSoC5/cyfitter_cfg.c **** ********************************************************************************
 256:.\Generated_Source\PSoC5/cyfitter_cfg.c **** *
 257:.\Generated_Source\PSoC5/cyfitter_cfg.c **** * Summary:
 258:.\Generated_Source\PSoC5/cyfitter_cfg.c **** *  Sets up the analog portions of the chip to default values based on chip
 259:.\Generated_Source\PSoC5/cyfitter_cfg.c **** *  configuration options from the project.
ARM GAS  C:\TEMP\ccgZdH4l.s 			page 6


 260:.\Generated_Source\PSoC5/cyfitter_cfg.c **** *
 261:.\Generated_Source\PSoC5/cyfitter_cfg.c **** * Parameters:
 262:.\Generated_Source\PSoC5/cyfitter_cfg.c **** *  void
 263:.\Generated_Source\PSoC5/cyfitter_cfg.c **** *
 264:.\Generated_Source\PSoC5/cyfitter_cfg.c **** * Return:
 265:.\Generated_Source\PSoC5/cyfitter_cfg.c **** *  void
 266:.\Generated_Source\PSoC5/cyfitter_cfg.c **** *
 267:.\Generated_Source\PSoC5/cyfitter_cfg.c **** *******************************************************************************/
 268:.\Generated_Source\PSoC5/cyfitter_cfg.c **** static void AnalogSetDefault(void);
 269:.\Generated_Source\PSoC5/cyfitter_cfg.c **** static void AnalogSetDefault(void)
 270:.\Generated_Source\PSoC5/cyfitter_cfg.c **** {
 271:.\Generated_Source\PSoC5/cyfitter_cfg.c **** 	uint8 bg_xover_inl_trim = CY_GET_XTND_REG8((void CYFAR *)(CYREG_FLSHID_MFG_CFG_BG_XOVER_INL_TRIM +
 272:.\Generated_Source\PSoC5/cyfitter_cfg.c **** 	CY_SET_XTND_REG8((void CYFAR *)(CYREG_BG_DFT0), (bg_xover_inl_trim & 0x07u));
 273:.\Generated_Source\PSoC5/cyfitter_cfg.c **** 	CY_SET_XTND_REG8((void CYFAR *)(CYREG_BG_DFT1), ((bg_xover_inl_trim >> 4) & 0x0Fu));
 274:.\Generated_Source\PSoC5/cyfitter_cfg.c **** 	CY_SET_XTND_REG8((void CYFAR *)CYREG_PUMP_CR0, 0x44u);
 275:.\Generated_Source\PSoC5/cyfitter_cfg.c **** }
 276:.\Generated_Source\PSoC5/cyfitter_cfg.c **** 
 277:.\Generated_Source\PSoC5/cyfitter_cfg.c **** 
 278:.\Generated_Source\PSoC5/cyfitter_cfg.c **** /*******************************************************************************
 279:.\Generated_Source\PSoC5/cyfitter_cfg.c **** * Function Name: SetAnalogRoutingPumps
 280:.\Generated_Source\PSoC5/cyfitter_cfg.c **** ********************************************************************************
 281:.\Generated_Source\PSoC5/cyfitter_cfg.c **** *
 282:.\Generated_Source\PSoC5/cyfitter_cfg.c **** * Summary:
 283:.\Generated_Source\PSoC5/cyfitter_cfg.c **** * Enables or disables the analog pumps feeding analog routing switches.
 284:.\Generated_Source\PSoC5/cyfitter_cfg.c **** * Intended to be called at startup, based on the Vdda system configuration;
 285:.\Generated_Source\PSoC5/cyfitter_cfg.c **** * may be called during operation when the user informs us that the Vdda voltage
 286:.\Generated_Source\PSoC5/cyfitter_cfg.c **** * crossed the pump threshold.
 287:.\Generated_Source\PSoC5/cyfitter_cfg.c **** *
 288:.\Generated_Source\PSoC5/cyfitter_cfg.c **** * Parameters:
 289:.\Generated_Source\PSoC5/cyfitter_cfg.c **** *  enabled - 1 to enable the pumps, 0 to disable the pumps
 290:.\Generated_Source\PSoC5/cyfitter_cfg.c **** *
 291:.\Generated_Source\PSoC5/cyfitter_cfg.c **** * Return:
 292:.\Generated_Source\PSoC5/cyfitter_cfg.c **** *  void
 293:.\Generated_Source\PSoC5/cyfitter_cfg.c **** *
 294:.\Generated_Source\PSoC5/cyfitter_cfg.c **** *******************************************************************************/
 295:.\Generated_Source\PSoC5/cyfitter_cfg.c **** void SetAnalogRoutingPumps(uint8 enabled)
 296:.\Generated_Source\PSoC5/cyfitter_cfg.c **** {
  27              		.loc 1 296 0
  28              		.cfi_startproc
  29              		@ args = 0, pretend = 0, frame = 0
  30              		@ frame_needed = 0, uses_anonymous_args = 0
  31              		@ link register save eliminated.
  32              	.LVL0:
 297:.\Generated_Source\PSoC5/cyfitter_cfg.c **** 	uint8 regValue = CY_GET_XTND_REG8((void CYFAR *)CYREG_PUMP_CR0);
  33              		.loc 1 297 0
  34 0000 014B     		ldr	r3, .L2
  35 0002 1A78     		ldrb	r2, [r3, #0]	@ zero_extendqisi2
  36              	.LVL1:
 298:.\Generated_Source\PSoC5/cyfitter_cfg.c **** 	if (enabled != 0u)
 299:.\Generated_Source\PSoC5/cyfitter_cfg.c **** 	{
 300:.\Generated_Source\PSoC5/cyfitter_cfg.c **** 		regValue |= 0x00u;
 301:.\Generated_Source\PSoC5/cyfitter_cfg.c **** 	}
 302:.\Generated_Source\PSoC5/cyfitter_cfg.c **** 	else
 303:.\Generated_Source\PSoC5/cyfitter_cfg.c **** 	{
 304:.\Generated_Source\PSoC5/cyfitter_cfg.c **** 		regValue &= (uint8)~0x00u;
 305:.\Generated_Source\PSoC5/cyfitter_cfg.c **** 	}
 306:.\Generated_Source\PSoC5/cyfitter_cfg.c **** 	CY_SET_XTND_REG8((void CYFAR *)CYREG_PUMP_CR0, regValue);
ARM GAS  C:\TEMP\ccgZdH4l.s 			page 7


  37              		.loc 1 306 0
  38 0004 1A70     		strb	r2, [r3, #0]
  39 0006 7047     		bx	lr
  40              	.L3:
  41              		.align	2
  42              	.L2:
  43 0008 76580040 		.word	1073764470
  44              		.cfi_endproc
  45              	.LFE7:
  46              		.size	SetAnalogRoutingPumps, .-SetAnalogRoutingPumps
  47              		.section	.text.cyfitter_cfg,"ax",%progbits
  48              		.align	1
  49              		.global	cyfitter_cfg
  50              		.thumb
  51              		.thumb_func
  52              		.type	cyfitter_cfg, %function
  53              	cyfitter_cfg:
  54              	.LFB8:
 307:.\Generated_Source\PSoC5/cyfitter_cfg.c **** }
 308:.\Generated_Source\PSoC5/cyfitter_cfg.c **** 
 309:.\Generated_Source\PSoC5/cyfitter_cfg.c **** #define CY_AMUX_UNUSED CYREG_BOOST_SR
 310:.\Generated_Source\PSoC5/cyfitter_cfg.c **** 
 311:.\Generated_Source\PSoC5/cyfitter_cfg.c **** 
 312:.\Generated_Source\PSoC5/cyfitter_cfg.c **** /*******************************************************************************
 313:.\Generated_Source\PSoC5/cyfitter_cfg.c **** * Function Name: cyfitter_cfg
 314:.\Generated_Source\PSoC5/cyfitter_cfg.c **** ********************************************************************************
 315:.\Generated_Source\PSoC5/cyfitter_cfg.c **** * Summary:
 316:.\Generated_Source\PSoC5/cyfitter_cfg.c **** *  This function is called by the start-up code for the selected device. It
 317:.\Generated_Source\PSoC5/cyfitter_cfg.c **** *  performs all of the necessary device configuration based on the design
 318:.\Generated_Source\PSoC5/cyfitter_cfg.c **** *  settings.  This includes settings from the Design Wide Resources (DWR) such
 319:.\Generated_Source\PSoC5/cyfitter_cfg.c **** *  as Clocks and Pins as well as any component configuration that is necessary.
 320:.\Generated_Source\PSoC5/cyfitter_cfg.c **** *
 321:.\Generated_Source\PSoC5/cyfitter_cfg.c **** * Parameters:  
 322:.\Generated_Source\PSoC5/cyfitter_cfg.c **** *   void
 323:.\Generated_Source\PSoC5/cyfitter_cfg.c **** *
 324:.\Generated_Source\PSoC5/cyfitter_cfg.c **** * Return:
 325:.\Generated_Source\PSoC5/cyfitter_cfg.c **** *   void
 326:.\Generated_Source\PSoC5/cyfitter_cfg.c **** *
 327:.\Generated_Source\PSoC5/cyfitter_cfg.c **** *******************************************************************************/
 328:.\Generated_Source\PSoC5/cyfitter_cfg.c **** 
 329:.\Generated_Source\PSoC5/cyfitter_cfg.c **** void cyfitter_cfg(void)
 330:.\Generated_Source\PSoC5/cyfitter_cfg.c **** {
  55              		.loc 1 330 0
  56              		.cfi_startproc
  57              		@ args = 0, pretend = 0, frame = 0
  58              		@ frame_needed = 0, uses_anonymous_args = 0
  59 0000 F8B5     		push	{r3, r4, r5, r6, r7, lr}
  60              	.LCFI0:
  61              		.cfi_def_cfa_offset 24
  62              		.cfi_offset 3, -24
  63              		.cfi_offset 4, -20
  64              		.cfi_offset 5, -16
  65              		.cfi_offset 6, -12
  66              		.cfi_offset 7, -8
  67              		.cfi_offset 14, -4
 331:.\Generated_Source\PSoC5/cyfitter_cfg.c **** #ifdef CYGlobalIntDisable
 332:.\Generated_Source\PSoC5/cyfitter_cfg.c **** 	/* Disable interrupts by default. Let user enable if/when they want. */
ARM GAS  C:\TEMP\ccgZdH4l.s 			page 8


 333:.\Generated_Source\PSoC5/cyfitter_cfg.c **** 	CYGlobalIntDisable
  68              		.loc 1 333 0
  69              	@ 333 ".\Generated_Source\PSoC5\cyfitter_cfg.c" 1
  70 0002 72B6     		CPSID   i
  71              	@ 0 "" 2
 334:.\Generated_Source\PSoC5/cyfitter_cfg.c **** #endif
 335:.\Generated_Source\PSoC5/cyfitter_cfg.c **** 
 336:.\Generated_Source\PSoC5/cyfitter_cfg.c **** 	/* Enable/Disable Debug functionality based on settings from System DWR */
 337:.\Generated_Source\PSoC5/cyfitter_cfg.c **** 	CY_SET_XTND_REG8((void CYFAR *)CYREG_MLOGIC_DEBUG, (CY_GET_XTND_REG8((void CYFAR *)CYREG_MLOGIC_DE
  72              		.loc 1 337 0
  73              		.thumb
  74 0004 664B     		ldr	r3, .L29
  75 0006 0024     		movs	r4, #0
  76 0008 1A78     		ldrb	r2, [r3, #0]	@ zero_extendqisi2
  77 000a 42F00400 		orr	r0, r2, #4
  78 000e 1870     		strb	r0, [r3, #0]
  79              	.LVL2:
  80              	.L5:
  81              	.LBB28:
  82              	.LBB29:
 338:.\Generated_Source\PSoC5/cyfitter_cfg.c **** 
 339:.\Generated_Source\PSoC5/cyfitter_cfg.c **** 	{
 340:.\Generated_Source\PSoC5/cyfitter_cfg.c **** 
 341:.\Generated_Source\PSoC5/cyfitter_cfg.c **** 		CYPACKED typedef struct {
 342:.\Generated_Source\PSoC5/cyfitter_cfg.c **** 			void CYFAR *address;
 343:.\Generated_Source\PSoC5/cyfitter_cfg.c **** 			uint16 size;
 344:.\Generated_Source\PSoC5/cyfitter_cfg.c **** 		} CYPACKED_ATTR cfg_memset_t;
 345:.\Generated_Source\PSoC5/cyfitter_cfg.c **** 
 346:.\Generated_Source\PSoC5/cyfitter_cfg.c **** 		static const cfg_memset_t CYCODE cfg_memset_list [] = {
 347:.\Generated_Source\PSoC5/cyfitter_cfg.c **** 			/* address, size */
 348:.\Generated_Source\PSoC5/cyfitter_cfg.c **** 			{(void CYFAR *)(CYREG_PRT0_DR), 48u},
 349:.\Generated_Source\PSoC5/cyfitter_cfg.c **** 			{(void CYFAR *)(CYREG_PRT4_DR), 48u},
 350:.\Generated_Source\PSoC5/cyfitter_cfg.c **** 			{(void CYFAR *)(CYREG_PRT12_DR), 16u},
 351:.\Generated_Source\PSoC5/cyfitter_cfg.c **** 			{(void CYFAR *)(CYREG_PRT15_DR), 16u},
 352:.\Generated_Source\PSoC5/cyfitter_cfg.c **** 			{(void CYFAR *)(CYDEV_UCFG_B0_P0_U0_BASE), 4096u},
 353:.\Generated_Source\PSoC5/cyfitter_cfg.c **** 			{(void CYFAR *)(CYDEV_UCFG_B1_P2_U0_BASE), 2048u},
 354:.\Generated_Source\PSoC5/cyfitter_cfg.c **** 			{(void CYFAR *)(CYDEV_UCFG_DSI0_BASE), 2560u},
 355:.\Generated_Source\PSoC5/cyfitter_cfg.c **** 			{(void CYFAR *)(CYDEV_UCFG_DSI12_BASE), 512u},
 356:.\Generated_Source\PSoC5/cyfitter_cfg.c **** 			{(void CYFAR *)(CYREG_BCTL0_MDCLK_EN), 32u},
 357:.\Generated_Source\PSoC5/cyfitter_cfg.c **** 		};
 358:.\Generated_Source\PSoC5/cyfitter_cfg.c **** 
 359:.\Generated_Source\PSoC5/cyfitter_cfg.c **** 		uint8 CYDATA i;
 360:.\Generated_Source\PSoC5/cyfitter_cfg.c **** 
 361:.\Generated_Source\PSoC5/cyfitter_cfg.c **** 		/* Zero out critical memory blocks before beginning configuration */
 362:.\Generated_Source\PSoC5/cyfitter_cfg.c **** 		for (i = 0u; i < (sizeof(cfg_memset_list)/sizeof(cfg_memset_list[0])); i++)
 363:.\Generated_Source\PSoC5/cyfitter_cfg.c **** 		{
 364:.\Generated_Source\PSoC5/cyfitter_cfg.c **** 			const cfg_memset_t CYCODE * CYDATA ms = &cfg_memset_list[i];
  83              		.loc 1 364 0 discriminator 2
  84 0010 644D     		ldr	r5, .L29+4
  85 0012 0621     		movs	r1, #6
  86 0014 01FB0456 		mla	r6, r1, r4, r5
  87              	.LVL3:
  88              	.LBB30:
  89              	.LBB31:
  61:.\Generated_Source\PSoC5/cyfitter_cfg.c **** 	(void)memset(s, 0, n);
  90              		.loc 1 61 0 discriminator 2
  91 0018 0021     		movs	r1, #0
ARM GAS  C:\TEMP\ccgZdH4l.s 			page 9


  92 001a 3068     		ldr	r0, [r6, #0]	@ unaligned
  93 001c B288     		ldrh	r2, [r6, #4]	@ unaligned
  94 001e 0134     		adds	r4, r4, #1
  95              	.LVL4:
  96 0020 FFF7FEFF 		bl	memset
  97              	.LVL5:
  98              	.LBE31:
  99              	.LBE30:
 100              	.LBE29:
 362:.\Generated_Source\PSoC5/cyfitter_cfg.c **** 		for (i = 0u; i < (sizeof(cfg_memset_list)/sizeof(cfg_memset_list[0])); i++)
 101              		.loc 1 362 0 discriminator 2
 102 0024 092C     		cmp	r4, #9
 103 0026 F3D1     		bne	.L5
 362:.\Generated_Source\PSoC5/cyfitter_cfg.c **** 		for (i = 0u; i < (sizeof(cfg_memset_list)/sizeof(cfg_memset_list[0])); i++)
 104              		.loc 1 362 0 is_stmt 0
 105 0028 5F4A     		ldr	r2, .L29+8
 106 002a 0021     		movs	r1, #0
 107              	.LVL6:
 108              	.L8:
 109              	.LBB32:
 110              	.LBB33:
 111              	.LBB34:
 159:.\Generated_Source\PSoC5/cyfitter_cfg.c **** 		uint32 baseAddr = addr_table[i];
 112              		.loc 1 159 0 is_stmt 1
 113 002c 52F8040F 		ldr	r0, [r2, #4]!
 114              	.LVL7:
 329:.\Generated_Source\PSoC5/cyfitter_cfg.c **** void cyfitter_cfg(void)
 115              		.loc 1 329 0
 116 0030 4F00     		lsls	r7, r1, #1
 160:.\Generated_Source\PSoC5/cyfitter_cfg.c **** 		uint8 count = (uint8)baseAddr;
 117              		.loc 1 160 0
 118 0032 C5B2     		uxtb	r5, r0
 119              	.LVL8:
 161:.\Generated_Source\PSoC5/cyfitter_cfg.c **** 		baseAddr &= 0xFFFFFF00u;
 120              		.loc 1 161 0
 121 0034 20F0FF06 		bic	r6, r0, #255
 122              	.LVL9:
 123              	.LBE34:
 124              	.LBE33:
 125              	.LBE32:
 329:.\Generated_Source\PSoC5/cyfitter_cfg.c **** void cyfitter_cfg(void)
 126              		.loc 1 329 0
 127 0038 0023     		movs	r3, #0
 128              	.LVL10:
 129              	.L6:
 130              	.LBB37:
 131              	.LBB36:
 132              	.LBB35:
 162:.\Generated_Source\PSoC5/cyfitter_cfg.c **** 		while (count != 0u)
 133              		.loc 1 162 0
 134 003a DCB2     		uxtb	r4, r3
 135 003c A542     		cmp	r5, r4
 136 003e 0CD0     		beq	.L27
 137              	.L7:
 329:.\Generated_Source\PSoC5/cyfitter_cfg.c **** void cyfitter_cfg(void)
 138              		.loc 1 329 0
 139 0040 07F19044 		add	r4, r7, #1207959552
ARM GAS  C:\TEMP\ccgZdH4l.s 			page 10


 140 0044 04F1400E 		add	lr, r4, #64
 141 0048 4134     		adds	r4, r4, #65
 164:.\Generated_Source\PSoC5/cyfitter_cfg.c **** 			CY_SET_XTND_REG8((void CYFAR *)(baseAddr + data_table[j].offset), data_table[j].value);
 142              		.loc 1 164 0
 143 004a 1EF813C0 		ldrb	ip, [lr, r3, lsl #1]	@ zero_extendqisi2
 144 004e 14F81340 		ldrb	r4, [r4, r3, lsl #1]	@ zero_extendqisi2
 145 0052 0133     		adds	r3, r3, #1
 146 0054 0CF80640 		strb	r4, [ip, r6]
 147 0058 EFE7     		b	.L6
 148              	.L27:
 329:.\Generated_Source\PSoC5/cyfitter_cfg.c **** void cyfitter_cfg(void)
 149              		.loc 1 329 0
 150 005a C3B2     		uxtb	r3, r0
 151              	.LBE35:
 157:.\Generated_Source\PSoC5/cyfitter_cfg.c **** 	for (i = 0u; i < CY_CFG_BASE_ADDR_COUNT; i++)
 152              		.loc 1 157 0
 153 005c 5348     		ldr	r0, .L29+12
 154 005e C918     		adds	r1, r1, r3
 155              	.LVL11:
 156 0060 8242     		cmp	r2, r0
 157 0062 E3D1     		bne	.L8
 158              	.LBE36:
 159              	.LBE37:
 365:.\Generated_Source\PSoC5/cyfitter_cfg.c **** 			CYMEMZERO(ms->address, (uint32)(ms->size));
 366:.\Generated_Source\PSoC5/cyfitter_cfg.c **** 		}
 367:.\Generated_Source\PSoC5/cyfitter_cfg.c **** 
 368:.\Generated_Source\PSoC5/cyfitter_cfg.c **** 		cfg_write_bytes32(cy_cfg_addr_table, cy_cfg_data_table);
 369:.\Generated_Source\PSoC5/cyfitter_cfg.c **** 
 370:.\Generated_Source\PSoC5/cyfitter_cfg.c **** 		/* Enable digital routing */
 371:.\Generated_Source\PSoC5/cyfitter_cfg.c **** 		CY_SET_XTND_REG8((void CYFAR *)CYREG_BCTL0_BANK_CTL, CY_GET_XTND_REG8((void CYFAR *)CYREG_BCTL0_B
 160              		.loc 1 371 0
 161 0064 524D     		ldr	r5, .L29+16
 372:.\Generated_Source\PSoC5/cyfitter_cfg.c **** 		CY_SET_XTND_REG8((void CYFAR *)CYREG_BCTL1_BANK_CTL, CY_GET_XTND_REG8((void CYFAR *)CYREG_BCTL1_B
 373:.\Generated_Source\PSoC5/cyfitter_cfg.c **** 
 374:.\Generated_Source\PSoC5/cyfitter_cfg.c **** 		/* Enable UDB array */
 375:.\Generated_Source\PSoC5/cyfitter_cfg.c **** 		CY_SET_XTND_REG8((void CYFAR *)CYREG_PM_ACT_CFG0, CY_GET_XTND_REG8((void CYFAR *)CYREG_PM_ACT_CFG
 162              		.loc 1 375 0
 163 0066 5348     		ldr	r0, .L29+20
 371:.\Generated_Source\PSoC5/cyfitter_cfg.c **** 		CY_SET_XTND_REG8((void CYFAR *)CYREG_BCTL0_BANK_CTL, CY_GET_XTND_REG8((void CYFAR *)CYREG_BCTL0_B
 164              		.loc 1 371 0
 165 0068 2A78     		ldrb	r2, [r5, #0]	@ zero_extendqisi2
 166 006a 42F00204 		orr	r4, r2, #2
 167 006e 2C70     		strb	r4, [r5, #0]
 372:.\Generated_Source\PSoC5/cyfitter_cfg.c **** 		CY_SET_XTND_REG8((void CYFAR *)CYREG_BCTL1_BANK_CTL, CY_GET_XTND_REG8((void CYFAR *)CYREG_BCTL1_B
 168              		.loc 1 372 0
 169 0070 2B7C     		ldrb	r3, [r5, #16]	@ zero_extendqisi2
 170 0072 43F00201 		orr	r1, r3, #2
 171              	.LVL12:
 172 0076 2974     		strb	r1, [r5, #16]
 173              		.loc 1 375 0
 174 0078 0578     		ldrb	r5, [r0, #0]	@ zero_extendqisi2
 175 007a 45F04002 		orr	r2, r5, #64
 176 007e 0270     		strb	r2, [r0, #0]
 376:.\Generated_Source\PSoC5/cyfitter_cfg.c **** 		CY_SET_XTND_REG8((void CYFAR *)CYREG_PM_AVAIL_CR2, CY_GET_XTND_REG8((void CYFAR *)CYREG_PM_AVAIL_
 177              		.loc 1 376 0
 178 0080 90F82240 		ldrb	r4, [r0, #34]	@ zero_extendqisi2
 179              	.LBE28:
ARM GAS  C:\TEMP\ccgZdH4l.s 			page 11


 180              	.LBB38:
 181              	.LBB39:
  68:.\Generated_Source\PSoC5/cyfitter_cfg.c **** 	(void)memcpy(dest, src, n);
 182              		.loc 1 68 0
 183 0084 4C4D     		ldr	r5, .L29+24
 184              	.LBE39:
 185              	.LBE38:
 186              	.LBB44:
 187              		.loc 1 376 0
 188 0086 44F01003 		orr	r3, r4, #16
 189 008a 80F82230 		strb	r3, [r0, #34]
 190              	.LVL13:
 191              	.LBE44:
 192              	.LBB45:
 193              	.LBB40:
  68:.\Generated_Source\PSoC5/cyfitter_cfg.c **** 	(void)memcpy(dest, src, n);
 194              		.loc 1 68 0
 195 008e 2968     		ldr	r1, [r5, #0]	@ unaligned
 196 0090 4A48     		ldr	r0, .L29+28
 197              	.LBE40:
 198              	.LBE45:
 377:.\Generated_Source\PSoC5/cyfitter_cfg.c **** 	}
 378:.\Generated_Source\PSoC5/cyfitter_cfg.c **** 
 379:.\Generated_Source\PSoC5/cyfitter_cfg.c **** 	/* Perform second pass device configuration. These items must be configured in specific order afte
 380:.\Generated_Source\PSoC5/cyfitter_cfg.c **** 	CYCONFIGCPY((void CYFAR *)(CYREG_PRT3_DR), (const void CYFAR *)(BS_IOPINS0_3_VAL), 10u);
 381:.\Generated_Source\PSoC5/cyfitter_cfg.c **** 
 382:.\Generated_Source\PSoC5/cyfitter_cfg.c **** 	/* Switch Boost to the precision bandgap reference from its internal reference */
 383:.\Generated_Source\PSoC5/cyfitter_cfg.c **** 	CY_SET_REG8((void CYXDATA *)CYREG_BOOST_CR2, (CY_GET_REG8((void CYXDATA *)CYREG_BOOST_CR2) | 0x08u
 199              		.loc 1 383 0
 200 0092 4B4B     		ldr	r3, .L29+32
 201              	.LBB46:
 202              	.LBB41:
  68:.\Generated_Source\PSoC5/cyfitter_cfg.c **** 	(void)memcpy(dest, src, n);
 203              		.loc 1 68 0
 204 0094 0160     		str	r1, [r0, #0]	@ unaligned
 205 0096 6A68     		ldr	r2, [r5, #4]	@ unaligned
 206              	.LBE41:
 207              	.LBE46:
 384:.\Generated_Source\PSoC5/cyfitter_cfg.c **** 
 385:.\Generated_Source\PSoC5/cyfitter_cfg.c **** 	/* Set Flash Cycles based on max possible frequency in case a glitch occurs during ClockSetup(). *
 386:.\Generated_Source\PSoC5/cyfitter_cfg.c **** 	CY_SET_XTND_REG8((void CYFAR *)(CYREG_CACHE_CC_CTL), (((CYDEV_INSTRUCT_CACHE_ENABLED) != 0) ? 0x01
 208              		.loc 1 386 0
 209 0098 0121     		movs	r1, #1
 210              	.LBB47:
 211              	.LBB42:
  68:.\Generated_Source\PSoC5/cyfitter_cfg.c **** 	(void)memcpy(dest, src, n);
 212              		.loc 1 68 0
 213 009a 4260     		str	r2, [r0, #4]	@ unaligned
 214 009c 2C89     		ldrh	r4, [r5, #8]	@ unaligned
 215              	.LBE42:
 216              	.LBE47:
 217              	.LBB48:
 218              	.LBB49:
 195:.\Generated_Source\PSoC5/cyfitter_cfg.c **** 	CY_SET_XTND_REG16((void CYFAR *)(CYREG_CLKDIST_DCFG0_CFG0), 0x009Bu);
 219              		.loc 1 195 0
 220 009e 9B22     		movs	r2, #155
 221              	.LBE49:
ARM GAS  C:\TEMP\ccgZdH4l.s 			page 12


 222              	.LBE48:
 223              	.LBB53:
 224              	.LBB43:
  68:.\Generated_Source\PSoC5/cyfitter_cfg.c **** 	(void)memcpy(dest, src, n);
 225              		.loc 1 68 0
 226 00a0 0481     		strh	r4, [r0, #8]	@ unaligned
 227              	.LBE43:
 228              	.LBE53:
 383:.\Generated_Source\PSoC5/cyfitter_cfg.c **** 	CY_SET_REG8((void CYXDATA *)CYREG_BOOST_CR2, (CY_GET_REG8((void CYXDATA *)CYREG_BOOST_CR2) | 0x08u
 229              		.loc 1 383 0
 230 00a2 1878     		ldrb	r0, [r3, #0]	@ zero_extendqisi2
 231              		.loc 1 386 0
 232 00a4 474C     		ldr	r4, .L29+36
 383:.\Generated_Source\PSoC5/cyfitter_cfg.c **** 	CY_SET_REG8((void CYXDATA *)CYREG_BOOST_CR2, (CY_GET_REG8((void CYXDATA *)CYREG_BOOST_CR2) | 0x08u
 233              		.loc 1 383 0
 234 00a6 40F00805 		orr	r5, r0, #8
 235 00aa 1D70     		strb	r5, [r3, #0]
 236              	.LBB54:
 237              	.LBB50:
 196:.\Generated_Source\PSoC5/cyfitter_cfg.c **** 	CY_SET_XTND_REG8((void CYFAR *)(CYREG_CLKDIST_DCFG0_CFG0 + 0x2u), 0x18u);
 238              		.loc 1 196 0
 239 00ac 1820     		movs	r0, #24
 240              	.LBE50:
 241              	.LBE54:
 242              		.loc 1 386 0
 243 00ae 2170     		strb	r1, [r4, #0]
 244              	.LBB55:
 245              	.LBB51:
 195:.\Generated_Source\PSoC5/cyfitter_cfg.c **** 	CY_SET_XTND_REG16((void CYFAR *)(CYREG_CLKDIST_DCFG0_CFG0), 0x009Bu);
 246              		.loc 1 195 0
 247 00b0 A4F5F063 		sub	r3, r4, #1920
 199:.\Generated_Source\PSoC5/cyfitter_cfg.c **** 	CY_SET_XTND_REG8((void CYFAR *)(CYREG_SLOWCLK_ILO_CR0), 0x02u);
 248              		.loc 1 199 0
 249 00b4 4449     		ldr	r1, .L29+40
 195:.\Generated_Source\PSoC5/cyfitter_cfg.c **** 	CY_SET_XTND_REG16((void CYFAR *)(CYREG_CLKDIST_DCFG0_CFG0), 0x009Bu);
 250              		.loc 1 195 0
 251 00b6 1A80     		strh	r2, [r3, #0]	@ movhi
 199:.\Generated_Source\PSoC5/cyfitter_cfg.c **** 	CY_SET_XTND_REG8((void CYFAR *)(CYREG_SLOWCLK_ILO_CR0), 0x02u);
 252              		.loc 1 199 0
 253 00b8 0225     		movs	r5, #2
 196:.\Generated_Source\PSoC5/cyfitter_cfg.c **** 	CY_SET_XTND_REG8((void CYFAR *)(CYREG_CLKDIST_DCFG0_CFG0 + 0x2u), 0x18u);
 254              		.loc 1 196 0
 255 00ba 9870     		strb	r0, [r3, #2]
 203:.\Generated_Source\PSoC5/cyfitter_cfg.c **** 	CY_SET_XTND_REG16((void CYFAR *)(CYREG_FASTCLK_XMHZ_CFG0), 0x3313u);
 256              		.loc 1 203 0
 257 00bc 434B     		ldr	r3, .L29+44
 199:.\Generated_Source\PSoC5/cyfitter_cfg.c **** 	CY_SET_XTND_REG8((void CYFAR *)(CYREG_SLOWCLK_ILO_CR0), 0x02u);
 258              		.loc 1 199 0
 259 00be 0D70     		strb	r5, [r1, #0]
 200:.\Generated_Source\PSoC5/cyfitter_cfg.c **** 	CY_SET_XTND_REG8((void CYFAR *)(CYREG_CLKDIST_CR), 0x08u);
 260              		.loc 1 200 0
 261 00c0 0824     		movs	r4, #8
 204:.\Generated_Source\PSoC5/cyfitter_cfg.c **** 	CY_SET_XTND_REG8((void CYFAR *)(CYREG_FASTCLK_XMHZ_CSR), 0x05u);
 262              		.loc 1 204 0
 263 00c2 0525     		movs	r5, #5
 200:.\Generated_Source\PSoC5/cyfitter_cfg.c **** 	CY_SET_XTND_REG8((void CYFAR *)(CYREG_CLKDIST_CR), 0x08u);
 264              		.loc 1 200 0
ARM GAS  C:\TEMP\ccgZdH4l.s 			page 13


 265 00c4 4FF04022 		mov	r2, #1073758208
 203:.\Generated_Source\PSoC5/cyfitter_cfg.c **** 	CY_SET_XTND_REG16((void CYFAR *)(CYREG_FASTCLK_XMHZ_CFG0), 0x3313u);
 266              		.loc 1 203 0
 267 00c8 43F21330 		movw	r0, #13075
 200:.\Generated_Source\PSoC5/cyfitter_cfg.c **** 	CY_SET_XTND_REG8((void CYFAR *)(CYREG_CLKDIST_CR), 0x08u);
 268              		.loc 1 200 0
 269 00cc 1470     		strb	r4, [r2, #0]
 204:.\Generated_Source\PSoC5/cyfitter_cfg.c **** 	CY_SET_XTND_REG8((void CYFAR *)(CYREG_FASTCLK_XMHZ_CSR), 0x05u);
 270              		.loc 1 204 0
 271 00ce 991E     		subs	r1, r3, #2
 203:.\Generated_Source\PSoC5/cyfitter_cfg.c **** 	CY_SET_XTND_REG16((void CYFAR *)(CYREG_FASTCLK_XMHZ_CFG0), 0x3313u);
 272              		.loc 1 203 0
 273 00d0 1880     		strh	r0, [r3, #0]	@ movhi
 204:.\Generated_Source\PSoC5/cyfitter_cfg.c **** 	CY_SET_XTND_REG8((void CYFAR *)(CYREG_FASTCLK_XMHZ_CSR), 0x05u);
 274              		.loc 1 204 0
 275 00d2 03F8025C 		strb	r5, [r3, #-2]
 206:.\Generated_Source\PSoC5/cyfitter_cfg.c **** 	CY_GET_XTND_REG8((void CYFAR *)CYREG_FASTCLK_XMHZ_CSR);
 276              		.loc 1 206 0
 277 00d6 0B78     		ldrb	r3, [r1, #0]	@ zero_extendqisi2
 278              	.LVL14:
 279 00d8 43F2C825 		movw	r5, #13000
 280              	.LVL15:
 281              	.L9:
 207:.\Generated_Source\PSoC5/cyfitter_cfg.c **** 	for (timeout = 130000u / 10u; (timeout > 0u) && ((CY_GET_XTND_REG8((void CYFAR *)CYREG_FASTCLK_XMH
 282              		.loc 1 207 0
 283 00dc 3C4A     		ldr	r2, .L29+48
 284 00de 1078     		ldrb	r0, [r2, #0]	@ zero_extendqisi2
 285 00e0 0306     		lsls	r3, r0, #24
 286 00e2 06D5     		bpl	.L28
 287              	.L11:
 210:.\Generated_Source\PSoC5/cyfitter_cfg.c **** 		CyDelayCycles(10u * 48u); /* Delay 10us based on 48MHz clock */
 288              		.loc 1 210 0
 289 00e4 4FF4F070 		mov	r0, #480
 290 00e8 FFF7FEFF 		bl	CyDelayCycles
 291              	.LVL16:
 207:.\Generated_Source\PSoC5/cyfitter_cfg.c **** 	for (timeout = 130000u / 10u; (timeout > 0u) && ((CY_GET_XTND_REG8((void CYFAR *)CYREG_FASTCLK_XMH
 292              		.loc 1 207 0
 293 00ec 013D     		subs	r5, r5, #1
 294 00ee F5D1     		bne	.L9
 295              	.L10:
 296 00f0 FEE7     		b	.L10
 297              	.L28:
 218:.\Generated_Source\PSoC5/cyfitter_cfg.c **** 	CY_SET_XTND_REG16((void CYFAR *)(CYREG_FASTCLK_PLL_P), 0x0708u);
 298              		.loc 1 218 0
 299 00f2 384B     		ldr	r3, .L29+52
 300 00f4 4FF4E164 		mov	r4, #1800
 219:.\Generated_Source\PSoC5/cyfitter_cfg.c **** 	CY_SET_XTND_REG8((void CYFAR *)(CYREG_CLKDIST_CR), 0x09u);
 301              		.loc 1 219 0
 302 00f8 0925     		movs	r5, #9
 303 00fa 4FF04021 		mov	r1, #1073758208
 220:.\Generated_Source\PSoC5/cyfitter_cfg.c **** 	CY_SET_XTND_REG16((void CYFAR *)(CYREG_FASTCLK_PLL_CFG0), 0x1251u);
 304              		.loc 1 220 0
 305 00fe 41F25122 		movw	r2, #4689
 218:.\Generated_Source\PSoC5/cyfitter_cfg.c **** 	CY_SET_XTND_REG16((void CYFAR *)(CYREG_FASTCLK_PLL_P), 0x0708u);
 306              		.loc 1 218 0
 307 0102 1C80     		strh	r4, [r3, #0]	@ movhi
 219:.\Generated_Source\PSoC5/cyfitter_cfg.c **** 	CY_SET_XTND_REG8((void CYFAR *)(CYREG_CLKDIST_CR), 0x09u);
ARM GAS  C:\TEMP\ccgZdH4l.s 			page 14


 308              		.loc 1 219 0
 309 0104 0D70     		strb	r5, [r1, #0]
 222:.\Generated_Source\PSoC5/cyfitter_cfg.c **** 	pllLock = 0u;
 310              		.loc 1 222 0
 311 0106 0024     		movs	r4, #0
 220:.\Generated_Source\PSoC5/cyfitter_cfg.c **** 	CY_SET_XTND_REG16((void CYFAR *)(CYREG_FASTCLK_PLL_CFG0), 0x1251u);
 312              		.loc 1 220 0
 313 0108 A1F82022 		strh	r2, [r1, #544]	@ movhi
 314              	.LVL17:
 315 010c 1925     		movs	r5, #25
 316              	.LVL18:
 317              	.L14:
 225:.\Generated_Source\PSoC5/cyfitter_cfg.c **** 		pllLock = 0x03u & ((uint8)((uint8)pllLock << 1) | ((CY_GET_XTND_REG8((void CYFAR *)CYREG_FASTCLK_
 318              		.loc 1 225 0
 319 010e 3248     		ldr	r0, .L29+56
 320 0110 0378     		ldrb	r3, [r0, #0]	@ zero_extendqisi2
 226:.\Generated_Source\PSoC5/cyfitter_cfg.c **** 		CyDelayCycles(10u * 48u); /* Delay 10us based on 48MHz clock */
 321              		.loc 1 226 0
 322 0112 4FF4F070 		mov	r0, #480
 225:.\Generated_Source\PSoC5/cyfitter_cfg.c **** 		pllLock = 0x03u & ((uint8)((uint8)pllLock << 1) | ((CY_GET_XTND_REG8((void CYFAR *)CYREG_FASTCLK_
 323              		.loc 1 225 0
 324 0116 03F00101 		and	r1, r3, #1
 325 011a 41EA4404 		orr	r4, r1, r4, lsl #1
 226:.\Generated_Source\PSoC5/cyfitter_cfg.c **** 		CyDelayCycles(10u * 48u); /* Delay 10us based on 48MHz clock */
 326              		.loc 1 226 0
 327 011e FFF7FEFF 		bl	CyDelayCycles
 328              	.LVL19:
 223:.\Generated_Source\PSoC5/cyfitter_cfg.c **** 	for (timeout = 250u / 10u; (timeout > 0u) && (pllLock != 0x03u); timeout--)
 329              		.loc 1 223 0
 330 0122 013D     		subs	r5, r5, #1
 225:.\Generated_Source\PSoC5/cyfitter_cfg.c **** 		pllLock = 0x03u & ((uint8)((uint8)pllLock << 1) | ((CY_GET_XTND_REG8((void CYFAR *)CYREG_FASTCLK_
 331              		.loc 1 225 0
 332 0124 04F00304 		and	r4, r4, #3
 333              	.LVL20:
 223:.\Generated_Source\PSoC5/cyfitter_cfg.c **** 	for (timeout = 250u / 10u; (timeout > 0u) && (pllLock != 0x03u); timeout--)
 334              		.loc 1 223 0
 335 0128 30D0     		beq	.L13
 336 012a 032C     		cmp	r4, #3
 337 012c EFD1     		bne	.L14
 235:.\Generated_Source\PSoC5/cyfitter_cfg.c **** 	CY_SET_XTND_REG16((void CYFAR *)(CYREG_CLKDIST_MSTR0), 0x0100u);
 338              		.loc 1 235 0
 339 012e 2B4B     		ldr	r3, .L29+60
 238:.\Generated_Source\PSoC5/cyfitter_cfg.c **** 	CY_SET_XTND_REG8((void CYFAR *)(CYREG_FASTCLK_IMO_CR), 0x03u);
 340              		.loc 1 238 0
 341 0130 2B48     		ldr	r0, .L29+64
 235:.\Generated_Source\PSoC5/cyfitter_cfg.c **** 	CY_SET_XTND_REG16((void CYFAR *)(CYREG_CLKDIST_MSTR0), 0x0100u);
 342              		.loc 1 235 0
 343 0132 4FF48072 		mov	r2, #256
 239:.\Generated_Source\PSoC5/cyfitter_cfg.c **** 	CY_SET_XTND_REG8((void CYFAR *)(CYREG_IMO_TR1), (CY_GET_XTND_REG8((void CYFAR *)CYREG_FLSHID_CUST_
 344              		.loc 1 239 0
 345 0136 2B49     		ldr	r1, .L29+68
 235:.\Generated_Source\PSoC5/cyfitter_cfg.c **** 	CY_SET_XTND_REG16((void CYFAR *)(CYREG_CLKDIST_MSTR0), 0x0100u);
 346              		.loc 1 235 0
 347 0138 1A80     		strh	r2, [r3, #0]	@ movhi
 238:.\Generated_Source\PSoC5/cyfitter_cfg.c **** 	CY_SET_XTND_REG8((void CYFAR *)(CYREG_FASTCLK_IMO_CR), 0x03u);
 348              		.loc 1 238 0
 349 013a 0470     		strb	r4, [r0, #0]
ARM GAS  C:\TEMP\ccgZdH4l.s 			page 15


 239:.\Generated_Source\PSoC5/cyfitter_cfg.c **** 	CY_SET_XTND_REG8((void CYFAR *)(CYREG_IMO_TR1), (CY_GET_XTND_REG8((void CYFAR *)CYREG_FLSHID_CUST_
 350              		.loc 1 239 0
 351 013c 0878     		ldrb	r0, [r1, #0]	@ zero_extendqisi2
 352 013e 2A4A     		ldr	r2, .L29+72
 240:.\Generated_Source\PSoC5/cyfitter_cfg.c **** 	CY_SET_XTND_REG8((void CYFAR *)(CYREG_CLKDIST_MSTR0), 0x07u);
 353              		.loc 1 240 0
 354 0140 0721     		movs	r1, #7
 239:.\Generated_Source\PSoC5/cyfitter_cfg.c **** 	CY_SET_XTND_REG8((void CYFAR *)(CYREG_IMO_TR1), (CY_GET_XTND_REG8((void CYFAR *)CYREG_FLSHID_CUST_
 355              		.loc 1 239 0
 356 0142 1070     		strb	r0, [r2, #0]
 240:.\Generated_Source\PSoC5/cyfitter_cfg.c **** 	CY_SET_XTND_REG8((void CYFAR *)(CYREG_CLKDIST_MSTR0), 0x07u);
 357              		.loc 1 240 0
 358 0144 1970     		strb	r1, [r3, #0]
 241:.\Generated_Source\PSoC5/cyfitter_cfg.c **** 	CY_SET_XTND_REG8((void CYFAR *)(CYREG_CLKDIST_BCFG0), 0x00u);
 359              		.loc 1 241 0
 360 0146 2949     		ldr	r1, .L29+76
 361 0148 0022     		movs	r2, #0
 242:.\Generated_Source\PSoC5/cyfitter_cfg.c **** 	CY_SET_XTND_REG8((void CYFAR *)(CYREG_CLKDIST_BCFG2), 0x48u);
 362              		.loc 1 242 0
 363 014a 4820     		movs	r0, #72
 241:.\Generated_Source\PSoC5/cyfitter_cfg.c **** 	CY_SET_XTND_REG8((void CYFAR *)(CYREG_CLKDIST_BCFG0), 0x00u);
 364              		.loc 1 241 0
 365 014c 0A70     		strb	r2, [r1, #0]
 242:.\Generated_Source\PSoC5/cyfitter_cfg.c **** 	CY_SET_XTND_REG8((void CYFAR *)(CYREG_CLKDIST_BCFG2), 0x48u);
 366              		.loc 1 242 0
 367 014e 8870     		strb	r0, [r1, #2]
 243:.\Generated_Source\PSoC5/cyfitter_cfg.c **** 	CY_SET_XTND_REG8((void CYFAR *)(CYREG_CLKDIST_MSTR0), 0x00u);
 368              		.loc 1 243 0
 369 0150 1A70     		strb	r2, [r3, #0]
 244:.\Generated_Source\PSoC5/cyfitter_cfg.c **** 	CY_SET_XTND_REG8((void CYFAR *)(CYREG_CLKDIST_LD), 0x02u);
 370              		.loc 1 244 0
 371 0152 0222     		movs	r2, #2
 372 0154 03F8032C 		strb	r2, [r3, #-3]
 246:.\Generated_Source\PSoC5/cyfitter_cfg.c **** 	CY_SET_XTND_REG8((void CYFAR *)(CYREG_PM_ACT_CFG2), ((CY_GET_XTND_REG8((void CYFAR *)CYREG_PM_ACT_
 373              		.loc 1 246 0
 374 0158 254B     		ldr	r3, .L29+80
 375              	.LBE51:
 376              	.LBE55:
 387:.\Generated_Source\PSoC5/cyfitter_cfg.c **** 	/* Setup clocks based on selections from Clock DWR */
 388:.\Generated_Source\PSoC5/cyfitter_cfg.c **** 	ClockSetup();
 389:.\Generated_Source\PSoC5/cyfitter_cfg.c **** 	/* Set Flash Cycles based on newly configured 24.00MHz Bus Clock. */
 390:.\Generated_Source\PSoC5/cyfitter_cfg.c **** 	CY_SET_XTND_REG8((void CYFAR *)(CYREG_CACHE_CC_CTL), (((CYDEV_INSTRUCT_CACHE_ENABLED) != 0) ? 0x81
 377              		.loc 1 390 0
 378 015a 8122     		movs	r2, #129
 379              	.LBB56:
 380              	.LBB52:
 246:.\Generated_Source\PSoC5/cyfitter_cfg.c **** 	CY_SET_XTND_REG8((void CYFAR *)(CYREG_PM_ACT_CFG2), ((CY_GET_XTND_REG8((void CYFAR *)CYREG_PM_ACT_
 381              		.loc 1 246 0
 382 015c 1978     		ldrb	r1, [r3, #0]	@ zero_extendqisi2
 383 015e 41F00100 		orr	r0, r1, #1
 384 0162 1870     		strb	r0, [r3, #0]
 385              	.LBE52:
 386              	.LBE56:
 387              		.loc 1 390 0
 388 0164 174B     		ldr	r3, .L29+36
 391:.\Generated_Source\PSoC5/cyfitter_cfg.c **** 	CY_SET_XTND_REG8((void CYFAR *)(CYREG_PANTHER_WAITPIPE), 0x01u);
 389              		.loc 1 391 0
ARM GAS  C:\TEMP\ccgZdH4l.s 			page 16


 390 0166 2348     		ldr	r0, .L29+84
 390:.\Generated_Source\PSoC5/cyfitter_cfg.c **** 	CY_SET_XTND_REG8((void CYFAR *)(CYREG_CACHE_CC_CTL), (((CYDEV_INSTRUCT_CACHE_ENABLED) != 0) ? 0x81
 391              		.loc 1 390 0
 392 0168 1A70     		strb	r2, [r3, #0]
 393              		.loc 1 391 0
 394 016a 0121     		movs	r1, #1
 395              	.LBB57:
 396              	.LBB58:
 271:.\Generated_Source\PSoC5/cyfitter_cfg.c **** 	uint8 bg_xover_inl_trim = CY_GET_XTND_REG8((void CYFAR *)(CYREG_FLSHID_MFG_CFG_BG_XOVER_INL_TRIM +
 397              		.loc 1 271 0
 398 016c 224A     		ldr	r2, .L29+88
 399              	.LBE58:
 400              	.LBE57:
 401              		.loc 1 391 0
 402 016e 0170     		strb	r1, [r0, #0]
 403              	.LBB60:
 404              	.LBB59:
 271:.\Generated_Source\PSoC5/cyfitter_cfg.c **** 	uint8 bg_xover_inl_trim = CY_GET_XTND_REG8((void CYFAR *)(CYREG_FLSHID_MFG_CFG_BG_XOVER_INL_TRIM +
 405              		.loc 1 271 0
 406 0170 1378     		ldrb	r3, [r2, #0]	@ zero_extendqisi2
 407              	.LVL21:
 272:.\Generated_Source\PSoC5/cyfitter_cfg.c **** 	CY_SET_XTND_REG8((void CYFAR *)(CYREG_BG_DFT0), (bg_xover_inl_trim & 0x07u));
 408              		.loc 1 272 0
 409 0172 2248     		ldr	r0, .L29+92
 410 0174 03F00701 		and	r1, r3, #7
 273:.\Generated_Source\PSoC5/cyfitter_cfg.c **** 	CY_SET_XTND_REG8((void CYFAR *)(CYREG_BG_DFT1), ((bg_xover_inl_trim >> 4) & 0x0Fu));
 411              		.loc 1 273 0
 412 0178 1A09     		lsrs	r2, r3, #4
 274:.\Generated_Source\PSoC5/cyfitter_cfg.c **** 	CY_SET_XTND_REG8((void CYFAR *)CYREG_PUMP_CR0, 0x44u);
 413              		.loc 1 274 0
 414 017a 214B     		ldr	r3, .L29+96
 415              	.LVL22:
 272:.\Generated_Source\PSoC5/cyfitter_cfg.c **** 	CY_SET_XTND_REG8((void CYFAR *)(CYREG_BG_DFT0), (bg_xover_inl_trim & 0x07u));
 416              		.loc 1 272 0
 417 017c 0170     		strb	r1, [r0, #0]
 274:.\Generated_Source\PSoC5/cyfitter_cfg.c **** 	CY_SET_XTND_REG8((void CYFAR *)CYREG_PUMP_CR0, 0x44u);
 418              		.loc 1 274 0
 419 017e 4421     		movs	r1, #68
 273:.\Generated_Source\PSoC5/cyfitter_cfg.c **** 	CY_SET_XTND_REG8((void CYFAR *)(CYREG_BG_DFT1), ((bg_xover_inl_trim >> 4) & 0x0Fu));
 420              		.loc 1 273 0
 421 0180 4270     		strb	r2, [r0, #1]
 274:.\Generated_Source\PSoC5/cyfitter_cfg.c **** 	CY_SET_XTND_REG8((void CYFAR *)CYREG_PUMP_CR0, 0x44u);
 422              		.loc 1 274 0
 423 0182 1970     		strb	r1, [r3, #0]
 424              	.LVL23:
 425              	.LBE59:
 426              	.LBE60:
 427              	.LBB61:
 428              	.LBB62:
  68:.\Generated_Source\PSoC5/cyfitter_cfg.c **** 	(void)memcpy(dest, src, n);
 429              		.loc 1 68 0
 430 0184 1F4A     		ldr	r2, .L29+100
 431 0186 0B4B     		ldr	r3, .L29+20
 432 0188 1F49     		ldr	r1, .L29+104
 433 018a 00E0     		b	.L16
 434              	.LVL24:
 435              	.L13:
ARM GAS  C:\TEMP\ccgZdH4l.s 			page 17


 436 018c FEE7     		b	.L13
 437              	.LVL25:
 438              	.L16:
 439 018e 53F8040B 		ldr	r0, [r3], #4	@ unaligned
 440 0192 8B42     		cmp	r3, r1
 441 0194 42F8040B 		str	r0, [r2], #4	@ unaligned
 442 0198 F9D1     		bne	.L16
 443 019a 1B88     		ldrh	r3, [r3, #0]	@ unaligned
 444 019c 1380     		strh	r3, [r2, #0]	@ unaligned
 445 019e F8BD     		pop	{r3, r4, r5, r6, r7, pc}
 446              	.L30:
 447              		.align	2
 448              	.L29:
 449 01a0 E8460040 		.word	1073759976
 450 01a4 00000000 		.word	.LANCHOR0
 451 01a8 FCFFFF47 		.word	1207959548
 452 01ac 3C000048 		.word	1207959612
 453 01b0 03500140 		.word	1073827843
 454 01b4 A0430040 		.word	1073759136
 455 01b8 D4030048 		.word	1207960532
 456 01bc 30510040 		.word	1073762608
 457 01c0 22430040 		.word	1073759010
 458 01c4 00480040 		.word	1073760256
 459 01c8 00430040 		.word	1073758976
 460 01cc 12420040 		.word	1073758738
 461 01d0 10420040 		.word	1073758736
 462 01d4 22420040 		.word	1073758754
 463 01d8 25420040 		.word	1073758757
 464 01dc 04400040 		.word	1073758212
 465 01e0 00420040 		.word	1073758720
 466 01e4 08010049 		.word	1224737032
 467 01e8 A1460040 		.word	1073759905
 468 01ec 06400040 		.word	1073758214
 469 01f0 A2430040 		.word	1073759138
 470 01f4 04000840 		.word	1074266116
 471 01f8 CF010049 		.word	1224737231
 472 01fc 6E580040 		.word	1073764462
 473 0200 76580040 		.word	1073764470
 474 0204 B0430040 		.word	1073759152
 475 0208 AC430040 		.word	1073759148
 476              	.LBE62:
 477              	.LBE61:
 478              		.cfi_endproc
 479              	.LFE8:
 480              		.size	cyfitter_cfg, .-cyfitter_cfg
 481              		.section	.rodata
 482              		.set	.LANCHOR0,. + 0
 483              		.type	cfg_memset_list.4811, %object
 484              		.size	cfg_memset_list.4811, 54
 485              	cfg_memset_list.4811:
 486 0000 00510040 		.4byte	1073762560
 487 0004 3000     		.2byte	48
 488 0006 40510040 		.4byte	1073762624
 489 000a 3000     		.2byte	48
 490 000c C0510040 		.4byte	1073762752
 491 0010 1000     		.2byte	16
 492 0012 F0510040 		.4byte	1073762800
ARM GAS  C:\TEMP\ccgZdH4l.s 			page 18


 493 0016 1000     		.2byte	16
 494 0018 00000140 		.4byte	1073807360
 495 001c 0010     		.2byte	4096
 496 001e 00140140 		.4byte	1073812480
 497 0022 0008     		.2byte	2048
 498 0024 00400140 		.4byte	1073823744
 499 0028 000A     		.2byte	2560
 500 002a 004C0140 		.4byte	1073826816
 501 002e 0002     		.2byte	512
 502 0030 00500140 		.4byte	1073827840
 503 0034 2000     		.2byte	32
 504              		.text
 505              	.Letext0:
 506              		.file 2 "c:\\program files\\cypress\\psoc creator\\3.0\\psoc creator\\import\\gnu_cs\\arm\\4.7.3\\
 507              		.file 3 "./Generated_Source/PSoC5/cytypes.h"
 508              		.file 4 "./Generated_Source/PSoC5/CyLib.h"