ARM GAS  C:\TEMP\cckvJLfh.s 			page 1


   1              		.syntax unified
   2              		.cpu cortex-m3
   3              		.fpu softvfp
   4              		.eabi_attribute 20, 1
   5              		.eabi_attribute 21, 1
   6              		.eabi_attribute 23, 3
   7              		.eabi_attribute 24, 1
   8              		.eabi_attribute 25, 1
   9              		.eabi_attribute 26, 1
  10              		.eabi_attribute 30, 4
  11              		.eabi_attribute 34, 1
  12              		.eabi_attribute 18, 4
  13              		.thumb
  14              		.file	"exception.c"
  15              		.text
  16              	.Ltext0:
  17              		.cfi_sections	.debug_frame
  18              		.section	.text._kernel_initialize_exception,"ax",%progbits
  19              		.align	1
  20              		.global	_kernel_initialize_exception
  21              		.thumb
  22              		.thumb_func
  23              		.type	_kernel_initialize_exception, %function
  24              	_kernel_initialize_exception:
  25              	.LFB53:
  26              		.file 1 ".\\asp\\kernel\\exception.c"
   1:.\asp\kernel/exception.c **** /*
   2:.\asp\kernel/exception.c ****  *  TOPPERS/ASP Kernel
   3:.\asp\kernel/exception.c ****  *      Toyohashi Open Platform for Embedded Real-Time Systems/
   4:.\asp\kernel/exception.c ****  *      Advanced Standard Profile Kernel
   5:.\asp\kernel/exception.c ****  * 
   6:.\asp\kernel/exception.c ****  *  Copyright (C) 2000-2003 by Embedded and Real-Time Systems Laboratory
   7:.\asp\kernel/exception.c ****  *                              Toyohashi Univ. of Technology, JAPAN
   8:.\asp\kernel/exception.c ****  *  Copyright (C) 2005-2011 by Embedded and Real-Time Systems Laboratory
   9:.\asp\kernel/exception.c ****  *              Graduate School of Information Science, Nagoya Univ., JAPAN
  10:.\asp\kernel/exception.c ****  * 
  11:.\asp\kernel/exception.c ****  *  ã‹L’˜ìŒ Ò‚ÍCˆÈ‰º‚Ì(1)`(4)‚ÌğŒ‚ğ–‚½‚·ê‡‚ÉŒÀ‚èC–{ƒ\ƒtƒgƒEƒF
  12:.\asp\kernel/exception.c ****  *  ƒAi–{ƒ\ƒtƒgƒEƒFƒA‚ğ‰ü•Ï‚µ‚½‚à‚Ì‚ğŠÜ‚ŞDˆÈ‰º“¯‚¶j‚ğg—pE•¡»E‰ü
  13:.\asp\kernel/exception.c ****  *  •ÏEÄ”z•ziˆÈ‰ºC—˜—p‚ÆŒÄ‚Ôj‚·‚é‚±‚Æ‚ğ–³‚Å‹–‘ø‚·‚éD
  14:.\asp\kernel/exception.c ****  *  (1) –{ƒ\ƒtƒgƒEƒFƒA‚ğƒ\[ƒXƒR[ƒh‚ÌŒ`‚Å—˜—p‚·‚éê‡‚É‚ÍCã‹L‚Ì’˜ì
  15:.\asp\kernel/exception.c ****  *      Œ •\¦C‚±‚Ì—˜—pğŒ‚¨‚æ‚Ñ‰º‹L‚Ì–³•ÛØ‹K’è‚ªC‚»‚Ì‚Ü‚Ü‚ÌŒ`‚Åƒ\[
  16:.\asp\kernel/exception.c ****  *      ƒXƒR[ƒh’†‚ÉŠÜ‚Ü‚ê‚Ä‚¢‚é‚±‚ÆD
  17:.\asp\kernel/exception.c ****  *  (2) –{ƒ\ƒtƒgƒEƒFƒA‚ğCƒ‰ƒCƒuƒ‰ƒŠŒ`®‚È‚ÇC‘¼‚Ìƒ\ƒtƒgƒEƒFƒAŠJ”­‚Ég
  18:.\asp\kernel/exception.c ****  *      —p‚Å‚«‚éŒ`‚ÅÄ”z•z‚·‚éê‡‚É‚ÍCÄ”z•z‚É”º‚¤ƒhƒLƒ…ƒƒ“ƒgi—˜—p
  19:.\asp\kernel/exception.c ****  *      Òƒ}ƒjƒ…ƒAƒ‹‚È‚Çj‚ÉCã‹L‚Ì’˜ìŒ •\¦C‚±‚Ì—˜—pğŒ‚¨‚æ‚Ñ‰º‹L
  20:.\asp\kernel/exception.c ****  *      ‚Ì–³•ÛØ‹K’è‚ğŒfÚ‚·‚é‚±‚ÆD
  21:.\asp\kernel/exception.c ****  *  (3) –{ƒ\ƒtƒgƒEƒFƒA‚ğC‹@Ší‚É‘g‚İ‚Ş‚È‚ÇC‘¼‚Ìƒ\ƒtƒgƒEƒFƒAŠJ”­‚Ég
  22:.\asp\kernel/exception.c ****  *      —p‚Å‚«‚È‚¢Œ`‚ÅÄ”z•z‚·‚éê‡‚É‚ÍCŸ‚Ì‚¢‚¸‚ê‚©‚ÌğŒ‚ğ–‚½‚·‚±
  23:.\asp\kernel/exception.c ****  *      ‚ÆD
  24:.\asp\kernel/exception.c ****  *    (a) Ä”z•z‚É”º‚¤ƒhƒLƒ…ƒƒ“ƒgi—˜—pÒƒ}ƒjƒ…ƒAƒ‹‚È‚Çj‚ÉCã‹L‚Ì’˜
  25:.\asp\kernel/exception.c ****  *        ìŒ •\¦C‚±‚Ì—˜—pğŒ‚¨‚æ‚Ñ‰º‹L‚Ì–³•ÛØ‹K’è‚ğŒfÚ‚·‚é‚±‚ÆD
  26:.\asp\kernel/exception.c ****  *    (b) Ä”z•z‚ÌŒ`‘Ô‚ğC•Ê‚É’è‚ß‚é•û–@‚É‚æ‚Á‚ÄCTOPPERSƒvƒƒWƒFƒNƒg‚É
  27:.\asp\kernel/exception.c ****  *        •ñ‚·‚é‚±‚ÆD
  28:.\asp\kernel/exception.c ****  *  (4) –{ƒ\ƒtƒgƒEƒFƒA‚Ì—˜—p‚É‚æ‚è’¼Ú“I‚Ü‚½‚ÍŠÔÚ“I‚É¶‚¶‚é‚¢‚©‚È‚é‘¹
  29:.\asp\kernel/exception.c ****  *      ŠQ‚©‚ç‚àCã‹L’˜ìŒ Ò‚¨‚æ‚ÑTOPPERSƒvƒƒWƒFƒNƒg‚ğ–ÆÓ‚·‚é‚±‚ÆD
  30:.\asp\kernel/exception.c ****  *      ‚Ü‚½C–{ƒ\ƒtƒgƒEƒFƒA‚Ìƒ†[ƒU‚Ü‚½‚ÍƒGƒ“ƒhƒ†[ƒU‚©‚ç‚Ì‚¢‚©‚È‚é—
  31:.\asp\kernel/exception.c ****  *      —R‚ÉŠî‚Ã‚­¿‹‚©‚ç‚àCã‹L’˜ìŒ Ò‚¨‚æ‚ÑTOPPERSƒvƒƒWƒFƒNƒg‚ğ
ARM GAS  C:\TEMP\cckvJLfh.s 			page 2


  32:.\asp\kernel/exception.c ****  *      –ÆÓ‚·‚é‚±‚ÆD
  33:.\asp\kernel/exception.c ****  * 
  34:.\asp\kernel/exception.c ****  *  –{ƒ\ƒtƒgƒEƒFƒA‚ÍC–³•ÛØ‚Å’ñ‹Ÿ‚³‚ê‚Ä‚¢‚é‚à‚Ì‚Å‚ ‚éDã‹L’˜ìŒ Ò‚¨
  35:.\asp\kernel/exception.c ****  *  ‚æ‚ÑTOPPERSƒvƒƒWƒFƒNƒg‚ÍC–{ƒ\ƒtƒgƒEƒFƒA‚ÉŠÖ‚µ‚ÄC“Á’è‚Ìg—p–Ú“I
  36:.\asp\kernel/exception.c ****  *  ‚É‘Î‚·‚é“K‡«‚àŠÜ‚ß‚ÄC‚¢‚©‚È‚é•ÛØ‚às‚í‚È‚¢D‚Ü‚½C–{ƒ\ƒtƒgƒEƒF
  37:.\asp\kernel/exception.c ****  *  ƒA‚Ì—˜—p‚É‚æ‚è’¼Ú“I‚Ü‚½‚ÍŠÔÚ“I‚É¶‚¶‚½‚¢‚©‚È‚é‘¹ŠQ‚ÉŠÖ‚µ‚Ä‚àC‚»
  38:.\asp\kernel/exception.c ****  *  ‚ÌÓ”C‚ğ•‰‚í‚È‚¢D
  39:.\asp\kernel/exception.c ****  * 
  40:.\asp\kernel/exception.c ****  *  @(#) $Id: exception.c 2133 2011-06-26 03:14:51Z ertl-hiro $
  41:.\asp\kernel/exception.c ****  */
  42:.\asp\kernel/exception.c **** 
  43:.\asp\kernel/exception.c **** /*
  44:.\asp\kernel/exception.c ****  *		CPU—áŠOŠÇ—‹@”\
  45:.\asp\kernel/exception.c ****  */
  46:.\asp\kernel/exception.c **** 
  47:.\asp\kernel/exception.c **** #include "kernel_impl.h"
  48:.\asp\kernel/exception.c **** #include "task.h"
  49:.\asp\kernel/exception.c **** #include "exception.h"
  50:.\asp\kernel/exception.c **** 
  51:.\asp\kernel/exception.c **** /*
  52:.\asp\kernel/exception.c ****  *  ƒgƒŒ[ƒXƒƒOƒ}ƒNƒ‚ÌƒfƒtƒHƒ‹ƒg’è‹`
  53:.\asp\kernel/exception.c ****  */
  54:.\asp\kernel/exception.c **** #ifndef LOG_XSNS_DPN_ENTER
  55:.\asp\kernel/exception.c **** #define LOG_XSNS_DPN_ENTER(p_excinf)
  56:.\asp\kernel/exception.c **** #endif /* LOG_XSNS_DPN_ENTER */
  57:.\asp\kernel/exception.c **** 
  58:.\asp\kernel/exception.c **** #ifndef LOG_XSNS_DPN_LEAVE
  59:.\asp\kernel/exception.c **** #define LOG_XSNS_DPN_LEAVE(state)
  60:.\asp\kernel/exception.c **** #endif /* LOG_XSNS_DPN_LEAVE */
  61:.\asp\kernel/exception.c **** 
  62:.\asp\kernel/exception.c **** #ifndef LOG_XSNS_XPN_ENTER
  63:.\asp\kernel/exception.c **** #define LOG_XSNS_XPN_ENTER(p_excinf)
  64:.\asp\kernel/exception.c **** #endif /* LOG_XSNS_XPN_ENTER */
  65:.\asp\kernel/exception.c **** 
  66:.\asp\kernel/exception.c **** #ifndef LOG_XSNS_XPN_LEAVE
  67:.\asp\kernel/exception.c **** #define LOG_XSNS_XPN_LEAVE(state)
  68:.\asp\kernel/exception.c **** #endif /* LOG_XSNS_XPN_LEAVE */
  69:.\asp\kernel/exception.c **** 
  70:.\asp\kernel/exception.c **** /* 
  71:.\asp\kernel/exception.c ****  *  CPU—áŠOƒnƒ“ƒhƒ‰ŠÇ—‹@”\‚Ì‰Šú‰»
  72:.\asp\kernel/exception.c ****  */
  73:.\asp\kernel/exception.c **** #ifdef TOPPERS_excini
  74:.\asp\kernel/exception.c **** #ifndef OMIT_INITIALIZE_EXCEPTION
  75:.\asp\kernel/exception.c **** 
  76:.\asp\kernel/exception.c **** void
  77:.\asp\kernel/exception.c **** initialize_exception(void)
  78:.\asp\kernel/exception.c **** {
  27              		.loc 1 78 0
  28              		.cfi_startproc
  29              		@ args = 0, pretend = 0, frame = 0
  30              		@ frame_needed = 0, uses_anonymous_args = 0
  31              	.LVL0:
  32 0000 10B5     		push	{r4, lr}
  33              	.LCFI0:
  34              		.cfi_def_cfa_offset 8
  35              		.cfi_offset 4, -8
  36              		.cfi_offset 14, -4
ARM GAS  C:\TEMP\cckvJLfh.s 			page 3


  79:.\asp\kernel/exception.c **** 	uint_t			i;
  80:.\asp\kernel/exception.c **** 	const EXCINIB	*p_excinib;
  81:.\asp\kernel/exception.c **** 
  82:.\asp\kernel/exception.c **** 	for (i = 0; i < tnum_excno; i++) {
  37              		.loc 1 82 0
  38 0002 0024     		movs	r4, #0
  39              	.LVL1:
  40              	.L2:
  41              		.loc 1 82 0 is_stmt 0 discriminator 1
  42 0004 064B     		ldr	r3, .L6
  43 0006 1868     		ldr	r0, [r3, #0]
  44 0008 8442     		cmp	r4, r0
  45 000a 07D2     		bcs	.L5
  46              	.L3:
  47              	.LVL2:
  83:.\asp\kernel/exception.c **** 		p_excinib = &(excinib_table[i]);
  48              		.loc 1 83 0 is_stmt 1 discriminator 2
  49 000c 0C22     		movs	r2, #12
  50 000e 6243     		muls	r2, r4, r2
  84:.\asp\kernel/exception.c **** 		x_define_exc(p_excinib->excno, p_excinib->exc_entry);
  51              		.loc 1 84 0 discriminator 2
  52 0010 0449     		ldr	r1, .L6+4
  82:.\asp\kernel/exception.c **** 	for (i = 0; i < tnum_excno; i++) {
  53              		.loc 1 82 0 discriminator 2
  54 0012 0134     		adds	r4, r4, #1
  55              	.LVL3:
  56              	.LBB6:
  57              	.LBB7:
  58              		.file 2 ".\\asp\\arch\\arm_m_gcc\\common/core_config.h"
   1:.\asp\arch\arm_m_gcc\common/core_config.h **** /*
   2:.\asp\arch\arm_m_gcc\common/core_config.h ****  *  TOPPERS/ASP Kernel
   3:.\asp\arch\arm_m_gcc\common/core_config.h ****  *      Toyohashi Open Platform for Embedded Real-Time Systems/
   4:.\asp\arch\arm_m_gcc\common/core_config.h ****  *      Advanced Standard Profile Kernel
   5:.\asp\arch\arm_m_gcc\common/core_config.h ****  * 
   6:.\asp\arch\arm_m_gcc\common/core_config.h ****  *  Copyright (C) 2008-2011,2013 by Embedded and Real-Time Systems Laboratory
   7:.\asp\arch\arm_m_gcc\common/core_config.h ****  *              Graduate School of Information Science, Nagoya Univ., JAPAN
   8:.\asp\arch\arm_m_gcc\common/core_config.h ****  * 
   9:.\asp\arch\arm_m_gcc\common/core_config.h ****  *  ã‹L’˜ìŒ Ò‚ÍCˆÈ‰º‚Ì(1)`(4)‚ÌğŒ‚ğ–‚½‚·ê‡‚ÉŒÀ‚èC–{ƒ\ƒtƒgƒEƒF
  10:.\asp\arch\arm_m_gcc\common/core_config.h ****  *  ƒAi–{ƒ\ƒtƒgƒEƒFƒA‚ğ‰ü•Ï‚µ‚½‚à‚Ì‚ğŠÜ‚ŞDˆÈ‰º“¯‚¶j‚ğg—pE•¡»E‰ü
  11:.\asp\arch\arm_m_gcc\common/core_config.h ****  *  •ÏEÄ”z•ziˆÈ‰ºC—˜—p‚ÆŒÄ‚Ôj‚·‚é‚±‚Æ‚ğ–³‚Å‹–‘ø‚·‚éD
  12:.\asp\arch\arm_m_gcc\common/core_config.h ****  *  (1) –{ƒ\ƒtƒgƒEƒFƒA‚ğƒ\[ƒXƒR[ƒh‚ÌŒ`‚Å—˜—p‚·‚éê‡‚É‚ÍCã‹L‚Ì’˜ì
  13:.\asp\arch\arm_m_gcc\common/core_config.h ****  *      Œ •\¦C‚±‚Ì—˜—pğŒ‚¨‚æ‚Ñ‰º‹L‚Ì–³•ÛØ‹K’è‚ªC‚»‚Ì‚Ü‚Ü‚ÌŒ`‚Åƒ\[
  14:.\asp\arch\arm_m_gcc\common/core_config.h ****  *      ƒXƒR[ƒh’†‚ÉŠÜ‚Ü‚ê‚Ä‚¢‚é‚±‚ÆD
  15:.\asp\arch\arm_m_gcc\common/core_config.h ****  *  (2) –{ƒ\ƒtƒgƒEƒFƒA‚ğCƒ‰ƒCƒuƒ‰ƒŠŒ`®‚È‚ÇC‘¼‚Ìƒ\ƒtƒgƒEƒFƒAŠJ”­‚Ég
  16:.\asp\arch\arm_m_gcc\common/core_config.h ****  *      —p‚Å‚«‚éŒ`‚ÅÄ”z•z‚·‚éê‡‚É‚ÍCÄ”z•z‚É”º‚¤ƒhƒLƒ…ƒƒ“ƒgi—˜—p
  17:.\asp\arch\arm_m_gcc\common/core_config.h ****  *      Òƒ}ƒjƒ…ƒAƒ‹‚È‚Çj‚ÉCã‹L‚Ì’˜ìŒ •\¦C‚±‚Ì—˜—pğŒ‚¨‚æ‚Ñ‰º‹L
  18:.\asp\arch\arm_m_gcc\common/core_config.h ****  *      ‚Ì–³•ÛØ‹K’è‚ğŒfÚ‚·‚é‚±‚ÆD
  19:.\asp\arch\arm_m_gcc\common/core_config.h ****  *  (3) –{ƒ\ƒtƒgƒEƒFƒA‚ğC‹@Ší‚É‘g‚İ‚Ş‚È‚ÇC‘¼‚Ìƒ\ƒtƒgƒEƒFƒAŠJ”­‚Ég
  20:.\asp\arch\arm_m_gcc\common/core_config.h ****  *      —p‚Å‚«‚È‚¢Œ`‚ÅÄ”z•z‚·‚éê‡‚É‚ÍCŸ‚Ì‚¢‚¸‚ê‚©‚ÌğŒ‚ğ–‚½‚·‚±
  21:.\asp\arch\arm_m_gcc\common/core_config.h ****  *      ‚ÆD
  22:.\asp\arch\arm_m_gcc\common/core_config.h ****  *    (a) Ä”z•z‚É”º‚¤ƒhƒLƒ…ƒƒ“ƒgi—˜—pÒƒ}ƒjƒ…ƒAƒ‹‚È‚Çj‚ÉCã‹L‚Ì’˜
  23:.\asp\arch\arm_m_gcc\common/core_config.h ****  *        ìŒ •\¦C‚±‚Ì—˜—pğŒ‚¨‚æ‚Ñ‰º‹L‚Ì–³•ÛØ‹K’è‚ğŒfÚ‚·‚é‚±‚ÆD
  24:.\asp\arch\arm_m_gcc\common/core_config.h ****  *    (b) Ä”z•z‚ÌŒ`‘Ô‚ğC•Ê‚É’è‚ß‚é•û–@‚É‚æ‚Á‚ÄCTOPPERSƒvƒƒWƒFƒNƒg‚É
  25:.\asp\arch\arm_m_gcc\common/core_config.h ****  *        •ñ‚·‚é‚±‚ÆD
  26:.\asp\arch\arm_m_gcc\common/core_config.h ****  *  (4) –{ƒ\ƒtƒgƒEƒFƒA‚Ì—˜—p‚É‚æ‚è’¼Ú“I‚Ü‚½‚ÍŠÔÚ“I‚É¶‚¶‚é‚¢‚©‚È‚é‘¹
  27:.\asp\arch\arm_m_gcc\common/core_config.h ****  *      ŠQ‚©‚ç‚àCã‹L’˜ìŒ Ò‚¨‚æ‚ÑTOPPERSƒvƒƒWƒFƒNƒg‚ğ–ÆÓ‚·‚é‚±‚ÆD
  28:.\asp\arch\arm_m_gcc\common/core_config.h ****  *      ‚Ü‚½C–{ƒ\ƒtƒgƒEƒFƒA‚Ìƒ†[ƒU‚Ü‚½‚ÍƒGƒ“ƒhƒ†[ƒU‚©‚ç‚Ì‚¢‚©‚È‚é—
ARM GAS  C:\TEMP\cckvJLfh.s 			page 4


  29:.\asp\arch\arm_m_gcc\common/core_config.h ****  *      —R‚ÉŠî‚Ã‚­¿‹‚©‚ç‚àCã‹L’˜ìŒ Ò‚¨‚æ‚ÑTOPPERSƒvƒƒWƒFƒNƒg‚ğ
  30:.\asp\arch\arm_m_gcc\common/core_config.h ****  *      –ÆÓ‚·‚é‚±‚ÆD
  31:.\asp\arch\arm_m_gcc\common/core_config.h ****  * 
  32:.\asp\arch\arm_m_gcc\common/core_config.h ****  *  –{ƒ\ƒtƒgƒEƒFƒA‚ÍC–³•ÛØ‚Å’ñ‹Ÿ‚³‚ê‚Ä‚¢‚é‚à‚Ì‚Å‚ ‚éDã‹L’˜ìŒ Ò‚¨
  33:.\asp\arch\arm_m_gcc\common/core_config.h ****  *  ‚æ‚ÑTOPPERSƒvƒƒWƒFƒNƒg‚ÍC–{ƒ\ƒtƒgƒEƒFƒA‚ÉŠÖ‚µ‚ÄC“Á’è‚Ìg—p–Ú“I
  34:.\asp\arch\arm_m_gcc\common/core_config.h ****  *  ‚É‘Î‚·‚é“K‡«‚àŠÜ‚ß‚ÄC‚¢‚©‚È‚é•ÛØ‚às‚í‚È‚¢D‚Ü‚½C–{ƒ\ƒtƒgƒEƒF
  35:.\asp\arch\arm_m_gcc\common/core_config.h ****  *  ƒA‚Ì—˜—p‚É‚æ‚è’¼Ú“I‚Ü‚½‚ÍŠÔÚ“I‚É¶‚¶‚½‚¢‚©‚È‚é‘¹ŠQ‚ÉŠÖ‚µ‚Ä‚àC‚»
  36:.\asp\arch\arm_m_gcc\common/core_config.h ****  *  ‚ÌÓ”C‚ğ•‰‚í‚È‚¢D
  37:.\asp\arch\arm_m_gcc\common/core_config.h ****  * 
  38:.\asp\arch\arm_m_gcc\common/core_config.h ****  *  @(#) $Id: core_config.h 2554 2013-10-17 02:53:02Z ertl-honda $
  39:.\asp\arch\arm_m_gcc\common/core_config.h ****  */
  40:.\asp\arch\arm_m_gcc\common/core_config.h **** 
  41:.\asp\arch\arm_m_gcc\common/core_config.h **** /*
  42:.\asp\arch\arm_m_gcc\common/core_config.h ****  *		ƒvƒƒZƒbƒTˆË‘¶ƒ‚ƒWƒ…[ƒ‹iARM-M—pj
  43:.\asp\arch\arm_m_gcc\common/core_config.h ****  *
  44:.\asp\arch\arm_m_gcc\common/core_config.h ****  *  ‚±‚ÌƒCƒ“ƒNƒ‹[ƒhƒtƒ@ƒCƒ‹‚ÍCtarget_config.hi‚Ü‚½‚ÍC‚»‚±‚©‚çƒCƒ“ƒN
  45:.\asp\arch\arm_m_gcc\common/core_config.h ****  *  ƒ‹[ƒh‚³‚ê‚éƒtƒ@ƒCƒ‹j‚Ì‚İ‚©‚çƒCƒ“ƒNƒ‹[ƒh‚³‚ê‚éD‘¼‚Ìƒtƒ@ƒCƒ‹‚©‚ç
  46:.\asp\arch\arm_m_gcc\common/core_config.h ****  *  ’¼ÚƒCƒ“ƒNƒ‹[ƒh‚µ‚Ä‚Í‚È‚ç‚È‚¢D
  47:.\asp\arch\arm_m_gcc\common/core_config.h ****  */
  48:.\asp\arch\arm_m_gcc\common/core_config.h **** 
  49:.\asp\arch\arm_m_gcc\common/core_config.h **** #ifndef TOPPERS_CORE_CONFIG_H
  50:.\asp\arch\arm_m_gcc\common/core_config.h **** #define TOPPERS_CORE_CONFIG_H
  51:.\asp\arch\arm_m_gcc\common/core_config.h **** 
  52:.\asp\arch\arm_m_gcc\common/core_config.h **** #ifndef TOPPERS_MACRO_ONLY
  53:.\asp\arch\arm_m_gcc\common/core_config.h **** 
  54:.\asp\arch\arm_m_gcc\common/core_config.h **** /*
  55:.\asp\arch\arm_m_gcc\common/core_config.h ****  *  ƒvƒƒZƒbƒT‚Ì“Áê–½—ß‚ÌƒCƒ“ƒ‰ƒCƒ“ŠÖ”’è‹`
  56:.\asp\arch\arm_m_gcc\common/core_config.h ****  */
  57:.\asp\arch\arm_m_gcc\common/core_config.h **** #include <core_insn.h>
  58:.\asp\arch\arm_m_gcc\common/core_config.h **** 
  59:.\asp\arch\arm_m_gcc\common/core_config.h **** /*
  60:.\asp\arch\arm_m_gcc\common/core_config.h ****  *  ƒ^[ƒQƒbƒgˆË‘¶‚ÌƒIƒuƒWƒFƒNƒg‘®«
  61:.\asp\arch\arm_m_gcc\common/core_config.h ****  */
  62:.\asp\arch\arm_m_gcc\common/core_config.h **** #define TARGET_INHATR  TA_NONKERNEL /* ƒ^[ƒQƒbƒg’è‹`‚ÌŠ„‚İƒnƒ“ƒhƒ‰‘®« */
  63:.\asp\arch\arm_m_gcc\common/core_config.h **** 
  64:.\asp\arch\arm_m_gcc\common/core_config.h **** /*
  65:.\asp\arch\arm_m_gcc\common/core_config.h ****  *  ƒGƒ‰[ƒ`ƒFƒbƒN•û–@‚Ìw’è
  66:.\asp\arch\arm_m_gcc\common/core_config.h ****  */
  67:.\asp\arch\arm_m_gcc\common/core_config.h **** #define CHECK_STKSZ_ALIGN	8	/* ƒXƒ^ƒbƒNƒTƒCƒY‚ÌƒAƒ‰ƒCƒ“’PˆÊ */
  68:.\asp\arch\arm_m_gcc\common/core_config.h **** #define CHECK_FUNC_ALIGN	1	/* ŠÖ”‚ÌƒAƒ‰ƒCƒ“’PˆÊ */
  69:.\asp\arch\arm_m_gcc\common/core_config.h **** #define CHECK_FUNC_NONNULL		/* ŠÖ”‚Ì”ñNULLƒ`ƒFƒbƒN */
  70:.\asp\arch\arm_m_gcc\common/core_config.h **** #define CHECK_STACK_ALIGN	8	/* ƒXƒ^ƒbƒN—Ìˆæ‚ÌƒAƒ‰ƒCƒ“’PˆÊ */
  71:.\asp\arch\arm_m_gcc\common/core_config.h **** #define CHECK_STACK_NONNULL		/* ƒXƒ^ƒbƒN—Ìˆæ‚Ì”ñNULLƒ`ƒFƒbƒN */
  72:.\asp\arch\arm_m_gcc\common/core_config.h **** #define CHECK_MPF_ALIGN		4	/* ŒÅ’è’·ƒƒ‚ƒŠƒv[ƒ‹—Ìˆæ‚ÌƒAƒ‰ƒCƒ“’PˆÊ */
  73:.\asp\arch\arm_m_gcc\common/core_config.h **** #define CHECK_MPF_NONNULL		/* ŒÅ’è’·ƒƒ‚ƒŠƒv[ƒ‹—Ìˆæ‚Ì”ñNULLƒ`ƒFƒbƒN */
  74:.\asp\arch\arm_m_gcc\common/core_config.h **** #define CHECK_MB_ALIGN		4	/* ŠÇ——Ìˆæ‚ÌƒAƒ‰ƒCƒ“’PˆÊ */
  75:.\asp\arch\arm_m_gcc\common/core_config.h **** 
  76:.\asp\arch\arm_m_gcc\common/core_config.h **** /*
  77:.\asp\arch\arm_m_gcc\common/core_config.h ****  *  ”ñƒ^ƒXƒNƒRƒ“ƒeƒLƒXƒg—p‚ÌƒXƒ^ƒbƒN‰Šú’l
  78:.\asp\arch\arm_m_gcc\common/core_config.h ****  */
  79:.\asp\arch\arm_m_gcc\common/core_config.h **** #define TOPPERS_ISTKPT(istk, istksz) ((STK_T *)((uint8_t *)(istk) + (istksz)))
  80:.\asp\arch\arm_m_gcc\common/core_config.h **** 
  81:.\asp\arch\arm_m_gcc\common/core_config.h **** /*
  82:.\asp\arch\arm_m_gcc\common/core_config.h ****  *  ƒ^ƒXƒNƒRƒ“ƒeƒLƒXƒgƒuƒƒbƒN‚Ì’è‹`
  83:.\asp\arch\arm_m_gcc\common/core_config.h ****  */
  84:.\asp\arch\arm_m_gcc\common/core_config.h **** typedef struct task_context_block {
  85:.\asp\arch\arm_m_gcc\common/core_config.h **** 	void	*sp;		/* ƒXƒ^ƒbƒNƒ|ƒCƒ“ƒ^ */
ARM GAS  C:\TEMP\cckvJLfh.s 			page 5


  86:.\asp\arch\arm_m_gcc\common/core_config.h **** 	FP		pc;			/* ƒvƒƒOƒ‰ƒ€ƒJƒEƒ“ƒ^ */
  87:.\asp\arch\arm_m_gcc\common/core_config.h **** } TSKCTXB;
  88:.\asp\arch\arm_m_gcc\common/core_config.h **** 
  89:.\asp\arch\arm_m_gcc\common/core_config.h **** #endif /* TOPPERS_MACRO_ONLY */
  90:.\asp\arch\arm_m_gcc\common/core_config.h **** 
  91:.\asp\arch\arm_m_gcc\common/core_config.h **** #ifndef TOPPERS_MACRO_ONLY
  92:.\asp\arch\arm_m_gcc\common/core_config.h **** /*
  93:.\asp\arch\arm_m_gcc\common/core_config.h ****  *  ƒRƒ“ƒeƒLƒXƒg‚ÌQÆ
  94:.\asp\arch\arm_m_gcc\common/core_config.h ****  *
  95:.\asp\arch\arm_m_gcc\common/core_config.h ****  */
  96:.\asp\arch\arm_m_gcc\common/core_config.h **** Inline bool_t
  97:.\asp\arch\arm_m_gcc\common/core_config.h **** sense_context(void)
  98:.\asp\arch\arm_m_gcc\common/core_config.h **** {
  99:.\asp\arch\arm_m_gcc\common/core_config.h **** 	/*
 100:.\asp\arch\arm_m_gcc\common/core_config.h **** 	 *  PSP‚ª—LŒø‚È‚çƒ^ƒXƒNƒRƒ“ƒeƒLƒXƒgCMSP‚ª—LŒø‚È‚ç”ñƒ^ƒXƒNƒRƒ“ƒeƒLƒXƒg
 101:.\asp\arch\arm_m_gcc\common/core_config.h **** 	 *  ‚Æ‚·‚éD 
 102:.\asp\arch\arm_m_gcc\common/core_config.h **** 	 */
 103:.\asp\arch\arm_m_gcc\common/core_config.h **** 	if ((get_control() & CONTROL_PSP) == CONTROL_PSP){
 104:.\asp\arch\arm_m_gcc\common/core_config.h **** 		return false;
 105:.\asp\arch\arm_m_gcc\common/core_config.h **** 	}
 106:.\asp\arch\arm_m_gcc\common/core_config.h **** 	else {
 107:.\asp\arch\arm_m_gcc\common/core_config.h **** 		return true;
 108:.\asp\arch\arm_m_gcc\common/core_config.h **** 	}
 109:.\asp\arch\arm_m_gcc\common/core_config.h **** }
 110:.\asp\arch\arm_m_gcc\common/core_config.h **** 
 111:.\asp\arch\arm_m_gcc\common/core_config.h **** #endif /* TOPPERS_MACRO_ONLY */
 112:.\asp\arch\arm_m_gcc\common/core_config.h **** 
 113:.\asp\arch\arm_m_gcc\common/core_config.h **** /*
 114:.\asp\arch\arm_m_gcc\common/core_config.h ****  *  TOPPERS•W€Š„‚İˆ—ƒ‚ƒfƒ‹‚ÌÀŒ»
 115:.\asp\arch\arm_m_gcc\common/core_config.h ****  *
 116:.\asp\arch\arm_m_gcc\common/core_config.h ****  *  Š„‚İ—Dæ“xƒ}ƒXƒN‚Æ‚µ‚Ä‚ÍCBASEPRI‚ğ—p‚¢‚éD‘SŠ„‚İ‚ğ‹Ö~‚·‚é
 117:.\asp\arch\arm_m_gcc\common/core_config.h ****  *  ‹@”\‚Æ‚µ‚ÄCFAULTMASK‚âPRIMASK‚ª‚ ‚é‚ªCƒJ[ƒlƒ‹ŠÇ—ŠO‚ÌŠ„‚İ‚ğ
 118:.\asp\arch\arm_m_gcc\common/core_config.h ****  *  ƒTƒ|[ƒg‚·‚é‚½‚ßC‚±‚ê‚ç‚ÍCPUƒƒbƒN‚Ì‚½‚ß‚É—p‚¢‚È‚¢D
 119:.\asp\arch\arm_m_gcc\common/core_config.h ****  *  ‚»‚Ì‚½‚ßCBASEPRI‚ğ—p‚¢‚Ä‹[—“I‚ÉCPUƒƒbƒNƒtƒ‰ƒO‚ğÀŒ»‚·‚éD
 120:.\asp\arch\arm_m_gcc\common/core_config.h ****  *
 121:.\asp\arch\arm_m_gcc\common/core_config.h ****  *  ‚Ü‚¸CCPUƒƒbƒNó‘Ô‚ğŠÇ—‚·‚½‚ß‚Ì•Ï”(lock_flag)‚ğ—pˆÓ‚·‚éD
 122:.\asp\arch\arm_m_gcc\common/core_config.h ****  *
 123:.\asp\arch\arm_m_gcc\common/core_config.h ****  *  CPUƒƒbƒNƒtƒ‰ƒO‚ªƒNƒŠƒA‚³‚ê‚Ä‚¢‚éŠÔ‚ÍCBASEPRI‚ğƒ‚ƒfƒ‹ã‚ÌŠ„‚İ
 124:.\asp\arch\arm_m_gcc\common/core_config.h ****  *  —Dæ“xƒ}ƒXƒN‚Ì’l‚Éİ’è‚·‚éD‚±‚ÌŠÔ‚ÍCƒ‚ƒfƒ‹ã‚ÌŠ„‚İ—Dæ“xƒ}ƒX
 125:.\asp\arch\arm_m_gcc\common/core_config.h ****  *  ƒN‚ÍCBASEPRI‚ğ—p‚¢‚éD
 126:.\asp\arch\arm_m_gcc\common/core_config.h ****  * 
 127:.\asp\arch\arm_m_gcc\common/core_config.h ****  *  ‚»‚ê‚É‘Î‚µ‚ÄCPUƒƒbƒNƒtƒ‰ƒO‚ªƒZƒbƒg‚³‚ê‚¢‚éŠÔ‚ÍCBASEPRI‚ğCƒJ[ƒl
 128:.\asp\arch\arm_m_gcc\common/core_config.h ****  *  ƒ‹ŠÇ—ŠO‚Ì‚à‚Ì‚ğœ‚­‚·‚×‚Ä‚ÌŠ„‚İ—v‹‚ğƒ}ƒXƒN‚·‚é’l(TIPM_LOCK)‚ÆC
 129:.\asp\arch\arm_m_gcc\common/core_config.h ****  *  ƒ‚ƒfƒ‹ã‚ÌŠ„‚İ—Dæ“xƒ}ƒXƒN‚Æ‚Ì‚‚¢•û‚Éİ’è‚·‚éD‚±‚ÌŠÔ‚Ìƒ‚ƒfƒ‹ã
 130:.\asp\arch\arm_m_gcc\common/core_config.h ****  *  ‚ÌŠ„‚İ—Dæ“xƒ}ƒXƒN‚ÍC‚»‚Ì‚½‚ß‚Ì•Ï”(saved_iipm, “à•”•\Œ»‚Å•Û)
 131:.\asp\arch\arm_m_gcc\common/core_config.h ****  *  ‚ğ—pˆÓ‚µ‚Ä•Û‚·‚éD
 132:.\asp\arch\arm_m_gcc\common/core_config.h ****  */
 133:.\asp\arch\arm_m_gcc\common/core_config.h **** 
 134:.\asp\arch\arm_m_gcc\common/core_config.h **** /*
 135:.\asp\arch\arm_m_gcc\common/core_config.h ****  *  Š„‚İ—Dæ“xƒ}ƒXƒN‚ÌŠO•”•\Œ»‚Æ“à•”•\Œ»‚Ì•ÏŠ·
 136:.\asp\arch\arm_m_gcc\common/core_config.h ****  *
 137:.\asp\arch\arm_m_gcc\common/core_config.h ****  *  ƒAƒZƒ“ƒuƒŠŒ¾Œê‚Ìƒ\[ƒXƒtƒ@ƒCƒ‹‚©‚çƒCƒ“ƒNƒ‹[ƒh‚·‚éê‡‚Ì‚½‚ß‚ÉC
 138:.\asp\arch\arm_m_gcc\common/core_config.h ****  *  CAST‚ğg—p
 139:.\asp\arch\arm_m_gcc\common/core_config.h ****  *  Š„‚İ—Dæ“x‚Ìƒrƒbƒg•(TBITW_IPRI)‚ª 8 ‚Ìê‡‚ÍC“à•”—Dæ“x 255
 140:.\asp\arch\arm_m_gcc\common/core_config.h ****  *  ‚ÍCŠO•”—Dæ“x -1 ‚É‘Î‰‚·‚éD
 141:.\asp\arch\arm_m_gcc\common/core_config.h ****  */
 142:.\asp\arch\arm_m_gcc\common/core_config.h **** #define EXT_IPM(iipm)   (CAST(PRI,((iipm >> (8 - TBITW_IPRI)) - (1 << TBITW_IPRI))))       /* “à•”•
ARM GAS  C:\TEMP\cckvJLfh.s 			page 6


 143:.\asp\arch\arm_m_gcc\common/core_config.h **** #define INT_IPM(ipm)    (((1 << TBITW_IPRI) - CAST(uint8_t, -(ipm)))  << (8 - TBITW_IPRI)) /* ŠO•”•
 144:.\asp\arch\arm_m_gcc\common/core_config.h **** 
 145:.\asp\arch\arm_m_gcc\common/core_config.h **** /*
 146:.\asp\arch\arm_m_gcc\common/core_config.h ****  *  CPUƒƒbƒNó‘Ô‚Å‚ÌŠ„‚İ—Dæ“xƒ}ƒXƒN
 147:.\asp\arch\arm_m_gcc\common/core_config.h ****  */
 148:.\asp\arch\arm_m_gcc\common/core_config.h **** #define TIPM_LOCK    TMIN_INTPRI
 149:.\asp\arch\arm_m_gcc\common/core_config.h **** 
 150:.\asp\arch\arm_m_gcc\common/core_config.h **** /*
 151:.\asp\arch\arm_m_gcc\common/core_config.h ****  *  CPUƒƒbƒNó‘Ô‚Å‚ÌŠ„‚İ—Dæ“xƒ}ƒXƒN‚Ì“à•”•\Œ»
 152:.\asp\arch\arm_m_gcc\common/core_config.h ****  *
 153:.\asp\arch\arm_m_gcc\common/core_config.h ****  *  TIPM_LOCK‚ÍCCPUƒƒbƒNó‘Ô‚Å‚ÌBASEPRI‚Ì’lDƒJ[ƒlƒ‹ŠÇ—ŠO‚Ì‚à‚Ì‚ğ
 154:.\asp\arch\arm_m_gcc\common/core_config.h ****  *  œ‚­‚·‚×‚Ä‚ÌŠ„‚İ‚ğƒ}ƒXƒN‚·‚é’l‚É’è‹`‚·‚éD  
 155:.\asp\arch\arm_m_gcc\common/core_config.h ****  */
 156:.\asp\arch\arm_m_gcc\common/core_config.h **** #define IIPM_LOCK    INT_IPM(TIPM_LOCK)
 157:.\asp\arch\arm_m_gcc\common/core_config.h **** 
 158:.\asp\arch\arm_m_gcc\common/core_config.h **** /*
 159:.\asp\arch\arm_m_gcc\common/core_config.h ****  *  TIPM_ENAALLiŠ„‚İ—Dæ“xƒ}ƒXƒN‘S‰ğœj‚Ì“à•”•\Œ»
 160:.\asp\arch\arm_m_gcc\common/core_config.h ****  *
 161:.\asp\arch\arm_m_gcc\common/core_config.h ****  *  BASEPRI‚É '0' ‚ğİ’è‚·‚é‚±‚Æ‚ÅC‘SŠ„‚İ‚ğ‹–‰Â‚·‚éD
 162:.\asp\arch\arm_m_gcc\common/core_config.h ****  */
 163:.\asp\arch\arm_m_gcc\common/core_config.h **** #define IIPM_ENAALL  (0)
 164:.\asp\arch\arm_m_gcc\common/core_config.h **** 
 165:.\asp\arch\arm_m_gcc\common/core_config.h **** 
 166:.\asp\arch\arm_m_gcc\common/core_config.h **** #ifndef TOPPERS_MACRO_ONLY
 167:.\asp\arch\arm_m_gcc\common/core_config.h **** 
 168:.\asp\arch\arm_m_gcc\common/core_config.h **** /*
 169:.\asp\arch\arm_m_gcc\common/core_config.h ****  *  CPUƒƒbƒNƒtƒ‰ƒOÀŒ»‚Ì‚½‚ß‚Ì•Ï”
 170:.\asp\arch\arm_m_gcc\common/core_config.h ****  * 
 171:.\asp\arch\arm_m_gcc\common/core_config.h ****  *  ‚±‚ê‚ç‚Ì•Ï”‚ÍCCPUƒƒbƒNó‘Ô‚Ì‚Ì‚İ‘‚«Š·‚¦‚Ä‚à‚æ‚¢‚Æ‚·‚éD
 172:.\asp\arch\arm_m_gcc\common/core_config.h ****  *  ƒCƒ“ƒ‰ƒCƒ“ŠÖ”’†‚ÅCƒAƒNƒZƒX‚Ì‡˜‚ª•Ï‰»‚µ‚È‚¢‚æ‚¤Cvolatile ‚ğw’èD 
 173:.\asp\arch\arm_m_gcc\common/core_config.h ****  */
 174:.\asp\arch\arm_m_gcc\common/core_config.h **** extern volatile bool_t  lock_flag;    /* CPUƒƒbƒNƒtƒ‰ƒO‚Ì’l‚ğ•Û‚·‚é•Ï” */
 175:.\asp\arch\arm_m_gcc\common/core_config.h **** extern volatile uint32_t saved_iipm;  /* Š„‚İ—Dæ“x‚ğƒ}ƒXƒN‚·‚é•Ï” */
 176:.\asp\arch\arm_m_gcc\common/core_config.h **** 
 177:.\asp\arch\arm_m_gcc\common/core_config.h **** /*
 178:.\asp\arch\arm_m_gcc\common/core_config.h ****  *  CPUƒƒbƒNó‘Ô‚Ö‚ÌˆÚs
 179:.\asp\arch\arm_m_gcc\common/core_config.h ****  *
 180:.\asp\arch\arm_m_gcc\common/core_config.h ****  *  BASEPRIiƒn[ƒhƒEƒFƒA‚ÌŠ„‚İ—Dæ“xƒ}ƒXƒNj‚ğCsaved_iipm‚É•Û‘¶‚µC
 181:.\asp\arch\arm_m_gcc\common/core_config.h ****  *  ƒJ[ƒlƒ‹ŠÇ—ŠO‚Ì‚à‚Ì‚ğœ‚­‚·‚×‚Ä‚ÌŠ„‚İ‚ğƒ}ƒXƒN‚·‚é’liTIPM_LOCKj
 182:.\asp\arch\arm_m_gcc\common/core_config.h ****  *  ‚Éİ’è‚·‚éD‚Ü‚½Clock_flag‚ğtrue‚É‚·‚éD
 183:.\asp\arch\arm_m_gcc\common/core_config.h ****  *
 184:.\asp\arch\arm_m_gcc\common/core_config.h ****  *  BASEPRI‚ªCÅ‰‚©‚çTIPM_LOCK‚Æ“¯‚¶‚©‚»‚ê‚æ‚è‚‚¢ê‡‚É‚ÍC‚»‚ê‚ğ
 185:.\asp\arch\arm_m_gcc\common/core_config.h ****  *  saved_iipm‚É•Û‘¶‚·‚é‚Ì‚İ‚ÅCTIPM_LOCK‚É‚Íİ’è‚µ‚È‚¢D‚±‚ê‚ÍCƒ‚ƒfƒ‹
 186:.\asp\arch\arm_m_gcc\common/core_config.h ****  *  ã‚ÌŠ„‚İ—Dæ“xƒ}ƒXƒN‚ªCTIPM_LOCK‚Æ“¯‚¶‚©‚»‚ê‚æ‚è‚‚¢ƒŒƒxƒ‹‚Éİ’è
 187:.\asp\arch\arm_m_gcc\common/core_config.h ****  *  ‚³‚ê‚Ä‚¢‚éó‘Ô‚É‚ ‚½‚éD
 188:.\asp\arch\arm_m_gcc\common/core_config.h ****  *
 189:.\asp\arch\arm_m_gcc\common/core_config.h ****  *  ‚±‚ÌŠÖ”‚ÍCCPUƒƒbƒNó‘Ôilock_flag‚ªtrue‚Ìó‘Ôj‚ÅŒÄ‚Î‚ê‚é‚±‚Æ‚Í
 190:.\asp\arch\arm_m_gcc\common/core_config.h ****  *  ‚È‚¢‚à‚Ì‚Æ‘z’è‚µ‚Ä‚¢‚éD
 191:.\asp\arch\arm_m_gcc\common/core_config.h ****  */
 192:.\asp\arch\arm_m_gcc\common/core_config.h **** Inline void
 193:.\asp\arch\arm_m_gcc\common/core_config.h **** x_lock_cpu(void)
 194:.\asp\arch\arm_m_gcc\common/core_config.h **** {
 195:.\asp\arch\arm_m_gcc\common/core_config.h **** 	uint32_t iipm;
 196:.\asp\arch\arm_m_gcc\common/core_config.h **** 
 197:.\asp\arch\arm_m_gcc\common/core_config.h **** 	/*
 198:.\asp\arch\arm_m_gcc\common/core_config.h **** 	 *  get_basepri()‚Ì•Ô‚è’l‚ğ’¼Úsaved_iipm‚É•Û‘¶‚¹‚¸Cˆê•Ï”iipm
 199:.\asp\arch\arm_m_gcc\common/core_config.h **** 	 *  ‚ğ—p‚¢‚Ä‚¢‚é‚Ì‚ÍCget_baespri()‚ğŒÄ‚ñ‚¾’¼Œã‚ÉŠ„‚İ‚ª”­¶‚µC
ARM GAS  C:\TEMP\cckvJLfh.s 			page 7


 200:.\asp\arch\arm_m_gcc\common/core_config.h **** 	 *  ‹N“®‚³‚ê‚½Š„‚İˆ—‚Åsaved_iipm‚ª•ÏX‚³‚ê‚é‰Â”\«‚ª‚ ‚é‚½‚ß‚Å
 201:.\asp\arch\arm_m_gcc\common/core_config.h **** 	 *  ‚ ‚éD
 202:.\asp\arch\arm_m_gcc\common/core_config.h **** 	 */
 203:.\asp\arch\arm_m_gcc\common/core_config.h **** 	iipm = get_basepri();
 204:.\asp\arch\arm_m_gcc\common/core_config.h **** 	/*
 205:.\asp\arch\arm_m_gcc\common/core_config.h **** 	 *  BASEPRIƒŒƒWƒXƒ^‚Í’l‚ª¬‚³‚¢‚Ù‚Ç—Dæ“x‚ª‚‚¢‚ªCIIPM_ENAALL ‚ª
 206:.\asp\arch\arm_m_gcc\common/core_config.h **** 	 *  '0'‚Å‚ ‚é‚½‚ßC’Pƒ‚É—Dæ“x”äŠr‚¾‚¯‚Å‚Í•s\•ª‚Å‚ ‚éD
 207:.\asp\arch\arm_m_gcc\common/core_config.h **** 	 */
 208:.\asp\arch\arm_m_gcc\common/core_config.h **** 	if ((IIPM_LOCK < iipm) || (IIPM_ENAALL == iipm)) {
 209:.\asp\arch\arm_m_gcc\common/core_config.h **** 		set_basepri(IIPM_LOCK);
 210:.\asp\arch\arm_m_gcc\common/core_config.h **** 	}
 211:.\asp\arch\arm_m_gcc\common/core_config.h **** 	saved_iipm = iipm;
 212:.\asp\arch\arm_m_gcc\common/core_config.h **** 	lock_flag = true;
 213:.\asp\arch\arm_m_gcc\common/core_config.h **** 	/* ƒNƒŠƒeƒBƒJƒ‹ƒZƒNƒVƒ‡ƒ“‚Ì‘OŒã‚Åƒƒ‚ƒŠ‚ª‘‚«Š·‚í‚é‰Â”\«‚ª‚ ‚é */
 214:.\asp\arch\arm_m_gcc\common/core_config.h **** 	ARM_MEMORY_CHANGED;
 215:.\asp\arch\arm_m_gcc\common/core_config.h **** }
 216:.\asp\arch\arm_m_gcc\common/core_config.h **** 
 217:.\asp\arch\arm_m_gcc\common/core_config.h **** #define t_lock_cpu()    x_lock_cpu()
 218:.\asp\arch\arm_m_gcc\common/core_config.h **** #define i_lock_cpu()    x_lock_cpu()
 219:.\asp\arch\arm_m_gcc\common/core_config.h **** 
 220:.\asp\arch\arm_m_gcc\common/core_config.h **** /*
 221:.\asp\arch\arm_m_gcc\common/core_config.h ****  *  CPUƒƒbƒNó‘Ô‚Ì‰ğœ
 222:.\asp\arch\arm_m_gcc\common/core_config.h ****  *
 223:.\asp\arch\arm_m_gcc\common/core_config.h ****  *  lock_flag‚ğfalse‚É‚µCIPMiƒn[ƒhƒEƒFƒA‚ÌŠ„‚İ—Dæ“xƒ}ƒXƒNj‚ğC
 224:.\asp\arch\arm_m_gcc\common/core_config.h ****  *  saved_iipm‚É•Û‘¶‚µ‚½’l‚É–ß‚·D
 225:.\asp\arch\arm_m_gcc\common/core_config.h ****  *
 226:.\asp\arch\arm_m_gcc\common/core_config.h ****  *  ‚±‚ÌŠÖ”‚ÍCCPUƒƒbƒNó‘Ôilock_flag‚ªtrue‚Ìó‘Ôj‚Å‚Ì‚İŒÄ‚Î‚ê‚é‚à
 227:.\asp\arch\arm_m_gcc\common/core_config.h ****  *  ‚Ì‚Æ‘z’è‚µ‚Ä‚¢‚éD
 228:.\asp\arch\arm_m_gcc\common/core_config.h ****  */
 229:.\asp\arch\arm_m_gcc\common/core_config.h **** Inline void
 230:.\asp\arch\arm_m_gcc\common/core_config.h **** x_unlock_cpu(void)
 231:.\asp\arch\arm_m_gcc\common/core_config.h **** {
 232:.\asp\arch\arm_m_gcc\common/core_config.h **** 	/* ƒNƒŠƒeƒBƒJƒ‹ƒZƒNƒVƒ‡ƒ“‚Ì‘OŒã‚Åƒƒ‚ƒŠ‚ª‘‚«Š·‚í‚é‰Â”\«‚ª‚ ‚é */
 233:.\asp\arch\arm_m_gcc\common/core_config.h **** 	ARM_MEMORY_CHANGED;
 234:.\asp\arch\arm_m_gcc\common/core_config.h **** 	lock_flag = false;
 235:.\asp\arch\arm_m_gcc\common/core_config.h **** 	set_basepri(saved_iipm);
 236:.\asp\arch\arm_m_gcc\common/core_config.h **** }
 237:.\asp\arch\arm_m_gcc\common/core_config.h **** 
 238:.\asp\arch\arm_m_gcc\common/core_config.h **** #define t_unlock_cpu()    x_unlock_cpu()
 239:.\asp\arch\arm_m_gcc\common/core_config.h **** #define i_unlock_cpu()    x_unlock_cpu()
 240:.\asp\arch\arm_m_gcc\common/core_config.h **** 
 241:.\asp\arch\arm_m_gcc\common/core_config.h **** /*
 242:.\asp\arch\arm_m_gcc\common/core_config.h ****  *  CPUƒƒbƒNó‘Ô‚ÌQÆ
 243:.\asp\arch\arm_m_gcc\common/core_config.h ****  */
 244:.\asp\arch\arm_m_gcc\common/core_config.h **** Inline bool_t
 245:.\asp\arch\arm_m_gcc\common/core_config.h **** x_sense_lock(void)
 246:.\asp\arch\arm_m_gcc\common/core_config.h **** {
 247:.\asp\arch\arm_m_gcc\common/core_config.h **** 	return(lock_flag);
 248:.\asp\arch\arm_m_gcc\common/core_config.h **** }
 249:.\asp\arch\arm_m_gcc\common/core_config.h **** 
 250:.\asp\arch\arm_m_gcc\common/core_config.h **** #define t_sense_lock()    x_sense_lock()
 251:.\asp\arch\arm_m_gcc\common/core_config.h **** #define i_sense_lock()    x_sense_lock()
 252:.\asp\arch\arm_m_gcc\common/core_config.h **** 
 253:.\asp\arch\arm_m_gcc\common/core_config.h **** /*
 254:.\asp\arch\arm_m_gcc\common/core_config.h ****  *  chg_ipm‚Å—LŒø‚ÈŠ„‚İ—Dæ“x‚Ì”ÍˆÍ‚Ì”»’è
 255:.\asp\arch\arm_m_gcc\common/core_config.h ****  *
 256:.\asp\arch\arm_m_gcc\common/core_config.h ****  *  TMIN_INTPRI‚Ì’l‚É‚æ‚ç‚¸Cchg_ipm‚Å‚ÍC-(1 << TBITW_IPRI)`TIPM_ENAALLi0j
ARM GAS  C:\TEMP\cckvJLfh.s 			page 8


 257:.\asp\arch\arm_m_gcc\common/core_config.h ****  *  ‚Ì”ÍˆÍ‚Éİ’è‚Å‚«‚é‚±‚Æ‚Æ‚·‚éiƒ^[ƒQƒbƒg’è‹`‚ÌŠg’£jD
 258:.\asp\arch\arm_m_gcc\common/core_config.h ****  *  Š„‚İ—Dæ“x‚Ìƒrƒbƒg•(TBITW_IPRI)‚ª 8 ‚Ìê‡‚ÍC-256 ` 0 ‚ªw’è‰Â”\‚Å‚ ‚éD
 259:.\asp\arch\arm_m_gcc\common/core_config.h ****  *   
 260:.\asp\arch\arm_m_gcc\common/core_config.h ****  */
 261:.\asp\arch\arm_m_gcc\common/core_config.h **** #define VALID_INTPRI_CHGIPM(intpri) \
 262:.\asp\arch\arm_m_gcc\common/core_config.h **** 				((-((1 << TBITW_IPRI) - 1) <= (intpri) && (intpri) <= TIPM_ENAALL))
 263:.\asp\arch\arm_m_gcc\common/core_config.h **** 
 264:.\asp\arch\arm_m_gcc\common/core_config.h **** /*
 265:.\asp\arch\arm_m_gcc\common/core_config.h ****  * iƒ‚ƒfƒ‹ã‚ÌjŠ„‚İ—Dæ“xƒ}ƒXƒN‚Ìİ’è
 266:.\asp\arch\arm_m_gcc\common/core_config.h ****  *
 267:.\asp\arch\arm_m_gcc\common/core_config.h ****  *  CPUƒƒbƒNƒtƒ‰ƒO‚ªƒNƒŠƒA‚³‚ê‚Ä‚¢‚é‚ÍCƒn[ƒhƒEƒFƒA‚ÌŠ„‚İ—Dæ“xƒ}
 268:.\asp\arch\arm_m_gcc\common/core_config.h ****  *  ƒXƒN‚ğİ’è‚·‚éDCPUƒƒbƒNƒtƒ‰ƒO‚ªƒZƒbƒg‚³‚ê‚Ä‚¢‚é‚ÍCsaved_iipm
 269:.\asp\arch\arm_m_gcc\common/core_config.h ****  *  ‚ğİ’è‚µC‚³‚ç‚ÉCƒn[ƒhƒEƒFƒA‚ÌŠ„‚İ—Dæ“xƒ}ƒXƒN‚ğCİ’è‚µ‚æ‚¤‚Æ
 270:.\asp\arch\arm_m_gcc\common/core_config.h ****  *  ‚µ‚½iƒ‚ƒfƒ‹ã‚ÌjŠ„‚İ—Dæ“xƒ}ƒXƒN‚ÆTIPM_LOCK‚Ì‚‚¢•û‚Éİ’è‚·‚éD
 271:.\asp\arch\arm_m_gcc\common/core_config.h ****  */
 272:.\asp\arch\arm_m_gcc\common/core_config.h **** Inline void
 273:.\asp\arch\arm_m_gcc\common/core_config.h **** x_set_ipm(PRI intpri)
 274:.\asp\arch\arm_m_gcc\common/core_config.h **** {
 275:.\asp\arch\arm_m_gcc\common/core_config.h **** 	uint8_t   iipm = INT_IPM(intpri);
 276:.\asp\arch\arm_m_gcc\common/core_config.h **** 
 277:.\asp\arch\arm_m_gcc\common/core_config.h **** 	if (intpri == TIPM_ENAALL){
 278:.\asp\arch\arm_m_gcc\common/core_config.h **** 		iipm = IIPM_ENAALL;
 279:.\asp\arch\arm_m_gcc\common/core_config.h **** 	}
 280:.\asp\arch\arm_m_gcc\common/core_config.h **** 
 281:.\asp\arch\arm_m_gcc\common/core_config.h **** 	if (!lock_flag) {
 282:.\asp\arch\arm_m_gcc\common/core_config.h **** 		set_basepri(iipm);
 283:.\asp\arch\arm_m_gcc\common/core_config.h **** 	}
 284:.\asp\arch\arm_m_gcc\common/core_config.h **** 	else {
 285:.\asp\arch\arm_m_gcc\common/core_config.h **** 		saved_iipm = iipm;
 286:.\asp\arch\arm_m_gcc\common/core_config.h **** 		/*
 287:.\asp\arch\arm_m_gcc\common/core_config.h **** 		 *  BASEPRIƒŒƒWƒXƒ^‚Í’l‚ª¬‚³‚¢‚Ù‚Ç—Dæ“x‚ª‚‚¢‚ªCIIPM_ENAALL ‚ª
 288:.\asp\arch\arm_m_gcc\common/core_config.h **** 		 *  '0'‚Å‚ ‚é‚½‚ßC’Pƒ‚É—Dæ“x”äŠr‚¾‚¯‚Å‚Í•s\•ª‚Å‚ ‚éD
 289:.\asp\arch\arm_m_gcc\common/core_config.h **** 		 */
 290:.\asp\arch\arm_m_gcc\common/core_config.h **** 		if ((iipm < IIPM_LOCK ) && (IIPM_ENAALL != iipm)) {
 291:.\asp\arch\arm_m_gcc\common/core_config.h **** 			set_basepri(iipm);
 292:.\asp\arch\arm_m_gcc\common/core_config.h **** 		}
 293:.\asp\arch\arm_m_gcc\common/core_config.h **** 		else {
 294:.\asp\arch\arm_m_gcc\common/core_config.h **** 			set_basepri(IIPM_LOCK);
 295:.\asp\arch\arm_m_gcc\common/core_config.h **** 		}
 296:.\asp\arch\arm_m_gcc\common/core_config.h **** 	}
 297:.\asp\arch\arm_m_gcc\common/core_config.h **** }
 298:.\asp\arch\arm_m_gcc\common/core_config.h **** 
 299:.\asp\arch\arm_m_gcc\common/core_config.h **** #define t_set_ipm(intpri)    x_set_ipm(intpri)
 300:.\asp\arch\arm_m_gcc\common/core_config.h **** #define i_set_ipm(intpri)    x_set_ipm(intpri)
 301:.\asp\arch\arm_m_gcc\common/core_config.h **** 
 302:.\asp\arch\arm_m_gcc\common/core_config.h **** /*
 303:.\asp\arch\arm_m_gcc\common/core_config.h ****  * iƒ‚ƒfƒ‹ã‚ÌjŠ„‚İ—Dæ“xƒ}ƒXƒN‚ÌQÆ
 304:.\asp\arch\arm_m_gcc\common/core_config.h ****  *
 305:.\asp\arch\arm_m_gcc\common/core_config.h ****  *  CPUƒƒbƒNƒtƒ‰ƒO‚ªƒNƒŠƒA‚³‚ê‚Ä‚¢‚é‚Íƒn[ƒhƒEƒFƒA‚ÌŠ„‚İ—Dæ“xƒ}
 306:.\asp\arch\arm_m_gcc\common/core_config.h ****  *  ƒXƒN‚ğCƒZƒbƒg‚³‚ê‚Ä‚¢‚é‚Ísaved_iipm‚ğQÆ‚·‚éD
 307:.\asp\arch\arm_m_gcc\common/core_config.h ****  */
 308:.\asp\arch\arm_m_gcc\common/core_config.h **** Inline PRI
 309:.\asp\arch\arm_m_gcc\common/core_config.h **** x_get_ipm(void)
 310:.\asp\arch\arm_m_gcc\common/core_config.h **** {
 311:.\asp\arch\arm_m_gcc\common/core_config.h **** 	uint8_t iipm;
 312:.\asp\arch\arm_m_gcc\common/core_config.h **** 
 313:.\asp\arch\arm_m_gcc\common/core_config.h **** 	if (!lock_flag) {
ARM GAS  C:\TEMP\cckvJLfh.s 			page 9


 314:.\asp\arch\arm_m_gcc\common/core_config.h **** 		iipm = get_basepri();
 315:.\asp\arch\arm_m_gcc\common/core_config.h **** 	}
 316:.\asp\arch\arm_m_gcc\common/core_config.h **** 	else {
 317:.\asp\arch\arm_m_gcc\common/core_config.h **** 		iipm = saved_iipm;
 318:.\asp\arch\arm_m_gcc\common/core_config.h **** 	}
 319:.\asp\arch\arm_m_gcc\common/core_config.h **** 
 320:.\asp\arch\arm_m_gcc\common/core_config.h **** 	if (iipm == IIPM_ENAALL) {
 321:.\asp\arch\arm_m_gcc\common/core_config.h **** 		return(TIPM_ENAALL);
 322:.\asp\arch\arm_m_gcc\common/core_config.h **** 	}
 323:.\asp\arch\arm_m_gcc\common/core_config.h **** 	else {
 324:.\asp\arch\arm_m_gcc\common/core_config.h **** 		return(EXT_IPM(iipm));
 325:.\asp\arch\arm_m_gcc\common/core_config.h **** 	}
 326:.\asp\arch\arm_m_gcc\common/core_config.h **** }
 327:.\asp\arch\arm_m_gcc\common/core_config.h **** 
 328:.\asp\arch\arm_m_gcc\common/core_config.h **** #define t_get_ipm()    x_get_ipm()
 329:.\asp\arch\arm_m_gcc\common/core_config.h **** #define i_get_ipm()    x_get_ipm()
 330:.\asp\arch\arm_m_gcc\common/core_config.h **** 
 331:.\asp\arch\arm_m_gcc\common/core_config.h **** /*
 332:.\asp\arch\arm_m_gcc\common/core_config.h ****  *  SVCƒnƒ“ƒhƒ‰icore_support.Sj
 333:.\asp\arch\arm_m_gcc\common/core_config.h ****  */
 334:.\asp\arch\arm_m_gcc\common/core_config.h **** extern void svc_handler(void);
 335:.\asp\arch\arm_m_gcc\common/core_config.h **** 
 336:.\asp\arch\arm_m_gcc\common/core_config.h **** /*
 337:.\asp\arch\arm_m_gcc\common/core_config.h ****  *  ƒXƒ^[ƒgƒAƒbƒvƒ‹[ƒ`ƒ“istart.Sj
 338:.\asp\arch\arm_m_gcc\common/core_config.h ****  */
 339:.\asp\arch\arm_m_gcc\common/core_config.h **** extern void _start(void);
 340:.\asp\arch\arm_m_gcc\common/core_config.h **** 
 341:.\asp\arch\arm_m_gcc\common/core_config.h **** /*
 342:.\asp\arch\arm_m_gcc\common/core_config.h ****  *  Å‚—Dæ‡ˆÊƒ^ƒXƒN‚Ö‚ÌƒfƒBƒXƒpƒbƒ`icore_support.Sj
 343:.\asp\arch\arm_m_gcc\common/core_config.h ****  *
 344:.\asp\arch\arm_m_gcc\common/core_config.h ****  *  dispatch‚ÍCƒ^ƒXƒNƒRƒ“ƒeƒLƒXƒg‚©‚çŒÄ‚Ño‚³‚ê‚½ƒT[ƒrƒXƒR[ƒ‹ˆ—‚©
 345:.\asp\arch\arm_m_gcc\common/core_config.h ****  *  ‚çŒÄ‚Ño‚·‚×‚«‚à‚Ì‚ÅCƒ^ƒXƒNƒRƒ“ƒeƒLƒXƒgECPUƒƒbƒNó‘ÔEƒfƒBƒXƒpƒb
 346:.\asp\arch\arm_m_gcc\common/core_config.h ****  *  ƒ`‹–‰Âó‘ÔEiƒ‚ƒfƒ‹ã‚ÌjŠ„‚İ—Dæ“xƒ}ƒXƒN‘S‰ğœó‘Ô‚ÅŒÄ‚Ño‚³‚È
 347:.\asp\arch\arm_m_gcc\common/core_config.h ****  *  ‚¯‚ê‚Î‚È‚ç‚È‚¢D
 348:.\asp\arch\arm_m_gcc\common/core_config.h ****  */
 349:.\asp\arch\arm_m_gcc\common/core_config.h **** extern void dispatch(void);
 350:.\asp\arch\arm_m_gcc\common/core_config.h **** 
 351:.\asp\arch\arm_m_gcc\common/core_config.h **** /*
 352:.\asp\arch\arm_m_gcc\common/core_config.h ****  *  ƒfƒBƒXƒpƒbƒ`ƒƒ‚Ì“®ìŠJnicore_support.Sj
 353:.\asp\arch\arm_m_gcc\common/core_config.h ****  *
 354:.\asp\arch\arm_m_gcc\common/core_config.h ****  *  start_dispatch‚ÍCƒJ[ƒlƒ‹‹N“®‚ÉŒÄ‚Ño‚·‚×‚«‚à‚Ì‚ÅC‚·‚×‚Ä‚ÌŠ„
 355:.\asp\arch\arm_m_gcc\common/core_config.h ****  *  ‚İ‚ğ‹Ö~‚µ‚½ó‘ÔiŠ„‚İƒƒbƒNó‘Ô‚Æ“¯“™‚Ìó‘Ôj‚ÅŒÄ‚Ño‚³‚È‚¯‚ê‚Î
 356:.\asp\arch\arm_m_gcc\common/core_config.h ****  *  ‚È‚ç‚È‚¢D
 357:.\asp\arch\arm_m_gcc\common/core_config.h ****  */
 358:.\asp\arch\arm_m_gcc\common/core_config.h **** extern void start_dispatch(void) NoReturn;
 359:.\asp\arch\arm_m_gcc\common/core_config.h **** 
 360:.\asp\arch\arm_m_gcc\common/core_config.h **** /*
 361:.\asp\arch\arm_m_gcc\common/core_config.h ****  *  Œ»İ‚ÌƒRƒ“ƒeƒLƒXƒg‚ğÌ‚Ä‚ÄƒfƒBƒXƒpƒbƒ`icore_support.Sj
 362:.\asp\arch\arm_m_gcc\common/core_config.h ****  *
 363:.\asp\arch\arm_m_gcc\common/core_config.h ****  *  exit_and_dispatch‚ÍCext_tsk‚©‚çŒÄ‚Ño‚·‚×‚«‚à‚Ì‚ÅCƒ^ƒXƒNƒRƒ“ƒeƒL
 364:.\asp\arch\arm_m_gcc\common/core_config.h ****  *  ƒXƒgECPUƒƒbƒNó‘ÔEƒfƒBƒXƒpƒbƒ`‹–‰Âó‘ÔEiƒ‚ƒfƒ‹ã‚ÌjŠ„‚İ—Dæ
 365:.\asp\arch\arm_m_gcc\common/core_config.h ****  *  “xƒ}ƒXƒN‘S‰ğœó‘Ô‚ÅŒÄ‚Ño‚³‚È‚¯‚ê‚Î‚È‚ç‚È‚¢D
 366:.\asp\arch\arm_m_gcc\common/core_config.h ****  */
 367:.\asp\arch\arm_m_gcc\common/core_config.h **** extern void exit_and_dispatch(void) NoReturn;
 368:.\asp\arch\arm_m_gcc\common/core_config.h **** 
 369:.\asp\arch\arm_m_gcc\common/core_config.h **** /*
 370:.\asp\arch\arm_m_gcc\common/core_config.h ****  *  ƒJ[ƒlƒ‹‚ÌI—¹ˆ—‚ÌŒÄo‚µicore_support.Sj
ARM GAS  C:\TEMP\cckvJLfh.s 			page 10


 371:.\asp\arch\arm_m_gcc\common/core_config.h ****  *
 372:.\asp\arch\arm_m_gcc\common/core_config.h ****  *  call_exit_kernel‚ÍCƒJ[ƒlƒ‹‚ÌI—¹‚ÉŒÄ‚Ño‚·‚×‚«‚à‚Ì‚ÅC”ñƒ^ƒXƒN
 373:.\asp\arch\arm_m_gcc\common/core_config.h ****  *  ƒRƒ“ƒeƒLƒXƒg‚ÉØ‚èŠ·‚¦‚ÄCƒJ[ƒlƒ‹‚ÌI—¹ˆ—iexit_kernelj‚ğŒÄ‚Ño
 374:.\asp\arch\arm_m_gcc\common/core_config.h ****  *  ‚·D
 375:.\asp\arch\arm_m_gcc\common/core_config.h ****  */
 376:.\asp\arch\arm_m_gcc\common/core_config.h **** extern void call_exit_kernel(void) NoReturn;
 377:.\asp\arch\arm_m_gcc\common/core_config.h **** 
 378:.\asp\arch\arm_m_gcc\common/core_config.h **** /*
 379:.\asp\arch\arm_m_gcc\common/core_config.h ****  *  ƒ^ƒXƒNƒRƒ“ƒeƒLƒXƒg‚Ì‰Šú‰»
 380:.\asp\arch\arm_m_gcc\common/core_config.h ****  *
 381:.\asp\arch\arm_m_gcc\common/core_config.h ****  *  ƒ^ƒXƒN‚ª‹x~ó‘Ô‚©‚çÀs‚Å‚«‚éó‘Ô‚ÉˆÚs‚·‚é‚ÉŒÄ‚Î‚ê‚éD‚±‚Ì“_
 382:.\asp\arch\arm_m_gcc\common/core_config.h ****  *  ‚ÅƒXƒ^ƒbƒN—Ìˆæ‚ğg‚Á‚Ä‚Í‚È‚ç‚È‚¢D
 383:.\asp\arch\arm_m_gcc\common/core_config.h ****  *
 384:.\asp\arch\arm_m_gcc\common/core_config.h ****  *  activate_context‚ğCƒCƒ“ƒ‰ƒCƒ“ŠÖ”‚Å‚Í‚È‚­ƒ}ƒNƒ’è‹`‚Æ‚µ‚Ä‚¢‚é‚Ì‚ÍC
 385:.\asp\arch\arm_m_gcc\common/core_config.h ****  *  ‚±‚Ì“_‚Å‚ÍTCB‚ª’è‹`‚³‚ê‚Ä‚¢‚È‚¢‚½‚ß‚Å‚ ‚éD
 386:.\asp\arch\arm_m_gcc\common/core_config.h ****  */
 387:.\asp\arch\arm_m_gcc\common/core_config.h **** extern void    start_r(void);
 388:.\asp\arch\arm_m_gcc\common/core_config.h **** 
 389:.\asp\arch\arm_m_gcc\common/core_config.h **** #define activate_context(p_tcb)                                         \
 390:.\asp\arch\arm_m_gcc\common/core_config.h **** {                                                                       \
 391:.\asp\arch\arm_m_gcc\common/core_config.h ****     (p_tcb)->tskctxb.sp = (void *)((uint8_t *)((p_tcb)->p_tinib->stk)    \
 392:.\asp\arch\arm_m_gcc\common/core_config.h ****                                         + (p_tcb)->p_tinib->stksz);     \
 393:.\asp\arch\arm_m_gcc\common/core_config.h ****     (p_tcb)->tskctxb.pc = (FP) start_r;                             \
 394:.\asp\arch\arm_m_gcc\common/core_config.h **** }
 395:.\asp\arch\arm_m_gcc\common/core_config.h **** 
 396:.\asp\arch\arm_m_gcc\common/core_config.h **** /*
 397:.\asp\arch\arm_m_gcc\common/core_config.h ****  *  calltex‚Íg—p‚µ‚È‚¢
 398:.\asp\arch\arm_m_gcc\common/core_config.h ****  */
 399:.\asp\arch\arm_m_gcc\common/core_config.h **** #define OMIT_CALLTEX
 400:.\asp\arch\arm_m_gcc\common/core_config.h **** 
 401:.\asp\arch\arm_m_gcc\common/core_config.h **** /*
 402:.\asp\arch\arm_m_gcc\common/core_config.h ****  *  Š„‚İ”Ô†EŠ„‚İƒnƒ“ƒhƒ‰”Ô†
 403:.\asp\arch\arm_m_gcc\common/core_config.h ****  *
 404:.\asp\arch\arm_m_gcc\common/core_config.h ****  *  Š„‚İƒnƒ“ƒhƒ‰”Ô†(inhno)‚ÆŠ„‚İ”Ô†(intno)‚ÍCŠ„‚è‚İ”­¶‚É
 405:.\asp\arch\arm_m_gcc\common/core_config.h ****  *  EPSR‚Éİ’è‚³‚ê‚é—áŠO”Ô†‚Æ‚·‚éD 
 406:.\asp\arch\arm_m_gcc\common/core_config.h ****  */
 407:.\asp\arch\arm_m_gcc\common/core_config.h **** 
 408:.\asp\arch\arm_m_gcc\common/core_config.h **** /*
 409:.\asp\arch\arm_m_gcc\common/core_config.h ****  *  Š„‚İ”Ô†‚Ì”ÍˆÍ‚Ì”»’è
 410:.\asp\arch\arm_m_gcc\common/core_config.h ****  */
 411:.\asp\arch\arm_m_gcc\common/core_config.h **** #define VALID_INTNO(intno)           ((TMIN_INTNO <= (intno)) && ((intno) <= TMAX_INTNO))
 412:.\asp\arch\arm_m_gcc\common/core_config.h **** #define VALID_INTNO_DISINT(intno)    VALID_INTNO(intno)
 413:.\asp\arch\arm_m_gcc\common/core_config.h **** #define VALID_INTNO_CFGINT(intno)    VALID_INTNO(intno)
 414:.\asp\arch\arm_m_gcc\common/core_config.h **** 
 415:.\asp\arch\arm_m_gcc\common/core_config.h **** /*
 416:.\asp\arch\arm_m_gcc\common/core_config.h ****  *  Š„‚İƒnƒ“ƒhƒ‰‚Ìİ’è
 417:.\asp\arch\arm_m_gcc\common/core_config.h ****  *
 418:.\asp\arch\arm_m_gcc\common/core_config.h ****  *  ƒxƒNƒgƒ‹”Ô†inhno‚ÌŠ„‚İƒnƒ“ƒhƒ‰‚Ì‹N“®”Ô’nint_entry‚Éİ’è‚·‚éDŠ„‚İ
 419:.\asp\arch\arm_m_gcc\common/core_config.h ****  *  ƒnƒ“ƒhƒ‰ƒe[ƒuƒ‹
 420:.\asp\arch\arm_m_gcc\common/core_config.h ****  */
 421:.\asp\arch\arm_m_gcc\common/core_config.h **** Inline void
 422:.\asp\arch\arm_m_gcc\common/core_config.h **** x_define_inh(INHNO inhno, FP int_entry)
 423:.\asp\arch\arm_m_gcc\common/core_config.h **** {
 424:.\asp\arch\arm_m_gcc\common/core_config.h **** 
 425:.\asp\arch\arm_m_gcc\common/core_config.h **** }
 426:.\asp\arch\arm_m_gcc\common/core_config.h **** 
 427:.\asp\arch\arm_m_gcc\common/core_config.h **** /*
ARM GAS  C:\TEMP\cckvJLfh.s 			page 11


 428:.\asp\arch\arm_m_gcc\common/core_config.h ****  *  Š„‚İƒnƒ“ƒhƒ‰‚Ìo“üŒûˆ—‚Ì¶¬ƒ}ƒNƒ
 429:.\asp\arch\arm_m_gcc\common/core_config.h ****  *
 430:.\asp\arch\arm_m_gcc\common/core_config.h ****  */
 431:.\asp\arch\arm_m_gcc\common/core_config.h **** #define INT_ENTRY(inhno, inthdr)    inthdr
 432:.\asp\arch\arm_m_gcc\common/core_config.h **** #define INTHDR_ENTRY(inhno, inhno_num, inthdr) extern void inthdr(void);
 433:.\asp\arch\arm_m_gcc\common/core_config.h **** 
 434:.\asp\arch\arm_m_gcc\common/core_config.h **** /*
 435:.\asp\arch\arm_m_gcc\common/core_config.h ****  *  Š„‚İ—v‹‹Ö~ƒtƒ‰ƒO
 436:.\asp\arch\arm_m_gcc\common/core_config.h ****  */
 437:.\asp\arch\arm_m_gcc\common/core_config.h **** 
 438:.\asp\arch\arm_m_gcc\common/core_config.h **** /*
 439:.\asp\arch\arm_m_gcc\common/core_config.h ****  *  Š„‚İ‘®«‚ªİ’è‚³‚ê‚Ä‚¢‚é‚©‚ğ”»•Ê‚·‚é‚½‚ß‚Ì•Ï”ikernel_cfg.cj
 440:.\asp\arch\arm_m_gcc\common/core_config.h ****  */
 441:.\asp\arch\arm_m_gcc\common/core_config.h **** extern const uint32_t	bitpat_cfgint[];
 442:.\asp\arch\arm_m_gcc\common/core_config.h **** 
 443:.\asp\arch\arm_m_gcc\common/core_config.h **** /*
 444:.\asp\arch\arm_m_gcc\common/core_config.h ****  *  Š„‚İ—v‹‹Ö~ƒtƒ‰ƒO‚ÌƒZƒbƒg
 445:.\asp\arch\arm_m_gcc\common/core_config.h ****  *
 446:.\asp\arch\arm_m_gcc\common/core_config.h ****  *  Š„‚İ‘®«‚ªİ’è‚³‚ê‚Ä‚¢‚È‚¢Š„‚İ—v‹ƒ‰ƒCƒ“‚É‘Î‚µ‚ÄŠ„‚İ—v‹‹Ö~
 447:.\asp\arch\arm_m_gcc\common/core_config.h ****  *  ƒtƒ‰ƒO‚ğƒNƒŠƒA‚µ‚æ‚¤‚Æ‚µ‚½ê‡‚É‚ÍCfalse‚ğ•Ô‚·D  
 448:.\asp\arch\arm_m_gcc\common/core_config.h ****  */
 449:.\asp\arch\arm_m_gcc\common/core_config.h **** Inline bool_t
 450:.\asp\arch\arm_m_gcc\common/core_config.h **** x_disable_int(INTNO intno)
 451:.\asp\arch\arm_m_gcc\common/core_config.h **** {
 452:.\asp\arch\arm_m_gcc\common/core_config.h **** 	uint32_t tmp;
 453:.\asp\arch\arm_m_gcc\common/core_config.h **** 
 454:.\asp\arch\arm_m_gcc\common/core_config.h **** 	/*
 455:.\asp\arch\arm_m_gcc\common/core_config.h **** 	 *  Š„‚İ‘®«‚ªİ’è‚³‚ê‚Ä‚¢‚È‚¢ê‡
 456:.\asp\arch\arm_m_gcc\common/core_config.h **** 	 */
 457:.\asp\arch\arm_m_gcc\common/core_config.h **** 	if ((bitpat_cfgint[intno >> 5] & (1 << (intno & 0x1f))) == 0x00) {
 458:.\asp\arch\arm_m_gcc\common/core_config.h **** 		return(false);
 459:.\asp\arch\arm_m_gcc\common/core_config.h **** 	}
 460:.\asp\arch\arm_m_gcc\common/core_config.h **** 
 461:.\asp\arch\arm_m_gcc\common/core_config.h **** 	if (intno == IRQNO_SYSTICK) {
 462:.\asp\arch\arm_m_gcc\common/core_config.h **** 		tmp = sil_rew_mem((void *)SYSTIC_CONTROL_STATUS);
 463:.\asp\arch\arm_m_gcc\common/core_config.h **** 		tmp &= ~SYSTIC_TICINT;
 464:.\asp\arch\arm_m_gcc\common/core_config.h **** 		sil_wrw_mem((void *)SYSTIC_CONTROL_STATUS, tmp);
 465:.\asp\arch\arm_m_gcc\common/core_config.h **** 	}else {
 466:.\asp\arch\arm_m_gcc\common/core_config.h **** 		tmp = intno - 16;
 467:.\asp\arch\arm_m_gcc\common/core_config.h **** 		sil_wrw_mem((void *)((uint32_t *)NVIC_CLRENA0 + (tmp >> 5)),
 468:.\asp\arch\arm_m_gcc\common/core_config.h **** 					(1 << (tmp & 0x1f)));
 469:.\asp\arch\arm_m_gcc\common/core_config.h **** 	}
 470:.\asp\arch\arm_m_gcc\common/core_config.h **** 
 471:.\asp\arch\arm_m_gcc\common/core_config.h **** 	return(true);
 472:.\asp\arch\arm_m_gcc\common/core_config.h **** }
 473:.\asp\arch\arm_m_gcc\common/core_config.h **** 
 474:.\asp\arch\arm_m_gcc\common/core_config.h **** #define t_disable_int(intno) x_disable_int(intno)
 475:.\asp\arch\arm_m_gcc\common/core_config.h **** #define i_disable_int(intno) x_disable_int(intno)
 476:.\asp\arch\arm_m_gcc\common/core_config.h **** 
 477:.\asp\arch\arm_m_gcc\common/core_config.h **** /*
 478:.\asp\arch\arm_m_gcc\common/core_config.h ****  *  Š„‚İ—v‹‹Ö~ƒtƒ‰ƒO‚Ì‰ğœ
 479:.\asp\arch\arm_m_gcc\common/core_config.h ****  *
 480:.\asp\arch\arm_m_gcc\common/core_config.h ****  *  Š„‚İ‘®«‚ªİ’è‚³‚ê‚Ä‚¢‚È‚¢Š„‚İ—v‹ƒ‰ƒCƒ“‚É‘Î‚µ‚ÄŠ„‚İ—v‹‹Ö~
 481:.\asp\arch\arm_m_gcc\common/core_config.h ****  *  ƒtƒ‰ƒO‚ğƒNƒŠƒA‚µ‚æ‚¤‚Æ‚µ‚½ê‡‚É‚ÍCfalse‚ğ•Ô‚·D
 482:.\asp\arch\arm_m_gcc\common/core_config.h ****  */
 483:.\asp\arch\arm_m_gcc\common/core_config.h **** Inline bool_t
 484:.\asp\arch\arm_m_gcc\common/core_config.h **** x_enable_int(INTNO intno)
ARM GAS  C:\TEMP\cckvJLfh.s 			page 12


 485:.\asp\arch\arm_m_gcc\common/core_config.h **** {
 486:.\asp\arch\arm_m_gcc\common/core_config.h **** 	uint32_t tmp;
 487:.\asp\arch\arm_m_gcc\common/core_config.h **** 
 488:.\asp\arch\arm_m_gcc\common/core_config.h **** 	/*
 489:.\asp\arch\arm_m_gcc\common/core_config.h **** 	 *  Š„‚İ‘®«‚ªİ’è‚³‚ê‚Ä‚¢‚È‚¢ê‡
 490:.\asp\arch\arm_m_gcc\common/core_config.h **** 	 */
 491:.\asp\arch\arm_m_gcc\common/core_config.h **** 	if ((bitpat_cfgint[intno >> 5] & (1 << (intno & 0x1f))) == 0x00) {
 492:.\asp\arch\arm_m_gcc\common/core_config.h **** 		return(false);
 493:.\asp\arch\arm_m_gcc\common/core_config.h **** 	}
 494:.\asp\arch\arm_m_gcc\common/core_config.h **** 
 495:.\asp\arch\arm_m_gcc\common/core_config.h **** 	if (intno == IRQNO_SYSTICK) {
 496:.\asp\arch\arm_m_gcc\common/core_config.h **** 		tmp = sil_rew_mem((void *)SYSTIC_CONTROL_STATUS);
 497:.\asp\arch\arm_m_gcc\common/core_config.h **** 		tmp |= SYSTIC_TICINT;
 498:.\asp\arch\arm_m_gcc\common/core_config.h **** 		sil_wrw_mem((void *)SYSTIC_CONTROL_STATUS, tmp);
 499:.\asp\arch\arm_m_gcc\common/core_config.h **** 	}else {
 500:.\asp\arch\arm_m_gcc\common/core_config.h **** 		tmp = intno - 16;
 501:.\asp\arch\arm_m_gcc\common/core_config.h **** 		sil_wrw_mem((void *)((uint32_t *)NVIC_SETENA0 + (tmp >> 5)),
 502:.\asp\arch\arm_m_gcc\common/core_config.h **** 					(1 << (tmp & 0x1f)));
 503:.\asp\arch\arm_m_gcc\common/core_config.h **** 	}
 504:.\asp\arch\arm_m_gcc\common/core_config.h ****     
 505:.\asp\arch\arm_m_gcc\common/core_config.h **** 	return(true);
 506:.\asp\arch\arm_m_gcc\common/core_config.h **** }
 507:.\asp\arch\arm_m_gcc\common/core_config.h **** 
 508:.\asp\arch\arm_m_gcc\common/core_config.h **** #define t_enable_int(intno) x_enable_int(intno)
 509:.\asp\arch\arm_m_gcc\common/core_config.h **** #define i_enable_int(intno) x_enable_int(intno)
 510:.\asp\arch\arm_m_gcc\common/core_config.h **** 
 511:.\asp\arch\arm_m_gcc\common/core_config.h **** /*
 512:.\asp\arch\arm_m_gcc\common/core_config.h ****  *  Š„‚İ—v‹ƒ‰ƒCƒ“‚Ì‘®«‚Ìİ’è
 513:.\asp\arch\arm_m_gcc\common/core_config.h ****  */
 514:.\asp\arch\arm_m_gcc\common/core_config.h **** extern void x_config_int(INTNO intno, ATR intatr, PRI intpri);
 515:.\asp\arch\arm_m_gcc\common/core_config.h **** 
 516:.\asp\arch\arm_m_gcc\common/core_config.h **** /*
 517:.\asp\arch\arm_m_gcc\common/core_config.h ****  *  Š„‚İƒnƒ“ƒhƒ‰“üŒû‚Å•K—v‚ÈIRC‘€ì
 518:.\asp\arch\arm_m_gcc\common/core_config.h ****  */
 519:.\asp\arch\arm_m_gcc\common/core_config.h **** Inline void
 520:.\asp\arch\arm_m_gcc\common/core_config.h **** i_begin_int(INTNO intno)
 521:.\asp\arch\arm_m_gcc\common/core_config.h **** {
 522:.\asp\arch\arm_m_gcc\common/core_config.h **** }
 523:.\asp\arch\arm_m_gcc\common/core_config.h **** 
 524:.\asp\arch\arm_m_gcc\common/core_config.h **** /*
 525:.\asp\arch\arm_m_gcc\common/core_config.h ****  *  Š„‚İƒnƒ“ƒhƒ‰‚ÌoŒû‚Å•K—v‚ÈIRC‘€ì
 526:.\asp\arch\arm_m_gcc\common/core_config.h ****  */
 527:.\asp\arch\arm_m_gcc\common/core_config.h **** Inline void
 528:.\asp\arch\arm_m_gcc\common/core_config.h **** i_end_int(INTNO intno)
 529:.\asp\arch\arm_m_gcc\common/core_config.h **** {
 530:.\asp\arch\arm_m_gcc\common/core_config.h **** }
 531:.\asp\arch\arm_m_gcc\common/core_config.h **** 
 532:.\asp\arch\arm_m_gcc\common/core_config.h **** /*
 533:.\asp\arch\arm_m_gcc\common/core_config.h ****  *  CPU—áŠOƒnƒ“ƒhƒ‰ŠÖŒW
 534:.\asp\arch\arm_m_gcc\common/core_config.h ****  */ 
 535:.\asp\arch\arm_m_gcc\common/core_config.h **** 
 536:.\asp\arch\arm_m_gcc\common/core_config.h **** /*
 537:.\asp\arch\arm_m_gcc\common/core_config.h ****  *  CPU—áŠOƒnƒ“ƒhƒ‰”Ô†
 538:.\asp\arch\arm_m_gcc\common/core_config.h ****  */
 539:.\asp\arch\arm_m_gcc\common/core_config.h **** #define VALID_EXCNO_DEFEXC(excno)    (TMIN_EXCNO <= (excno) && (excno) <= TMAX_EXCNO)
 540:.\asp\arch\arm_m_gcc\common/core_config.h **** 
 541:.\asp\arch\arm_m_gcc\common/core_config.h **** /*
ARM GAS  C:\TEMP\cckvJLfh.s 			page 13


 542:.\asp\arch\arm_m_gcc\common/core_config.h ****  *  CPU—áŠOƒnƒ“ƒhƒ‰‚Ì‹–‰Â
 543:.\asp\arch\arm_m_gcc\common/core_config.h ****  */
 544:.\asp\arch\arm_m_gcc\common/core_config.h **** extern void enable_exc(EXCNO excno);
 545:.\asp\arch\arm_m_gcc\common/core_config.h **** 
 546:.\asp\arch\arm_m_gcc\common/core_config.h **** /*
 547:.\asp\arch\arm_m_gcc\common/core_config.h ****  *  CPU—áŠOƒnƒ“ƒhƒ‰‚Ì‹Ö~
 548:.\asp\arch\arm_m_gcc\common/core_config.h ****  */
 549:.\asp\arch\arm_m_gcc\common/core_config.h **** extern void disable_exc(EXCNO excno);
 550:.\asp\arch\arm_m_gcc\common/core_config.h **** 
 551:.\asp\arch\arm_m_gcc\common/core_config.h **** /*
 552:.\asp\arch\arm_m_gcc\common/core_config.h ****  *  CPU—áŠOƒnƒ“ƒhƒ‰‚Ìİ’è
 553:.\asp\arch\arm_m_gcc\common/core_config.h ****  */
 554:.\asp\arch\arm_m_gcc\common/core_config.h **** Inline void
 555:.\asp\arch\arm_m_gcc\common/core_config.h **** x_define_exc(EXCNO excno, FP exc_entry)
 556:.\asp\arch\arm_m_gcc\common/core_config.h **** {
 557:.\asp\arch\arm_m_gcc\common/core_config.h **** 	/*
 558:.\asp\arch\arm_m_gcc\common/core_config.h **** 	 *  ˆê•”‚Ì—áŠO‚Í‹–‰Â‚ğs‚¤•K—v‚ª‚ ‚é
 559:.\asp\arch\arm_m_gcc\common/core_config.h **** 	 */
 560:.\asp\arch\arm_m_gcc\common/core_config.h **** 	enable_exc(excno);
  59              		.loc 2 560 0 discriminator 2
  60 0014 5058     		ldr	r0, [r2, r1]
  61 0016 FFF7FEFF 		bl	_kernel_enable_exc
  62              	.LVL4:
  63 001a F3E7     		b	.L2
  64              	.LVL5:
  65              	.L5:
  66              	.LBE7:
  67              	.LBE6:
  85:.\asp\kernel/exception.c **** 	}
  86:.\asp\kernel/exception.c **** }
  68              		.loc 1 86 0
  69 001c 10BD     		pop	{r4, pc}
  70              	.L7:
  71 001e 00BF     		.align	2
  72              	.L6:
  73 0020 00000000 		.word	_kernel_tnum_excno
  74 0024 00000000 		.word	_kernel_excinib_table
  75              		.cfi_endproc
  76              	.LFE53:
  77              		.size	_kernel_initialize_exception, .-_kernel_initialize_exception
  78              		.section	.text.xsns_dpn,"ax",%progbits
  79              		.align	1
  80              		.global	xsns_dpn
  81              		.thumb
  82              		.thumb_func
  83              		.type	xsns_dpn, %function
  84              	xsns_dpn:
  85              	.LFB54:
  87:.\asp\kernel/exception.c **** 
  88:.\asp\kernel/exception.c **** #endif /* OMIT_INITIALIZE_EXCEPTION */
  89:.\asp\kernel/exception.c **** #endif /* TOPPERS_excini */
  90:.\asp\kernel/exception.c **** 
  91:.\asp\kernel/exception.c **** /*
  92:.\asp\kernel/exception.c ****  *  CPU—áŠO‚Ì”­¶‚µ‚½ƒRƒ“ƒeƒLƒXƒg‚ÌQÆ
  93:.\asp\kernel/exception.c ****  */
  94:.\asp\kernel/exception.c **** 
  95:.\asp\kernel/exception.c **** /*
ARM GAS  C:\TEMP\cckvJLfh.s 			page 14


  96:.\asp\kernel/exception.c ****  *  CPU—áŠO”­¶‚ÌƒfƒBƒXƒpƒbƒ`•Û—¯ó‘Ô‚ÌQÆ
  97:.\asp\kernel/exception.c ****  *
  98:.\asp\kernel/exception.c ****  *  CPU—áŠOƒnƒ“ƒhƒ‰’†‚Ådisdsp‚ª•Ï‰»‚·‚é‚±‚Æ‚Í‚È‚¢‚½‚ßCCPU—áŠO‚ª”­¶‚µ
  99:.\asp\kernel/exception.c ****  *  ‚½‚Ìdisdsp‚ğ•Û‘¶‚µ‚Ä‚¨‚­•K—v‚Í‚È‚¢D
 100:.\asp\kernel/exception.c ****  */
 101:.\asp\kernel/exception.c **** #ifdef TOPPERS_xsns_dpn
 102:.\asp\kernel/exception.c **** 
 103:.\asp\kernel/exception.c **** bool_t
 104:.\asp\kernel/exception.c **** xsns_dpn(void *p_excinf)
 105:.\asp\kernel/exception.c **** {
  86              		.loc 1 105 0
  87              		.cfi_startproc
  88              		@ args = 0, pretend = 0, frame = 0
  89              		@ frame_needed = 0, uses_anonymous_args = 0
  90              		@ link register save eliminated.
  91              	.LVL6:
  92              	.LBB14:
  93              	.LBB15:
  94              	.LBB16:
  95              	.LBB17:
 561:.\asp\arch\arm_m_gcc\common/core_config.h **** }
 562:.\asp\arch\arm_m_gcc\common/core_config.h **** 
 563:.\asp\arch\arm_m_gcc\common/core_config.h **** /*
 564:.\asp\arch\arm_m_gcc\common/core_config.h ****  *  CPU—áŠOƒnƒ“ƒhƒ‰‚Ì“üŒûˆ—‚Ì¶¬ƒ}ƒNƒ
 565:.\asp\arch\arm_m_gcc\common/core_config.h ****  */
 566:.\asp\arch\arm_m_gcc\common/core_config.h **** #define EXC_ENTRY(excno, exchdr)    exchdr
 567:.\asp\arch\arm_m_gcc\common/core_config.h **** #define EXCHDR_ENTRY(excno, excno_num, exchdr) extern void exchdr(void *p_excinf);
 568:.\asp\arch\arm_m_gcc\common/core_config.h **** 
 569:.\asp\arch\arm_m_gcc\common/core_config.h **** /*
 570:.\asp\arch\arm_m_gcc\common/core_config.h ****  *  CPU—áŠO‚Ì”­¶‚µ‚½‚ÌƒRƒ“ƒeƒLƒXƒg‚ÌQÆ
 571:.\asp\arch\arm_m_gcc\common/core_config.h ****  *
 572:.\asp\arch\arm_m_gcc\common/core_config.h ****  *  CPU—áŠO‚Ì”­¶‚µ‚½‚ÌƒRƒ“ƒeƒLƒXƒg‚ªCƒ^ƒXƒNƒRƒ“ƒeƒLƒXƒg‚Ì‚ÉfalseC
 573:.\asp\arch\arm_m_gcc\common/core_config.h ****  *  ‚»‚¤‚Å‚È‚¢‚Étrue‚ğ•Ô‚·D
 574:.\asp\arch\arm_m_gcc\common/core_config.h ****  */
 575:.\asp\arch\arm_m_gcc\common/core_config.h **** Inline bool_t
 576:.\asp\arch\arm_m_gcc\common/core_config.h **** exc_sense_context(void *p_excinf)
 577:.\asp\arch\arm_m_gcc\common/core_config.h **** {
 578:.\asp\arch\arm_m_gcc\common/core_config.h **** 	uint32_t exc_return;
 579:.\asp\arch\arm_m_gcc\common/core_config.h **** 
 580:.\asp\arch\arm_m_gcc\common/core_config.h **** 	exc_return = *((uint32_t *)p_excinf + P_EXCINF_OFFSET_EXC_RETURN);
 581:.\asp\arch\arm_m_gcc\common/core_config.h **** 	if ((exc_return & EXC_RETURN_PSP) == EXC_RETURN_PSP){
  96              		.loc 2 581 0
  97 0000 0368     		ldr	r3, [r0, #0]
  98 0002 5B07     		lsls	r3, r3, #29
  99 0004 01D4     		bmi	.L9
 100              	.LVL7:
 101              	.L11:
 102              	.LBE17:
 103              	.LBE16:
 106:.\asp\kernel/exception.c **** 	bool_t	state;
 107:.\asp\kernel/exception.c **** 
 108:.\asp\kernel/exception.c **** 	LOG_XSNS_DPN_ENTER(p_excinf);
 109:.\asp\kernel/exception.c **** 	state = (exc_sense_intmask(p_excinf) && !disdsp) ? false : true;
 104              		.loc 1 109 0
 105 0006 0120     		movs	r0, #1
 106 0008 7047     		bx	lr
 107              	.LVL8:
ARM GAS  C:\TEMP\cckvJLfh.s 			page 15


 108              	.L9:
 582:.\asp\arch\arm_m_gcc\common/core_config.h **** 		return false;
 583:.\asp\arch\arm_m_gcc\common/core_config.h **** 	}
 584:.\asp\arch\arm_m_gcc\common/core_config.h **** 	else {
 585:.\asp\arch\arm_m_gcc\common/core_config.h **** 		return true;
 586:.\asp\arch\arm_m_gcc\common/core_config.h **** 	}
 587:.\asp\arch\arm_m_gcc\common/core_config.h **** }
 588:.\asp\arch\arm_m_gcc\common/core_config.h **** 
 589:.\asp\arch\arm_m_gcc\common/core_config.h **** /*
 590:.\asp\arch\arm_m_gcc\common/core_config.h ****  *  CPU—áŠO‚Ì”­¶‚µ‚½‚ÌIPMiƒn[ƒhƒEƒFƒA‚ÌŠ„‚İ—Dæ“xƒ}ƒXƒNC“à•”•\
 591:.\asp\arch\arm_m_gcc\common/core_config.h ****  *  Œ»j‚ÌQÆ
 592:.\asp\arch\arm_m_gcc\common/core_config.h ****  */
 593:.\asp\arch\arm_m_gcc\common/core_config.h **** Inline uint32_t
 594:.\asp\arch\arm_m_gcc\common/core_config.h **** exc_get_iipm(void *p_excinf)
 595:.\asp\arch\arm_m_gcc\common/core_config.h **** {
 596:.\asp\arch\arm_m_gcc\common/core_config.h **** 	return(*((uint32_t *)p_excinf + P_EXCINF_OFFSET_BASEPRI));
 597:.\asp\arch\arm_m_gcc\common/core_config.h **** }
 598:.\asp\arch\arm_m_gcc\common/core_config.h **** 
 599:.\asp\arch\arm_m_gcc\common/core_config.h **** /*
 600:.\asp\arch\arm_m_gcc\common/core_config.h ****  *  CPU—áŠO‚Ì”­¶‚µ‚½‚ÌƒRƒ“ƒeƒLƒXƒg‚ÆŠ„‚İ‚Ìƒ}ƒXƒNó‘Ô‚ÌQÆ
 601:.\asp\arch\arm_m_gcc\common/core_config.h ****  *
 602:.\asp\arch\arm_m_gcc\common/core_config.h ****  *  CPU—áŠO‚Ì”­¶‚µ‚½‚ÌƒVƒXƒeƒ€ó‘Ô‚ªCƒJ[ƒlƒ‹Às’†‚Å‚È‚­Cƒ^ƒXƒNƒR
 603:.\asp\arch\arm_m_gcc\common/core_config.h ****  *  ƒ“ƒeƒLƒXƒg‚Å‚ ‚èCŠ„‚İƒƒbƒNó‘Ô‚Å‚È‚­CCPUƒƒbƒNó‘Ô‚Å‚È‚­Ciƒ‚
 604:.\asp\arch\arm_m_gcc\common/core_config.h ****  *  ƒfƒ‹ã‚ÌjŠ„‚İ—Dæ“xƒ}ƒXƒN‘S‰ğœó‘Ô‚Å‚ ‚é‚ÉtrueC‚»‚¤‚Å‚È‚¢
 605:.\asp\arch\arm_m_gcc\common/core_config.h ****  *  ‚Éfalse‚ğ•Ô‚·iCPU—áŠO‚ªƒJ[ƒlƒ‹ŠÇ—ŠO‚ÌŠ„‚İˆ—’†‚Å”­¶‚µ‚½ê‡
 606:.\asp\arch\arm_m_gcc\common/core_config.h ****  *  ‚É‚àfalse‚ğ•Ô‚·jD
 607:.\asp\arch\arm_m_gcc\common/core_config.h ****  *
 608:.\asp\arch\arm_m_gcc\common/core_config.h ****  *  PU—áŠO‚Ì”­¶‚µ‚½‚ÌBASEPRIiƒn[ƒhƒEƒFƒA‚ÌŠ„‚İ—Dæ“xƒ}ƒXƒNj
 609:.\asp\arch\arm_m_gcc\common/core_config.h ****  *  ‚ª‚·‚×‚Ä‚ÌŠ„‚İ‚ğ‹–‰Â‚·‚éó‘Ô‚Å‚ ‚é‚±‚Æ‚ğƒ`ƒFƒbƒN‚·‚é‚±‚Æ‚ÅCƒJ[
 610:.\asp\arch\arm_m_gcc\common/core_config.h ****  *  ƒlƒ‹Às’†‚Å‚È‚¢‚±‚ÆCŠ„‚İƒƒbƒNó‘Ô‚Å‚È‚¢‚±‚ÆCCPUƒƒbƒNó‘Ô‚Å‚È
 611:.\asp\arch\arm_m_gcc\common/core_config.h ****  *  ‚¢‚±‚ÆCiƒ‚ƒfƒ‹ã‚ÌjŠ„‚İ—Dæ“xƒ}ƒXƒN‘S‰ğœó‘Ô‚Å‚ ‚é‚±‚Æ‚Ì4‚Â‚Ì
 612:.\asp\arch\arm_m_gcc\common/core_config.h ****  *  ğŒ‚ğƒ`ƒFƒbƒN‚·‚é‚±‚Æ‚ª‚Å‚«‚éiCPU—áŠO‚ª”­¶‚µ‚½‚Ìlock_flag‚ğQ
 613:.\asp\arch\arm_m_gcc\common/core_config.h ****  *  Æ‚·‚é•K—v‚Í‚È‚¢jD
 614:.\asp\arch\arm_m_gcc\common/core_config.h ****  */
 615:.\asp\arch\arm_m_gcc\common/core_config.h **** Inline bool_t
 616:.\asp\arch\arm_m_gcc\common/core_config.h **** exc_sense_intmask(void *p_excinf)
 617:.\asp\arch\arm_m_gcc\common/core_config.h **** {
 618:.\asp\arch\arm_m_gcc\common/core_config.h **** 	return(!exc_sense_context(p_excinf)
 619:.\asp\arch\arm_m_gcc\common/core_config.h **** 		   && (exc_get_iipm(p_excinf) == IIPM_ENAALL));
 109              		.loc 2 619 0
 110 000a 4068     		ldr	r0, [r0, #4]
 111              	.LVL9:
 112 000c 0028     		cmp	r0, #0
 113 000e FAD1     		bne	.L11
 114              		.loc 1 109 0
 115 0010 0249     		ldr	r1, .L13
 116 0012 0A68     		ldr	r2, [r1, #0]
 117 0014 101C     		adds	r0, r2, #0
 118 0016 18BF     		it	ne
 119 0018 0120     		movne	r0, #1
 120              	.LVL10:
 121              	.LBE15:
 122              	.LBE14:
 110:.\asp\kernel/exception.c **** 	LOG_XSNS_DPN_LEAVE(state);
 111:.\asp\kernel/exception.c **** 	return(state);
 112:.\asp\kernel/exception.c **** }
 123              		.loc 1 112 0
ARM GAS  C:\TEMP\cckvJLfh.s 			page 16


 124 001a 7047     		bx	lr
 125              	.L14:
 126              		.align	2
 127              	.L13:
 128 001c 00000000 		.word	_kernel_disdsp
 129              		.cfi_endproc
 130              	.LFE54:
 131              		.size	xsns_dpn, .-xsns_dpn
 132              		.section	.text.xsns_xpn,"ax",%progbits
 133              		.align	1
 134              		.global	xsns_xpn
 135              		.thumb
 136              		.thumb_func
 137              		.type	xsns_xpn, %function
 138              	xsns_xpn:
 139              	.LFB55:
 113:.\asp\kernel/exception.c **** 
 114:.\asp\kernel/exception.c **** #endif /* TOPPERS_xsns_dpn */
 115:.\asp\kernel/exception.c **** 
 116:.\asp\kernel/exception.c **** /*
 117:.\asp\kernel/exception.c ****  *  CPU—áŠO”­¶‚Ìƒ^ƒXƒN—áŠOˆ—•Û—¯ó‘Ô‚ÌQÆ
 118:.\asp\kernel/exception.c ****  *
 119:.\asp\kernel/exception.c ****  *  CPU—áŠOƒnƒ“ƒhƒ‰’†‚Åp_runtsk‚Æp_runtsk->enatex‚ª•Ï‰»‚·‚é‚±‚Æ‚Í‚È‚¢
 120:.\asp\kernel/exception.c ****  *  ‚½‚ßCCPU—áŠO‚ª”­¶‚µ‚½‚Ìp_runtsk->enatex‚ğ•Û‘¶‚µ‚Ä‚¨‚­•K—v‚Í‚È
 121:.\asp\kernel/exception.c ****  *  ‚¢D
 122:.\asp\kernel/exception.c ****  */
 123:.\asp\kernel/exception.c **** #ifdef TOPPERS_xsns_xpn
 124:.\asp\kernel/exception.c **** 
 125:.\asp\kernel/exception.c **** bool_t
 126:.\asp\kernel/exception.c **** xsns_xpn(void *p_excinf)
 127:.\asp\kernel/exception.c **** {
 140              		.loc 1 127 0
 141              		.cfi_startproc
 142              		@ args = 0, pretend = 0, frame = 0
 143              		@ frame_needed = 0, uses_anonymous_args = 0
 144              		@ link register save eliminated.
 145              	.LVL11:
 146              	.LBB24:
 147              	.LBB25:
 148              	.LBB26:
 149              	.LBB27:
 581:.\asp\arch\arm_m_gcc\common/core_config.h **** 	if ((exc_return & EXC_RETURN_PSP) == EXC_RETURN_PSP){
 150              		.loc 2 581 0
 151 0000 0368     		ldr	r3, [r0, #0]
 152 0002 5A07     		lsls	r2, r3, #29
 153 0004 01D4     		bmi	.L16
 154              	.LVL12:
 155              	.L18:
 156              	.LBE27:
 157              	.LBE26:
 128:.\asp\kernel/exception.c **** 	bool_t	state;
 129:.\asp\kernel/exception.c **** 
 130:.\asp\kernel/exception.c **** 	LOG_XSNS_XPN_ENTER(p_excinf);
 131:.\asp\kernel/exception.c **** 	state = (exc_sense_intmask(p_excinf) && p_runtsk->enatex) ? false : true;
 158              		.loc 1 131 0
 159 0006 0120     		movs	r0, #1
 160 0008 7047     		bx	lr
ARM GAS  C:\TEMP\cckvJLfh.s 			page 17


 161              	.LVL13:
 162              	.L16:
 163              		.loc 2 619 0
 164 000a 4068     		ldr	r0, [r0, #4]
 165              	.LVL14:
 166 000c 0028     		cmp	r0, #0
 167 000e FAD1     		bne	.L18
 168              	.LBE25:
 169              	.LBE24:
 170              		.loc 1 131 0
 171 0010 0349     		ldr	r1, .L20
 172 0012 0A68     		ldr	r2, [r1, #0]
 173              	.LBB29:
 174              	.LBB28:
 175 0014 937B     		ldrb	r3, [r2, #14]	@ zero_extendqisi2
 176              	.LVL15:
 177 0016 83F00400 		eor	r0, r3, #4
 178 001a C0F38000 		ubfx	r0, r0, #2, #1
 179              	.LVL16:
 180              	.LBE28:
 181              	.LBE29:
 132:.\asp\kernel/exception.c **** 	LOG_XSNS_XPN_LEAVE(state);
 133:.\asp\kernel/exception.c **** 	return(state);
 134:.\asp\kernel/exception.c **** }
 182              		.loc 1 134 0
 183 001e 7047     		bx	lr
 184              	.L21:
 185              		.align	2
 186              	.L20:
 187 0020 00000000 		.word	_kernel_p_runtsk
 188              		.cfi_endproc
 189              	.LFE55:
 190              		.size	xsns_xpn, .-xsns_xpn
 191              		.text
 192              	.Letext0:
 193              		.file 3 ".\\asp\\arch\\gcc/tool_stddef.h"
 194              		.file 4 ".\\asp\\include/t_stddef.h"
 195              		.file 5 ".\\asp\\include/kernel.h"
 196              		.file 6 ".\\asp\\include/queue.h"
 197              		.file 7 ".\\asp\\kernel\\time_event.h"
 198              		.file 8 ".\\asp\\kernel\\task.h"
 199              		.file 9 ".\\asp\\kernel\\exception.h"