ARM GAS  C:\TEMP\cc9CsU7q.s 			page 1


   1              		.syntax unified
   2              		.cpu cortex-m3
   3              		.fpu softvfp
   4              		.eabi_attribute 20, 1
   5              		.eabi_attribute 21, 1
   6              		.eabi_attribute 23, 3
   7              		.eabi_attribute 24, 1
   8              		.eabi_attribute 25, 1
   9              		.eabi_attribute 26, 1
  10              		.eabi_attribute 30, 4
  11              		.eabi_attribute 34, 1
  12              		.eabi_attribute 18, 4
  13              		.thumb
  14              		.file	"interrupt.c"
  15              		.text
  16              	.Ltext0:
  17              		.cfi_sections	.debug_frame
  18              		.section	.text.sense_context,"ax",%progbits
  19              		.align	1
  20              		.thumb
  21              		.thumb_func
  22              		.type	sense_context, %function
  23              	sense_context:
  24              	.LFB29:
  25              		.file 1 ".\\asp\\arch\\arm_m_gcc\\common/core_config.h"
   1:.\asp\arch\arm_m_gcc\common/core_config.h **** /*
   2:.\asp\arch\arm_m_gcc\common/core_config.h ****  *  TOPPERS/ASP Kernel
   3:.\asp\arch\arm_m_gcc\common/core_config.h ****  *      Toyohashi Open Platform for Embedded Real-Time Systems/
   4:.\asp\arch\arm_m_gcc\common/core_config.h ****  *      Advanced Standard Profile Kernel
   5:.\asp\arch\arm_m_gcc\common/core_config.h ****  * 
   6:.\asp\arch\arm_m_gcc\common/core_config.h ****  *  Copyright (C) 2008-2011,2013 by Embedded and Real-Time Systems Laboratory
   7:.\asp\arch\arm_m_gcc\common/core_config.h ****  *              Graduate School of Information Science, Nagoya Univ., JAPAN
   8:.\asp\arch\arm_m_gcc\common/core_config.h ****  * 
   9:.\asp\arch\arm_m_gcc\common/core_config.h ****  *  ã‹L’˜ìŒ Ò‚ÍCˆÈ‰º‚Ì(1)`(4)‚ÌğŒ‚ğ–‚½‚·ê‡‚ÉŒÀ‚èC–{ƒ\ƒtƒgƒEƒF
  10:.\asp\arch\arm_m_gcc\common/core_config.h ****  *  ƒAi–{ƒ\ƒtƒgƒEƒFƒA‚ğ‰ü•Ï‚µ‚½‚à‚Ì‚ğŠÜ‚ŞDˆÈ‰º“¯‚¶j‚ğg—pE•¡»E‰ü
  11:.\asp\arch\arm_m_gcc\common/core_config.h ****  *  •ÏEÄ”z•ziˆÈ‰ºC—˜—p‚ÆŒÄ‚Ôj‚·‚é‚±‚Æ‚ğ–³‚Å‹–‘ø‚·‚éD
  12:.\asp\arch\arm_m_gcc\common/core_config.h ****  *  (1) –{ƒ\ƒtƒgƒEƒFƒA‚ğƒ\[ƒXƒR[ƒh‚ÌŒ`‚Å—˜—p‚·‚éê‡‚É‚ÍCã‹L‚Ì’˜ì
  13:.\asp\arch\arm_m_gcc\common/core_config.h ****  *      Œ •\¦C‚±‚Ì—˜—pğŒ‚¨‚æ‚Ñ‰º‹L‚Ì–³•ÛØ‹K’è‚ªC‚»‚Ì‚Ü‚Ü‚ÌŒ`‚Åƒ\[
  14:.\asp\arch\arm_m_gcc\common/core_config.h ****  *      ƒXƒR[ƒh’†‚ÉŠÜ‚Ü‚ê‚Ä‚¢‚é‚±‚ÆD
  15:.\asp\arch\arm_m_gcc\common/core_config.h ****  *  (2) –{ƒ\ƒtƒgƒEƒFƒA‚ğCƒ‰ƒCƒuƒ‰ƒŠŒ`®‚È‚ÇC‘¼‚Ìƒ\ƒtƒgƒEƒFƒAŠJ”­‚Ég
  16:.\asp\arch\arm_m_gcc\common/core_config.h ****  *      —p‚Å‚«‚éŒ`‚ÅÄ”z•z‚·‚éê‡‚É‚ÍCÄ”z•z‚É”º‚¤ƒhƒLƒ…ƒƒ“ƒgi—˜—p
  17:.\asp\arch\arm_m_gcc\common/core_config.h ****  *      Òƒ}ƒjƒ…ƒAƒ‹‚È‚Çj‚ÉCã‹L‚Ì’˜ìŒ •\¦C‚±‚Ì—˜—pğŒ‚¨‚æ‚Ñ‰º‹L
  18:.\asp\arch\arm_m_gcc\common/core_config.h ****  *      ‚Ì–³•ÛØ‹K’è‚ğŒfÚ‚·‚é‚±‚ÆD
  19:.\asp\arch\arm_m_gcc\common/core_config.h ****  *  (3) –{ƒ\ƒtƒgƒEƒFƒA‚ğC‹@Ší‚É‘g‚İ‚Ş‚È‚ÇC‘¼‚Ìƒ\ƒtƒgƒEƒFƒAŠJ”­‚Ég
  20:.\asp\arch\arm_m_gcc\common/core_config.h ****  *      —p‚Å‚«‚È‚¢Œ`‚ÅÄ”z•z‚·‚éê‡‚É‚ÍCŸ‚Ì‚¢‚¸‚ê‚©‚ÌğŒ‚ğ–‚½‚·‚±
  21:.\asp\arch\arm_m_gcc\common/core_config.h ****  *      ‚ÆD
  22:.\asp\arch\arm_m_gcc\common/core_config.h ****  *    (a) Ä”z•z‚É”º‚¤ƒhƒLƒ…ƒƒ“ƒgi—˜—pÒƒ}ƒjƒ…ƒAƒ‹‚È‚Çj‚ÉCã‹L‚Ì’˜
  23:.\asp\arch\arm_m_gcc\common/core_config.h ****  *        ìŒ •\¦C‚±‚Ì—˜—pğŒ‚¨‚æ‚Ñ‰º‹L‚Ì–³•ÛØ‹K’è‚ğŒfÚ‚·‚é‚±‚ÆD
  24:.\asp\arch\arm_m_gcc\common/core_config.h ****  *    (b) Ä”z•z‚ÌŒ`‘Ô‚ğC•Ê‚É’è‚ß‚é•û–@‚É‚æ‚Á‚ÄCTOPPERSƒvƒƒWƒFƒNƒg‚É
  25:.\asp\arch\arm_m_gcc\common/core_config.h ****  *        •ñ‚·‚é‚±‚ÆD
  26:.\asp\arch\arm_m_gcc\common/core_config.h ****  *  (4) –{ƒ\ƒtƒgƒEƒFƒA‚Ì—˜—p‚É‚æ‚è’¼Ú“I‚Ü‚½‚ÍŠÔÚ“I‚É¶‚¶‚é‚¢‚©‚È‚é‘¹
  27:.\asp\arch\arm_m_gcc\common/core_config.h ****  *      ŠQ‚©‚ç‚àCã‹L’˜ìŒ Ò‚¨‚æ‚ÑTOPPERSƒvƒƒWƒFƒNƒg‚ğ–ÆÓ‚·‚é‚±‚ÆD
  28:.\asp\arch\arm_m_gcc\common/core_config.h ****  *      ‚Ü‚½C–{ƒ\ƒtƒgƒEƒFƒA‚Ìƒ†[ƒU‚Ü‚½‚ÍƒGƒ“ƒhƒ†[ƒU‚©‚ç‚Ì‚¢‚©‚È‚é—
  29:.\asp\arch\arm_m_gcc\common/core_config.h ****  *      —R‚ÉŠî‚Ã‚­¿‹‚©‚ç‚àCã‹L’˜ìŒ Ò‚¨‚æ‚ÑTOPPERSƒvƒƒWƒFƒNƒg‚ğ
  30:.\asp\arch\arm_m_gcc\common/core_config.h ****  *      –ÆÓ‚·‚é‚±‚ÆD
  31:.\asp\arch\arm_m_gcc\common/core_config.h ****  * 
  32:.\asp\arch\arm_m_gcc\common/core_config.h ****  *  –{ƒ\ƒtƒgƒEƒFƒA‚ÍC–³•ÛØ‚Å’ñ‹Ÿ‚³‚ê‚Ä‚¢‚é‚à‚Ì‚Å‚ ‚éDã‹L’˜ìŒ Ò‚¨
ARM GAS  C:\TEMP\cc9CsU7q.s 			page 2


  33:.\asp\arch\arm_m_gcc\common/core_config.h ****  *  ‚æ‚ÑTOPPERSƒvƒƒWƒFƒNƒg‚ÍC–{ƒ\ƒtƒgƒEƒFƒA‚ÉŠÖ‚µ‚ÄC“Á’è‚Ìg—p–Ú“I
  34:.\asp\arch\arm_m_gcc\common/core_config.h ****  *  ‚É‘Î‚·‚é“K‡«‚àŠÜ‚ß‚ÄC‚¢‚©‚È‚é•ÛØ‚às‚í‚È‚¢D‚Ü‚½C–{ƒ\ƒtƒgƒEƒF
  35:.\asp\arch\arm_m_gcc\common/core_config.h ****  *  ƒA‚Ì—˜—p‚É‚æ‚è’¼Ú“I‚Ü‚½‚ÍŠÔÚ“I‚É¶‚¶‚½‚¢‚©‚È‚é‘¹ŠQ‚ÉŠÖ‚µ‚Ä‚àC‚»
  36:.\asp\arch\arm_m_gcc\common/core_config.h ****  *  ‚ÌÓ”C‚ğ•‰‚í‚È‚¢D
  37:.\asp\arch\arm_m_gcc\common/core_config.h ****  * 
  38:.\asp\arch\arm_m_gcc\common/core_config.h ****  *  @(#) $Id: core_config.h 2554 2013-10-17 02:53:02Z ertl-honda $
  39:.\asp\arch\arm_m_gcc\common/core_config.h ****  */
  40:.\asp\arch\arm_m_gcc\common/core_config.h **** 
  41:.\asp\arch\arm_m_gcc\common/core_config.h **** /*
  42:.\asp\arch\arm_m_gcc\common/core_config.h ****  *		ƒvƒƒZƒbƒTˆË‘¶ƒ‚ƒWƒ…[ƒ‹iARM-M—pj
  43:.\asp\arch\arm_m_gcc\common/core_config.h ****  *
  44:.\asp\arch\arm_m_gcc\common/core_config.h ****  *  ‚±‚ÌƒCƒ“ƒNƒ‹[ƒhƒtƒ@ƒCƒ‹‚ÍCtarget_config.hi‚Ü‚½‚ÍC‚»‚±‚©‚çƒCƒ“ƒN
  45:.\asp\arch\arm_m_gcc\common/core_config.h ****  *  ƒ‹[ƒh‚³‚ê‚éƒtƒ@ƒCƒ‹j‚Ì‚İ‚©‚çƒCƒ“ƒNƒ‹[ƒh‚³‚ê‚éD‘¼‚Ìƒtƒ@ƒCƒ‹‚©‚ç
  46:.\asp\arch\arm_m_gcc\common/core_config.h ****  *  ’¼ÚƒCƒ“ƒNƒ‹[ƒh‚µ‚Ä‚Í‚È‚ç‚È‚¢D
  47:.\asp\arch\arm_m_gcc\common/core_config.h ****  */
  48:.\asp\arch\arm_m_gcc\common/core_config.h **** 
  49:.\asp\arch\arm_m_gcc\common/core_config.h **** #ifndef TOPPERS_CORE_CONFIG_H
  50:.\asp\arch\arm_m_gcc\common/core_config.h **** #define TOPPERS_CORE_CONFIG_H
  51:.\asp\arch\arm_m_gcc\common/core_config.h **** 
  52:.\asp\arch\arm_m_gcc\common/core_config.h **** #ifndef TOPPERS_MACRO_ONLY
  53:.\asp\arch\arm_m_gcc\common/core_config.h **** 
  54:.\asp\arch\arm_m_gcc\common/core_config.h **** /*
  55:.\asp\arch\arm_m_gcc\common/core_config.h ****  *  ƒvƒƒZƒbƒT‚Ì“Áê–½—ß‚ÌƒCƒ“ƒ‰ƒCƒ“ŠÖ”’è‹`
  56:.\asp\arch\arm_m_gcc\common/core_config.h ****  */
  57:.\asp\arch\arm_m_gcc\common/core_config.h **** #include <core_insn.h>
  58:.\asp\arch\arm_m_gcc\common/core_config.h **** 
  59:.\asp\arch\arm_m_gcc\common/core_config.h **** /*
  60:.\asp\arch\arm_m_gcc\common/core_config.h ****  *  ƒ^[ƒQƒbƒgˆË‘¶‚ÌƒIƒuƒWƒFƒNƒg‘®«
  61:.\asp\arch\arm_m_gcc\common/core_config.h ****  */
  62:.\asp\arch\arm_m_gcc\common/core_config.h **** #define TARGET_INHATR  TA_NONKERNEL /* ƒ^[ƒQƒbƒg’è‹`‚ÌŠ„‚İƒnƒ“ƒhƒ‰‘®« */
  63:.\asp\arch\arm_m_gcc\common/core_config.h **** 
  64:.\asp\arch\arm_m_gcc\common/core_config.h **** /*
  65:.\asp\arch\arm_m_gcc\common/core_config.h ****  *  ƒGƒ‰[ƒ`ƒFƒbƒN•û–@‚Ìw’è
  66:.\asp\arch\arm_m_gcc\common/core_config.h ****  */
  67:.\asp\arch\arm_m_gcc\common/core_config.h **** #define CHECK_STKSZ_ALIGN	8	/* ƒXƒ^ƒbƒNƒTƒCƒY‚ÌƒAƒ‰ƒCƒ“’PˆÊ */
  68:.\asp\arch\arm_m_gcc\common/core_config.h **** #define CHECK_FUNC_ALIGN	1	/* ŠÖ”‚ÌƒAƒ‰ƒCƒ“’PˆÊ */
  69:.\asp\arch\arm_m_gcc\common/core_config.h **** #define CHECK_FUNC_NONNULL		/* ŠÖ”‚Ì”ñNULLƒ`ƒFƒbƒN */
  70:.\asp\arch\arm_m_gcc\common/core_config.h **** #define CHECK_STACK_ALIGN	8	/* ƒXƒ^ƒbƒN—Ìˆæ‚ÌƒAƒ‰ƒCƒ“’PˆÊ */
  71:.\asp\arch\arm_m_gcc\common/core_config.h **** #define CHECK_STACK_NONNULL		/* ƒXƒ^ƒbƒN—Ìˆæ‚Ì”ñNULLƒ`ƒFƒbƒN */
  72:.\asp\arch\arm_m_gcc\common/core_config.h **** #define CHECK_MPF_ALIGN		4	/* ŒÅ’è’·ƒƒ‚ƒŠƒv[ƒ‹—Ìˆæ‚ÌƒAƒ‰ƒCƒ“’PˆÊ */
  73:.\asp\arch\arm_m_gcc\common/core_config.h **** #define CHECK_MPF_NONNULL		/* ŒÅ’è’·ƒƒ‚ƒŠƒv[ƒ‹—Ìˆæ‚Ì”ñNULLƒ`ƒFƒbƒN */
  74:.\asp\arch\arm_m_gcc\common/core_config.h **** #define CHECK_MB_ALIGN		4	/* ŠÇ——Ìˆæ‚ÌƒAƒ‰ƒCƒ“’PˆÊ */
  75:.\asp\arch\arm_m_gcc\common/core_config.h **** 
  76:.\asp\arch\arm_m_gcc\common/core_config.h **** /*
  77:.\asp\arch\arm_m_gcc\common/core_config.h ****  *  ”ñƒ^ƒXƒNƒRƒ“ƒeƒLƒXƒg—p‚ÌƒXƒ^ƒbƒN‰Šú’l
  78:.\asp\arch\arm_m_gcc\common/core_config.h ****  */
  79:.\asp\arch\arm_m_gcc\common/core_config.h **** #define TOPPERS_ISTKPT(istk, istksz) ((STK_T *)((uint8_t *)(istk) + (istksz)))
  80:.\asp\arch\arm_m_gcc\common/core_config.h **** 
  81:.\asp\arch\arm_m_gcc\common/core_config.h **** /*
  82:.\asp\arch\arm_m_gcc\common/core_config.h ****  *  ƒ^ƒXƒNƒRƒ“ƒeƒLƒXƒgƒuƒƒbƒN‚Ì’è‹`
  83:.\asp\arch\arm_m_gcc\common/core_config.h ****  */
  84:.\asp\arch\arm_m_gcc\common/core_config.h **** typedef struct task_context_block {
  85:.\asp\arch\arm_m_gcc\common/core_config.h **** 	void	*sp;		/* ƒXƒ^ƒbƒNƒ|ƒCƒ“ƒ^ */
  86:.\asp\arch\arm_m_gcc\common/core_config.h **** 	FP		pc;			/* ƒvƒƒOƒ‰ƒ€ƒJƒEƒ“ƒ^ */
  87:.\asp\arch\arm_m_gcc\common/core_config.h **** } TSKCTXB;
  88:.\asp\arch\arm_m_gcc\common/core_config.h **** 
  89:.\asp\arch\arm_m_gcc\common/core_config.h **** #endif /* TOPPERS_MACRO_ONLY */
ARM GAS  C:\TEMP\cc9CsU7q.s 			page 3


  90:.\asp\arch\arm_m_gcc\common/core_config.h **** 
  91:.\asp\arch\arm_m_gcc\common/core_config.h **** #ifndef TOPPERS_MACRO_ONLY
  92:.\asp\arch\arm_m_gcc\common/core_config.h **** /*
  93:.\asp\arch\arm_m_gcc\common/core_config.h ****  *  ƒRƒ“ƒeƒLƒXƒg‚ÌQÆ
  94:.\asp\arch\arm_m_gcc\common/core_config.h ****  *
  95:.\asp\arch\arm_m_gcc\common/core_config.h ****  */
  96:.\asp\arch\arm_m_gcc\common/core_config.h **** Inline bool_t
  97:.\asp\arch\arm_m_gcc\common/core_config.h **** sense_context(void)
  98:.\asp\arch\arm_m_gcc\common/core_config.h **** {
  26              		.loc 1 98 0
  27              		.cfi_startproc
  28              		@ args = 0, pretend = 0, frame = 0
  29              		@ frame_needed = 0, uses_anonymous_args = 0
  30              		@ link register save eliminated.
  31              	.LBB40:
  32              	.LBB41:
  33              		.file 2 ".\\asp\\arch\\arm_m_gcc\\common/core_insn.h"
   1:.\asp\arch\arm_m_gcc\common/core_insn.h **** /*
   2:.\asp\arch\arm_m_gcc\common/core_insn.h ****  *  TOPPERS/ASP Kernel
   3:.\asp\arch\arm_m_gcc\common/core_insn.h ****  *      Toyohashi Open Platform for Embedded Real-Time Systems/
   4:.\asp\arch\arm_m_gcc\common/core_insn.h ****  *      Advanced Standard Profile Kernel
   5:.\asp\arch\arm_m_gcc\common/core_insn.h ****  * 
   6:.\asp\arch\arm_m_gcc\common/core_insn.h ****  *  Copyright (C) 2008 by Embedded and Real-Time Systems Laboratory
   7:.\asp\arch\arm_m_gcc\common/core_insn.h ****  *              Graduate School of Information Science, Nagoya Univ., JAPAN
   8:.\asp\arch\arm_m_gcc\common/core_insn.h ****  * 
   9:.\asp\arch\arm_m_gcc\common/core_insn.h ****  *  ã‹L’˜ìŒ Ò‚ÍCˆÈ‰º‚Ì(1)`(4)‚ÌğŒ‚ğ–‚½‚·ê‡‚ÉŒÀ‚èC–{ƒ\ƒtƒgƒEƒF
  10:.\asp\arch\arm_m_gcc\common/core_insn.h ****  *  ƒAi–{ƒ\ƒtƒgƒEƒFƒA‚ğ‰ü•Ï‚µ‚½‚à‚Ì‚ğŠÜ‚ŞDˆÈ‰º“¯‚¶j‚ğg—pE•¡»E‰ü
  11:.\asp\arch\arm_m_gcc\common/core_insn.h ****  *  •ÏEÄ”z•ziˆÈ‰ºC—˜—p‚ÆŒÄ‚Ôj‚·‚é‚±‚Æ‚ğ–³‚Å‹–‘ø‚·‚éD
  12:.\asp\arch\arm_m_gcc\common/core_insn.h ****  *  (1) –{ƒ\ƒtƒgƒEƒFƒA‚ğƒ\[ƒXƒR[ƒh‚ÌŒ`‚Å—˜—p‚·‚éê‡‚É‚ÍCã‹L‚Ì’˜ì
  13:.\asp\arch\arm_m_gcc\common/core_insn.h ****  *      Œ •\¦C‚±‚Ì—˜—pğŒ‚¨‚æ‚Ñ‰º‹L‚Ì–³•ÛØ‹K’è‚ªC‚»‚Ì‚Ü‚Ü‚ÌŒ`‚Åƒ\[
  14:.\asp\arch\arm_m_gcc\common/core_insn.h ****  *      ƒXƒR[ƒh’†‚ÉŠÜ‚Ü‚ê‚Ä‚¢‚é‚±‚ÆD
  15:.\asp\arch\arm_m_gcc\common/core_insn.h ****  *  (2) –{ƒ\ƒtƒgƒEƒFƒA‚ğCƒ‰ƒCƒuƒ‰ƒŠŒ`®‚È‚ÇC‘¼‚Ìƒ\ƒtƒgƒEƒFƒAŠJ”­‚Ég
  16:.\asp\arch\arm_m_gcc\common/core_insn.h ****  *      —p‚Å‚«‚éŒ`‚ÅÄ”z•z‚·‚éê‡‚É‚ÍCÄ”z•z‚É”º‚¤ƒhƒLƒ…ƒƒ“ƒgi—˜—p
  17:.\asp\arch\arm_m_gcc\common/core_insn.h ****  *      Òƒ}ƒjƒ…ƒAƒ‹‚È‚Çj‚ÉCã‹L‚Ì’˜ìŒ •\¦C‚±‚Ì—˜—pğŒ‚¨‚æ‚Ñ‰º‹L
  18:.\asp\arch\arm_m_gcc\common/core_insn.h ****  *      ‚Ì–³•ÛØ‹K’è‚ğŒfÚ‚·‚é‚±‚ÆD
  19:.\asp\arch\arm_m_gcc\common/core_insn.h ****  *  (3) –{ƒ\ƒtƒgƒEƒFƒA‚ğC‹@Ší‚É‘g‚İ‚Ş‚È‚ÇC‘¼‚Ìƒ\ƒtƒgƒEƒFƒAŠJ”­‚Ég
  20:.\asp\arch\arm_m_gcc\common/core_insn.h ****  *      —p‚Å‚«‚È‚¢Œ`‚ÅÄ”z•z‚·‚éê‡‚É‚ÍCŸ‚Ì‚¢‚¸‚ê‚©‚ÌğŒ‚ğ–‚½‚·‚±
  21:.\asp\arch\arm_m_gcc\common/core_insn.h ****  *      ‚ÆD
  22:.\asp\arch\arm_m_gcc\common/core_insn.h ****  *    (a) Ä”z•z‚É”º‚¤ƒhƒLƒ…ƒƒ“ƒgi—˜—pÒƒ}ƒjƒ…ƒAƒ‹‚È‚Çj‚ÉCã‹L‚Ì’˜
  23:.\asp\arch\arm_m_gcc\common/core_insn.h ****  *        ìŒ •\¦C‚±‚Ì—˜—pğŒ‚¨‚æ‚Ñ‰º‹L‚Ì–³•ÛØ‹K’è‚ğŒfÚ‚·‚é‚±‚ÆD
  24:.\asp\arch\arm_m_gcc\common/core_insn.h ****  *    (b) Ä”z•z‚ÌŒ`‘Ô‚ğC•Ê‚É’è‚ß‚é•û–@‚É‚æ‚Á‚ÄCTOPPERSƒvƒƒWƒFƒNƒg‚É
  25:.\asp\arch\arm_m_gcc\common/core_insn.h ****  *        •ñ‚·‚é‚±‚ÆD
  26:.\asp\arch\arm_m_gcc\common/core_insn.h ****  *  (4) –{ƒ\ƒtƒgƒEƒFƒA‚Ì—˜—p‚É‚æ‚è’¼Ú“I‚Ü‚½‚ÍŠÔÚ“I‚É¶‚¶‚é‚¢‚©‚È‚é‘¹
  27:.\asp\arch\arm_m_gcc\common/core_insn.h ****  *      ŠQ‚©‚ç‚àCã‹L’˜ìŒ Ò‚¨‚æ‚ÑTOPPERSƒvƒƒWƒFƒNƒg‚ğ–ÆÓ‚·‚é‚±‚ÆD
  28:.\asp\arch\arm_m_gcc\common/core_insn.h ****  *      ‚Ü‚½C–{ƒ\ƒtƒgƒEƒFƒA‚Ìƒ†[ƒU‚Ü‚½‚ÍƒGƒ“ƒhƒ†[ƒU‚©‚ç‚Ì‚¢‚©‚È‚é—
  29:.\asp\arch\arm_m_gcc\common/core_insn.h ****  *      —R‚ÉŠî‚Ã‚­¿‹‚©‚ç‚àCã‹L’˜ìŒ Ò‚¨‚æ‚ÑTOPPERSƒvƒƒWƒFƒNƒg‚ğ
  30:.\asp\arch\arm_m_gcc\common/core_insn.h ****  *      –ÆÓ‚·‚é‚±‚ÆD
  31:.\asp\arch\arm_m_gcc\common/core_insn.h ****  * 
  32:.\asp\arch\arm_m_gcc\common/core_insn.h ****  *  –{ƒ\ƒtƒgƒEƒFƒA‚ÍC–³•ÛØ‚Å’ñ‹Ÿ‚³‚ê‚Ä‚¢‚é‚à‚Ì‚Å‚ ‚éDã‹L’˜ìŒ Ò‚¨
  33:.\asp\arch\arm_m_gcc\common/core_insn.h ****  *  ‚æ‚ÑTOPPERSƒvƒƒWƒFƒNƒg‚ÍC–{ƒ\ƒtƒgƒEƒFƒA‚ÉŠÖ‚µ‚ÄC“Á’è‚Ìg—p–Ú“I
  34:.\asp\arch\arm_m_gcc\common/core_insn.h ****  *  ‚É‘Î‚·‚é“K‡«‚àŠÜ‚ß‚ÄC‚¢‚©‚È‚é•ÛØ‚às‚í‚È‚¢D‚Ü‚½C–{ƒ\ƒtƒgƒEƒF
  35:.\asp\arch\arm_m_gcc\common/core_insn.h ****  *  ƒA‚Ì—˜—p‚É‚æ‚è’¼Ú“I‚Ü‚½‚ÍŠÔÚ“I‚É¶‚¶‚½‚¢‚©‚È‚é‘¹ŠQ‚ÉŠÖ‚µ‚Ä‚àC‚»
  36:.\asp\arch\arm_m_gcc\common/core_insn.h ****  *  ‚ÌÓ”C‚ğ•‰‚í‚È‚¢D
  37:.\asp\arch\arm_m_gcc\common/core_insn.h ****  * 
  38:.\asp\arch\arm_m_gcc\common/core_insn.h ****  *  @(#) $Id: core_insn.h 2310 2012-02-23 02:14:28Z ertl-honda $
  39:.\asp\arch\arm_m_gcc\common/core_insn.h ****  */
  40:.\asp\arch\arm_m_gcc\common/core_insn.h **** 
ARM GAS  C:\TEMP\cc9CsU7q.s 			page 4


  41:.\asp\arch\arm_m_gcc\common/core_insn.h **** 
  42:.\asp\arch\arm_m_gcc\common/core_insn.h **** /*
  43:.\asp\arch\arm_m_gcc\common/core_insn.h ****  *  ƒRƒAˆË‘¶‚Ì“Áê–½—ß‚ÌƒCƒ“ƒ‰ƒCƒ“ŠÖ”’è‹`iARM-M—pj
  44:.\asp\arch\arm_m_gcc\common/core_insn.h ****  */
  45:.\asp\arch\arm_m_gcc\common/core_insn.h **** 
  46:.\asp\arch\arm_m_gcc\common/core_insn.h **** #ifndef CORE_INSN_H
  47:.\asp\arch\arm_m_gcc\common/core_insn.h **** #define CORE_INSN_H
  48:.\asp\arch\arm_m_gcc\common/core_insn.h **** 
  49:.\asp\arch\arm_m_gcc\common/core_insn.h **** #include <arm_m.h>
  50:.\asp\arch\arm_m_gcc\common/core_insn.h **** 
  51:.\asp\arch\arm_m_gcc\common/core_insn.h **** /*
  52:.\asp\arch\arm_m_gcc\common/core_insn.h ****  *  ƒƒ‚ƒŠ‚ª•ÏX‚³‚ê‚é‚±‚Æ‚ğƒRƒ“ƒpƒCƒ‰‚É“`‚¦‚é‚½‚ß‚Ìƒ}ƒNƒ
  53:.\asp\arch\arm_m_gcc\common/core_insn.h ****  */
  54:.\asp\arch\arm_m_gcc\common/core_insn.h **** #define ARM_MEMORY_CHANGED Asm("":::"memory")
  55:.\asp\arch\arm_m_gcc\common/core_insn.h **** 
  56:.\asp\arch\arm_m_gcc\common/core_insn.h **** /*
  57:.\asp\arch\arm_m_gcc\common/core_insn.h ****  *  FAULTMASK‚ÌƒZƒbƒg
  58:.\asp\arch\arm_m_gcc\common/core_insn.h ****  */
  59:.\asp\arch\arm_m_gcc\common/core_insn.h **** Inline void
  60:.\asp\arch\arm_m_gcc\common/core_insn.h **** set_faultmask(void){
  61:.\asp\arch\arm_m_gcc\common/core_insn.h **** 	Asm("cpsid f":::"memory");
  62:.\asp\arch\arm_m_gcc\common/core_insn.h **** }
  63:.\asp\arch\arm_m_gcc\common/core_insn.h **** 
  64:.\asp\arch\arm_m_gcc\common/core_insn.h **** /*
  65:.\asp\arch\arm_m_gcc\common/core_insn.h ****  *  FAULTMASK‚ÌƒNƒŠƒA
  66:.\asp\arch\arm_m_gcc\common/core_insn.h ****  */
  67:.\asp\arch\arm_m_gcc\common/core_insn.h **** Inline void
  68:.\asp\arch\arm_m_gcc\common/core_insn.h **** clear_faultmask(void){
  69:.\asp\arch\arm_m_gcc\common/core_insn.h **** 	Asm("cpsie f":::"memory");
  70:.\asp\arch\arm_m_gcc\common/core_insn.h **** }
  71:.\asp\arch\arm_m_gcc\common/core_insn.h **** 
  72:.\asp\arch\arm_m_gcc\common/core_insn.h **** /*
  73:.\asp\arch\arm_m_gcc\common/core_insn.h ****  *  PRIMASK‚ÌƒZƒbƒg
  74:.\asp\arch\arm_m_gcc\common/core_insn.h ****  */
  75:.\asp\arch\arm_m_gcc\common/core_insn.h **** Inline void
  76:.\asp\arch\arm_m_gcc\common/core_insn.h **** set_primask(void){
  77:.\asp\arch\arm_m_gcc\common/core_insn.h **** 	Asm("cpsid i":::"memory");
  78:.\asp\arch\arm_m_gcc\common/core_insn.h **** }
  79:.\asp\arch\arm_m_gcc\common/core_insn.h **** 
  80:.\asp\arch\arm_m_gcc\common/core_insn.h **** /*
  81:.\asp\arch\arm_m_gcc\common/core_insn.h ****  *  PRIMASK‚ÌƒNƒŠƒA
  82:.\asp\arch\arm_m_gcc\common/core_insn.h ****  */
  83:.\asp\arch\arm_m_gcc\common/core_insn.h **** Inline void
  84:.\asp\arch\arm_m_gcc\common/core_insn.h **** clear_primask(void){
  85:.\asp\arch\arm_m_gcc\common/core_insn.h **** 	Asm("cpsie i":::"memory");
  86:.\asp\arch\arm_m_gcc\common/core_insn.h **** }
  87:.\asp\arch\arm_m_gcc\common/core_insn.h **** 
  88:.\asp\arch\arm_m_gcc\common/core_insn.h **** /*
  89:.\asp\arch\arm_m_gcc\common/core_insn.h ****  *  BASEPRI‚ÌƒZƒbƒg
  90:.\asp\arch\arm_m_gcc\common/core_insn.h ****  */
  91:.\asp\arch\arm_m_gcc\common/core_insn.h **** Inline void
  92:.\asp\arch\arm_m_gcc\common/core_insn.h **** set_basepri(uint32_t val){
  93:.\asp\arch\arm_m_gcc\common/core_insn.h **** 	Asm("msr BASEPRI, %0" : : "r"(val) : "memory");
  94:.\asp\arch\arm_m_gcc\common/core_insn.h **** }
  95:.\asp\arch\arm_m_gcc\common/core_insn.h **** 
  96:.\asp\arch\arm_m_gcc\common/core_insn.h **** /*
  97:.\asp\arch\arm_m_gcc\common/core_insn.h ****  *  BASEPRI‚Ìæ“¾
ARM GAS  C:\TEMP\cc9CsU7q.s 			page 5


  98:.\asp\arch\arm_m_gcc\common/core_insn.h ****  */
  99:.\asp\arch\arm_m_gcc\common/core_insn.h **** Inline uint32_t
 100:.\asp\arch\arm_m_gcc\common/core_insn.h **** get_basepri(void){
 101:.\asp\arch\arm_m_gcc\common/core_insn.h **** 	uint32_t val;
 102:.\asp\arch\arm_m_gcc\common/core_insn.h **** 	Asm("mrs  %0, BASEPRI" : "=r"(val));
 103:.\asp\arch\arm_m_gcc\common/core_insn.h **** 	return(val);
 104:.\asp\arch\arm_m_gcc\common/core_insn.h **** }
 105:.\asp\arch\arm_m_gcc\common/core_insn.h **** 
 106:.\asp\arch\arm_m_gcc\common/core_insn.h **** /*
 107:.\asp\arch\arm_m_gcc\common/core_insn.h ****  *  CONTROL‚ÌƒZƒbƒg
 108:.\asp\arch\arm_m_gcc\common/core_insn.h ****  */
 109:.\asp\arch\arm_m_gcc\common/core_insn.h **** Inline void
 110:.\asp\arch\arm_m_gcc\common/core_insn.h **** set_control(uint32_t val){
 111:.\asp\arch\arm_m_gcc\common/core_insn.h **** 	/*
 112:.\asp\arch\arm_m_gcc\common/core_insn.h **** 	 *  controlƒŒƒWƒXƒ^ƒZƒbƒgŒã‚É‚Íisb‚ª•K{
 113:.\asp\arch\arm_m_gcc\common/core_insn.h **** 	 *  [ARMv7-M Architecture Reference Manaual(DDI0403B) A3-37]
 114:.\asp\arch\arm_m_gcc\common/core_insn.h **** 	 */
 115:.\asp\arch\arm_m_gcc\common/core_insn.h **** 	Asm("msr control, %0 \n"
 116:.\asp\arch\arm_m_gcc\common/core_insn.h **** 		" isb"
 117:.\asp\arch\arm_m_gcc\common/core_insn.h **** 		: : "r"(val) : "memory");
 118:.\asp\arch\arm_m_gcc\common/core_insn.h **** }
 119:.\asp\arch\arm_m_gcc\common/core_insn.h **** 
 120:.\asp\arch\arm_m_gcc\common/core_insn.h **** /*
 121:.\asp\arch\arm_m_gcc\common/core_insn.h ****  *  CONTROL‚Ìæ“¾
 122:.\asp\arch\arm_m_gcc\common/core_insn.h ****  */
 123:.\asp\arch\arm_m_gcc\common/core_insn.h **** Inline uint32_t
 124:.\asp\arch\arm_m_gcc\common/core_insn.h **** get_control(void){
 125:.\asp\arch\arm_m_gcc\common/core_insn.h **** 	uint32_t val;
 126:.\asp\arch\arm_m_gcc\common/core_insn.h **** 	Asm("mrs  %0, CONTROL" : "=r"(val));
  34              		.loc 2 126 0
  35              	@ 126 ".\asp\arch\arm_m_gcc\common/core_insn.h" 1
  36 0000 EFF31480 		mrs  r0, CONTROL
  37              	@ 0 "" 2
  38              	.LVL0:
  39              		.thumb
  40              	.LBE41:
  41              	.LBE40:
  99:.\asp\arch\arm_m_gcc\common/core_config.h **** 	/*
 100:.\asp\arch\arm_m_gcc\common/core_config.h **** 	 *  PSP‚ª—LŒø‚È‚çƒ^ƒXƒNƒRƒ“ƒeƒLƒXƒgCMSP‚ª—LŒø‚È‚ç”ñƒ^ƒXƒNƒRƒ“ƒeƒLƒXƒg
 101:.\asp\arch\arm_m_gcc\common/core_config.h **** 	 *  ‚Æ‚·‚éD 
 102:.\asp\arch\arm_m_gcc\common/core_config.h **** 	 */
 103:.\asp\arch\arm_m_gcc\common/core_config.h **** 	if ((get_control() & CONTROL_PSP) == CONTROL_PSP){
  42              		.loc 1 103 0
  43 0004 80F00201 		eor	r1, r0, #2
 104:.\asp\arch\arm_m_gcc\common/core_config.h **** 		return false;
 105:.\asp\arch\arm_m_gcc\common/core_config.h **** 	}
 106:.\asp\arch\arm_m_gcc\common/core_config.h **** 	else {
 107:.\asp\arch\arm_m_gcc\common/core_config.h **** 		return true;
 108:.\asp\arch\arm_m_gcc\common/core_config.h **** 	}
 109:.\asp\arch\arm_m_gcc\common/core_config.h **** }
  44              		.loc 1 109 0
  45 0008 C1F34000 		ubfx	r0, r1, #1, #1
  46              	.LVL1:
  47 000c 7047     		bx	lr
  48              		.cfi_endproc
  49              	.LFE29:
  50              		.size	sense_context, .-sense_context
ARM GAS  C:\TEMP\cc9CsU7q.s 			page 6


  51              		.section	.text.x_lock_cpu,"ax",%progbits
  52              		.align	1
  53              		.thumb
  54              		.thumb_func
  55              		.type	x_lock_cpu, %function
  56              	x_lock_cpu:
  57              	.LFB30:
 110:.\asp\arch\arm_m_gcc\common/core_config.h **** 
 111:.\asp\arch\arm_m_gcc\common/core_config.h **** #endif /* TOPPERS_MACRO_ONLY */
 112:.\asp\arch\arm_m_gcc\common/core_config.h **** 
 113:.\asp\arch\arm_m_gcc\common/core_config.h **** /*
 114:.\asp\arch\arm_m_gcc\common/core_config.h ****  *  TOPPERS•W€Š„‚İˆ—ƒ‚ƒfƒ‹‚ÌÀŒ»
 115:.\asp\arch\arm_m_gcc\common/core_config.h ****  *
 116:.\asp\arch\arm_m_gcc\common/core_config.h ****  *  Š„‚İ—Dæ“xƒ}ƒXƒN‚Æ‚µ‚Ä‚ÍCBASEPRI‚ğ—p‚¢‚éD‘SŠ„‚İ‚ğ‹Ö~‚·‚é
 117:.\asp\arch\arm_m_gcc\common/core_config.h ****  *  ‹@”\‚Æ‚µ‚ÄCFAULTMASK‚âPRIMASK‚ª‚ ‚é‚ªCƒJ[ƒlƒ‹ŠÇ—ŠO‚ÌŠ„‚İ‚ğ
 118:.\asp\arch\arm_m_gcc\common/core_config.h ****  *  ƒTƒ|[ƒg‚·‚é‚½‚ßC‚±‚ê‚ç‚ÍCPUƒƒbƒN‚Ì‚½‚ß‚É—p‚¢‚È‚¢D
 119:.\asp\arch\arm_m_gcc\common/core_config.h ****  *  ‚»‚Ì‚½‚ßCBASEPRI‚ğ—p‚¢‚Ä‹[—“I‚ÉCPUƒƒbƒNƒtƒ‰ƒO‚ğÀŒ»‚·‚éD
 120:.\asp\arch\arm_m_gcc\common/core_config.h ****  *
 121:.\asp\arch\arm_m_gcc\common/core_config.h ****  *  ‚Ü‚¸CCPUƒƒbƒNó‘Ô‚ğŠÇ—‚·‚½‚ß‚Ì•Ï”(lock_flag)‚ğ—pˆÓ‚·‚éD
 122:.\asp\arch\arm_m_gcc\common/core_config.h ****  *
 123:.\asp\arch\arm_m_gcc\common/core_config.h ****  *  CPUƒƒbƒNƒtƒ‰ƒO‚ªƒNƒŠƒA‚³‚ê‚Ä‚¢‚éŠÔ‚ÍCBASEPRI‚ğƒ‚ƒfƒ‹ã‚ÌŠ„‚İ
 124:.\asp\arch\arm_m_gcc\common/core_config.h ****  *  —Dæ“xƒ}ƒXƒN‚Ì’l‚Éİ’è‚·‚éD‚±‚ÌŠÔ‚ÍCƒ‚ƒfƒ‹ã‚ÌŠ„‚İ—Dæ“xƒ}ƒX
 125:.\asp\arch\arm_m_gcc\common/core_config.h ****  *  ƒN‚ÍCBASEPRI‚ğ—p‚¢‚éD
 126:.\asp\arch\arm_m_gcc\common/core_config.h ****  * 
 127:.\asp\arch\arm_m_gcc\common/core_config.h ****  *  ‚»‚ê‚É‘Î‚µ‚ÄCPUƒƒbƒNƒtƒ‰ƒO‚ªƒZƒbƒg‚³‚ê‚¢‚éŠÔ‚ÍCBASEPRI‚ğCƒJ[ƒl
 128:.\asp\arch\arm_m_gcc\common/core_config.h ****  *  ƒ‹ŠÇ—ŠO‚Ì‚à‚Ì‚ğœ‚­‚·‚×‚Ä‚ÌŠ„‚İ—v‹‚ğƒ}ƒXƒN‚·‚é’l(TIPM_LOCK)‚ÆC
 129:.\asp\arch\arm_m_gcc\common/core_config.h ****  *  ƒ‚ƒfƒ‹ã‚ÌŠ„‚İ—Dæ“xƒ}ƒXƒN‚Æ‚Ì‚‚¢•û‚Éİ’è‚·‚éD‚±‚ÌŠÔ‚Ìƒ‚ƒfƒ‹ã
 130:.\asp\arch\arm_m_gcc\common/core_config.h ****  *  ‚ÌŠ„‚İ—Dæ“xƒ}ƒXƒN‚ÍC‚»‚Ì‚½‚ß‚Ì•Ï”(saved_iipm, “à•”•\Œ»‚Å•Û)
 131:.\asp\arch\arm_m_gcc\common/core_config.h ****  *  ‚ğ—pˆÓ‚µ‚Ä•Û‚·‚éD
 132:.\asp\arch\arm_m_gcc\common/core_config.h ****  */
 133:.\asp\arch\arm_m_gcc\common/core_config.h **** 
 134:.\asp\arch\arm_m_gcc\common/core_config.h **** /*
 135:.\asp\arch\arm_m_gcc\common/core_config.h ****  *  Š„‚İ—Dæ“xƒ}ƒXƒN‚ÌŠO•”•\Œ»‚Æ“à•”•\Œ»‚Ì•ÏŠ·
 136:.\asp\arch\arm_m_gcc\common/core_config.h ****  *
 137:.\asp\arch\arm_m_gcc\common/core_config.h ****  *  ƒAƒZƒ“ƒuƒŠŒ¾Œê‚Ìƒ\[ƒXƒtƒ@ƒCƒ‹‚©‚çƒCƒ“ƒNƒ‹[ƒh‚·‚éê‡‚Ì‚½‚ß‚ÉC
 138:.\asp\arch\arm_m_gcc\common/core_config.h ****  *  CAST‚ğg—p
 139:.\asp\arch\arm_m_gcc\common/core_config.h ****  *  Š„‚İ—Dæ“x‚Ìƒrƒbƒg•(TBITW_IPRI)‚ª 8 ‚Ìê‡‚ÍC“à•”—Dæ“x 255
 140:.\asp\arch\arm_m_gcc\common/core_config.h ****  *  ‚ÍCŠO•”—Dæ“x -1 ‚É‘Î‰‚·‚éD
 141:.\asp\arch\arm_m_gcc\common/core_config.h ****  */
 142:.\asp\arch\arm_m_gcc\common/core_config.h **** #define EXT_IPM(iipm)   (CAST(PRI,((iipm >> (8 - TBITW_IPRI)) - (1 << TBITW_IPRI))))       /* “à•”•
 143:.\asp\arch\arm_m_gcc\common/core_config.h **** #define INT_IPM(ipm)    (((1 << TBITW_IPRI) - CAST(uint8_t, -(ipm)))  << (8 - TBITW_IPRI)) /* ŠO•”•
 144:.\asp\arch\arm_m_gcc\common/core_config.h **** 
 145:.\asp\arch\arm_m_gcc\common/core_config.h **** /*
 146:.\asp\arch\arm_m_gcc\common/core_config.h ****  *  CPUƒƒbƒNó‘Ô‚Å‚ÌŠ„‚İ—Dæ“xƒ}ƒXƒN
 147:.\asp\arch\arm_m_gcc\common/core_config.h ****  */
 148:.\asp\arch\arm_m_gcc\common/core_config.h **** #define TIPM_LOCK    TMIN_INTPRI
 149:.\asp\arch\arm_m_gcc\common/core_config.h **** 
 150:.\asp\arch\arm_m_gcc\common/core_config.h **** /*
 151:.\asp\arch\arm_m_gcc\common/core_config.h ****  *  CPUƒƒbƒNó‘Ô‚Å‚ÌŠ„‚İ—Dæ“xƒ}ƒXƒN‚Ì“à•”•\Œ»
 152:.\asp\arch\arm_m_gcc\common/core_config.h ****  *
 153:.\asp\arch\arm_m_gcc\common/core_config.h ****  *  TIPM_LOCK‚ÍCCPUƒƒbƒNó‘Ô‚Å‚ÌBASEPRI‚Ì’lDƒJ[ƒlƒ‹ŠÇ—ŠO‚Ì‚à‚Ì‚ğ
 154:.\asp\arch\arm_m_gcc\common/core_config.h ****  *  œ‚­‚·‚×‚Ä‚ÌŠ„‚İ‚ğƒ}ƒXƒN‚·‚é’l‚É’è‹`‚·‚éD  
 155:.\asp\arch\arm_m_gcc\common/core_config.h ****  */
 156:.\asp\arch\arm_m_gcc\common/core_config.h **** #define IIPM_LOCK    INT_IPM(TIPM_LOCK)
 157:.\asp\arch\arm_m_gcc\common/core_config.h **** 
 158:.\asp\arch\arm_m_gcc\common/core_config.h **** /*
 159:.\asp\arch\arm_m_gcc\common/core_config.h ****  *  TIPM_ENAALLiŠ„‚İ—Dæ“xƒ}ƒXƒN‘S‰ğœj‚Ì“à•”•\Œ»
ARM GAS  C:\TEMP\cc9CsU7q.s 			page 7


 160:.\asp\arch\arm_m_gcc\common/core_config.h ****  *
 161:.\asp\arch\arm_m_gcc\common/core_config.h ****  *  BASEPRI‚É '0' ‚ğİ’è‚·‚é‚±‚Æ‚ÅC‘SŠ„‚İ‚ğ‹–‰Â‚·‚éD
 162:.\asp\arch\arm_m_gcc\common/core_config.h ****  */
 163:.\asp\arch\arm_m_gcc\common/core_config.h **** #define IIPM_ENAALL  (0)
 164:.\asp\arch\arm_m_gcc\common/core_config.h **** 
 165:.\asp\arch\arm_m_gcc\common/core_config.h **** 
 166:.\asp\arch\arm_m_gcc\common/core_config.h **** #ifndef TOPPERS_MACRO_ONLY
 167:.\asp\arch\arm_m_gcc\common/core_config.h **** 
 168:.\asp\arch\arm_m_gcc\common/core_config.h **** /*
 169:.\asp\arch\arm_m_gcc\common/core_config.h ****  *  CPUƒƒbƒNƒtƒ‰ƒOÀŒ»‚Ì‚½‚ß‚Ì•Ï”
 170:.\asp\arch\arm_m_gcc\common/core_config.h ****  * 
 171:.\asp\arch\arm_m_gcc\common/core_config.h ****  *  ‚±‚ê‚ç‚Ì•Ï”‚ÍCCPUƒƒbƒNó‘Ô‚Ì‚Ì‚İ‘‚«Š·‚¦‚Ä‚à‚æ‚¢‚Æ‚·‚éD
 172:.\asp\arch\arm_m_gcc\common/core_config.h ****  *  ƒCƒ“ƒ‰ƒCƒ“ŠÖ”’†‚ÅCƒAƒNƒZƒX‚Ì‡˜‚ª•Ï‰»‚µ‚È‚¢‚æ‚¤Cvolatile ‚ğw’èD 
 173:.\asp\arch\arm_m_gcc\common/core_config.h ****  */
 174:.\asp\arch\arm_m_gcc\common/core_config.h **** extern volatile bool_t  lock_flag;    /* CPUƒƒbƒNƒtƒ‰ƒO‚Ì’l‚ğ•Û‚·‚é•Ï” */
 175:.\asp\arch\arm_m_gcc\common/core_config.h **** extern volatile uint32_t saved_iipm;  /* Š„‚İ—Dæ“x‚ğƒ}ƒXƒN‚·‚é•Ï” */
 176:.\asp\arch\arm_m_gcc\common/core_config.h **** 
 177:.\asp\arch\arm_m_gcc\common/core_config.h **** /*
 178:.\asp\arch\arm_m_gcc\common/core_config.h ****  *  CPUƒƒbƒNó‘Ô‚Ö‚ÌˆÚs
 179:.\asp\arch\arm_m_gcc\common/core_config.h ****  *
 180:.\asp\arch\arm_m_gcc\common/core_config.h ****  *  BASEPRIiƒn[ƒhƒEƒFƒA‚ÌŠ„‚İ—Dæ“xƒ}ƒXƒNj‚ğCsaved_iipm‚É•Û‘¶‚µC
 181:.\asp\arch\arm_m_gcc\common/core_config.h ****  *  ƒJ[ƒlƒ‹ŠÇ—ŠO‚Ì‚à‚Ì‚ğœ‚­‚·‚×‚Ä‚ÌŠ„‚İ‚ğƒ}ƒXƒN‚·‚é’liTIPM_LOCKj
 182:.\asp\arch\arm_m_gcc\common/core_config.h ****  *  ‚Éİ’è‚·‚éD‚Ü‚½Clock_flag‚ğtrue‚É‚·‚éD
 183:.\asp\arch\arm_m_gcc\common/core_config.h ****  *
 184:.\asp\arch\arm_m_gcc\common/core_config.h ****  *  BASEPRI‚ªCÅ‰‚©‚çTIPM_LOCK‚Æ“¯‚¶‚©‚»‚ê‚æ‚è‚‚¢ê‡‚É‚ÍC‚»‚ê‚ğ
 185:.\asp\arch\arm_m_gcc\common/core_config.h ****  *  saved_iipm‚É•Û‘¶‚·‚é‚Ì‚İ‚ÅCTIPM_LOCK‚É‚Íİ’è‚µ‚È‚¢D‚±‚ê‚ÍCƒ‚ƒfƒ‹
 186:.\asp\arch\arm_m_gcc\common/core_config.h ****  *  ã‚ÌŠ„‚İ—Dæ“xƒ}ƒXƒN‚ªCTIPM_LOCK‚Æ“¯‚¶‚©‚»‚ê‚æ‚è‚‚¢ƒŒƒxƒ‹‚Éİ’è
 187:.\asp\arch\arm_m_gcc\common/core_config.h ****  *  ‚³‚ê‚Ä‚¢‚éó‘Ô‚É‚ ‚½‚éD
 188:.\asp\arch\arm_m_gcc\common/core_config.h ****  *
 189:.\asp\arch\arm_m_gcc\common/core_config.h ****  *  ‚±‚ÌŠÖ”‚ÍCCPUƒƒbƒNó‘Ôilock_flag‚ªtrue‚Ìó‘Ôj‚ÅŒÄ‚Î‚ê‚é‚±‚Æ‚Í
 190:.\asp\arch\arm_m_gcc\common/core_config.h ****  *  ‚È‚¢‚à‚Ì‚Æ‘z’è‚µ‚Ä‚¢‚éD
 191:.\asp\arch\arm_m_gcc\common/core_config.h ****  */
 192:.\asp\arch\arm_m_gcc\common/core_config.h **** Inline void
 193:.\asp\arch\arm_m_gcc\common/core_config.h **** x_lock_cpu(void)
 194:.\asp\arch\arm_m_gcc\common/core_config.h **** {
  58              		.loc 1 194 0
  59              		.cfi_startproc
  60              		@ args = 0, pretend = 0, frame = 0
  61              		@ frame_needed = 0, uses_anonymous_args = 0
  62              		@ link register save eliminated.
  63              	.LBB42:
  64              	.LBB43:
 102:.\asp\arch\arm_m_gcc\common/core_insn.h **** 	Asm("mrs  %0, BASEPRI" : "=r"(val));
  65              		.loc 2 102 0
  66              	@ 102 ".\asp\arch\arm_m_gcc\common/core_insn.h" 1
  67 0000 EFF31183 		mrs  r3, BASEPRI
  68              	@ 0 "" 2
  69              	.LVL2:
  70              		.thumb
  71              	.LBE43:
  72              	.LBE42:
 195:.\asp\arch\arm_m_gcc\common/core_config.h **** 	uint32_t iipm;
 196:.\asp\arch\arm_m_gcc\common/core_config.h **** 
 197:.\asp\arch\arm_m_gcc\common/core_config.h **** 	/*
 198:.\asp\arch\arm_m_gcc\common/core_config.h **** 	 *  get_basepri()‚Ì•Ô‚è’l‚ğ’¼Úsaved_iipm‚É•Û‘¶‚¹‚¸Cˆê•Ï”iipm
 199:.\asp\arch\arm_m_gcc\common/core_config.h **** 	 *  ‚ğ—p‚¢‚Ä‚¢‚é‚Ì‚ÍCget_baespri()‚ğŒÄ‚ñ‚¾’¼Œã‚ÉŠ„‚İ‚ª”­¶‚µC
 200:.\asp\arch\arm_m_gcc\common/core_config.h **** 	 *  ‹N“®‚³‚ê‚½Š„‚İˆ—‚Åsaved_iipm‚ª•ÏX‚³‚ê‚é‰Â”\«‚ª‚ ‚é‚½‚ß‚Å
ARM GAS  C:\TEMP\cc9CsU7q.s 			page 8


 201:.\asp\arch\arm_m_gcc\common/core_config.h **** 	 *  ‚ ‚éD
 202:.\asp\arch\arm_m_gcc\common/core_config.h **** 	 */
 203:.\asp\arch\arm_m_gcc\common/core_config.h **** 	iipm = get_basepri();
 204:.\asp\arch\arm_m_gcc\common/core_config.h **** 	/*
 205:.\asp\arch\arm_m_gcc\common/core_config.h **** 	 *  BASEPRIƒŒƒWƒXƒ^‚Í’l‚ª¬‚³‚¢‚Ù‚Ç—Dæ“x‚ª‚‚¢‚ªCIIPM_ENAALL ‚ª
 206:.\asp\arch\arm_m_gcc\common/core_config.h **** 	 *  '0'‚Å‚ ‚é‚½‚ßC’Pƒ‚É—Dæ“x”äŠr‚¾‚¯‚Å‚Í•s\•ª‚Å‚ ‚éD
 207:.\asp\arch\arm_m_gcc\common/core_config.h **** 	 */
 208:.\asp\arch\arm_m_gcc\common/core_config.h **** 	if ((IIPM_LOCK < iipm) || (IIPM_ENAALL == iipm)) {
  73              		.loc 1 208 0
  74 0004 5A1E     		subs	r2, r3, #1
  75 0006 1F2A     		cmp	r2, #31
  76 0008 02D9     		bls	.L3
  77              	.LVL3:
  78              	.LBB44:
  79              	.LBB45:
  93:.\asp\arch\arm_m_gcc\common/core_insn.h **** 	Asm("msr BASEPRI, %0" : : "r"(val) : "memory");
  80              		.loc 2 93 0
  81 000a 2020     		movs	r0, #32
  82              	@ 93 ".\asp\arch\arm_m_gcc\common/core_insn.h" 1
  83 000c 80F31188 		msr BASEPRI, r0
  84              	@ 0 "" 2
  85              	.LVL4:
  86              		.thumb
  87              	.L3:
  88              	.LBE45:
  89              	.LBE44:
 209:.\asp\arch\arm_m_gcc\common/core_config.h **** 		set_basepri(IIPM_LOCK);
 210:.\asp\arch\arm_m_gcc\common/core_config.h **** 	}
 211:.\asp\arch\arm_m_gcc\common/core_config.h **** 	saved_iipm = iipm;
  90              		.loc 1 211 0
  91 0010 0249     		ldr	r1, .L5
 212:.\asp\arch\arm_m_gcc\common/core_config.h **** 	lock_flag = true;
  92              		.loc 1 212 0
  93 0012 0122     		movs	r2, #1
 211:.\asp\arch\arm_m_gcc\common/core_config.h **** 	saved_iipm = iipm;
  94              		.loc 1 211 0
  95 0014 0B60     		str	r3, [r1, #0]
  96              		.loc 1 212 0
  97 0016 024B     		ldr	r3, .L5+4
  98              	.LVL5:
  99 0018 1A60     		str	r2, [r3, #0]
 213:.\asp\arch\arm_m_gcc\common/core_config.h **** 	/* ƒNƒŠƒeƒBƒJƒ‹ƒZƒNƒVƒ‡ƒ“‚Ì‘OŒã‚Åƒƒ‚ƒŠ‚ª‘‚«Š·‚í‚é‰Â”\«‚ª‚ ‚é */
 214:.\asp\arch\arm_m_gcc\common/core_config.h **** 	ARM_MEMORY_CHANGED;
 100              		.loc 1 214 0
 101 001a 7047     		bx	lr
 102              	.L6:
 103              		.align	2
 104              	.L5:
 105 001c 00000000 		.word	_kernel_saved_iipm
 106 0020 00000000 		.word	_kernel_lock_flag
 107              		.cfi_endproc
 108              	.LFE30:
 109              		.size	x_lock_cpu, .-x_lock_cpu
 110              		.section	.text.x_unlock_cpu,"ax",%progbits
 111              		.align	1
 112              		.thumb
 113              		.thumb_func
ARM GAS  C:\TEMP\cc9CsU7q.s 			page 9


 114              		.type	x_unlock_cpu, %function
 115              	x_unlock_cpu:
 116              	.LFB31:
 215:.\asp\arch\arm_m_gcc\common/core_config.h **** }
 216:.\asp\arch\arm_m_gcc\common/core_config.h **** 
 217:.\asp\arch\arm_m_gcc\common/core_config.h **** #define t_lock_cpu()    x_lock_cpu()
 218:.\asp\arch\arm_m_gcc\common/core_config.h **** #define i_lock_cpu()    x_lock_cpu()
 219:.\asp\arch\arm_m_gcc\common/core_config.h **** 
 220:.\asp\arch\arm_m_gcc\common/core_config.h **** /*
 221:.\asp\arch\arm_m_gcc\common/core_config.h ****  *  CPUƒƒbƒNó‘Ô‚Ì‰ğœ
 222:.\asp\arch\arm_m_gcc\common/core_config.h ****  *
 223:.\asp\arch\arm_m_gcc\common/core_config.h ****  *  lock_flag‚ğfalse‚É‚µCIPMiƒn[ƒhƒEƒFƒA‚ÌŠ„‚İ—Dæ“xƒ}ƒXƒNj‚ğC
 224:.\asp\arch\arm_m_gcc\common/core_config.h ****  *  saved_iipm‚É•Û‘¶‚µ‚½’l‚É–ß‚·D
 225:.\asp\arch\arm_m_gcc\common/core_config.h ****  *
 226:.\asp\arch\arm_m_gcc\common/core_config.h ****  *  ‚±‚ÌŠÖ”‚ÍCCPUƒƒbƒNó‘Ôilock_flag‚ªtrue‚Ìó‘Ôj‚Å‚Ì‚İŒÄ‚Î‚ê‚é‚à
 227:.\asp\arch\arm_m_gcc\common/core_config.h ****  *  ‚Ì‚Æ‘z’è‚µ‚Ä‚¢‚éD
 228:.\asp\arch\arm_m_gcc\common/core_config.h ****  */
 229:.\asp\arch\arm_m_gcc\common/core_config.h **** Inline void
 230:.\asp\arch\arm_m_gcc\common/core_config.h **** x_unlock_cpu(void)
 231:.\asp\arch\arm_m_gcc\common/core_config.h **** {
 117              		.loc 1 231 0
 118              		.cfi_startproc
 119              		@ args = 0, pretend = 0, frame = 0
 120              		@ frame_needed = 0, uses_anonymous_args = 0
 121              		@ link register save eliminated.
 232:.\asp\arch\arm_m_gcc\common/core_config.h **** 	/* ƒNƒŠƒeƒBƒJƒ‹ƒZƒNƒVƒ‡ƒ“‚Ì‘OŒã‚Åƒƒ‚ƒŠ‚ª‘‚«Š·‚í‚é‰Â”\«‚ª‚ ‚é */
 233:.\asp\arch\arm_m_gcc\common/core_config.h **** 	ARM_MEMORY_CHANGED;
 122              		.loc 1 233 0
 234:.\asp\arch\arm_m_gcc\common/core_config.h **** 	lock_flag = false;
 123              		.loc 1 234 0
 124 0000 034B     		ldr	r3, .L8
 125 0002 0022     		movs	r2, #0
 235:.\asp\arch\arm_m_gcc\common/core_config.h **** 	set_basepri(saved_iipm);
 126              		.loc 1 235 0
 127 0004 0348     		ldr	r0, .L8+4
 234:.\asp\arch\arm_m_gcc\common/core_config.h **** 	lock_flag = false;
 128              		.loc 1 234 0
 129 0006 1A60     		str	r2, [r3, #0]
 130              		.loc 1 235 0
 131 0008 0168     		ldr	r1, [r0, #0]
 132              	.LVL6:
 133              	.LBB46:
 134              	.LBB47:
  93:.\asp\arch\arm_m_gcc\common/core_insn.h **** 	Asm("msr BASEPRI, %0" : : "r"(val) : "memory");
 135              		.loc 2 93 0
 136              	@ 93 ".\asp\arch\arm_m_gcc\common/core_insn.h" 1
 137 000a 81F31188 		msr BASEPRI, r1
 138              	@ 0 "" 2
 139              		.thumb
 140 000e 7047     		bx	lr
 141              	.L9:
 142              		.align	2
 143              	.L8:
 144 0010 00000000 		.word	_kernel_lock_flag
 145 0014 00000000 		.word	_kernel_saved_iipm
 146              	.LBE47:
 147              	.LBE46:
ARM GAS  C:\TEMP\cc9CsU7q.s 			page 10


 148              		.cfi_endproc
 149              	.LFE31:
 150              		.size	x_unlock_cpu, .-x_unlock_cpu
 151              		.section	.text._kernel_initialize_interrupt,"ax",%progbits
 152              		.align	1
 153              		.global	_kernel_initialize_interrupt
 154              		.thumb
 155              		.thumb_func
 156              		.type	_kernel_initialize_interrupt, %function
 157              	_kernel_initialize_interrupt:
 158              	.LFB53:
 159              		.file 3 ".\\asp\\kernel\\interrupt.c"
   1:.\asp\kernel/interrupt.c **** /*
   2:.\asp\kernel/interrupt.c ****  *  TOPPERS/ASP Kernel
   3:.\asp\kernel/interrupt.c ****  *      Toyohashi Open Platform for Embedded Real-Time Systems/
   4:.\asp\kernel/interrupt.c ****  *      Advanced Standard Profile Kernel
   5:.\asp\kernel/interrupt.c ****  * 
   6:.\asp\kernel/interrupt.c ****  *  Copyright (C) 2000-2003 by Embedded and Real-Time Systems Laboratory
   7:.\asp\kernel/interrupt.c ****  *                              Toyohashi Univ. of Technology, JAPAN
   8:.\asp\kernel/interrupt.c ****  *  Copyright (C) 2005-2011 by Embedded and Real-Time Systems Laboratory
   9:.\asp\kernel/interrupt.c ****  *              Graduate School of Information Science, Nagoya Univ., JAPAN
  10:.\asp\kernel/interrupt.c ****  * 
  11:.\asp\kernel/interrupt.c ****  *  ã‹L’˜ìŒ Ò‚ÍCˆÈ‰º‚Ì(1)`(4)‚ÌğŒ‚ğ–‚½‚·ê‡‚ÉŒÀ‚èC–{ƒ\ƒtƒgƒEƒF
  12:.\asp\kernel/interrupt.c ****  *  ƒAi–{ƒ\ƒtƒgƒEƒFƒA‚ğ‰ü•Ï‚µ‚½‚à‚Ì‚ğŠÜ‚ŞDˆÈ‰º“¯‚¶j‚ğg—pE•¡»E‰ü
  13:.\asp\kernel/interrupt.c ****  *  •ÏEÄ”z•ziˆÈ‰ºC—˜—p‚ÆŒÄ‚Ôj‚·‚é‚±‚Æ‚ğ–³‚Å‹–‘ø‚·‚éD
  14:.\asp\kernel/interrupt.c ****  *  (1) –{ƒ\ƒtƒgƒEƒFƒA‚ğƒ\[ƒXƒR[ƒh‚ÌŒ`‚Å—˜—p‚·‚éê‡‚É‚ÍCã‹L‚Ì’˜ì
  15:.\asp\kernel/interrupt.c ****  *      Œ •\¦C‚±‚Ì—˜—pğŒ‚¨‚æ‚Ñ‰º‹L‚Ì–³•ÛØ‹K’è‚ªC‚»‚Ì‚Ü‚Ü‚ÌŒ`‚Åƒ\[
  16:.\asp\kernel/interrupt.c ****  *      ƒXƒR[ƒh’†‚ÉŠÜ‚Ü‚ê‚Ä‚¢‚é‚±‚ÆD
  17:.\asp\kernel/interrupt.c ****  *  (2) –{ƒ\ƒtƒgƒEƒFƒA‚ğCƒ‰ƒCƒuƒ‰ƒŠŒ`®‚È‚ÇC‘¼‚Ìƒ\ƒtƒgƒEƒFƒAŠJ”­‚Ég
  18:.\asp\kernel/interrupt.c ****  *      —p‚Å‚«‚éŒ`‚ÅÄ”z•z‚·‚éê‡‚É‚ÍCÄ”z•z‚É”º‚¤ƒhƒLƒ…ƒƒ“ƒgi—˜—p
  19:.\asp\kernel/interrupt.c ****  *      Òƒ}ƒjƒ…ƒAƒ‹‚È‚Çj‚ÉCã‹L‚Ì’˜ìŒ •\¦C‚±‚Ì—˜—pğŒ‚¨‚æ‚Ñ‰º‹L
  20:.\asp\kernel/interrupt.c ****  *      ‚Ì–³•ÛØ‹K’è‚ğŒfÚ‚·‚é‚±‚ÆD
  21:.\asp\kernel/interrupt.c ****  *  (3) –{ƒ\ƒtƒgƒEƒFƒA‚ğC‹@Ší‚É‘g‚İ‚Ş‚È‚ÇC‘¼‚Ìƒ\ƒtƒgƒEƒFƒAŠJ”­‚Ég
  22:.\asp\kernel/interrupt.c ****  *      —p‚Å‚«‚È‚¢Œ`‚ÅÄ”z•z‚·‚éê‡‚É‚ÍCŸ‚Ì‚¢‚¸‚ê‚©‚ÌğŒ‚ğ–‚½‚·‚±
  23:.\asp\kernel/interrupt.c ****  *      ‚ÆD
  24:.\asp\kernel/interrupt.c ****  *    (a) Ä”z•z‚É”º‚¤ƒhƒLƒ…ƒƒ“ƒgi—˜—pÒƒ}ƒjƒ…ƒAƒ‹‚È‚Çj‚ÉCã‹L‚Ì’˜
  25:.\asp\kernel/interrupt.c ****  *        ìŒ •\¦C‚±‚Ì—˜—pğŒ‚¨‚æ‚Ñ‰º‹L‚Ì–³•ÛØ‹K’è‚ğŒfÚ‚·‚é‚±‚ÆD
  26:.\asp\kernel/interrupt.c ****  *    (b) Ä”z•z‚ÌŒ`‘Ô‚ğC•Ê‚É’è‚ß‚é•û–@‚É‚æ‚Á‚ÄCTOPPERSƒvƒƒWƒFƒNƒg‚É
  27:.\asp\kernel/interrupt.c ****  *        •ñ‚·‚é‚±‚ÆD
  28:.\asp\kernel/interrupt.c ****  *  (4) –{ƒ\ƒtƒgƒEƒFƒA‚Ì—˜—p‚É‚æ‚è’¼Ú“I‚Ü‚½‚ÍŠÔÚ“I‚É¶‚¶‚é‚¢‚©‚È‚é‘¹
  29:.\asp\kernel/interrupt.c ****  *      ŠQ‚©‚ç‚àCã‹L’˜ìŒ Ò‚¨‚æ‚ÑTOPPERSƒvƒƒWƒFƒNƒg‚ğ–ÆÓ‚·‚é‚±‚ÆD
  30:.\asp\kernel/interrupt.c ****  *      ‚Ü‚½C–{ƒ\ƒtƒgƒEƒFƒA‚Ìƒ†[ƒU‚Ü‚½‚ÍƒGƒ“ƒhƒ†[ƒU‚©‚ç‚Ì‚¢‚©‚È‚é—
  31:.\asp\kernel/interrupt.c ****  *      —R‚ÉŠî‚Ã‚­¿‹‚©‚ç‚àCã‹L’˜ìŒ Ò‚¨‚æ‚ÑTOPPERSƒvƒƒWƒFƒNƒg‚ğ
  32:.\asp\kernel/interrupt.c ****  *      –ÆÓ‚·‚é‚±‚ÆD
  33:.\asp\kernel/interrupt.c ****  * 
  34:.\asp\kernel/interrupt.c ****  *  –{ƒ\ƒtƒgƒEƒFƒA‚ÍC–³•ÛØ‚Å’ñ‹Ÿ‚³‚ê‚Ä‚¢‚é‚à‚Ì‚Å‚ ‚éDã‹L’˜ìŒ Ò‚¨
  35:.\asp\kernel/interrupt.c ****  *  ‚æ‚ÑTOPPERSƒvƒƒWƒFƒNƒg‚ÍC–{ƒ\ƒtƒgƒEƒFƒA‚ÉŠÖ‚µ‚ÄC“Á’è‚Ìg—p–Ú“I
  36:.\asp\kernel/interrupt.c ****  *  ‚É‘Î‚·‚é“K‡«‚àŠÜ‚ß‚ÄC‚¢‚©‚È‚é•ÛØ‚às‚í‚È‚¢D‚Ü‚½C–{ƒ\ƒtƒgƒEƒF
  37:.\asp\kernel/interrupt.c ****  *  ƒA‚Ì—˜—p‚É‚æ‚è’¼Ú“I‚Ü‚½‚ÍŠÔÚ“I‚É¶‚¶‚½‚¢‚©‚È‚é‘¹ŠQ‚ÉŠÖ‚µ‚Ä‚àC‚»
  38:.\asp\kernel/interrupt.c ****  *  ‚ÌÓ”C‚ğ•‰‚í‚È‚¢D
  39:.\asp\kernel/interrupt.c ****  * 
  40:.\asp\kernel/interrupt.c ****  *  @(#) $Id: interrupt.c 2133 2011-06-26 03:14:51Z ertl-hiro $
  41:.\asp\kernel/interrupt.c ****  */
  42:.\asp\kernel/interrupt.c **** 
  43:.\asp\kernel/interrupt.c **** /*
  44:.\asp\kernel/interrupt.c ****  *		Š„‚İŠÇ—‹@”\
  45:.\asp\kernel/interrupt.c ****  */
ARM GAS  C:\TEMP\cc9CsU7q.s 			page 11


  46:.\asp\kernel/interrupt.c **** 
  47:.\asp\kernel/interrupt.c **** #include "kernel_impl.h"
  48:.\asp\kernel/interrupt.c **** #include "check.h"
  49:.\asp\kernel/interrupt.c **** #include "task.h"
  50:.\asp\kernel/interrupt.c **** #include "interrupt.h"
  51:.\asp\kernel/interrupt.c **** 
  52:.\asp\kernel/interrupt.c **** /*
  53:.\asp\kernel/interrupt.c ****  *  ƒgƒŒ[ƒXƒƒOƒ}ƒNƒ‚ÌƒfƒtƒHƒ‹ƒg’è‹`
  54:.\asp\kernel/interrupt.c ****  */
  55:.\asp\kernel/interrupt.c **** #ifndef LOG_DIS_INT_ENTER
  56:.\asp\kernel/interrupt.c **** #define LOG_DIS_INT_ENTER(intno)
  57:.\asp\kernel/interrupt.c **** #endif /* LOG_DIS_INT_ENTER */
  58:.\asp\kernel/interrupt.c **** 
  59:.\asp\kernel/interrupt.c **** #ifndef LOG_DIS_INT_LEAVE
  60:.\asp\kernel/interrupt.c **** #define LOG_DIS_INT_LEAVE(ercd)
  61:.\asp\kernel/interrupt.c **** #endif /* LOG_DIS_INT_LEAVE */
  62:.\asp\kernel/interrupt.c **** 
  63:.\asp\kernel/interrupt.c **** #ifndef LOG_ENA_INT_ENTER
  64:.\asp\kernel/interrupt.c **** #define LOG_ENA_INT_ENTER(intno)
  65:.\asp\kernel/interrupt.c **** #endif /* LOG_ENA_INT_ENTER */
  66:.\asp\kernel/interrupt.c **** 
  67:.\asp\kernel/interrupt.c **** #ifndef LOG_ENA_INT_LEAVE
  68:.\asp\kernel/interrupt.c **** #define LOG_ENA_INT_LEAVE(ercd)
  69:.\asp\kernel/interrupt.c **** #endif /* LOG_ENA_INT_LEAVE */
  70:.\asp\kernel/interrupt.c **** 
  71:.\asp\kernel/interrupt.c **** #ifndef LOG_CHG_IPM_ENTER
  72:.\asp\kernel/interrupt.c **** #define LOG_CHG_IPM_ENTER(intpri)
  73:.\asp\kernel/interrupt.c **** #endif /* LOG_CHG_IPM_ENTER */
  74:.\asp\kernel/interrupt.c **** 
  75:.\asp\kernel/interrupt.c **** #ifndef LOG_CHG_IPM_LEAVE
  76:.\asp\kernel/interrupt.c **** #define LOG_CHG_IPM_LEAVE(ercd)
  77:.\asp\kernel/interrupt.c **** #endif /* LOG_CHG_IPM_LEAVE */
  78:.\asp\kernel/interrupt.c **** 
  79:.\asp\kernel/interrupt.c **** #ifndef LOG_GET_IPM_ENTER
  80:.\asp\kernel/interrupt.c **** #define LOG_GET_IPM_ENTER(p_intpri)
  81:.\asp\kernel/interrupt.c **** #endif /* LOG_GET_IPM_ENTER */
  82:.\asp\kernel/interrupt.c **** 
  83:.\asp\kernel/interrupt.c **** #ifndef LOG_GET_IPM_LEAVE
  84:.\asp\kernel/interrupt.c **** #define LOG_GET_IPM_LEAVE(ercd, intpri)
  85:.\asp\kernel/interrupt.c **** #endif /* LOG_GET_IPM_LEAVE */
  86:.\asp\kernel/interrupt.c **** 
  87:.\asp\kernel/interrupt.c **** /* 
  88:.\asp\kernel/interrupt.c ****  *  Š„‚İŠÇ—‹@”\‚Ì‰Šú‰»
  89:.\asp\kernel/interrupt.c ****  */
  90:.\asp\kernel/interrupt.c **** #ifdef TOPPERS_intini
  91:.\asp\kernel/interrupt.c **** #ifndef OMIT_INITIALIZE_INTERRUPT
  92:.\asp\kernel/interrupt.c **** 
  93:.\asp\kernel/interrupt.c **** void
  94:.\asp\kernel/interrupt.c **** initialize_interrupt(void)
  95:.\asp\kernel/interrupt.c **** {
 160              		.loc 3 95 0
 161              		.cfi_startproc
 162              		@ args = 0, pretend = 0, frame = 0
 163              		@ frame_needed = 0, uses_anonymous_args = 0
 164              	.LVL7:
 165 0000 10B5     		push	{r4, lr}
 166              	.LCFI0:
ARM GAS  C:\TEMP\cc9CsU7q.s 			page 12


 167              		.cfi_def_cfa_offset 8
 168              		.cfi_offset 4, -8
 169              		.cfi_offset 14, -4
 170              		.loc 3 95 0
 171 0002 0024     		movs	r4, #0
 172              	.LVL8:
 173              	.L11:
  96:.\asp\kernel/interrupt.c **** 	uint_t			i;
  97:.\asp\kernel/interrupt.c **** 	const INHINIB	*p_inhinib;
  98:.\asp\kernel/interrupt.c **** 	const INTINIB	*p_intinib;
  99:.\asp\kernel/interrupt.c **** 
 100:.\asp\kernel/interrupt.c **** 	for (i = 0; i < tnum_inhno; i++) {
 101:.\asp\kernel/interrupt.c **** 		p_inhinib = &(inhinib_table[i]);
 102:.\asp\kernel/interrupt.c **** 		x_define_inh(p_inhinib->inhno, p_inhinib->int_entry);
 103:.\asp\kernel/interrupt.c **** 	}
 104:.\asp\kernel/interrupt.c **** 	for (i = 0; i < tnum_intno; i++) {
 174              		.loc 3 104 0 discriminator 1
 175 0004 074B     		ldr	r3, .L14
 176 0006 1868     		ldr	r0, [r3, #0]
 177 0008 8442     		cmp	r4, r0
 178 000a 0AD2     		bcs	.L13
 179              	.L12:
 105:.\asp\kernel/interrupt.c **** 		p_intinib = &(intinib_table[i]);
 180              		.loc 3 105 0 discriminator 2
 181 000c 0C21     		movs	r1, #12
 182 000e 6143     		muls	r1, r4, r1
 183 0010 054A     		ldr	r2, .L14+4
 104:.\asp\kernel/interrupt.c **** 	for (i = 0; i < tnum_intno; i++) {
 184              		.loc 3 104 0 discriminator 2
 185 0012 0134     		adds	r4, r4, #1
 186              	.LVL9:
 187              		.loc 3 105 0 discriminator 2
 188 0014 8B18     		adds	r3, r1, r2
 189              	.LVL10:
 106:.\asp\kernel/interrupt.c **** 		x_config_int(p_intinib->intno, p_intinib->intatr, p_intinib->intpri);
 190              		.loc 3 106 0 discriminator 2
 191 0016 8858     		ldr	r0, [r1, r2]
 192 0018 5968     		ldr	r1, [r3, #4]
 193 001a 9A68     		ldr	r2, [r3, #8]
 194 001c FFF7FEFF 		bl	_kernel_x_config_int
 195              	.LVL11:
 196 0020 F0E7     		b	.L11
 197              	.LVL12:
 198              	.L13:
 107:.\asp\kernel/interrupt.c **** 	}
 108:.\asp\kernel/interrupt.c **** }
 199              		.loc 3 108 0
 200 0022 10BD     		pop	{r4, pc}
 201              	.L15:
 202              		.align	2
 203              	.L14:
 204 0024 00000000 		.word	_kernel_tnum_intno
 205 0028 00000000 		.word	_kernel_intinib_table
 206              		.cfi_endproc
 207              	.LFE53:
 208              		.size	_kernel_initialize_interrupt, .-_kernel_initialize_interrupt
 209              		.section	.text.dis_int,"ax",%progbits
ARM GAS  C:\TEMP\cc9CsU7q.s 			page 13


 210              		.align	1
 211              		.global	dis_int
 212              		.thumb
 213              		.thumb_func
 214              		.type	dis_int, %function
 215              	dis_int:
 216              	.LFB54:
 109:.\asp\kernel/interrupt.c **** 
 110:.\asp\kernel/interrupt.c **** #endif /* OMIT_INITIALIZE_INTERRUPT */
 111:.\asp\kernel/interrupt.c **** #endif /* TOPPERS_intini */
 112:.\asp\kernel/interrupt.c **** 
 113:.\asp\kernel/interrupt.c **** /*
 114:.\asp\kernel/interrupt.c ****  *  Š„‚İ‚Ì‹Ö~
 115:.\asp\kernel/interrupt.c ****  */
 116:.\asp\kernel/interrupt.c **** #ifdef TOPPERS_dis_int
 117:.\asp\kernel/interrupt.c **** #ifdef TOPPERS_SUPPORT_DIS_INT
 118:.\asp\kernel/interrupt.c **** 
 119:.\asp\kernel/interrupt.c **** ER
 120:.\asp\kernel/interrupt.c **** dis_int(INTNO intno)
 121:.\asp\kernel/interrupt.c **** {
 217              		.loc 3 121 0
 218              		.cfi_startproc
 219              		@ args = 0, pretend = 0, frame = 0
 220              		@ frame_needed = 0, uses_anonymous_args = 0
 221              	.LVL13:
 222 0000 38B5     		push	{r3, r4, r5, lr}
 223              	.LCFI1:
 224              		.cfi_def_cfa_offset 16
 225              		.cfi_offset 3, -16
 226              		.cfi_offset 4, -12
 227              		.cfi_offset 5, -8
 228              		.cfi_offset 14, -4
 229              		.loc 3 121 0
 230 0002 0446     		mov	r4, r0
 122:.\asp\kernel/interrupt.c **** 	bool_t	locked;
 123:.\asp\kernel/interrupt.c **** 	ER		ercd;
 124:.\asp\kernel/interrupt.c **** 
 125:.\asp\kernel/interrupt.c **** 	LOG_DIS_INT_ENTER(intno);
 126:.\asp\kernel/interrupt.c **** 	CHECK_TSKCTX();
 231              		.loc 3 126 0
 232 0004 FFF7FEFF 		bl	sense_context
 233              	.LVL14:
 234 0008 38BB     		cbnz	r0, .L22
 127:.\asp\kernel/interrupt.c **** 	CHECK_INTNO_DISINT(intno);
 235              		.loc 3 127 0
 236 000a A4F10F03 		sub	r3, r4, #15
 237 000e 202B     		cmp	r3, #32
 238 0010 26D8     		bhi	.L23
 239              	.LBB58:
 240              	.LBB59:
 236:.\asp\arch\arm_m_gcc\common/core_config.h **** }
 237:.\asp\arch\arm_m_gcc\common/core_config.h **** 
 238:.\asp\arch\arm_m_gcc\common/core_config.h **** #define t_unlock_cpu()    x_unlock_cpu()
 239:.\asp\arch\arm_m_gcc\common/core_config.h **** #define i_unlock_cpu()    x_unlock_cpu()
 240:.\asp\arch\arm_m_gcc\common/core_config.h **** 
 241:.\asp\arch\arm_m_gcc\common/core_config.h **** /*
 242:.\asp\arch\arm_m_gcc\common/core_config.h ****  *  CPUƒƒbƒNó‘Ô‚ÌQÆ
ARM GAS  C:\TEMP\cc9CsU7q.s 			page 14


 243:.\asp\arch\arm_m_gcc\common/core_config.h ****  */
 244:.\asp\arch\arm_m_gcc\common/core_config.h **** Inline bool_t
 245:.\asp\arch\arm_m_gcc\common/core_config.h **** x_sense_lock(void)
 246:.\asp\arch\arm_m_gcc\common/core_config.h **** {
 247:.\asp\arch\arm_m_gcc\common/core_config.h **** 	return(lock_flag);
 241              		.loc 1 247 0
 242 0012 1748     		ldr	r0, .L26
 243 0014 0568     		ldr	r5, [r0, #0]
 244              	.LBE59:
 245              	.LBE58:
 128:.\asp\kernel/interrupt.c **** 
 129:.\asp\kernel/interrupt.c **** 	locked = t_sense_lock();
 130:.\asp\kernel/interrupt.c **** 	if (!locked) {
 246              		.loc 3 130 0
 247 0016 0DB9     		cbnz	r5, .L18
 131:.\asp\kernel/interrupt.c **** 		t_lock_cpu();
 248              		.loc 3 131 0
 249 0018 FFF7FEFF 		bl	x_lock_cpu
 250              	.LVL15:
 251              	.L18:
 252              	.LBB60:
 253              	.LBB61:
 248:.\asp\arch\arm_m_gcc\common/core_config.h **** }
 249:.\asp\arch\arm_m_gcc\common/core_config.h **** 
 250:.\asp\arch\arm_m_gcc\common/core_config.h **** #define t_sense_lock()    x_sense_lock()
 251:.\asp\arch\arm_m_gcc\common/core_config.h **** #define i_sense_lock()    x_sense_lock()
 252:.\asp\arch\arm_m_gcc\common/core_config.h **** 
 253:.\asp\arch\arm_m_gcc\common/core_config.h **** /*
 254:.\asp\arch\arm_m_gcc\common/core_config.h ****  *  chg_ipm‚Å—LŒø‚ÈŠ„‚İ—Dæ“x‚Ì”ÍˆÍ‚Ì”»’è
 255:.\asp\arch\arm_m_gcc\common/core_config.h ****  *
 256:.\asp\arch\arm_m_gcc\common/core_config.h ****  *  TMIN_INTPRI‚Ì’l‚É‚æ‚ç‚¸Cchg_ipm‚Å‚ÍC-(1 << TBITW_IPRI)`TIPM_ENAALLi0j
 257:.\asp\arch\arm_m_gcc\common/core_config.h ****  *  ‚Ì”ÍˆÍ‚Éİ’è‚Å‚«‚é‚±‚Æ‚Æ‚·‚éiƒ^[ƒQƒbƒg’è‹`‚ÌŠg’£jD
 258:.\asp\arch\arm_m_gcc\common/core_config.h ****  *  Š„‚İ—Dæ“x‚Ìƒrƒbƒg•(TBITW_IPRI)‚ª 8 ‚Ìê‡‚ÍC-256 ` 0 ‚ªw’è‰Â”\‚Å‚ ‚éD
 259:.\asp\arch\arm_m_gcc\common/core_config.h ****  *   
 260:.\asp\arch\arm_m_gcc\common/core_config.h ****  */
 261:.\asp\arch\arm_m_gcc\common/core_config.h **** #define VALID_INTPRI_CHGIPM(intpri) \
 262:.\asp\arch\arm_m_gcc\common/core_config.h **** 				((-((1 << TBITW_IPRI) - 1) <= (intpri) && (intpri) <= TIPM_ENAALL))
 263:.\asp\arch\arm_m_gcc\common/core_config.h **** 
 264:.\asp\arch\arm_m_gcc\common/core_config.h **** /*
 265:.\asp\arch\arm_m_gcc\common/core_config.h ****  * iƒ‚ƒfƒ‹ã‚ÌjŠ„‚İ—Dæ“xƒ}ƒXƒN‚Ìİ’è
 266:.\asp\arch\arm_m_gcc\common/core_config.h ****  *
 267:.\asp\arch\arm_m_gcc\common/core_config.h ****  *  CPUƒƒbƒNƒtƒ‰ƒO‚ªƒNƒŠƒA‚³‚ê‚Ä‚¢‚é‚ÍCƒn[ƒhƒEƒFƒA‚ÌŠ„‚İ—Dæ“xƒ}
 268:.\asp\arch\arm_m_gcc\common/core_config.h ****  *  ƒXƒN‚ğİ’è‚·‚éDCPUƒƒbƒNƒtƒ‰ƒO‚ªƒZƒbƒg‚³‚ê‚Ä‚¢‚é‚ÍCsaved_iipm
 269:.\asp\arch\arm_m_gcc\common/core_config.h ****  *  ‚ğİ’è‚µC‚³‚ç‚ÉCƒn[ƒhƒEƒFƒA‚ÌŠ„‚İ—Dæ“xƒ}ƒXƒN‚ğCİ’è‚µ‚æ‚¤‚Æ
 270:.\asp\arch\arm_m_gcc\common/core_config.h ****  *  ‚µ‚½iƒ‚ƒfƒ‹ã‚ÌjŠ„‚İ—Dæ“xƒ}ƒXƒN‚ÆTIPM_LOCK‚Ì‚‚¢•û‚Éİ’è‚·‚éD
 271:.\asp\arch\arm_m_gcc\common/core_config.h ****  */
 272:.\asp\arch\arm_m_gcc\common/core_config.h **** Inline void
 273:.\asp\arch\arm_m_gcc\common/core_config.h **** x_set_ipm(PRI intpri)
 274:.\asp\arch\arm_m_gcc\common/core_config.h **** {
 275:.\asp\arch\arm_m_gcc\common/core_config.h **** 	uint8_t   iipm = INT_IPM(intpri);
 276:.\asp\arch\arm_m_gcc\common/core_config.h **** 
 277:.\asp\arch\arm_m_gcc\common/core_config.h **** 	if (intpri == TIPM_ENAALL){
 278:.\asp\arch\arm_m_gcc\common/core_config.h **** 		iipm = IIPM_ENAALL;
 279:.\asp\arch\arm_m_gcc\common/core_config.h **** 	}
 280:.\asp\arch\arm_m_gcc\common/core_config.h **** 
 281:.\asp\arch\arm_m_gcc\common/core_config.h **** 	if (!lock_flag) {
 282:.\asp\arch\arm_m_gcc\common/core_config.h **** 		set_basepri(iipm);
ARM GAS  C:\TEMP\cc9CsU7q.s 			page 15


 283:.\asp\arch\arm_m_gcc\common/core_config.h **** 	}
 284:.\asp\arch\arm_m_gcc\common/core_config.h **** 	else {
 285:.\asp\arch\arm_m_gcc\common/core_config.h **** 		saved_iipm = iipm;
 286:.\asp\arch\arm_m_gcc\common/core_config.h **** 		/*
 287:.\asp\arch\arm_m_gcc\common/core_config.h **** 		 *  BASEPRIƒŒƒWƒXƒ^‚Í’l‚ª¬‚³‚¢‚Ù‚Ç—Dæ“x‚ª‚‚¢‚ªCIIPM_ENAALL ‚ª
 288:.\asp\arch\arm_m_gcc\common/core_config.h **** 		 *  '0'‚Å‚ ‚é‚½‚ßC’Pƒ‚É—Dæ“x”äŠr‚¾‚¯‚Å‚Í•s\•ª‚Å‚ ‚éD
 289:.\asp\arch\arm_m_gcc\common/core_config.h **** 		 */
 290:.\asp\arch\arm_m_gcc\common/core_config.h **** 		if ((iipm < IIPM_LOCK ) && (IIPM_ENAALL != iipm)) {
 291:.\asp\arch\arm_m_gcc\common/core_config.h **** 			set_basepri(iipm);
 292:.\asp\arch\arm_m_gcc\common/core_config.h **** 		}
 293:.\asp\arch\arm_m_gcc\common/core_config.h **** 		else {
 294:.\asp\arch\arm_m_gcc\common/core_config.h **** 			set_basepri(IIPM_LOCK);
 295:.\asp\arch\arm_m_gcc\common/core_config.h **** 		}
 296:.\asp\arch\arm_m_gcc\common/core_config.h **** 	}
 297:.\asp\arch\arm_m_gcc\common/core_config.h **** }
 298:.\asp\arch\arm_m_gcc\common/core_config.h **** 
 299:.\asp\arch\arm_m_gcc\common/core_config.h **** #define t_set_ipm(intpri)    x_set_ipm(intpri)
 300:.\asp\arch\arm_m_gcc\common/core_config.h **** #define i_set_ipm(intpri)    x_set_ipm(intpri)
 301:.\asp\arch\arm_m_gcc\common/core_config.h **** 
 302:.\asp\arch\arm_m_gcc\common/core_config.h **** /*
 303:.\asp\arch\arm_m_gcc\common/core_config.h ****  * iƒ‚ƒfƒ‹ã‚ÌjŠ„‚İ—Dæ“xƒ}ƒXƒN‚ÌQÆ
 304:.\asp\arch\arm_m_gcc\common/core_config.h ****  *
 305:.\asp\arch\arm_m_gcc\common/core_config.h ****  *  CPUƒƒbƒNƒtƒ‰ƒO‚ªƒNƒŠƒA‚³‚ê‚Ä‚¢‚é‚Íƒn[ƒhƒEƒFƒA‚ÌŠ„‚İ—Dæ“xƒ}
 306:.\asp\arch\arm_m_gcc\common/core_config.h ****  *  ƒXƒN‚ğCƒZƒbƒg‚³‚ê‚Ä‚¢‚é‚Ísaved_iipm‚ğQÆ‚·‚éD
 307:.\asp\arch\arm_m_gcc\common/core_config.h ****  */
 308:.\asp\arch\arm_m_gcc\common/core_config.h **** Inline PRI
 309:.\asp\arch\arm_m_gcc\common/core_config.h **** x_get_ipm(void)
 310:.\asp\arch\arm_m_gcc\common/core_config.h **** {
 311:.\asp\arch\arm_m_gcc\common/core_config.h **** 	uint8_t iipm;
 312:.\asp\arch\arm_m_gcc\common/core_config.h **** 
 313:.\asp\arch\arm_m_gcc\common/core_config.h **** 	if (!lock_flag) {
 314:.\asp\arch\arm_m_gcc\common/core_config.h **** 		iipm = get_basepri();
 315:.\asp\arch\arm_m_gcc\common/core_config.h **** 	}
 316:.\asp\arch\arm_m_gcc\common/core_config.h **** 	else {
 317:.\asp\arch\arm_m_gcc\common/core_config.h **** 		iipm = saved_iipm;
 318:.\asp\arch\arm_m_gcc\common/core_config.h **** 	}
 319:.\asp\arch\arm_m_gcc\common/core_config.h **** 
 320:.\asp\arch\arm_m_gcc\common/core_config.h **** 	if (iipm == IIPM_ENAALL) {
 321:.\asp\arch\arm_m_gcc\common/core_config.h **** 		return(TIPM_ENAALL);
 322:.\asp\arch\arm_m_gcc\common/core_config.h **** 	}
 323:.\asp\arch\arm_m_gcc\common/core_config.h **** 	else {
 324:.\asp\arch\arm_m_gcc\common/core_config.h **** 		return(EXT_IPM(iipm));
 325:.\asp\arch\arm_m_gcc\common/core_config.h **** 	}
 326:.\asp\arch\arm_m_gcc\common/core_config.h **** }
 327:.\asp\arch\arm_m_gcc\common/core_config.h **** 
 328:.\asp\arch\arm_m_gcc\common/core_config.h **** #define t_get_ipm()    x_get_ipm()
 329:.\asp\arch\arm_m_gcc\common/core_config.h **** #define i_get_ipm()    x_get_ipm()
 330:.\asp\arch\arm_m_gcc\common/core_config.h **** 
 331:.\asp\arch\arm_m_gcc\common/core_config.h **** /*
 332:.\asp\arch\arm_m_gcc\common/core_config.h ****  *  SVCƒnƒ“ƒhƒ‰icore_support.Sj
 333:.\asp\arch\arm_m_gcc\common/core_config.h ****  */
 334:.\asp\arch\arm_m_gcc\common/core_config.h **** extern void svc_handler(void);
 335:.\asp\arch\arm_m_gcc\common/core_config.h **** 
 336:.\asp\arch\arm_m_gcc\common/core_config.h **** /*
 337:.\asp\arch\arm_m_gcc\common/core_config.h ****  *  ƒXƒ^[ƒgƒAƒbƒvƒ‹[ƒ`ƒ“istart.Sj
 338:.\asp\arch\arm_m_gcc\common/core_config.h ****  */
 339:.\asp\arch\arm_m_gcc\common/core_config.h **** extern void _start(void);
ARM GAS  C:\TEMP\cc9CsU7q.s 			page 16


 340:.\asp\arch\arm_m_gcc\common/core_config.h **** 
 341:.\asp\arch\arm_m_gcc\common/core_config.h **** /*
 342:.\asp\arch\arm_m_gcc\common/core_config.h ****  *  Å‚—Dæ‡ˆÊƒ^ƒXƒN‚Ö‚ÌƒfƒBƒXƒpƒbƒ`icore_support.Sj
 343:.\asp\arch\arm_m_gcc\common/core_config.h ****  *
 344:.\asp\arch\arm_m_gcc\common/core_config.h ****  *  dispatch‚ÍCƒ^ƒXƒNƒRƒ“ƒeƒLƒXƒg‚©‚çŒÄ‚Ño‚³‚ê‚½ƒT[ƒrƒXƒR[ƒ‹ˆ—‚©
 345:.\asp\arch\arm_m_gcc\common/core_config.h ****  *  ‚çŒÄ‚Ño‚·‚×‚«‚à‚Ì‚ÅCƒ^ƒXƒNƒRƒ“ƒeƒLƒXƒgECPUƒƒbƒNó‘ÔEƒfƒBƒXƒpƒb
 346:.\asp\arch\arm_m_gcc\common/core_config.h ****  *  ƒ`‹–‰Âó‘ÔEiƒ‚ƒfƒ‹ã‚ÌjŠ„‚İ—Dæ“xƒ}ƒXƒN‘S‰ğœó‘Ô‚ÅŒÄ‚Ño‚³‚È
 347:.\asp\arch\arm_m_gcc\common/core_config.h ****  *  ‚¯‚ê‚Î‚È‚ç‚È‚¢D
 348:.\asp\arch\arm_m_gcc\common/core_config.h ****  */
 349:.\asp\arch\arm_m_gcc\common/core_config.h **** extern void dispatch(void);
 350:.\asp\arch\arm_m_gcc\common/core_config.h **** 
 351:.\asp\arch\arm_m_gcc\common/core_config.h **** /*
 352:.\asp\arch\arm_m_gcc\common/core_config.h ****  *  ƒfƒBƒXƒpƒbƒ`ƒƒ‚Ì“®ìŠJnicore_support.Sj
 353:.\asp\arch\arm_m_gcc\common/core_config.h ****  *
 354:.\asp\arch\arm_m_gcc\common/core_config.h ****  *  start_dispatch‚ÍCƒJ[ƒlƒ‹‹N“®‚ÉŒÄ‚Ño‚·‚×‚«‚à‚Ì‚ÅC‚·‚×‚Ä‚ÌŠ„
 355:.\asp\arch\arm_m_gcc\common/core_config.h ****  *  ‚İ‚ğ‹Ö~‚µ‚½ó‘ÔiŠ„‚İƒƒbƒNó‘Ô‚Æ“¯“™‚Ìó‘Ôj‚ÅŒÄ‚Ño‚³‚È‚¯‚ê‚Î
 356:.\asp\arch\arm_m_gcc\common/core_config.h ****  *  ‚È‚ç‚È‚¢D
 357:.\asp\arch\arm_m_gcc\common/core_config.h ****  */
 358:.\asp\arch\arm_m_gcc\common/core_config.h **** extern void start_dispatch(void) NoReturn;
 359:.\asp\arch\arm_m_gcc\common/core_config.h **** 
 360:.\asp\arch\arm_m_gcc\common/core_config.h **** /*
 361:.\asp\arch\arm_m_gcc\common/core_config.h ****  *  Œ»İ‚ÌƒRƒ“ƒeƒLƒXƒg‚ğÌ‚Ä‚ÄƒfƒBƒXƒpƒbƒ`icore_support.Sj
 362:.\asp\arch\arm_m_gcc\common/core_config.h ****  *
 363:.\asp\arch\arm_m_gcc\common/core_config.h ****  *  exit_and_dispatch‚ÍCext_tsk‚©‚çŒÄ‚Ño‚·‚×‚«‚à‚Ì‚ÅCƒ^ƒXƒNƒRƒ“ƒeƒL
 364:.\asp\arch\arm_m_gcc\common/core_config.h ****  *  ƒXƒgECPUƒƒbƒNó‘ÔEƒfƒBƒXƒpƒbƒ`‹–‰Âó‘ÔEiƒ‚ƒfƒ‹ã‚ÌjŠ„‚İ—Dæ
 365:.\asp\arch\arm_m_gcc\common/core_config.h ****  *  “xƒ}ƒXƒN‘S‰ğœó‘Ô‚ÅŒÄ‚Ño‚³‚È‚¯‚ê‚Î‚È‚ç‚È‚¢D
 366:.\asp\arch\arm_m_gcc\common/core_config.h ****  */
 367:.\asp\arch\arm_m_gcc\common/core_config.h **** extern void exit_and_dispatch(void) NoReturn;
 368:.\asp\arch\arm_m_gcc\common/core_config.h **** 
 369:.\asp\arch\arm_m_gcc\common/core_config.h **** /*
 370:.\asp\arch\arm_m_gcc\common/core_config.h ****  *  ƒJ[ƒlƒ‹‚ÌI—¹ˆ—‚ÌŒÄo‚µicore_support.Sj
 371:.\asp\arch\arm_m_gcc\common/core_config.h ****  *
 372:.\asp\arch\arm_m_gcc\common/core_config.h ****  *  call_exit_kernel‚ÍCƒJ[ƒlƒ‹‚ÌI—¹‚ÉŒÄ‚Ño‚·‚×‚«‚à‚Ì‚ÅC”ñƒ^ƒXƒN
 373:.\asp\arch\arm_m_gcc\common/core_config.h ****  *  ƒRƒ“ƒeƒLƒXƒg‚ÉØ‚èŠ·‚¦‚ÄCƒJ[ƒlƒ‹‚ÌI—¹ˆ—iexit_kernelj‚ğŒÄ‚Ño
 374:.\asp\arch\arm_m_gcc\common/core_config.h ****  *  ‚·D
 375:.\asp\arch\arm_m_gcc\common/core_config.h ****  */
 376:.\asp\arch\arm_m_gcc\common/core_config.h **** extern void call_exit_kernel(void) NoReturn;
 377:.\asp\arch\arm_m_gcc\common/core_config.h **** 
 378:.\asp\arch\arm_m_gcc\common/core_config.h **** /*
 379:.\asp\arch\arm_m_gcc\common/core_config.h ****  *  ƒ^ƒXƒNƒRƒ“ƒeƒLƒXƒg‚Ì‰Šú‰»
 380:.\asp\arch\arm_m_gcc\common/core_config.h ****  *
 381:.\asp\arch\arm_m_gcc\common/core_config.h ****  *  ƒ^ƒXƒN‚ª‹x~ó‘Ô‚©‚çÀs‚Å‚«‚éó‘Ô‚ÉˆÚs‚·‚é‚ÉŒÄ‚Î‚ê‚éD‚±‚Ì“_
 382:.\asp\arch\arm_m_gcc\common/core_config.h ****  *  ‚ÅƒXƒ^ƒbƒN—Ìˆæ‚ğg‚Á‚Ä‚Í‚È‚ç‚È‚¢D
 383:.\asp\arch\arm_m_gcc\common/core_config.h ****  *
 384:.\asp\arch\arm_m_gcc\common/core_config.h ****  *  activate_context‚ğCƒCƒ“ƒ‰ƒCƒ“ŠÖ”‚Å‚Í‚È‚­ƒ}ƒNƒ’è‹`‚Æ‚µ‚Ä‚¢‚é‚Ì‚ÍC
 385:.\asp\arch\arm_m_gcc\common/core_config.h ****  *  ‚±‚Ì“_‚Å‚ÍTCB‚ª’è‹`‚³‚ê‚Ä‚¢‚È‚¢‚½‚ß‚Å‚ ‚éD
 386:.\asp\arch\arm_m_gcc\common/core_config.h ****  */
 387:.\asp\arch\arm_m_gcc\common/core_config.h **** extern void    start_r(void);
 388:.\asp\arch\arm_m_gcc\common/core_config.h **** 
 389:.\asp\arch\arm_m_gcc\common/core_config.h **** #define activate_context(p_tcb)                                         \
 390:.\asp\arch\arm_m_gcc\common/core_config.h **** {                                                                       \
 391:.\asp\arch\arm_m_gcc\common/core_config.h ****     (p_tcb)->tskctxb.sp = (void *)((uint8_t *)((p_tcb)->p_tinib->stk)    \
 392:.\asp\arch\arm_m_gcc\common/core_config.h ****                                         + (p_tcb)->p_tinib->stksz);     \
 393:.\asp\arch\arm_m_gcc\common/core_config.h ****     (p_tcb)->tskctxb.pc = (FP) start_r;                             \
 394:.\asp\arch\arm_m_gcc\common/core_config.h **** }
 395:.\asp\arch\arm_m_gcc\common/core_config.h **** 
 396:.\asp\arch\arm_m_gcc\common/core_config.h **** /*
ARM GAS  C:\TEMP\cc9CsU7q.s 			page 17


 397:.\asp\arch\arm_m_gcc\common/core_config.h ****  *  calltex‚Íg—p‚µ‚È‚¢
 398:.\asp\arch\arm_m_gcc\common/core_config.h ****  */
 399:.\asp\arch\arm_m_gcc\common/core_config.h **** #define OMIT_CALLTEX
 400:.\asp\arch\arm_m_gcc\common/core_config.h **** 
 401:.\asp\arch\arm_m_gcc\common/core_config.h **** /*
 402:.\asp\arch\arm_m_gcc\common/core_config.h ****  *  Š„‚İ”Ô†EŠ„‚İƒnƒ“ƒhƒ‰”Ô†
 403:.\asp\arch\arm_m_gcc\common/core_config.h ****  *
 404:.\asp\arch\arm_m_gcc\common/core_config.h ****  *  Š„‚İƒnƒ“ƒhƒ‰”Ô†(inhno)‚ÆŠ„‚İ”Ô†(intno)‚ÍCŠ„‚è‚İ”­¶‚É
 405:.\asp\arch\arm_m_gcc\common/core_config.h ****  *  EPSR‚Éİ’è‚³‚ê‚é—áŠO”Ô†‚Æ‚·‚éD 
 406:.\asp\arch\arm_m_gcc\common/core_config.h ****  */
 407:.\asp\arch\arm_m_gcc\common/core_config.h **** 
 408:.\asp\arch\arm_m_gcc\common/core_config.h **** /*
 409:.\asp\arch\arm_m_gcc\common/core_config.h ****  *  Š„‚İ”Ô†‚Ì”ÍˆÍ‚Ì”»’è
 410:.\asp\arch\arm_m_gcc\common/core_config.h ****  */
 411:.\asp\arch\arm_m_gcc\common/core_config.h **** #define VALID_INTNO(intno)           ((TMIN_INTNO <= (intno)) && ((intno) <= TMAX_INTNO))
 412:.\asp\arch\arm_m_gcc\common/core_config.h **** #define VALID_INTNO_DISINT(intno)    VALID_INTNO(intno)
 413:.\asp\arch\arm_m_gcc\common/core_config.h **** #define VALID_INTNO_CFGINT(intno)    VALID_INTNO(intno)
 414:.\asp\arch\arm_m_gcc\common/core_config.h **** 
 415:.\asp\arch\arm_m_gcc\common/core_config.h **** /*
 416:.\asp\arch\arm_m_gcc\common/core_config.h ****  *  Š„‚İƒnƒ“ƒhƒ‰‚Ìİ’è
 417:.\asp\arch\arm_m_gcc\common/core_config.h ****  *
 418:.\asp\arch\arm_m_gcc\common/core_config.h ****  *  ƒxƒNƒgƒ‹”Ô†inhno‚ÌŠ„‚İƒnƒ“ƒhƒ‰‚Ì‹N“®”Ô’nint_entry‚Éİ’è‚·‚éDŠ„‚İ
 419:.\asp\arch\arm_m_gcc\common/core_config.h ****  *  ƒnƒ“ƒhƒ‰ƒe[ƒuƒ‹
 420:.\asp\arch\arm_m_gcc\common/core_config.h ****  */
 421:.\asp\arch\arm_m_gcc\common/core_config.h **** Inline void
 422:.\asp\arch\arm_m_gcc\common/core_config.h **** x_define_inh(INHNO inhno, FP int_entry)
 423:.\asp\arch\arm_m_gcc\common/core_config.h **** {
 424:.\asp\arch\arm_m_gcc\common/core_config.h **** 
 425:.\asp\arch\arm_m_gcc\common/core_config.h **** }
 426:.\asp\arch\arm_m_gcc\common/core_config.h **** 
 427:.\asp\arch\arm_m_gcc\common/core_config.h **** /*
 428:.\asp\arch\arm_m_gcc\common/core_config.h ****  *  Š„‚İƒnƒ“ƒhƒ‰‚Ìo“üŒûˆ—‚Ì¶¬ƒ}ƒNƒ
 429:.\asp\arch\arm_m_gcc\common/core_config.h ****  *
 430:.\asp\arch\arm_m_gcc\common/core_config.h ****  */
 431:.\asp\arch\arm_m_gcc\common/core_config.h **** #define INT_ENTRY(inhno, inthdr)    inthdr
 432:.\asp\arch\arm_m_gcc\common/core_config.h **** #define INTHDR_ENTRY(inhno, inhno_num, inthdr) extern void inthdr(void);
 433:.\asp\arch\arm_m_gcc\common/core_config.h **** 
 434:.\asp\arch\arm_m_gcc\common/core_config.h **** /*
 435:.\asp\arch\arm_m_gcc\common/core_config.h ****  *  Š„‚İ—v‹‹Ö~ƒtƒ‰ƒO
 436:.\asp\arch\arm_m_gcc\common/core_config.h ****  */
 437:.\asp\arch\arm_m_gcc\common/core_config.h **** 
 438:.\asp\arch\arm_m_gcc\common/core_config.h **** /*
 439:.\asp\arch\arm_m_gcc\common/core_config.h ****  *  Š„‚İ‘®«‚ªİ’è‚³‚ê‚Ä‚¢‚é‚©‚ğ”»•Ê‚·‚é‚½‚ß‚Ì•Ï”ikernel_cfg.cj
 440:.\asp\arch\arm_m_gcc\common/core_config.h ****  */
 441:.\asp\arch\arm_m_gcc\common/core_config.h **** extern const uint32_t	bitpat_cfgint[];
 442:.\asp\arch\arm_m_gcc\common/core_config.h **** 
 443:.\asp\arch\arm_m_gcc\common/core_config.h **** /*
 444:.\asp\arch\arm_m_gcc\common/core_config.h ****  *  Š„‚İ—v‹‹Ö~ƒtƒ‰ƒO‚ÌƒZƒbƒg
 445:.\asp\arch\arm_m_gcc\common/core_config.h ****  *
 446:.\asp\arch\arm_m_gcc\common/core_config.h ****  *  Š„‚İ‘®«‚ªİ’è‚³‚ê‚Ä‚¢‚È‚¢Š„‚İ—v‹ƒ‰ƒCƒ“‚É‘Î‚µ‚ÄŠ„‚İ—v‹‹Ö~
 447:.\asp\arch\arm_m_gcc\common/core_config.h ****  *  ƒtƒ‰ƒO‚ğƒNƒŠƒA‚µ‚æ‚¤‚Æ‚µ‚½ê‡‚É‚ÍCfalse‚ğ•Ô‚·D  
 448:.\asp\arch\arm_m_gcc\common/core_config.h ****  */
 449:.\asp\arch\arm_m_gcc\common/core_config.h **** Inline bool_t
 450:.\asp\arch\arm_m_gcc\common/core_config.h **** x_disable_int(INTNO intno)
 451:.\asp\arch\arm_m_gcc\common/core_config.h **** {
 452:.\asp\arch\arm_m_gcc\common/core_config.h **** 	uint32_t tmp;
 453:.\asp\arch\arm_m_gcc\common/core_config.h **** 
ARM GAS  C:\TEMP\cc9CsU7q.s 			page 18


 454:.\asp\arch\arm_m_gcc\common/core_config.h **** 	/*
 455:.\asp\arch\arm_m_gcc\common/core_config.h **** 	 *  Š„‚İ‘®«‚ªİ’è‚³‚ê‚Ä‚¢‚È‚¢ê‡
 456:.\asp\arch\arm_m_gcc\common/core_config.h **** 	 */
 457:.\asp\arch\arm_m_gcc\common/core_config.h **** 	if ((bitpat_cfgint[intno >> 5] & (1 << (intno & 0x1f))) == 0x00) {
 254              		.loc 1 457 0
 255 001c 0123     		movs	r3, #1
 256              	.LBE61:
 257 001e 04F01F01 		and	r1, r4, #31
 258              	.LBB68:
 259 0022 03FA01F1 		lsl	r1, r3, r1
 260 0026 134A     		ldr	r2, .L26+4
 261 0028 6009     		lsrs	r0, r4, #5
 262 002a 52F82000 		ldr	r0, [r2, r0, lsl #2]
 263 002e 0142     		tst	r1, r0
 264 0030 0DD0     		beq	.L24
 458:.\asp\arch\arm_m_gcc\common/core_config.h **** 		return(false);
 459:.\asp\arch\arm_m_gcc\common/core_config.h **** 	}
 460:.\asp\arch\arm_m_gcc\common/core_config.h **** 
 461:.\asp\arch\arm_m_gcc\common/core_config.h **** 	if (intno == IRQNO_SYSTICK) {
 265              		.loc 1 461 0
 266 0032 0F2C     		cmp	r4, #15
 267 0034 05D1     		bne	.L20
 268              	.LVL16:
 269              	.LBB62:
 270              	.LBB63:
 271              		.file 4 ".\\asp\\include/sil.h"
   1:.\asp\include/sil.h **** /*
   2:.\asp\include/sil.h ****  *  TOPPERS Software
   3:.\asp\include/sil.h ****  *      Toyohashi Open Platform for Embedded Real-Time Systems
   4:.\asp\include/sil.h ****  * 
   5:.\asp\include/sil.h ****  *  Copyright (C) 2000-2003 by Embedded and Real-Time Systems Laboratory
   6:.\asp\include/sil.h ****  *                              Toyohashi Univ. of Technology, JAPAN
   7:.\asp\include/sil.h ****  *  Copyright (C) 2004-2011 by Embedded and Real-Time Systems Laboratory
   8:.\asp\include/sil.h ****  *              Graduate School of Information Science, Nagoya Univ., JAPAN
   9:.\asp\include/sil.h ****  * 
  10:.\asp\include/sil.h ****  *  ã‹L’˜ìŒ Ò‚ÍCˆÈ‰º‚Ì(1)`(4)‚ÌğŒ‚ğ–‚½‚·ê‡‚ÉŒÀ‚èC–{ƒ\ƒtƒgƒEƒF
  11:.\asp\include/sil.h ****  *  ƒAi–{ƒ\ƒtƒgƒEƒFƒA‚ğ‰ü•Ï‚µ‚½‚à‚Ì‚ğŠÜ‚ŞDˆÈ‰º“¯‚¶j‚ğg—pE•¡»E‰ü
  12:.\asp\include/sil.h ****  *  •ÏEÄ”z•ziˆÈ‰ºC—˜—p‚ÆŒÄ‚Ôj‚·‚é‚±‚Æ‚ğ–³‚Å‹–‘ø‚·‚éD
  13:.\asp\include/sil.h ****  *  (1) –{ƒ\ƒtƒgƒEƒFƒA‚ğƒ\[ƒXƒR[ƒh‚ÌŒ`‚Å—˜—p‚·‚éê‡‚É‚ÍCã‹L‚Ì’˜ì
  14:.\asp\include/sil.h ****  *      Œ •\¦C‚±‚Ì—˜—pğŒ‚¨‚æ‚Ñ‰º‹L‚Ì–³•ÛØ‹K’è‚ªC‚»‚Ì‚Ü‚Ü‚ÌŒ`‚Åƒ\[
  15:.\asp\include/sil.h ****  *      ƒXƒR[ƒh’†‚ÉŠÜ‚Ü‚ê‚Ä‚¢‚é‚±‚ÆD
  16:.\asp\include/sil.h ****  *  (2) –{ƒ\ƒtƒgƒEƒFƒA‚ğCƒ‰ƒCƒuƒ‰ƒŠŒ`®‚È‚ÇC‘¼‚Ìƒ\ƒtƒgƒEƒFƒAŠJ”­‚Ég
  17:.\asp\include/sil.h ****  *      —p‚Å‚«‚éŒ`‚ÅÄ”z•z‚·‚éê‡‚É‚ÍCÄ”z•z‚É”º‚¤ƒhƒLƒ…ƒƒ“ƒgi—˜—p
  18:.\asp\include/sil.h ****  *      Òƒ}ƒjƒ…ƒAƒ‹‚È‚Çj‚ÉCã‹L‚Ì’˜ìŒ •\¦C‚±‚Ì—˜—pğŒ‚¨‚æ‚Ñ‰º‹L
  19:.\asp\include/sil.h ****  *      ‚Ì–³•ÛØ‹K’è‚ğŒfÚ‚·‚é‚±‚ÆD
  20:.\asp\include/sil.h ****  *  (3) –{ƒ\ƒtƒgƒEƒFƒA‚ğC‹@Ší‚É‘g‚İ‚Ş‚È‚ÇC‘¼‚Ìƒ\ƒtƒgƒEƒFƒAŠJ”­‚Ég
  21:.\asp\include/sil.h ****  *      —p‚Å‚«‚È‚¢Œ`‚ÅÄ”z•z‚·‚éê‡‚É‚ÍCŸ‚Ì‚¢‚¸‚ê‚©‚ÌğŒ‚ğ–‚½‚·‚±
  22:.\asp\include/sil.h ****  *      ‚ÆD
  23:.\asp\include/sil.h ****  *    (a) Ä”z•z‚É”º‚¤ƒhƒLƒ…ƒƒ“ƒgi—˜—pÒƒ}ƒjƒ…ƒAƒ‹‚È‚Çj‚ÉCã‹L‚Ì’˜
  24:.\asp\include/sil.h ****  *        ìŒ •\¦C‚±‚Ì—˜—pğŒ‚¨‚æ‚Ñ‰º‹L‚Ì–³•ÛØ‹K’è‚ğŒfÚ‚·‚é‚±‚ÆD
  25:.\asp\include/sil.h ****  *    (b) Ä”z•z‚ÌŒ`‘Ô‚ğC•Ê‚É’è‚ß‚é•û–@‚É‚æ‚Á‚ÄCTOPPERSƒvƒƒWƒFƒNƒg‚É
  26:.\asp\include/sil.h ****  *        •ñ‚·‚é‚±‚ÆD
  27:.\asp\include/sil.h ****  *  (4) –{ƒ\ƒtƒgƒEƒFƒA‚Ì—˜—p‚É‚æ‚è’¼Ú“I‚Ü‚½‚ÍŠÔÚ“I‚É¶‚¶‚é‚¢‚©‚È‚é‘¹
  28:.\asp\include/sil.h ****  *      ŠQ‚©‚ç‚àCã‹L’˜ìŒ Ò‚¨‚æ‚ÑTOPPERSƒvƒƒWƒFƒNƒg‚ğ–ÆÓ‚·‚é‚±‚ÆD
  29:.\asp\include/sil.h ****  *      ‚Ü‚½C–{ƒ\ƒtƒgƒEƒFƒA‚Ìƒ†[ƒU‚Ü‚½‚ÍƒGƒ“ƒhƒ†[ƒU‚©‚ç‚Ì‚¢‚©‚È‚é—
  30:.\asp\include/sil.h ****  *      —R‚ÉŠî‚Ã‚­¿‹‚©‚ç‚àCã‹L’˜ìŒ Ò‚¨‚æ‚ÑTOPPERSƒvƒƒWƒFƒNƒg‚ğ
  31:.\asp\include/sil.h ****  *      –ÆÓ‚·‚é‚±‚ÆD
ARM GAS  C:\TEMP\cc9CsU7q.s 			page 19


  32:.\asp\include/sil.h ****  * 
  33:.\asp\include/sil.h ****  *  –{ƒ\ƒtƒgƒEƒFƒA‚ÍC–³•ÛØ‚Å’ñ‹Ÿ‚³‚ê‚Ä‚¢‚é‚à‚Ì‚Å‚ ‚éDã‹L’˜ìŒ Ò‚¨
  34:.\asp\include/sil.h ****  *  ‚æ‚ÑTOPPERSƒvƒƒWƒFƒNƒg‚ÍC–{ƒ\ƒtƒgƒEƒFƒA‚ÉŠÖ‚µ‚ÄC“Á’è‚Ìg—p–Ú“I
  35:.\asp\include/sil.h ****  *  ‚É‘Î‚·‚é“K‡«‚àŠÜ‚ß‚ÄC‚¢‚©‚È‚é•ÛØ‚às‚í‚È‚¢D‚Ü‚½C–{ƒ\ƒtƒgƒEƒF
  36:.\asp\include/sil.h ****  *  ƒA‚Ì—˜—p‚É‚æ‚è’¼Ú“I‚Ü‚½‚ÍŠÔÚ“I‚É¶‚¶‚½‚¢‚©‚È‚é‘¹ŠQ‚ÉŠÖ‚µ‚Ä‚àC‚»
  37:.\asp\include/sil.h ****  *  ‚ÌÓ”C‚ğ•‰‚í‚È‚¢D
  38:.\asp\include/sil.h ****  * 
  39:.\asp\include/sil.h ****  *  @(#) $Id: sil.h 2242 2011-08-26 21:00:19Z ertl-hiro $
  40:.\asp\include/sil.h ****  */
  41:.\asp\include/sil.h **** 
  42:.\asp\include/sil.h **** /*
  43:.\asp\include/sil.h ****  *		ƒVƒXƒeƒ€ƒCƒ“ƒ^ƒtƒF[ƒXƒŒƒCƒ„
  44:.\asp\include/sil.h ****  *
  45:.\asp\include/sil.h ****  *  ƒVƒXƒeƒ€ƒCƒ“ƒ^ƒtƒF[ƒXƒŒƒCƒ„‚ÌƒT[ƒrƒXƒR[ƒ‹‚Ì’è‹`EéŒ¾‚Æƒ}ƒNƒ‚È
  46:.\asp\include/sil.h ****  *  ‚Ç‚Ì’è‹`‚ğŠÜ‚Şƒwƒbƒ_ƒtƒ@ƒCƒ‹D
  47:.\asp\include/sil.h ****  *
  48:.\asp\include/sil.h ****  *  ƒAƒZƒ“ƒuƒŠŒ¾Œê‚Ìƒ\[ƒXƒtƒ@ƒCƒ‹‚©‚ç‚±‚Ìƒtƒ@ƒCƒ‹‚ğƒCƒ“ƒNƒ‹[ƒh‚·‚é
  49:.\asp\include/sil.h ****  *  ‚ÍCTOPPERS_MACRO_ONLY‚ğ’è‹`‚µ‚Ä‚¨‚­‚±‚Æ‚ÅCƒ}ƒNƒ’è‹`ˆÈŠO‚Ì‹Lq‚ğ
  50:.\asp\include/sil.h ****  *  œ‚­‚±‚Æ‚ª‚Å‚«‚éD
  51:.\asp\include/sil.h ****  *
  52:.\asp\include/sil.h ****  *  ‚±‚Ìƒtƒ@ƒCƒ‹‚ğƒCƒ“ƒNƒ‹[ƒh‚·‚é‘O‚ÉƒCƒ“ƒNƒ‹[ƒh‚µ‚Ä‚¨‚­‚×‚«ƒtƒ@ƒCƒ‹
  53:.\asp\include/sil.h ****  *  ‚Í‚È‚¢D
  54:.\asp\include/sil.h ****  */
  55:.\asp\include/sil.h **** 
  56:.\asp\include/sil.h **** #ifndef TOPPERS_SIL_H
  57:.\asp\include/sil.h **** #define TOPPERS_SIL_H
  58:.\asp\include/sil.h **** 
  59:.\asp\include/sil.h **** #ifdef __cplusplus
  60:.\asp\include/sil.h **** extern "C" {
  61:.\asp\include/sil.h **** #endif
  62:.\asp\include/sil.h **** 
  63:.\asp\include/sil.h **** /*
  64:.\asp\include/sil.h ****  *	TOPPERS‹¤’Ê‚Ìƒf[ƒ^Œ^E’è”Eƒ}ƒNƒ
  65:.\asp\include/sil.h ****  */
  66:.\asp\include/sil.h **** #include <t_stddef.h>
  67:.\asp\include/sil.h **** 
  68:.\asp\include/sil.h **** /*
  69:.\asp\include/sil.h ****  *  ƒ^[ƒQƒbƒgˆË‘¶•”
  70:.\asp\include/sil.h ****  */
  71:.\asp\include/sil.h **** #include "target_sil.h"
  72:.\asp\include/sil.h **** 
  73:.\asp\include/sil.h **** #ifndef TOPPERS_MACRO_ONLY
  74:.\asp\include/sil.h **** 
  75:.\asp\include/sil.h **** /*
  76:.\asp\include/sil.h ****  *  ‘SŠ„‚İƒƒbƒNó‘Ô‚Ì§Œä
  77:.\asp\include/sil.h ****  *
  78:.\asp\include/sil.h ****  *  SIL_PRE_LOCCSIL_LOC_INT()CSIL_UNL_INT()‚ÍCƒ^[ƒQƒbƒgˆË‘¶•”‚Å—p
  79:.\asp\include/sil.h ****  *  ˆÓ‚·‚éDƒfƒtƒHƒ‹ƒg‚Ì’è‹`‚Í—pˆÓ‚µ‚Ä‚¢‚È‚¢D
  80:.\asp\include/sil.h ****  */
  81:.\asp\include/sil.h **** 
  82:.\asp\include/sil.h **** /*
  83:.\asp\include/sil.h ****  *  ”÷­ŠÔ‘Ò‚¿
  84:.\asp\include/sil.h ****  */
  85:.\asp\include/sil.h **** extern void	sil_dly_nse(ulong_t dlytim) throw();
  86:.\asp\include/sil.h **** 
  87:.\asp\include/sil.h **** /*
  88:.\asp\include/sil.h ****  *  ƒGƒ“ƒfƒBƒAƒ“‚Ì”½“]
ARM GAS  C:\TEMP\cc9CsU7q.s 			page 20


  89:.\asp\include/sil.h ****  */
  90:.\asp\include/sil.h **** #ifndef TOPPERS_SIL_REV_ENDIAN_UINT16
  91:.\asp\include/sil.h **** #define	TOPPERS_SIL_REV_ENDIAN_UINT16(data) \
  92:.\asp\include/sil.h **** 				((((data) & 0xffU) << 8) | (((data) >> 8) & 0xffU))
  93:.\asp\include/sil.h **** #endif /* TOPPERS_SIL_REV_ENDIAN_UINT16 */
  94:.\asp\include/sil.h **** 
  95:.\asp\include/sil.h **** #ifndef TOPPERS_SIL_REV_ENDIAN_UINT32
  96:.\asp\include/sil.h **** #define	TOPPERS_SIL_REV_ENDIAN_UINT32(data) \
  97:.\asp\include/sil.h **** 				((((data) & 0xffU) << 24) | (((data) & 0xff00U) << 8) \
  98:.\asp\include/sil.h **** 					| (((data) >> 8) & 0xff00U) | (((data) >> 24) & 0xffU))
  99:.\asp\include/sil.h **** #endif /* TOPPERS_SIL_REV_ENDIAN_UINT32 */
 100:.\asp\include/sil.h **** 
 101:.\asp\include/sil.h **** /*
 102:.\asp\include/sil.h ****  *  ƒƒ‚ƒŠ‹óŠÔƒAƒNƒZƒXŠÖ”
 103:.\asp\include/sil.h ****  */
 104:.\asp\include/sil.h **** #ifndef TOPPERS_OMIT_SIL_ACCESS
 105:.\asp\include/sil.h **** 
 106:.\asp\include/sil.h **** /*
 107:.\asp\include/sil.h ****  *  8ƒrƒbƒg’PˆÊ‚Ì“Ço‚µ^‘‚İ
 108:.\asp\include/sil.h ****  */
 109:.\asp\include/sil.h **** #ifdef UINT8_MAX
 110:.\asp\include/sil.h **** 
 111:.\asp\include/sil.h **** Inline uint8_t
 112:.\asp\include/sil.h **** sil_reb_mem(const uint8_t *mem)
 113:.\asp\include/sil.h **** {
 114:.\asp\include/sil.h **** 	uint8_t	data;
 115:.\asp\include/sil.h **** 
 116:.\asp\include/sil.h **** 	data = *((const volatile uint8_t *) mem);
 117:.\asp\include/sil.h **** 	return(data);
 118:.\asp\include/sil.h **** }
 119:.\asp\include/sil.h **** 
 120:.\asp\include/sil.h **** Inline void
 121:.\asp\include/sil.h **** sil_wrb_mem(uint8_t *mem, uint8_t data)
 122:.\asp\include/sil.h **** {
 123:.\asp\include/sil.h **** 	*((volatile uint8_t *) mem) = data;
 124:.\asp\include/sil.h **** }
 125:.\asp\include/sil.h **** 
 126:.\asp\include/sil.h **** #endif /* UINT8_MAX */
 127:.\asp\include/sil.h **** 
 128:.\asp\include/sil.h **** /*
 129:.\asp\include/sil.h ****  *  16ƒrƒbƒg’PˆÊ‚Ì“Ço‚µ^‘‚İ
 130:.\asp\include/sil.h ****  */
 131:.\asp\include/sil.h **** 
 132:.\asp\include/sil.h **** Inline uint16_t
 133:.\asp\include/sil.h **** sil_reh_mem(const uint16_t *mem)
 134:.\asp\include/sil.h **** {
 135:.\asp\include/sil.h **** 	uint16_t	data;
 136:.\asp\include/sil.h **** 
 137:.\asp\include/sil.h **** 	data = *((const volatile uint16_t *) mem);
 138:.\asp\include/sil.h **** 	return(data);
 139:.\asp\include/sil.h **** }
 140:.\asp\include/sil.h **** 
 141:.\asp\include/sil.h **** Inline void
 142:.\asp\include/sil.h **** sil_wrh_mem(uint16_t *mem, uint16_t data)
 143:.\asp\include/sil.h **** {
 144:.\asp\include/sil.h **** 	*((volatile uint16_t *) mem) = data;
 145:.\asp\include/sil.h **** }
ARM GAS  C:\TEMP\cc9CsU7q.s 			page 21


 146:.\asp\include/sil.h **** 
 147:.\asp\include/sil.h **** #ifdef SIL_ENDIAN_BIG			/* ƒrƒbƒOƒGƒ“ƒfƒBƒAƒ“ƒvƒƒZƒbƒT */
 148:.\asp\include/sil.h **** 
 149:.\asp\include/sil.h **** #define	sil_reh_bem(mem)		sil_reh_mem(mem)
 150:.\asp\include/sil.h **** #define	sil_wrh_bem(mem, data)	sil_wrh_mem(mem, data)
 151:.\asp\include/sil.h **** 
 152:.\asp\include/sil.h **** #ifndef TOPPERS_OMIT_SIL_REH_LEM
 153:.\asp\include/sil.h **** 
 154:.\asp\include/sil.h **** Inline uint16_t
 155:.\asp\include/sil.h **** sil_reh_lem(const uint16_t *mem)
 156:.\asp\include/sil.h **** {
 157:.\asp\include/sil.h **** 	uint16_t	data;
 158:.\asp\include/sil.h **** 
 159:.\asp\include/sil.h **** 	data = *((const volatile uint16_t *) mem);
 160:.\asp\include/sil.h **** 	return(TOPPERS_SIL_REV_ENDIAN_UINT16(data));
 161:.\asp\include/sil.h **** }
 162:.\asp\include/sil.h **** 
 163:.\asp\include/sil.h **** #endif /* TOPPERS_OMIT_SIL_REH_LEM */
 164:.\asp\include/sil.h **** #ifndef TOPPERS_OMIT_SIL_WRH_LEM
 165:.\asp\include/sil.h **** 
 166:.\asp\include/sil.h **** Inline void
 167:.\asp\include/sil.h **** sil_wrh_lem(uint16_t *mem, uint16_t data)
 168:.\asp\include/sil.h **** {
 169:.\asp\include/sil.h **** 	*((volatile uint16_t *) mem) = TOPPERS_SIL_REV_ENDIAN_UINT16(data);
 170:.\asp\include/sil.h **** }
 171:.\asp\include/sil.h **** 
 172:.\asp\include/sil.h **** #endif /* TOPPERS_OMIT_SIL_WRH_LEM */
 173:.\asp\include/sil.h **** #else /* SIL_ENDIAN_BIG */
 174:.\asp\include/sil.h **** #ifdef SIL_ENDIAN_LITTLE		/* ƒŠƒgƒ‹ƒGƒ“ƒfƒBƒAƒ“ƒvƒƒZƒbƒT */
 175:.\asp\include/sil.h **** 
 176:.\asp\include/sil.h **** #define	sil_reh_lem(mem)		sil_reh_mem(mem)
 177:.\asp\include/sil.h **** #define	sil_wrh_lem(mem, data)	sil_wrh_mem(mem, data)
 178:.\asp\include/sil.h **** 
 179:.\asp\include/sil.h **** #ifndef TOPPERS_OMIT_SIL_REH_BEM
 180:.\asp\include/sil.h **** 
 181:.\asp\include/sil.h **** Inline uint16_t
 182:.\asp\include/sil.h **** sil_reh_bem(const uint16_t *mem)
 183:.\asp\include/sil.h **** {
 184:.\asp\include/sil.h **** 	uint16_t	data;
 185:.\asp\include/sil.h **** 
 186:.\asp\include/sil.h **** 	data = *((const volatile uint16_t *) mem);
 187:.\asp\include/sil.h **** 	return(TOPPERS_SIL_REV_ENDIAN_UINT16(data));
 188:.\asp\include/sil.h **** }
 189:.\asp\include/sil.h **** 
 190:.\asp\include/sil.h **** #endif /* TOPPERS_OMIT_SIL_REH_BEM */
 191:.\asp\include/sil.h **** #ifndef TOPPERS_OMIT_SIL_WRH_BEM
 192:.\asp\include/sil.h **** 
 193:.\asp\include/sil.h **** Inline void
 194:.\asp\include/sil.h **** sil_wrh_bem(uint16_t *mem, uint16_t data)
 195:.\asp\include/sil.h **** {
 196:.\asp\include/sil.h **** 	*((volatile uint16_t *) mem) = TOPPERS_SIL_REV_ENDIAN_UINT16(data);
 197:.\asp\include/sil.h **** }
 198:.\asp\include/sil.h **** 
 199:.\asp\include/sil.h **** #endif /* TOPPERS_OMIT_SIL_WRH_BEM */
 200:.\asp\include/sil.h **** #else /* SIL_ENDIAN_LITTLE */
 201:.\asp\include/sil.h **** 
 202:.\asp\include/sil.h **** #error Neither SIL_ENDIAN_BIG nor SIL_ENDIAN_LITTLE is defined.
ARM GAS  C:\TEMP\cc9CsU7q.s 			page 22


 203:.\asp\include/sil.h **** 
 204:.\asp\include/sil.h **** #endif /* SIL_ENDIAN_LITTLE */
 205:.\asp\include/sil.h **** #endif /* SIL_ENDIAN_BIG */
 206:.\asp\include/sil.h **** 
 207:.\asp\include/sil.h **** /*
 208:.\asp\include/sil.h ****  *  32ƒrƒbƒg’PˆÊ‚Ì“Ço‚µ^‘‚İ
 209:.\asp\include/sil.h ****  */
 210:.\asp\include/sil.h **** 
 211:.\asp\include/sil.h **** Inline uint32_t
 212:.\asp\include/sil.h **** sil_rew_mem(const uint32_t *mem)
 213:.\asp\include/sil.h **** {
 214:.\asp\include/sil.h **** 	uint32_t	data;
 215:.\asp\include/sil.h **** 
 216:.\asp\include/sil.h **** 	data = *((const volatile uint32_t *) mem);
 272              		.loc 4 216 0
 273 0036 104B     		ldr	r3, .L26+8
 274 0038 1968     		ldr	r1, [r3, #0]
 275              	.LVL17:
 276              	.LBE63:
 277              	.LBE62:
 462:.\asp\arch\arm_m_gcc\common/core_config.h **** 		tmp = sil_rew_mem((void *)SYSTIC_CONTROL_STATUS);
 463:.\asp\arch\arm_m_gcc\common/core_config.h **** 		tmp &= ~SYSTIC_TICINT;
 278              		.loc 1 463 0
 279 003a 21F00202 		bic	r2, r1, #2
 280              	.LVL18:
 281              	.LBB64:
 282              	.LBB65:
 217:.\asp\include/sil.h **** 	return(data);
 218:.\asp\include/sil.h **** }
 219:.\asp\include/sil.h **** 
 220:.\asp\include/sil.h **** Inline void
 221:.\asp\include/sil.h **** sil_wrw_mem(uint32_t *mem, uint32_t data)
 222:.\asp\include/sil.h **** {
 223:.\asp\include/sil.h **** 	*((volatile uint32_t *) mem) = data;
 283              		.loc 4 223 0
 284 003e 1A60     		str	r2, [r3, #0]
 285 0040 11E0     		b	.L21
 286              	.LVL19:
 287              	.L20:
 288              	.LBE65:
 289              	.LBE64:
 464:.\asp\arch\arm_m_gcc\common/core_config.h **** 		sil_wrw_mem((void *)SYSTIC_CONTROL_STATUS, tmp);
 465:.\asp\arch\arm_m_gcc\common/core_config.h **** 	}else {
 466:.\asp\arch\arm_m_gcc\common/core_config.h **** 		tmp = intno - 16;
 290              		.loc 1 466 0
 291 0042 103C     		subs	r4, r4, #16
 292              	.LVL20:
 467:.\asp\arch\arm_m_gcc\common/core_config.h **** 		sil_wrw_mem((void *)((uint32_t *)NVIC_CLRENA0 + (tmp >> 5)),
 468:.\asp\arch\arm_m_gcc\common/core_config.h **** 					(1 << (tmp & 0x1f)));
 293              		.loc 1 468 0
 294 0044 03FA04F3 		lsl	r3, r3, r4
 295              	.LVL21:
 296              	.LBB66:
 297              	.LBB67:
 298              		.loc 4 223 0
 299 0048 0C4C     		ldr	r4, .L26+12
 300              	.LVL22:
ARM GAS  C:\TEMP\cc9CsU7q.s 			page 23


 301 004a 2360     		str	r3, [r4, #0]
 302 004c 0BE0     		b	.L21
 303              	.LVL23:
 304              	.L24:
 305              	.LBE67:
 306              	.LBE66:
 132:.\asp\kernel/interrupt.c **** 	}
 133:.\asp\kernel/interrupt.c **** 	if (t_disable_int(intno)) {
 134:.\asp\kernel/interrupt.c **** 		ercd = E_OK;
 135:.\asp\kernel/interrupt.c **** 	}
 136:.\asp\kernel/interrupt.c **** 	else {
 137:.\asp\kernel/interrupt.c **** 		ercd = E_OBJ;
 307              		.loc 3 137 0
 308 004e 6FF02804 		mvn	r4, #40
 309              	.LVL24:
 310              	.L19:
 311              	.LBE68:
 312              	.LBE60:
 138:.\asp\kernel/interrupt.c **** 	}
 139:.\asp\kernel/interrupt.c **** 	if (!locked) {
 313              		.loc 3 139 0
 314 0052 55B9     		cbnz	r5, .L25
 140:.\asp\kernel/interrupt.c **** 		t_unlock_cpu();
 315              		.loc 3 140 0
 316 0054 FFF7FEFF 		bl	x_unlock_cpu
 317              	.LVL25:
 318 0058 07E0     		b	.L25
 319              	.LVL26:
 320              	.L22:
 126:.\asp\kernel/interrupt.c **** 	CHECK_TSKCTX();
 321              		.loc 3 126 0
 322 005a 6FF01804 		mvn	r4, #24
 323              	.LVL27:
 324 005e 04E0     		b	.L25
 325              	.LVL28:
 326              	.L23:
 327              	.L17:
 127:.\asp\kernel/interrupt.c **** 	CHECK_INTNO_DISINT(intno);
 328              		.loc 3 127 0
 329 0060 6FF01004 		mvn	r4, #16
 330              	.LVL29:
 331 0064 01E0     		b	.L25
 332              	.LVL30:
 333              	.L21:
 134:.\asp\kernel/interrupt.c **** 		ercd = E_OK;
 334              		.loc 3 134 0
 335 0066 0024     		movs	r4, #0
 336 0068 F3E7     		b	.L19
 337              	.LVL31:
 338              	.L25:
 141:.\asp\kernel/interrupt.c **** 	}
 142:.\asp\kernel/interrupt.c **** 
 143:.\asp\kernel/interrupt.c ****   error_exit:
 144:.\asp\kernel/interrupt.c **** 	LOG_DIS_INT_LEAVE(ercd);
 145:.\asp\kernel/interrupt.c **** 	return(ercd);
 146:.\asp\kernel/interrupt.c **** }
 339              		.loc 3 146 0
ARM GAS  C:\TEMP\cc9CsU7q.s 			page 24


 340 006a 2046     		mov	r0, r4
 341 006c 38BD     		pop	{r3, r4, r5, pc}
 342              	.L27:
 343 006e 00BF     		.align	2
 344              	.L26:
 345 0070 00000000 		.word	_kernel_lock_flag
 346 0074 00000000 		.word	_kernel_bitpat_cfgint
 347 0078 10E000E0 		.word	-536813552
 348 007c 80E100E0 		.word	-536813184
 349              		.cfi_endproc
 350              	.LFE54:
 351              		.size	dis_int, .-dis_int
 352              		.section	.text.ena_int,"ax",%progbits
 353              		.align	1
 354              		.global	ena_int
 355              		.thumb
 356              		.thumb_func
 357              		.type	ena_int, %function
 358              	ena_int:
 359              	.LFB55:
 147:.\asp\kernel/interrupt.c **** 
 148:.\asp\kernel/interrupt.c **** #endif /* TOPPERS_SUPPORT_DIS_INT */
 149:.\asp\kernel/interrupt.c **** #endif /* TOPPERS_dis_int */
 150:.\asp\kernel/interrupt.c **** 
 151:.\asp\kernel/interrupt.c **** /*
 152:.\asp\kernel/interrupt.c ****  *  Š„‚İ‚Ì‹–‰Â
 153:.\asp\kernel/interrupt.c ****  */
 154:.\asp\kernel/interrupt.c **** #ifdef TOPPERS_ena_int
 155:.\asp\kernel/interrupt.c **** #ifdef TOPPERS_SUPPORT_ENA_INT
 156:.\asp\kernel/interrupt.c **** 
 157:.\asp\kernel/interrupt.c **** ER
 158:.\asp\kernel/interrupt.c **** ena_int(INTNO intno)
 159:.\asp\kernel/interrupt.c **** {
 360              		.loc 3 159 0
 361              		.cfi_startproc
 362              		@ args = 0, pretend = 0, frame = 0
 363              		@ frame_needed = 0, uses_anonymous_args = 0
 364              	.LVL32:
 365 0000 38B5     		push	{r3, r4, r5, lr}
 366              	.LCFI2:
 367              		.cfi_def_cfa_offset 16
 368              		.cfi_offset 3, -16
 369              		.cfi_offset 4, -12
 370              		.cfi_offset 5, -8
 371              		.cfi_offset 14, -4
 372              		.loc 3 159 0
 373 0002 0446     		mov	r4, r0
 160:.\asp\kernel/interrupt.c **** 	bool_t	locked;
 161:.\asp\kernel/interrupt.c **** 	ER		ercd;
 162:.\asp\kernel/interrupt.c **** 
 163:.\asp\kernel/interrupt.c **** 	LOG_ENA_INT_ENTER(intno);
 164:.\asp\kernel/interrupt.c **** 	CHECK_TSKCTX();
 374              		.loc 3 164 0
 375 0004 FFF7FEFF 		bl	sense_context
 376              	.LVL33:
 377 0008 38BB     		cbnz	r0, .L34
 165:.\asp\kernel/interrupt.c **** 	CHECK_INTNO_DISINT(intno);
ARM GAS  C:\TEMP\cc9CsU7q.s 			page 25


 378              		.loc 3 165 0
 379 000a A4F10F03 		sub	r3, r4, #15
 380 000e 202B     		cmp	r3, #32
 381 0010 26D8     		bhi	.L35
 382              	.LBB79:
 383              	.LBB80:
 247:.\asp\arch\arm_m_gcc\common/core_config.h **** 	return(lock_flag);
 384              		.loc 1 247 0
 385 0012 1748     		ldr	r0, .L38
 386 0014 0568     		ldr	r5, [r0, #0]
 387              	.LBE80:
 388              	.LBE79:
 166:.\asp\kernel/interrupt.c **** 
 167:.\asp\kernel/interrupt.c **** 	locked = t_sense_lock();
 168:.\asp\kernel/interrupt.c **** 	if (!locked) {
 389              		.loc 3 168 0
 390 0016 0DB9     		cbnz	r5, .L30
 169:.\asp\kernel/interrupt.c **** 		t_lock_cpu();
 391              		.loc 3 169 0
 392 0018 FFF7FEFF 		bl	x_lock_cpu
 393              	.LVL34:
 394              	.L30:
 395              	.LBB81:
 396              	.LBB82:
 469:.\asp\arch\arm_m_gcc\common/core_config.h **** 	}
 470:.\asp\arch\arm_m_gcc\common/core_config.h **** 
 471:.\asp\arch\arm_m_gcc\common/core_config.h **** 	return(true);
 472:.\asp\arch\arm_m_gcc\common/core_config.h **** }
 473:.\asp\arch\arm_m_gcc\common/core_config.h **** 
 474:.\asp\arch\arm_m_gcc\common/core_config.h **** #define t_disable_int(intno) x_disable_int(intno)
 475:.\asp\arch\arm_m_gcc\common/core_config.h **** #define i_disable_int(intno) x_disable_int(intno)
 476:.\asp\arch\arm_m_gcc\common/core_config.h **** 
 477:.\asp\arch\arm_m_gcc\common/core_config.h **** /*
 478:.\asp\arch\arm_m_gcc\common/core_config.h ****  *  Š„‚İ—v‹‹Ö~ƒtƒ‰ƒO‚Ì‰ğœ
 479:.\asp\arch\arm_m_gcc\common/core_config.h ****  *
 480:.\asp\arch\arm_m_gcc\common/core_config.h ****  *  Š„‚İ‘®«‚ªİ’è‚³‚ê‚Ä‚¢‚È‚¢Š„‚İ—v‹ƒ‰ƒCƒ“‚É‘Î‚µ‚ÄŠ„‚İ—v‹‹Ö~
 481:.\asp\arch\arm_m_gcc\common/core_config.h ****  *  ƒtƒ‰ƒO‚ğƒNƒŠƒA‚µ‚æ‚¤‚Æ‚µ‚½ê‡‚É‚ÍCfalse‚ğ•Ô‚·D
 482:.\asp\arch\arm_m_gcc\common/core_config.h ****  */
 483:.\asp\arch\arm_m_gcc\common/core_config.h **** Inline bool_t
 484:.\asp\arch\arm_m_gcc\common/core_config.h **** x_enable_int(INTNO intno)
 485:.\asp\arch\arm_m_gcc\common/core_config.h **** {
 486:.\asp\arch\arm_m_gcc\common/core_config.h **** 	uint32_t tmp;
 487:.\asp\arch\arm_m_gcc\common/core_config.h **** 
 488:.\asp\arch\arm_m_gcc\common/core_config.h **** 	/*
 489:.\asp\arch\arm_m_gcc\common/core_config.h **** 	 *  Š„‚İ‘®«‚ªİ’è‚³‚ê‚Ä‚¢‚È‚¢ê‡
 490:.\asp\arch\arm_m_gcc\common/core_config.h **** 	 */
 491:.\asp\arch\arm_m_gcc\common/core_config.h **** 	if ((bitpat_cfgint[intno >> 5] & (1 << (intno & 0x1f))) == 0x00) {
 397              		.loc 1 491 0
 398 001c 0123     		movs	r3, #1
 399              	.LBE82:
 400 001e 04F01F01 		and	r1, r4, #31
 401              	.LBB89:
 402 0022 03FA01F1 		lsl	r1, r3, r1
 403 0026 134A     		ldr	r2, .L38+4
 404 0028 6009     		lsrs	r0, r4, #5
 405 002a 52F82000 		ldr	r0, [r2, r0, lsl #2]
 406 002e 0142     		tst	r1, r0
ARM GAS  C:\TEMP\cc9CsU7q.s 			page 26


 407 0030 0DD0     		beq	.L36
 492:.\asp\arch\arm_m_gcc\common/core_config.h **** 		return(false);
 493:.\asp\arch\arm_m_gcc\common/core_config.h **** 	}
 494:.\asp\arch\arm_m_gcc\common/core_config.h **** 
 495:.\asp\arch\arm_m_gcc\common/core_config.h **** 	if (intno == IRQNO_SYSTICK) {
 408              		.loc 1 495 0
 409 0032 0F2C     		cmp	r4, #15
 410 0034 05D1     		bne	.L32
 411              	.LVL35:
 412              	.LBB83:
 413              	.LBB84:
 216:.\asp\include/sil.h **** 	data = *((const volatile uint32_t *) mem);
 414              		.loc 4 216 0
 415 0036 104B     		ldr	r3, .L38+8
 416 0038 1968     		ldr	r1, [r3, #0]
 417              	.LVL36:
 418              	.LBE84:
 419              	.LBE83:
 496:.\asp\arch\arm_m_gcc\common/core_config.h **** 		tmp = sil_rew_mem((void *)SYSTIC_CONTROL_STATUS);
 497:.\asp\arch\arm_m_gcc\common/core_config.h **** 		tmp |= SYSTIC_TICINT;
 420              		.loc 1 497 0
 421 003a 41F00202 		orr	r2, r1, #2
 422              	.LVL37:
 423              	.LBB85:
 424              	.LBB86:
 425              		.loc 4 223 0
 426 003e 1A60     		str	r2, [r3, #0]
 427 0040 11E0     		b	.L33
 428              	.LVL38:
 429              	.L32:
 430              	.LBE86:
 431              	.LBE85:
 498:.\asp\arch\arm_m_gcc\common/core_config.h **** 		sil_wrw_mem((void *)SYSTIC_CONTROL_STATUS, tmp);
 499:.\asp\arch\arm_m_gcc\common/core_config.h **** 	}else {
 500:.\asp\arch\arm_m_gcc\common/core_config.h **** 		tmp = intno - 16;
 432              		.loc 1 500 0
 433 0042 103C     		subs	r4, r4, #16
 434              	.LVL39:
 501:.\asp\arch\arm_m_gcc\common/core_config.h **** 		sil_wrw_mem((void *)((uint32_t *)NVIC_SETENA0 + (tmp >> 5)),
 502:.\asp\arch\arm_m_gcc\common/core_config.h **** 					(1 << (tmp & 0x1f)));
 435              		.loc 1 502 0
 436 0044 03FA04F3 		lsl	r3, r3, r4
 437              	.LVL40:
 438              	.LBB87:
 439              	.LBB88:
 440              		.loc 4 223 0
 441 0048 0C4C     		ldr	r4, .L38+12
 442              	.LVL41:
 443 004a 2360     		str	r3, [r4, #0]
 444 004c 0BE0     		b	.L33
 445              	.LVL42:
 446              	.L36:
 447              	.LBE88:
 448              	.LBE87:
 170:.\asp\kernel/interrupt.c **** 	}
 171:.\asp\kernel/interrupt.c **** 	if (t_enable_int(intno)) {
 172:.\asp\kernel/interrupt.c **** 		ercd = E_OK;
ARM GAS  C:\TEMP\cc9CsU7q.s 			page 27


 173:.\asp\kernel/interrupt.c **** 	}
 174:.\asp\kernel/interrupt.c **** 	else {
 175:.\asp\kernel/interrupt.c **** 		ercd = E_OBJ;
 449              		.loc 3 175 0
 450 004e 6FF02804 		mvn	r4, #40
 451              	.LVL43:
 452              	.L31:
 453              	.LBE89:
 454              	.LBE81:
 176:.\asp\kernel/interrupt.c **** 	}
 177:.\asp\kernel/interrupt.c **** 	if (!locked) {
 455              		.loc 3 177 0
 456 0052 55B9     		cbnz	r5, .L37
 178:.\asp\kernel/interrupt.c **** 		t_unlock_cpu();
 457              		.loc 3 178 0
 458 0054 FFF7FEFF 		bl	x_unlock_cpu
 459              	.LVL44:
 460 0058 07E0     		b	.L37
 461              	.LVL45:
 462              	.L34:
 164:.\asp\kernel/interrupt.c **** 	CHECK_TSKCTX();
 463              		.loc 3 164 0
 464 005a 6FF01804 		mvn	r4, #24
 465              	.LVL46:
 466 005e 04E0     		b	.L37
 467              	.LVL47:
 468              	.L35:
 469              	.L29:
 165:.\asp\kernel/interrupt.c **** 	CHECK_INTNO_DISINT(intno);
 470              		.loc 3 165 0
 471 0060 6FF01004 		mvn	r4, #16
 472              	.LVL48:
 473 0064 01E0     		b	.L37
 474              	.LVL49:
 475              	.L33:
 172:.\asp\kernel/interrupt.c **** 		ercd = E_OK;
 476              		.loc 3 172 0
 477 0066 0024     		movs	r4, #0
 478 0068 F3E7     		b	.L31
 479              	.LVL50:
 480              	.L37:
 179:.\asp\kernel/interrupt.c **** 	}
 180:.\asp\kernel/interrupt.c **** 
 181:.\asp\kernel/interrupt.c ****   error_exit:
 182:.\asp\kernel/interrupt.c **** 	LOG_ENA_INT_LEAVE(ercd);
 183:.\asp\kernel/interrupt.c **** 	return(ercd);
 184:.\asp\kernel/interrupt.c **** }
 481              		.loc 3 184 0
 482 006a 2046     		mov	r0, r4
 483 006c 38BD     		pop	{r3, r4, r5, pc}
 484              	.L39:
 485 006e 00BF     		.align	2
 486              	.L38:
 487 0070 00000000 		.word	_kernel_lock_flag
 488 0074 00000000 		.word	_kernel_bitpat_cfgint
 489 0078 10E000E0 		.word	-536813552
 490 007c 00E100E0 		.word	-536813312
ARM GAS  C:\TEMP\cc9CsU7q.s 			page 28


 491              		.cfi_endproc
 492              	.LFE55:
 493              		.size	ena_int, .-ena_int
 494              		.section	.text.chg_ipm,"ax",%progbits
 495              		.align	1
 496              		.global	chg_ipm
 497              		.thumb
 498              		.thumb_func
 499              		.type	chg_ipm, %function
 500              	chg_ipm:
 501              	.LFB56:
 185:.\asp\kernel/interrupt.c **** 
 186:.\asp\kernel/interrupt.c **** #endif /* TOPPERS_SUPPORT_ENA_INT */
 187:.\asp\kernel/interrupt.c **** #endif /* TOPPERS_ena_int */
 188:.\asp\kernel/interrupt.c **** 
 189:.\asp\kernel/interrupt.c **** /*
 190:.\asp\kernel/interrupt.c ****  *  Š„‚İ—Dæ“xƒ}ƒXƒN‚Ì•ÏX
 191:.\asp\kernel/interrupt.c ****  */
 192:.\asp\kernel/interrupt.c **** #ifdef TOPPERS_chg_ipm
 193:.\asp\kernel/interrupt.c **** 
 194:.\asp\kernel/interrupt.c **** ER
 195:.\asp\kernel/interrupt.c **** chg_ipm(PRI intpri)
 196:.\asp\kernel/interrupt.c **** {
 502              		.loc 3 196 0
 503              		.cfi_startproc
 504              		@ args = 0, pretend = 0, frame = 0
 505              		@ frame_needed = 0, uses_anonymous_args = 0
 506              	.LVL51:
 507 0000 38B5     		push	{r3, r4, r5, lr}
 508              	.LCFI3:
 509              		.cfi_def_cfa_offset 16
 510              		.cfi_offset 3, -16
 511              		.cfi_offset 4, -12
 512              		.cfi_offset 5, -8
 513              		.cfi_offset 14, -4
 514              		.loc 3 196 0
 515 0002 0446     		mov	r4, r0
 197:.\asp\kernel/interrupt.c **** 	ER		ercd;
 198:.\asp\kernel/interrupt.c **** 
 199:.\asp\kernel/interrupt.c **** 	LOG_CHG_IPM_ENTER(intpri);
 200:.\asp\kernel/interrupt.c **** 	CHECK_TSKCTX_UNL();
 516              		.loc 3 200 0
 517 0004 FFF7FEFF 		bl	sense_context
 518              	.LVL52:
 519 0008 0028     		cmp	r0, #0
 520 000a 3BD1     		bne	.L51
 521              	.LBB98:
 522              	.LBB99:
 247:.\asp\arch\arm_m_gcc\common/core_config.h **** 	return(lock_flag);
 523              		.loc 1 247 0
 524 000c 204B     		ldr	r3, .L61
 525 000e 1A68     		ldr	r2, [r3, #0]
 526 0010 1D46     		mov	r5, r3
 527              	.LBE99:
 528              	.LBE98:
 529              		.loc 3 200 0
 530 0012 002A     		cmp	r2, #0
ARM GAS  C:\TEMP\cc9CsU7q.s 			page 29


 531 0014 36D1     		bne	.L51
 201:.\asp\kernel/interrupt.c **** 	CHECK_INTPRI_CHGIPM(intpri);
 532              		.loc 3 201 0
 533 0016 E01D     		adds	r0, r4, #7
 534 0018 0728     		cmp	r0, #7
 535 001a 36D8     		bhi	.L52
 202:.\asp\kernel/interrupt.c **** 
 203:.\asp\kernel/interrupt.c **** 	t_lock_cpu();
 536              		.loc 3 203 0
 537 001c FFF7FEFF 		bl	x_lock_cpu
 538              	.LVL53:
 539              	.LBB100:
 540              	.LBB101:
 277:.\asp\arch\arm_m_gcc\common/core_config.h **** 	if (intpri == TIPM_ENAALL){
 541              		.loc 1 277 0
 542 0020 1CB1     		cbz	r4, .L53
 275:.\asp\arch\arm_m_gcc\common/core_config.h **** 	uint8_t   iipm = INT_IPM(intpri);
 543              		.loc 1 275 0
 544 0022 6101     		lsls	r1, r4, #5
 545 0024 01F0E003 		and	r3, r1, #224
 546 0028 00E0     		b	.L42
 547              	.L53:
 278:.\asp\arch\arm_m_gcc\common/core_config.h **** 		iipm = IIPM_ENAALL;
 548              		.loc 1 278 0
 549 002a 2346     		mov	r3, r4
 550              	.L42:
 551              	.LVL54:
 281:.\asp\arch\arm_m_gcc\common/core_config.h **** 	if (!lock_flag) {
 552              		.loc 1 281 0
 553 002c 2A68     		ldr	r2, [r5, #0]
 554 002e 12B1     		cbz	r2, .L60
 555              	.L43:
 285:.\asp\arch\arm_m_gcc\common/core_config.h **** 		saved_iipm = iipm;
 556              		.loc 1 285 0
 557 0030 1848     		ldr	r0, .L61+4
 558 0032 0360     		str	r3, [r0, #0]
 559              	.LVL55:
 560              	.LBB102:
 561              	.LBB103:
  93:.\asp\arch\arm_m_gcc\common/core_insn.h **** 	Asm("msr BASEPRI, %0" : : "r"(val) : "memory");
 562              		.loc 2 93 0
 563 0034 2023     		movs	r3, #32
 564              	.LVL56:
 565              	.L60:
 566              	@ 93 ".\asp\arch\arm_m_gcc\common/core_insn.h" 1
 567 0036 83F31188 		msr BASEPRI, r3
 568              	@ 0 "" 2
 569              		.thumb
 570 003a 1749     		ldr	r1, .L61+8
 571              	.LBE103:
 572              	.LBE102:
 573              	.LBE101:
 574              	.LBE100:
 204:.\asp\kernel/interrupt.c **** 	t_set_ipm(intpri);
 205:.\asp\kernel/interrupt.c **** 	if (intpri == TIPM_ENAALL) {
 575              		.loc 3 205 0
 576 003c D4B9     		cbnz	r4, .L45
ARM GAS  C:\TEMP\cc9CsU7q.s 			page 30


 206:.\asp\kernel/interrupt.c **** 		ipmflg = true;
 577              		.loc 3 206 0
 578 003e 0123     		movs	r3, #1
 579 0040 0B60     		str	r3, [r1, #0]
 207:.\asp\kernel/interrupt.c **** 		if (!disdsp) {
 580              		.loc 3 207 0
 581 0042 1649     		ldr	r1, .L61+12
 582 0044 0868     		ldr	r0, [r1, #0]
 583 0046 48B9     		cbnz	r0, .L47
 208:.\asp\kernel/interrupt.c **** 			dspflg = true;
 584              		.loc 3 208 0
 585 0048 154A     		ldr	r2, .L61+16
 209:.\asp\kernel/interrupt.c **** 			if (p_runtsk != p_schedtsk) {
 586              		.loc 3 209 0
 587 004a 1648     		ldr	r0, .L61+20
 208:.\asp\kernel/interrupt.c **** 			dspflg = true;
 588              		.loc 3 208 0
 589 004c 1360     		str	r3, [r2, #0]
 590              		.loc 3 209 0
 591 004e 164B     		ldr	r3, .L61+24
 592 0050 0268     		ldr	r2, [r0, #0]
 593 0052 1968     		ldr	r1, [r3, #0]
 594 0054 9142     		cmp	r1, r2
 595 0056 01D0     		beq	.L47
 210:.\asp\kernel/interrupt.c **** 				dispatch();
 596              		.loc 3 210 0
 597 0058 FFF7FEFF 		bl	_kernel_dispatch
 598              	.LVL57:
 599              	.L47:
 211:.\asp\kernel/interrupt.c **** 			}
 212:.\asp\kernel/interrupt.c **** 		}
 213:.\asp\kernel/interrupt.c **** 		if (p_runtsk->enatex && p_runtsk->texptn != 0U) {
 600              		.loc 3 213 0
 601 005c 124B     		ldr	r3, .L61+24
 602 005e 1968     		ldr	r1, [r3, #0]
 603 0060 887B     		ldrb	r0, [r1, #14]	@ zero_extendqisi2
 604 0062 00F00402 		and	r2, r0, #4
 605 0066 D3B2     		uxtb	r3, r2
 606 0068 43B1     		cbz	r3, .L49
 607              		.loc 3 213 0 is_stmt 0 discriminator 1
 608 006a 0969     		ldr	r1, [r1, #16]
 609 006c 31B1     		cbz	r1, .L49
 214:.\asp\kernel/interrupt.c **** 			call_texrtn();
 610              		.loc 3 214 0 is_stmt 1
 611 006e FFF7FEFF 		bl	_kernel_call_texrtn
 612              	.LVL58:
 613 0072 03E0     		b	.L49
 614              	.L45:
 215:.\asp\kernel/interrupt.c **** 		}
 216:.\asp\kernel/interrupt.c **** 	}
 217:.\asp\kernel/interrupt.c **** 	else {
 218:.\asp\kernel/interrupt.c **** 		ipmflg = false;
 219:.\asp\kernel/interrupt.c **** 		dspflg = false;
 615              		.loc 3 219 0
 616 0074 0A4A     		ldr	r2, .L61+16
 218:.\asp\kernel/interrupt.c **** 		ipmflg = false;
 617              		.loc 3 218 0
ARM GAS  C:\TEMP\cc9CsU7q.s 			page 31


 618 0076 0020     		movs	r0, #0
 619 0078 0860     		str	r0, [r1, #0]
 620              		.loc 3 219 0
 621 007a 1060     		str	r0, [r2, #0]
 622              	.L49:
 623              	.LVL59:
 220:.\asp\kernel/interrupt.c **** 	}
 221:.\asp\kernel/interrupt.c **** 	ercd = E_OK;
 222:.\asp\kernel/interrupt.c **** 	t_unlock_cpu();
 624              		.loc 3 222 0
 625 007c FFF7FEFF 		bl	x_unlock_cpu
 626              	.LVL60:
 221:.\asp\kernel/interrupt.c **** 	ercd = E_OK;
 627              		.loc 3 221 0
 628 0080 0020     		movs	r0, #0
 629 0082 38BD     		pop	{r3, r4, r5, pc}
 630              	.LVL61:
 631              	.L51:
 200:.\asp\kernel/interrupt.c **** 	CHECK_TSKCTX_UNL();
 632              		.loc 3 200 0
 633 0084 6FF01800 		mvn	r0, #24
 634 0088 38BD     		pop	{r3, r4, r5, pc}
 635              	.L52:
 636              	.L41:
 201:.\asp\kernel/interrupt.c **** 	CHECK_INTPRI_CHGIPM(intpri);
 637              		.loc 3 201 0
 638 008a 6FF01000 		mvn	r0, #16
 639              	.LVL62:
 223:.\asp\kernel/interrupt.c **** 
 224:.\asp\kernel/interrupt.c ****   error_exit:
 225:.\asp\kernel/interrupt.c **** 	LOG_CHG_IPM_LEAVE(ercd);
 226:.\asp\kernel/interrupt.c **** 	return(ercd);
 227:.\asp\kernel/interrupt.c **** }
 640              		.loc 3 227 0
 641 008e 38BD     		pop	{r3, r4, r5, pc}
 642              	.L62:
 643              		.align	2
 644              	.L61:
 645 0090 00000000 		.word	_kernel_lock_flag
 646 0094 00000000 		.word	_kernel_saved_iipm
 647 0098 00000000 		.word	_kernel_ipmflg
 648 009c 00000000 		.word	_kernel_disdsp
 649 00a0 00000000 		.word	_kernel_dspflg
 650 00a4 00000000 		.word	_kernel_p_schedtsk
 651 00a8 00000000 		.word	_kernel_p_runtsk
 652              		.cfi_endproc
 653              	.LFE56:
 654              		.size	chg_ipm, .-chg_ipm
 655              		.section	.text.get_ipm,"ax",%progbits
 656              		.align	1
 657              		.global	get_ipm
 658              		.thumb
 659              		.thumb_func
 660              		.type	get_ipm, %function
 661              	get_ipm:
 662              	.LFB57:
 228:.\asp\kernel/interrupt.c **** 
ARM GAS  C:\TEMP\cc9CsU7q.s 			page 32


 229:.\asp\kernel/interrupt.c **** #endif /* TOPPERS_chg_ipm */
 230:.\asp\kernel/interrupt.c **** 
 231:.\asp\kernel/interrupt.c **** /*
 232:.\asp\kernel/interrupt.c ****  *  Š„‚İ—Dæ“xƒ}ƒXƒN‚ÌQÆ
 233:.\asp\kernel/interrupt.c ****  */
 234:.\asp\kernel/interrupt.c **** #ifdef TOPPERS_get_ipm
 235:.\asp\kernel/interrupt.c **** 
 236:.\asp\kernel/interrupt.c **** ER
 237:.\asp\kernel/interrupt.c **** get_ipm(PRI *p_intpri)
 238:.\asp\kernel/interrupt.c **** {
 663              		.loc 3 238 0
 664              		.cfi_startproc
 665              		@ args = 0, pretend = 0, frame = 0
 666              		@ frame_needed = 0, uses_anonymous_args = 0
 667              	.LVL63:
 668 0000 38B5     		push	{r3, r4, r5, lr}
 669              	.LCFI4:
 670              		.cfi_def_cfa_offset 16
 671              		.cfi_offset 3, -16
 672              		.cfi_offset 4, -12
 673              		.cfi_offset 5, -8
 674              		.cfi_offset 14, -4
 675              		.loc 3 238 0
 676 0002 0546     		mov	r5, r0
 239:.\asp\kernel/interrupt.c **** 	ER		ercd;
 240:.\asp\kernel/interrupt.c **** 
 241:.\asp\kernel/interrupt.c **** 	LOG_GET_IPM_ENTER(p_intpri);
 242:.\asp\kernel/interrupt.c **** 	CHECK_TSKCTX_UNL();
 677              		.loc 3 242 0
 678 0004 FFF7FEFF 		bl	sense_context
 679              	.LVL64:
 680 0008 A0B9     		cbnz	r0, .L69
 681              	.LBB110:
 682              	.LBB111:
 247:.\asp\arch\arm_m_gcc\common/core_config.h **** 	return(lock_flag);
 683              		.loc 1 247 0
 684 000a 0C4C     		ldr	r4, .L72
 685 000c 2368     		ldr	r3, [r4, #0]
 686              	.LBE111:
 687              	.LBE110:
 688              		.loc 3 242 0
 689 000e 8BB9     		cbnz	r3, .L69
 243:.\asp\kernel/interrupt.c **** 
 244:.\asp\kernel/interrupt.c **** 	t_lock_cpu();
 690              		.loc 3 244 0
 691 0010 FFF7FEFF 		bl	x_lock_cpu
 692              	.LVL65:
 693              	.LBB112:
 694              	.LBB113:
 313:.\asp\arch\arm_m_gcc\common/core_config.h **** 	if (!lock_flag) {
 695              		.loc 1 313 0
 696 0014 2068     		ldr	r0, [r4, #0]
 697 0016 10B9     		cbnz	r0, .L65
 698              	.LBB114:
 699              	.LBB115:
 102:.\asp\arch\arm_m_gcc\common/core_insn.h **** 	Asm("mrs  %0, BASEPRI" : "=r"(val));
 700              		.loc 2 102 0
ARM GAS  C:\TEMP\cc9CsU7q.s 			page 33


 701              	@ 102 ".\asp\arch\arm_m_gcc\common/core_insn.h" 1
 702 0018 EFF31182 		mrs  r2, BASEPRI
 703              	@ 0 "" 2
 704              	.LVL66:
 705              		.thumb
 706 001c 01E0     		b	.L71
 707              	.LVL67:
 708              	.L65:
 709              	.LBE115:
 710              	.LBE114:
 317:.\asp\arch\arm_m_gcc\common/core_config.h **** 		iipm = saved_iipm;
 711              		.loc 1 317 0
 712 001e 0849     		ldr	r1, .L72+4
 713 0020 0A68     		ldr	r2, [r1, #0]
 714              	.L71:
 715 0022 D3B2     		uxtb	r3, r2
 716              	.LVL68:
 320:.\asp\arch\arm_m_gcc\common/core_config.h **** 	if (iipm == IIPM_ENAALL) {
 717              		.loc 1 320 0
 718 0024 0BB1     		cbz	r3, .L67
 324:.\asp\arch\arm_m_gcc\common/core_config.h **** 		return(EXT_IPM(iipm));
 719              		.loc 1 324 0
 720 0026 5B09     		lsrs	r3, r3, #5
 721 0028 083B     		subs	r3, r3, #8
 722              	.L67:
 723              	.LBE113:
 724              	.LBE112:
 245:.\asp\kernel/interrupt.c **** 	*p_intpri = t_get_ipm();
 725              		.loc 3 245 0
 726 002a 2B60     		str	r3, [r5, #0]
 727              	.LVL69:
 246:.\asp\kernel/interrupt.c **** 	ercd = E_OK;
 247:.\asp\kernel/interrupt.c **** 	t_unlock_cpu();
 728              		.loc 3 247 0
 729 002c FFF7FEFF 		bl	x_unlock_cpu
 730              	.LVL70:
 246:.\asp\kernel/interrupt.c **** 	ercd = E_OK;
 731              		.loc 3 246 0
 732 0030 0020     		movs	r0, #0
 733 0032 38BD     		pop	{r3, r4, r5, pc}
 734              	.LVL71:
 735              	.L69:
 736              	.L64:
 242:.\asp\kernel/interrupt.c **** 	CHECK_TSKCTX_UNL();
 737              		.loc 3 242 0
 738 0034 6FF01800 		mvn	r0, #24
 739              	.LVL72:
 248:.\asp\kernel/interrupt.c **** 
 249:.\asp\kernel/interrupt.c ****   error_exit:
 250:.\asp\kernel/interrupt.c **** 	LOG_GET_IPM_LEAVE(ercd, *p_intpri);
 251:.\asp\kernel/interrupt.c **** 	return(ercd);
 252:.\asp\kernel/interrupt.c **** }
 740              		.loc 3 252 0
 741 0038 38BD     		pop	{r3, r4, r5, pc}
 742              	.L73:
 743 003a 00BF     		.align	2
 744              	.L72:
ARM GAS  C:\TEMP\cc9CsU7q.s 			page 34


 745 003c 00000000 		.word	_kernel_lock_flag
 746 0040 00000000 		.word	_kernel_saved_iipm
 747              		.cfi_endproc
 748              	.LFE57:
 749              		.size	get_ipm, .-get_ipm
 750              		.text
 751              	.Letext0:
 752              		.file 5 ".\\asp\\arch\\gcc/tool_stddef.h"
 753              		.file 6 ".\\asp\\include/t_stddef.h"
 754              		.file 7 ".\\asp\\include/kernel.h"
 755              		.file 8 ".\\asp\\include/queue.h"
 756              		.file 9 ".\\asp\\kernel\\time_event.h"
 757              		.file 10 ".\\asp\\kernel\\task.h"
 758              		.file 11 ".\\asp\\kernel\\interrupt.h"