ARM GAS  C:\TEMP\cc27ZDrL.s 			page 1


   1              		.syntax unified
   2              		.cpu cortex-m3
   3              		.fpu softvfp
   4              		.eabi_attribute 20, 1
   5              		.eabi_attribute 21, 1
   6              		.eabi_attribute 23, 3
   7              		.eabi_attribute 24, 1
   8              		.eabi_attribute 25, 1
   9              		.eabi_attribute 26, 1
  10              		.eabi_attribute 30, 4
  11              		.eabi_attribute 34, 1
  12              		.eabi_attribute 18, 4
  13              		.thumb
  14              		.file	"isr_1.c"
  15              		.text
  16              	.Ltext0:
  17              		.cfi_sections	.debug_frame
  18              		.section	.text.isr_1_Interrupt,"ax",%progbits
  19              		.align	1
  20              		.global	isr_1_Interrupt
  21              		.thumb
  22              		.thumb_func
  23              		.type	isr_1_Interrupt, %function
  24              	isr_1_Interrupt:
  25              	.LFB3:
  26              		.file 1 ".\\Generated_Source\\PSoC5\\isr_1.c"
   1:.\Generated_Source\PSoC5/isr_1.c **** /*******************************************************************************
   2:.\Generated_Source\PSoC5/isr_1.c **** * File Name: isr_1.c  
   3:.\Generated_Source\PSoC5/isr_1.c **** * Version 1.70
   4:.\Generated_Source\PSoC5/isr_1.c **** *
   5:.\Generated_Source\PSoC5/isr_1.c **** *  Description:
   6:.\Generated_Source\PSoC5/isr_1.c **** *   API for controlling the state of an interrupt.
   7:.\Generated_Source\PSoC5/isr_1.c **** *
   8:.\Generated_Source\PSoC5/isr_1.c **** *
   9:.\Generated_Source\PSoC5/isr_1.c **** *  Note:
  10:.\Generated_Source\PSoC5/isr_1.c **** *
  11:.\Generated_Source\PSoC5/isr_1.c **** ********************************************************************************
  12:.\Generated_Source\PSoC5/isr_1.c **** * Copyright 2008-2012, Cypress Semiconductor Corporation.  All rights reserved.
  13:.\Generated_Source\PSoC5/isr_1.c **** * You may use this file only in accordance with the license, terms, conditions, 
  14:.\Generated_Source\PSoC5/isr_1.c **** * disclaimers, and limitations in the end user license agreement accompanying 
  15:.\Generated_Source\PSoC5/isr_1.c **** * the software package with which this file was provided.
  16:.\Generated_Source\PSoC5/isr_1.c **** *******************************************************************************/
  17:.\Generated_Source\PSoC5/isr_1.c **** 
  18:.\Generated_Source\PSoC5/isr_1.c **** 
  19:.\Generated_Source\PSoC5/isr_1.c **** #include <cydevice_trm.h>
  20:.\Generated_Source\PSoC5/isr_1.c **** #include <CyLib.h>
  21:.\Generated_Source\PSoC5/isr_1.c **** #include <isr_1.h>
  22:.\Generated_Source\PSoC5/isr_1.c **** 
  23:.\Generated_Source\PSoC5/isr_1.c **** #if !defined(isr_1__REMOVED) /* Check for removal by optimization */
  24:.\Generated_Source\PSoC5/isr_1.c **** 
  25:.\Generated_Source\PSoC5/isr_1.c **** /*******************************************************************************
  26:.\Generated_Source\PSoC5/isr_1.c **** *  Place your includes, defines and code here 
  27:.\Generated_Source\PSoC5/isr_1.c **** ********************************************************************************/
  28:.\Generated_Source\PSoC5/isr_1.c **** /* `#START isr_1_intc` */
  29:.\Generated_Source\PSoC5/isr_1.c **** 
  30:.\Generated_Source\PSoC5/isr_1.c **** /* `#END` */
  31:.\Generated_Source\PSoC5/isr_1.c **** 
ARM GAS  C:\TEMP\cc27ZDrL.s 			page 2


  32:.\Generated_Source\PSoC5/isr_1.c **** #ifndef CYINT_IRQ_BASE
  33:.\Generated_Source\PSoC5/isr_1.c **** #define CYINT_IRQ_BASE      16
  34:.\Generated_Source\PSoC5/isr_1.c **** #endif /* CYINT_IRQ_BASE */
  35:.\Generated_Source\PSoC5/isr_1.c **** #ifndef CYINT_VECT_TABLE
  36:.\Generated_Source\PSoC5/isr_1.c **** #define CYINT_VECT_TABLE    ((cyisraddress **) CYREG_NVIC_VECT_OFFSET)
  37:.\Generated_Source\PSoC5/isr_1.c **** #endif /* CYINT_VECT_TABLE */
  38:.\Generated_Source\PSoC5/isr_1.c **** 
  39:.\Generated_Source\PSoC5/isr_1.c **** /* Declared in startup, used to set unused interrupts to. */
  40:.\Generated_Source\PSoC5/isr_1.c **** CY_ISR_PROTO(IntDefaultHandler);
  41:.\Generated_Source\PSoC5/isr_1.c **** 
  42:.\Generated_Source\PSoC5/isr_1.c **** 
  43:.\Generated_Source\PSoC5/isr_1.c **** /*******************************************************************************
  44:.\Generated_Source\PSoC5/isr_1.c **** * Function Name: isr_1_Start
  45:.\Generated_Source\PSoC5/isr_1.c **** ********************************************************************************
  46:.\Generated_Source\PSoC5/isr_1.c **** *
  47:.\Generated_Source\PSoC5/isr_1.c **** * Summary:
  48:.\Generated_Source\PSoC5/isr_1.c **** *  Set up the interrupt and enable it.
  49:.\Generated_Source\PSoC5/isr_1.c **** *
  50:.\Generated_Source\PSoC5/isr_1.c **** * Parameters:  
  51:.\Generated_Source\PSoC5/isr_1.c **** *   None
  52:.\Generated_Source\PSoC5/isr_1.c **** *
  53:.\Generated_Source\PSoC5/isr_1.c **** * Return:
  54:.\Generated_Source\PSoC5/isr_1.c **** *   None
  55:.\Generated_Source\PSoC5/isr_1.c **** *
  56:.\Generated_Source\PSoC5/isr_1.c **** *******************************************************************************/
  57:.\Generated_Source\PSoC5/isr_1.c **** void isr_1_Start(void)
  58:.\Generated_Source\PSoC5/isr_1.c **** {
  59:.\Generated_Source\PSoC5/isr_1.c ****     /* For all we know the interrupt is active. */
  60:.\Generated_Source\PSoC5/isr_1.c ****     isr_1_Disable();
  61:.\Generated_Source\PSoC5/isr_1.c **** 
  62:.\Generated_Source\PSoC5/isr_1.c ****     /* Set the ISR to point to the isr_1 Interrupt. */
  63:.\Generated_Source\PSoC5/isr_1.c ****     isr_1_SetVector(&isr_1_Interrupt);
  64:.\Generated_Source\PSoC5/isr_1.c **** 
  65:.\Generated_Source\PSoC5/isr_1.c ****     /* Set the priority. */
  66:.\Generated_Source\PSoC5/isr_1.c ****     isr_1_SetPriority((uint8)isr_1_INTC_PRIOR_NUMBER);
  67:.\Generated_Source\PSoC5/isr_1.c **** 
  68:.\Generated_Source\PSoC5/isr_1.c ****     /* Enable it. */
  69:.\Generated_Source\PSoC5/isr_1.c ****     isr_1_Enable();
  70:.\Generated_Source\PSoC5/isr_1.c **** }
  71:.\Generated_Source\PSoC5/isr_1.c **** 
  72:.\Generated_Source\PSoC5/isr_1.c **** 
  73:.\Generated_Source\PSoC5/isr_1.c **** /*******************************************************************************
  74:.\Generated_Source\PSoC5/isr_1.c **** * Function Name: isr_1_StartEx
  75:.\Generated_Source\PSoC5/isr_1.c **** ********************************************************************************
  76:.\Generated_Source\PSoC5/isr_1.c **** *
  77:.\Generated_Source\PSoC5/isr_1.c **** * Summary:
  78:.\Generated_Source\PSoC5/isr_1.c **** *  Set up the interrupt and enable it.
  79:.\Generated_Source\PSoC5/isr_1.c **** *
  80:.\Generated_Source\PSoC5/isr_1.c **** * Parameters:  
  81:.\Generated_Source\PSoC5/isr_1.c **** *   address: Address of the ISR to set in the interrupt vector table.
  82:.\Generated_Source\PSoC5/isr_1.c **** *
  83:.\Generated_Source\PSoC5/isr_1.c **** * Return:
  84:.\Generated_Source\PSoC5/isr_1.c **** *   None
  85:.\Generated_Source\PSoC5/isr_1.c **** *
  86:.\Generated_Source\PSoC5/isr_1.c **** *******************************************************************************/
  87:.\Generated_Source\PSoC5/isr_1.c **** void isr_1_StartEx(cyisraddress address)
  88:.\Generated_Source\PSoC5/isr_1.c **** {
ARM GAS  C:\TEMP\cc27ZDrL.s 			page 3


  89:.\Generated_Source\PSoC5/isr_1.c ****     /* For all we know the interrupt is active. */
  90:.\Generated_Source\PSoC5/isr_1.c ****     isr_1_Disable();
  91:.\Generated_Source\PSoC5/isr_1.c **** 
  92:.\Generated_Source\PSoC5/isr_1.c ****     /* Set the ISR to point to the isr_1 Interrupt. */
  93:.\Generated_Source\PSoC5/isr_1.c ****     isr_1_SetVector(address);
  94:.\Generated_Source\PSoC5/isr_1.c **** 
  95:.\Generated_Source\PSoC5/isr_1.c ****     /* Set the priority. */
  96:.\Generated_Source\PSoC5/isr_1.c ****     isr_1_SetPriority((uint8)isr_1_INTC_PRIOR_NUMBER);
  97:.\Generated_Source\PSoC5/isr_1.c **** 
  98:.\Generated_Source\PSoC5/isr_1.c ****     /* Enable it. */
  99:.\Generated_Source\PSoC5/isr_1.c ****     isr_1_Enable();
 100:.\Generated_Source\PSoC5/isr_1.c **** }
 101:.\Generated_Source\PSoC5/isr_1.c **** 
 102:.\Generated_Source\PSoC5/isr_1.c **** 
 103:.\Generated_Source\PSoC5/isr_1.c **** /*******************************************************************************
 104:.\Generated_Source\PSoC5/isr_1.c **** * Function Name: isr_1_Stop
 105:.\Generated_Source\PSoC5/isr_1.c **** ********************************************************************************
 106:.\Generated_Source\PSoC5/isr_1.c **** *
 107:.\Generated_Source\PSoC5/isr_1.c **** * Summary:
 108:.\Generated_Source\PSoC5/isr_1.c **** *   Disables and removes the interrupt.
 109:.\Generated_Source\PSoC5/isr_1.c **** *
 110:.\Generated_Source\PSoC5/isr_1.c **** * Parameters:  
 111:.\Generated_Source\PSoC5/isr_1.c **** *
 112:.\Generated_Source\PSoC5/isr_1.c **** * Return:
 113:.\Generated_Source\PSoC5/isr_1.c **** *   None
 114:.\Generated_Source\PSoC5/isr_1.c **** *
 115:.\Generated_Source\PSoC5/isr_1.c **** *******************************************************************************/
 116:.\Generated_Source\PSoC5/isr_1.c **** void isr_1_Stop(void)
 117:.\Generated_Source\PSoC5/isr_1.c **** {
 118:.\Generated_Source\PSoC5/isr_1.c ****     /* Disable this interrupt. */
 119:.\Generated_Source\PSoC5/isr_1.c ****     isr_1_Disable();
 120:.\Generated_Source\PSoC5/isr_1.c **** 
 121:.\Generated_Source\PSoC5/isr_1.c ****     /* Set the ISR to point to the passive one. */
 122:.\Generated_Source\PSoC5/isr_1.c ****     isr_1_SetVector(&IntDefaultHandler);
 123:.\Generated_Source\PSoC5/isr_1.c **** }
 124:.\Generated_Source\PSoC5/isr_1.c **** 
 125:.\Generated_Source\PSoC5/isr_1.c **** 
 126:.\Generated_Source\PSoC5/isr_1.c **** /*******************************************************************************
 127:.\Generated_Source\PSoC5/isr_1.c **** * Function Name: isr_1_Interrupt
 128:.\Generated_Source\PSoC5/isr_1.c **** ********************************************************************************
 129:.\Generated_Source\PSoC5/isr_1.c **** *
 130:.\Generated_Source\PSoC5/isr_1.c **** * Summary:
 131:.\Generated_Source\PSoC5/isr_1.c **** *   The default Interrupt Service Routine for isr_1.
 132:.\Generated_Source\PSoC5/isr_1.c **** *
 133:.\Generated_Source\PSoC5/isr_1.c **** *   Add custom code between the coments to keep the next version of this file
 134:.\Generated_Source\PSoC5/isr_1.c **** *   from over writting your code.
 135:.\Generated_Source\PSoC5/isr_1.c **** *
 136:.\Generated_Source\PSoC5/isr_1.c **** * Parameters:  
 137:.\Generated_Source\PSoC5/isr_1.c **** *
 138:.\Generated_Source\PSoC5/isr_1.c **** * Return:
 139:.\Generated_Source\PSoC5/isr_1.c **** *   None
 140:.\Generated_Source\PSoC5/isr_1.c **** *
 141:.\Generated_Source\PSoC5/isr_1.c **** *******************************************************************************/
 142:.\Generated_Source\PSoC5/isr_1.c **** CY_ISR(isr_1_Interrupt)
 143:.\Generated_Source\PSoC5/isr_1.c **** {
  27              		.loc 1 143 0
  28              		.cfi_startproc
ARM GAS  C:\TEMP\cc27ZDrL.s 			page 4


  29              		@ args = 0, pretend = 0, frame = 0
  30              		@ frame_needed = 0, uses_anonymous_args = 0
  31              		@ link register save eliminated.
  32 0000 7047     		bx	lr
  33              		.cfi_endproc
  34              	.LFE3:
  35              		.size	isr_1_Interrupt, .-isr_1_Interrupt
  36              		.section	.text.isr_1_Start,"ax",%progbits
  37              		.align	1
  38              		.global	isr_1_Start
  39              		.thumb
  40              		.thumb_func
  41              		.type	isr_1_Start, %function
  42              	isr_1_Start:
  43              	.LFB0:
  58:.\Generated_Source\PSoC5/isr_1.c **** {
  44              		.loc 1 58 0
  45              		.cfi_startproc
  46              		@ args = 0, pretend = 0, frame = 0
  47              		@ frame_needed = 0, uses_anonymous_args = 0
  48              		@ link register save eliminated.
  49              	.LBB22:
  50              	.LBB23:
 144:.\Generated_Source\PSoC5/isr_1.c ****     /*  Place your Interrupt code here. */
 145:.\Generated_Source\PSoC5/isr_1.c ****     /* `#START isr_1_Interrupt` */
 146:.\Generated_Source\PSoC5/isr_1.c **** 
 147:.\Generated_Source\PSoC5/isr_1.c ****     /* `#END` */
 148:.\Generated_Source\PSoC5/isr_1.c **** }
 149:.\Generated_Source\PSoC5/isr_1.c **** 
 150:.\Generated_Source\PSoC5/isr_1.c **** 
 151:.\Generated_Source\PSoC5/isr_1.c **** /*******************************************************************************
 152:.\Generated_Source\PSoC5/isr_1.c **** * Function Name: isr_1_SetVector
 153:.\Generated_Source\PSoC5/isr_1.c **** ********************************************************************************
 154:.\Generated_Source\PSoC5/isr_1.c **** *
 155:.\Generated_Source\PSoC5/isr_1.c **** * Summary:
 156:.\Generated_Source\PSoC5/isr_1.c **** *   Change the ISR vector for the Interrupt. Note calling isr_1_Start
 157:.\Generated_Source\PSoC5/isr_1.c **** *   will override any effect this method would have had. To set the vector 
 158:.\Generated_Source\PSoC5/isr_1.c **** *   before the component has been started use isr_1_StartEx instead.
 159:.\Generated_Source\PSoC5/isr_1.c **** *
 160:.\Generated_Source\PSoC5/isr_1.c **** * Parameters:
 161:.\Generated_Source\PSoC5/isr_1.c **** *   address: Address of the ISR to set in the interrupt vector table.
 162:.\Generated_Source\PSoC5/isr_1.c **** *
 163:.\Generated_Source\PSoC5/isr_1.c **** * Return:
 164:.\Generated_Source\PSoC5/isr_1.c **** *   None
 165:.\Generated_Source\PSoC5/isr_1.c **** *
 166:.\Generated_Source\PSoC5/isr_1.c **** *******************************************************************************/
 167:.\Generated_Source\PSoC5/isr_1.c **** void isr_1_SetVector(cyisraddress address)
 168:.\Generated_Source\PSoC5/isr_1.c **** {
 169:.\Generated_Source\PSoC5/isr_1.c ****     cyisraddress * ramVectorTable;
 170:.\Generated_Source\PSoC5/isr_1.c **** 
 171:.\Generated_Source\PSoC5/isr_1.c ****     ramVectorTable = (cyisraddress *) *CYINT_VECT_TABLE;
 172:.\Generated_Source\PSoC5/isr_1.c **** 
 173:.\Generated_Source\PSoC5/isr_1.c ****     ramVectorTable[CYINT_IRQ_BASE + (uint32)isr_1__INTC_NUMBER] = address;
 174:.\Generated_Source\PSoC5/isr_1.c **** }
 175:.\Generated_Source\PSoC5/isr_1.c **** 
 176:.\Generated_Source\PSoC5/isr_1.c **** 
 177:.\Generated_Source\PSoC5/isr_1.c **** /*******************************************************************************
ARM GAS  C:\TEMP\cc27ZDrL.s 			page 5


 178:.\Generated_Source\PSoC5/isr_1.c **** * Function Name: isr_1_GetVector
 179:.\Generated_Source\PSoC5/isr_1.c **** ********************************************************************************
 180:.\Generated_Source\PSoC5/isr_1.c **** *
 181:.\Generated_Source\PSoC5/isr_1.c **** * Summary:
 182:.\Generated_Source\PSoC5/isr_1.c **** *   Gets the "address" of the current ISR vector for the Interrupt.
 183:.\Generated_Source\PSoC5/isr_1.c **** *
 184:.\Generated_Source\PSoC5/isr_1.c **** * Parameters:
 185:.\Generated_Source\PSoC5/isr_1.c **** *   None
 186:.\Generated_Source\PSoC5/isr_1.c **** *
 187:.\Generated_Source\PSoC5/isr_1.c **** * Return:
 188:.\Generated_Source\PSoC5/isr_1.c **** *   Address of the ISR in the interrupt vector table.
 189:.\Generated_Source\PSoC5/isr_1.c **** *
 190:.\Generated_Source\PSoC5/isr_1.c **** *******************************************************************************/
 191:.\Generated_Source\PSoC5/isr_1.c **** cyisraddress isr_1_GetVector(void)
 192:.\Generated_Source\PSoC5/isr_1.c **** {
 193:.\Generated_Source\PSoC5/isr_1.c ****     cyisraddress * ramVectorTable;
 194:.\Generated_Source\PSoC5/isr_1.c **** 
 195:.\Generated_Source\PSoC5/isr_1.c ****     ramVectorTable = (cyisraddress *) *CYINT_VECT_TABLE;
 196:.\Generated_Source\PSoC5/isr_1.c **** 
 197:.\Generated_Source\PSoC5/isr_1.c ****     return ramVectorTable[CYINT_IRQ_BASE + (uint32)isr_1__INTC_NUMBER];
 198:.\Generated_Source\PSoC5/isr_1.c **** }
 199:.\Generated_Source\PSoC5/isr_1.c **** 
 200:.\Generated_Source\PSoC5/isr_1.c **** 
 201:.\Generated_Source\PSoC5/isr_1.c **** /*******************************************************************************
 202:.\Generated_Source\PSoC5/isr_1.c **** * Function Name: isr_1_SetPriority
 203:.\Generated_Source\PSoC5/isr_1.c **** ********************************************************************************
 204:.\Generated_Source\PSoC5/isr_1.c **** *
 205:.\Generated_Source\PSoC5/isr_1.c **** * Summary:
 206:.\Generated_Source\PSoC5/isr_1.c **** *   Sets the Priority of the Interrupt. Note calling isr_1_Start
 207:.\Generated_Source\PSoC5/isr_1.c **** *   or isr_1_StartEx will override any effect this method 
 208:.\Generated_Source\PSoC5/isr_1.c **** *   would have had. This method should only be called after 
 209:.\Generated_Source\PSoC5/isr_1.c **** *   isr_1_Start or isr_1_StartEx has been called. To set 
 210:.\Generated_Source\PSoC5/isr_1.c **** *   the initial priority for the component use the cydwr file in the tool.
 211:.\Generated_Source\PSoC5/isr_1.c **** *
 212:.\Generated_Source\PSoC5/isr_1.c **** * Parameters:
 213:.\Generated_Source\PSoC5/isr_1.c **** *   priority: Priority of the interrupt. 0 - 7, 0 being the highest.
 214:.\Generated_Source\PSoC5/isr_1.c **** *
 215:.\Generated_Source\PSoC5/isr_1.c **** * Return:
 216:.\Generated_Source\PSoC5/isr_1.c **** *   None
 217:.\Generated_Source\PSoC5/isr_1.c **** *
 218:.\Generated_Source\PSoC5/isr_1.c **** *******************************************************************************/
 219:.\Generated_Source\PSoC5/isr_1.c **** void isr_1_SetPriority(uint8 priority)
 220:.\Generated_Source\PSoC5/isr_1.c **** {
 221:.\Generated_Source\PSoC5/isr_1.c ****     *isr_1_INTC_PRIOR = priority << 5;
 222:.\Generated_Source\PSoC5/isr_1.c **** }
 223:.\Generated_Source\PSoC5/isr_1.c **** 
 224:.\Generated_Source\PSoC5/isr_1.c **** 
 225:.\Generated_Source\PSoC5/isr_1.c **** /*******************************************************************************
 226:.\Generated_Source\PSoC5/isr_1.c **** * Function Name: isr_1_GetPriority
 227:.\Generated_Source\PSoC5/isr_1.c **** ********************************************************************************
 228:.\Generated_Source\PSoC5/isr_1.c **** *
 229:.\Generated_Source\PSoC5/isr_1.c **** * Summary:
 230:.\Generated_Source\PSoC5/isr_1.c **** *   Gets the Priority of the Interrupt.
 231:.\Generated_Source\PSoC5/isr_1.c **** *
 232:.\Generated_Source\PSoC5/isr_1.c **** * Parameters:
 233:.\Generated_Source\PSoC5/isr_1.c **** *   None
 234:.\Generated_Source\PSoC5/isr_1.c **** *
ARM GAS  C:\TEMP\cc27ZDrL.s 			page 6


 235:.\Generated_Source\PSoC5/isr_1.c **** * Return:
 236:.\Generated_Source\PSoC5/isr_1.c **** *   Priority of the interrupt. 0 - 7, 0 being the highest.
 237:.\Generated_Source\PSoC5/isr_1.c **** *
 238:.\Generated_Source\PSoC5/isr_1.c **** *******************************************************************************/
 239:.\Generated_Source\PSoC5/isr_1.c **** uint8 isr_1_GetPriority(void)
 240:.\Generated_Source\PSoC5/isr_1.c **** {
 241:.\Generated_Source\PSoC5/isr_1.c ****     uint8 priority;
 242:.\Generated_Source\PSoC5/isr_1.c **** 
 243:.\Generated_Source\PSoC5/isr_1.c **** 
 244:.\Generated_Source\PSoC5/isr_1.c ****     priority = *isr_1_INTC_PRIOR >> 5;
 245:.\Generated_Source\PSoC5/isr_1.c **** 
 246:.\Generated_Source\PSoC5/isr_1.c ****     return priority;
 247:.\Generated_Source\PSoC5/isr_1.c **** }
 248:.\Generated_Source\PSoC5/isr_1.c **** 
 249:.\Generated_Source\PSoC5/isr_1.c **** 
 250:.\Generated_Source\PSoC5/isr_1.c **** /*******************************************************************************
 251:.\Generated_Source\PSoC5/isr_1.c **** * Function Name: isr_1_Enable
 252:.\Generated_Source\PSoC5/isr_1.c **** ********************************************************************************
 253:.\Generated_Source\PSoC5/isr_1.c **** *
 254:.\Generated_Source\PSoC5/isr_1.c **** * Summary:
 255:.\Generated_Source\PSoC5/isr_1.c **** *   Enables the interrupt.
 256:.\Generated_Source\PSoC5/isr_1.c **** *
 257:.\Generated_Source\PSoC5/isr_1.c **** * Parameters:
 258:.\Generated_Source\PSoC5/isr_1.c **** *   None
 259:.\Generated_Source\PSoC5/isr_1.c **** *
 260:.\Generated_Source\PSoC5/isr_1.c **** * Return:
 261:.\Generated_Source\PSoC5/isr_1.c **** *   None
 262:.\Generated_Source\PSoC5/isr_1.c **** *
 263:.\Generated_Source\PSoC5/isr_1.c **** *******************************************************************************/
 264:.\Generated_Source\PSoC5/isr_1.c **** void isr_1_Enable(void)
 265:.\Generated_Source\PSoC5/isr_1.c **** {
 266:.\Generated_Source\PSoC5/isr_1.c ****     /* Enable the general interrupt. */
 267:.\Generated_Source\PSoC5/isr_1.c ****     *isr_1_INTC_SET_EN = isr_1__INTC_MASK;
 268:.\Generated_Source\PSoC5/isr_1.c **** }
 269:.\Generated_Source\PSoC5/isr_1.c **** 
 270:.\Generated_Source\PSoC5/isr_1.c **** 
 271:.\Generated_Source\PSoC5/isr_1.c **** /*******************************************************************************
 272:.\Generated_Source\PSoC5/isr_1.c **** * Function Name: isr_1_GetState
 273:.\Generated_Source\PSoC5/isr_1.c **** ********************************************************************************
 274:.\Generated_Source\PSoC5/isr_1.c **** *
 275:.\Generated_Source\PSoC5/isr_1.c **** * Summary:
 276:.\Generated_Source\PSoC5/isr_1.c **** *   Gets the state (enabled, disabled) of the Interrupt.
 277:.\Generated_Source\PSoC5/isr_1.c **** *
 278:.\Generated_Source\PSoC5/isr_1.c **** * Parameters:
 279:.\Generated_Source\PSoC5/isr_1.c **** *   None
 280:.\Generated_Source\PSoC5/isr_1.c **** *
 281:.\Generated_Source\PSoC5/isr_1.c **** * Return:
 282:.\Generated_Source\PSoC5/isr_1.c **** *   1 if enabled, 0 if disabled.
 283:.\Generated_Source\PSoC5/isr_1.c **** *
 284:.\Generated_Source\PSoC5/isr_1.c **** *******************************************************************************/
 285:.\Generated_Source\PSoC5/isr_1.c **** uint8 isr_1_GetState(void)
 286:.\Generated_Source\PSoC5/isr_1.c **** {
 287:.\Generated_Source\PSoC5/isr_1.c ****     /* Get the state of the general interrupt. */
 288:.\Generated_Source\PSoC5/isr_1.c ****     return ((*isr_1_INTC_SET_EN & (uint32)isr_1__INTC_MASK) != 0u) ? 1u:0u;
 289:.\Generated_Source\PSoC5/isr_1.c **** }
 290:.\Generated_Source\PSoC5/isr_1.c **** 
 291:.\Generated_Source\PSoC5/isr_1.c **** 
ARM GAS  C:\TEMP\cc27ZDrL.s 			page 7


 292:.\Generated_Source\PSoC5/isr_1.c **** /*******************************************************************************
 293:.\Generated_Source\PSoC5/isr_1.c **** * Function Name: isr_1_Disable
 294:.\Generated_Source\PSoC5/isr_1.c **** ********************************************************************************
 295:.\Generated_Source\PSoC5/isr_1.c **** *
 296:.\Generated_Source\PSoC5/isr_1.c **** * Summary:
 297:.\Generated_Source\PSoC5/isr_1.c **** *   Disables the Interrupt.
 298:.\Generated_Source\PSoC5/isr_1.c **** *
 299:.\Generated_Source\PSoC5/isr_1.c **** * Parameters:
 300:.\Generated_Source\PSoC5/isr_1.c **** *   None
 301:.\Generated_Source\PSoC5/isr_1.c **** *
 302:.\Generated_Source\PSoC5/isr_1.c **** * Return:
 303:.\Generated_Source\PSoC5/isr_1.c **** *   None
 304:.\Generated_Source\PSoC5/isr_1.c **** *
 305:.\Generated_Source\PSoC5/isr_1.c **** *******************************************************************************/
 306:.\Generated_Source\PSoC5/isr_1.c **** void isr_1_Disable(void)
 307:.\Generated_Source\PSoC5/isr_1.c **** {
 308:.\Generated_Source\PSoC5/isr_1.c ****     /* Disable the general interrupt. */
 309:.\Generated_Source\PSoC5/isr_1.c ****     *isr_1_INTC_CLR_EN = isr_1__INTC_MASK;
  51              		.loc 1 309 0
  52 0000 064A     		ldr	r2, .L3
  53              	.LBE23:
  54              	.LBE22:
  55              	.LBB25:
  56              	.LBB26:
 171:.\Generated_Source\PSoC5/isr_1.c ****     ramVectorTable = (cyisraddress *) *CYINT_VECT_TABLE;
  57              		.loc 1 171 0
  58 0002 0748     		ldr	r0, .L3+4
  59              	.LBE26:
  60              	.LBE25:
  61              	.LBB29:
  62              	.LBB24:
  63              		.loc 1 309 0
  64 0004 0123     		movs	r3, #1
  65 0006 1360     		str	r3, [r2, #0]
  66              	.LVL0:
  67              	.LBE24:
  68              	.LBE29:
  69              	.LBB30:
  70              	.LBB27:
 173:.\Generated_Source\PSoC5/isr_1.c ****     ramVectorTable[CYINT_IRQ_BASE + (uint32)isr_1__INTC_NUMBER] = address;
  71              		.loc 1 173 0
  72 0008 0649     		ldr	r1, .L3+8
 171:.\Generated_Source\PSoC5/isr_1.c ****     ramVectorTable = (cyisraddress *) *CYINT_VECT_TABLE;
  73              		.loc 1 171 0
  74 000a 0268     		ldr	r2, [r0, #0]
  75              	.LVL1:
  76              	.LBE27:
  77              	.LBE30:
  78              	.LBB31:
  79              	.LBB32:
 221:.\Generated_Source\PSoC5/isr_1.c ****     *isr_1_INTC_PRIOR = priority << 5;
  80              		.loc 1 221 0
  81 000c E020     		movs	r0, #224
  82              	.LBE32:
  83              	.LBE31:
  84              	.LBB35:
  85              	.LBB28:
ARM GAS  C:\TEMP\cc27ZDrL.s 			page 8


 173:.\Generated_Source\PSoC5/isr_1.c ****     ramVectorTable[CYINT_IRQ_BASE + (uint32)isr_1__INTC_NUMBER] = address;
  86              		.loc 1 173 0
  87 000e 1164     		str	r1, [r2, #64]
  88              	.LVL2:
  89              	.LBE28:
  90              	.LBE35:
  91              	.LBB36:
  92              	.LBB33:
 221:.\Generated_Source\PSoC5/isr_1.c ****     *isr_1_INTC_PRIOR = priority << 5;
  93              		.loc 1 221 0
  94 0010 054A     		ldr	r2, .L3+12
  95              	.LVL3:
  96              	.LBE33:
  97              	.LBE36:
  98              	.LBB37:
  99              	.LBB38:
 267:.\Generated_Source\PSoC5/isr_1.c ****     *isr_1_INTC_SET_EN = isr_1__INTC_MASK;
 100              		.loc 1 267 0
 101 0012 A2F54071 		sub	r1, r2, #768
 102              	.LBE38:
 103              	.LBE37:
 104              	.LBB40:
 105              	.LBB34:
 221:.\Generated_Source\PSoC5/isr_1.c ****     *isr_1_INTC_PRIOR = priority << 5;
 106              		.loc 1 221 0
 107 0016 1070     		strb	r0, [r2, #0]
 108              	.LBE34:
 109              	.LBE40:
 110              	.LBB41:
 111              	.LBB39:
 267:.\Generated_Source\PSoC5/isr_1.c ****     *isr_1_INTC_SET_EN = isr_1__INTC_MASK;
 112              		.loc 1 267 0
 113 0018 0B60     		str	r3, [r1, #0]
 114 001a 7047     		bx	lr
 115              	.L4:
 116              		.align	2
 117              	.L3:
 118 001c 80E100E0 		.word	-536813184
 119 0020 08ED00E0 		.word	-536810232
 120 0024 00000000 		.word	isr_1_Interrupt
 121 0028 00E400E0 		.word	-536812544
 122              	.LBE39:
 123              	.LBE41:
 124              		.cfi_endproc
 125              	.LFE0:
 126              		.size	isr_1_Start, .-isr_1_Start
 127              		.section	.text.isr_1_StartEx,"ax",%progbits
 128              		.align	1
 129              		.global	isr_1_StartEx
 130              		.thumb
 131              		.thumb_func
 132              		.type	isr_1_StartEx, %function
 133              	isr_1_StartEx:
 134              	.LFB1:
  88:.\Generated_Source\PSoC5/isr_1.c **** {
 135              		.loc 1 88 0
 136              		.cfi_startproc
ARM GAS  C:\TEMP\cc27ZDrL.s 			page 9


 137              		@ args = 0, pretend = 0, frame = 0
 138              		@ frame_needed = 0, uses_anonymous_args = 0
 139              		@ link register save eliminated.
 140              	.LVL4:
 141              	.LBB42:
 142              	.LBB43:
 143              		.loc 1 309 0
 144 0000 064A     		ldr	r2, .L6
 145              	.LBE43:
 146              	.LBE42:
 147              	.LBB45:
 148              	.LBB46:
 171:.\Generated_Source\PSoC5/isr_1.c ****     ramVectorTable = (cyisraddress *) *CYINT_VECT_TABLE;
 149              		.loc 1 171 0
 150 0002 0749     		ldr	r1, .L6+4
 151              	.LBE46:
 152              	.LBE45:
 153              	.LBB49:
 154              	.LBB44:
 155              		.loc 1 309 0
 156 0004 0123     		movs	r3, #1
 157 0006 1360     		str	r3, [r2, #0]
 158              	.LVL5:
 159              	.LBE44:
 160              	.LBE49:
 161              	.LBB50:
 162              	.LBB47:
 171:.\Generated_Source\PSoC5/isr_1.c ****     ramVectorTable = (cyisraddress *) *CYINT_VECT_TABLE;
 163              		.loc 1 171 0
 164 0008 0A68     		ldr	r2, [r1, #0]
 165              	.LVL6:
 166              	.LBE47:
 167              	.LBE50:
 168              	.LBB51:
 169              	.LBB52:
 221:.\Generated_Source\PSoC5/isr_1.c ****     *isr_1_INTC_PRIOR = priority << 5;
 170              		.loc 1 221 0
 171 000a 0649     		ldr	r1, .L6+8
 172              	.LBE52:
 173              	.LBE51:
 174              	.LBB55:
 175              	.LBB48:
 173:.\Generated_Source\PSoC5/isr_1.c ****     ramVectorTable[CYINT_IRQ_BASE + (uint32)isr_1__INTC_NUMBER] = address;
 176              		.loc 1 173 0
 177 000c 1064     		str	r0, [r2, #64]
 178              	.LVL7:
 179              	.LBE48:
 180              	.LBE55:
 181              	.LBB56:
 182              	.LBB53:
 221:.\Generated_Source\PSoC5/isr_1.c ****     *isr_1_INTC_PRIOR = priority << 5;
 183              		.loc 1 221 0
 184 000e E020     		movs	r0, #224
 185              	.LVL8:
 186              	.LBE53:
 187              	.LBE56:
 188              	.LBB57:
ARM GAS  C:\TEMP\cc27ZDrL.s 			page 10


 189              	.LBB58:
 267:.\Generated_Source\PSoC5/isr_1.c ****     *isr_1_INTC_SET_EN = isr_1__INTC_MASK;
 190              		.loc 1 267 0
 191 0010 A1F54072 		sub	r2, r1, #768
 192              	.LVL9:
 193              	.LBE58:
 194              	.LBE57:
 195              	.LBB60:
 196              	.LBB54:
 221:.\Generated_Source\PSoC5/isr_1.c ****     *isr_1_INTC_PRIOR = priority << 5;
 197              		.loc 1 221 0
 198 0014 0870     		strb	r0, [r1, #0]
 199              	.LBE54:
 200              	.LBE60:
 201              	.LBB61:
 202              	.LBB59:
 267:.\Generated_Source\PSoC5/isr_1.c ****     *isr_1_INTC_SET_EN = isr_1__INTC_MASK;
 203              		.loc 1 267 0
 204 0016 1360     		str	r3, [r2, #0]
 205 0018 7047     		bx	lr
 206              	.L7:
 207 001a 00BF     		.align	2
 208              	.L6:
 209 001c 80E100E0 		.word	-536813184
 210 0020 08ED00E0 		.word	-536810232
 211 0024 00E400E0 		.word	-536812544
 212              	.LBE59:
 213              	.LBE61:
 214              		.cfi_endproc
 215              	.LFE1:
 216              		.size	isr_1_StartEx, .-isr_1_StartEx
 217              		.section	.text.isr_1_Stop,"ax",%progbits
 218              		.align	1
 219              		.global	isr_1_Stop
 220              		.thumb
 221              		.thumb_func
 222              		.type	isr_1_Stop, %function
 223              	isr_1_Stop:
 224              	.LFB2:
 117:.\Generated_Source\PSoC5/isr_1.c **** {
 225              		.loc 1 117 0
 226              		.cfi_startproc
 227              		@ args = 0, pretend = 0, frame = 0
 228              		@ frame_needed = 0, uses_anonymous_args = 0
 229              		@ link register save eliminated.
 230              	.LBB62:
 231              	.LBB63:
 232              		.loc 1 309 0
 233 0000 034B     		ldr	r3, .L9
 234              	.LBE63:
 235              	.LBE62:
 236              	.LBB65:
 237              	.LBB66:
 171:.\Generated_Source\PSoC5/isr_1.c ****     ramVectorTable = (cyisraddress *) *CYINT_VECT_TABLE;
 238              		.loc 1 171 0
 239 0002 0448     		ldr	r0, .L9+4
 240              	.LBE66:
ARM GAS  C:\TEMP\cc27ZDrL.s 			page 11


 241              	.LBE65:
 242              	.LBB68:
 243              	.LBB64:
 244              		.loc 1 309 0
 245 0004 0122     		movs	r2, #1
 246 0006 1A60     		str	r2, [r3, #0]
 247              	.LVL10:
 248              	.LBE64:
 249              	.LBE68:
 250              	.LBB69:
 251              	.LBB67:
 171:.\Generated_Source\PSoC5/isr_1.c ****     ramVectorTable = (cyisraddress *) *CYINT_VECT_TABLE;
 252              		.loc 1 171 0
 253 0008 0168     		ldr	r1, [r0, #0]
 254              	.LVL11:
 173:.\Generated_Source\PSoC5/isr_1.c ****     ramVectorTable[CYINT_IRQ_BASE + (uint32)isr_1__INTC_NUMBER] = address;
 255              		.loc 1 173 0
 256 000a 034A     		ldr	r2, .L9+8
 257 000c 0A64     		str	r2, [r1, #64]
 258 000e 7047     		bx	lr
 259              	.L10:
 260              		.align	2
 261              	.L9:
 262 0010 80E100E0 		.word	-536813184
 263 0014 08ED00E0 		.word	-536810232
 264 0018 00000000 		.word	IntDefaultHandler
 265              	.LBE67:
 266              	.LBE69:
 267              		.cfi_endproc
 268              	.LFE2:
 269              		.size	isr_1_Stop, .-isr_1_Stop
 270              		.section	.text.isr_1_SetVector,"ax",%progbits
 271              		.align	1
 272              		.global	isr_1_SetVector
 273              		.thumb
 274              		.thumb_func
 275              		.type	isr_1_SetVector, %function
 276              	isr_1_SetVector:
 277              	.LFB4:
 168:.\Generated_Source\PSoC5/isr_1.c **** {
 278              		.loc 1 168 0
 279              		.cfi_startproc
 280              		@ args = 0, pretend = 0, frame = 0
 281              		@ frame_needed = 0, uses_anonymous_args = 0
 282              		@ link register save eliminated.
 283              	.LVL12:
 171:.\Generated_Source\PSoC5/isr_1.c ****     ramVectorTable = (cyisraddress *) *CYINT_VECT_TABLE;
 284              		.loc 1 171 0
 285 0000 014B     		ldr	r3, .L12
 286 0002 1968     		ldr	r1, [r3, #0]
 287              	.LVL13:
 173:.\Generated_Source\PSoC5/isr_1.c ****     ramVectorTable[CYINT_IRQ_BASE + (uint32)isr_1__INTC_NUMBER] = address;
 288              		.loc 1 173 0
 289 0004 0864     		str	r0, [r1, #64]
 290 0006 7047     		bx	lr
 291              	.L13:
 292              		.align	2
ARM GAS  C:\TEMP\cc27ZDrL.s 			page 12


 293              	.L12:
 294 0008 08ED00E0 		.word	-536810232
 295              		.cfi_endproc
 296              	.LFE4:
 297              		.size	isr_1_SetVector, .-isr_1_SetVector
 298              		.section	.text.isr_1_GetVector,"ax",%progbits
 299              		.align	1
 300              		.global	isr_1_GetVector
 301              		.thumb
 302              		.thumb_func
 303              		.type	isr_1_GetVector, %function
 304              	isr_1_GetVector:
 305              	.LFB5:
 192:.\Generated_Source\PSoC5/isr_1.c **** {
 306              		.loc 1 192 0
 307              		.cfi_startproc
 308              		@ args = 0, pretend = 0, frame = 0
 309              		@ frame_needed = 0, uses_anonymous_args = 0
 310              		@ link register save eliminated.
 311              	.LVL14:
 195:.\Generated_Source\PSoC5/isr_1.c ****     ramVectorTable = (cyisraddress *) *CYINT_VECT_TABLE;
 312              		.loc 1 195 0
 313 0000 014B     		ldr	r3, .L15
 314              	.LVL15:
 197:.\Generated_Source\PSoC5/isr_1.c ****     return ramVectorTable[CYINT_IRQ_BASE + (uint32)isr_1__INTC_NUMBER];
 315              		.loc 1 197 0
 316 0002 1868     		ldr	r0, [r3, #0]
 198:.\Generated_Source\PSoC5/isr_1.c **** }
 317              		.loc 1 198 0
 318 0004 006C     		ldr	r0, [r0, #64]
 319 0006 7047     		bx	lr
 320              	.L16:
 321              		.align	2
 322              	.L15:
 323 0008 08ED00E0 		.word	-536810232
 324              		.cfi_endproc
 325              	.LFE5:
 326              		.size	isr_1_GetVector, .-isr_1_GetVector
 327              		.section	.text.isr_1_SetPriority,"ax",%progbits
 328              		.align	1
 329              		.global	isr_1_SetPriority
 330              		.thumb
 331              		.thumb_func
 332              		.type	isr_1_SetPriority, %function
 333              	isr_1_SetPriority:
 334              	.LFB6:
 220:.\Generated_Source\PSoC5/isr_1.c **** {
 335              		.loc 1 220 0
 336              		.cfi_startproc
 337              		@ args = 0, pretend = 0, frame = 0
 338              		@ frame_needed = 0, uses_anonymous_args = 0
 339              		@ link register save eliminated.
 340              	.LVL16:
 221:.\Generated_Source\PSoC5/isr_1.c ****     *isr_1_INTC_PRIOR = priority << 5;
 341              		.loc 1 221 0
 342 0000 4001     		lsls	r0, r0, #5
 343              	.LVL17:
ARM GAS  C:\TEMP\cc27ZDrL.s 			page 13


 344 0002 024B     		ldr	r3, .L18
 345 0004 C1B2     		uxtb	r1, r0
 346 0006 1970     		strb	r1, [r3, #0]
 347 0008 7047     		bx	lr
 348              	.L19:
 349 000a 00BF     		.align	2
 350              	.L18:
 351 000c 00E400E0 		.word	-536812544
 352              		.cfi_endproc
 353              	.LFE6:
 354              		.size	isr_1_SetPriority, .-isr_1_SetPriority
 355              		.section	.text.isr_1_GetPriority,"ax",%progbits
 356              		.align	1
 357              		.global	isr_1_GetPriority
 358              		.thumb
 359              		.thumb_func
 360              		.type	isr_1_GetPriority, %function
 361              	isr_1_GetPriority:
 362              	.LFB7:
 240:.\Generated_Source\PSoC5/isr_1.c **** {
 363              		.loc 1 240 0
 364              		.cfi_startproc
 365              		@ args = 0, pretend = 0, frame = 0
 366              		@ frame_needed = 0, uses_anonymous_args = 0
 367              		@ link register save eliminated.
 244:.\Generated_Source\PSoC5/isr_1.c ****     priority = *isr_1_INTC_PRIOR >> 5;
 368              		.loc 1 244 0
 369 0000 014B     		ldr	r3, .L21
 370 0002 1878     		ldrb	r0, [r3, #0]	@ zero_extendqisi2
 371              	.LVL18:
 247:.\Generated_Source\PSoC5/isr_1.c **** }
 372              		.loc 1 247 0
 373 0004 4009     		lsrs	r0, r0, #5
 374              	.LVL19:
 375 0006 7047     		bx	lr
 376              	.L22:
 377              		.align	2
 378              	.L21:
 379 0008 00E400E0 		.word	-536812544
 380              		.cfi_endproc
 381              	.LFE7:
 382              		.size	isr_1_GetPriority, .-isr_1_GetPriority
 383              		.section	.text.isr_1_Enable,"ax",%progbits
 384              		.align	1
 385              		.global	isr_1_Enable
 386              		.thumb
 387              		.thumb_func
 388              		.type	isr_1_Enable, %function
 389              	isr_1_Enable:
 390              	.LFB8:
 265:.\Generated_Source\PSoC5/isr_1.c **** {
 391              		.loc 1 265 0
 392              		.cfi_startproc
 393              		@ args = 0, pretend = 0, frame = 0
 394              		@ frame_needed = 0, uses_anonymous_args = 0
 395              		@ link register save eliminated.
 267:.\Generated_Source\PSoC5/isr_1.c ****     *isr_1_INTC_SET_EN = isr_1__INTC_MASK;
ARM GAS  C:\TEMP\cc27ZDrL.s 			page 14


 396              		.loc 1 267 0
 397 0000 014B     		ldr	r3, .L24
 398 0002 0122     		movs	r2, #1
 399 0004 1A60     		str	r2, [r3, #0]
 400 0006 7047     		bx	lr
 401              	.L25:
 402              		.align	2
 403              	.L24:
 404 0008 00E100E0 		.word	-536813312
 405              		.cfi_endproc
 406              	.LFE8:
 407              		.size	isr_1_Enable, .-isr_1_Enable
 408              		.section	.text.isr_1_GetState,"ax",%progbits
 409              		.align	1
 410              		.global	isr_1_GetState
 411              		.thumb
 412              		.thumb_func
 413              		.type	isr_1_GetState, %function
 414              	isr_1_GetState:
 415              	.LFB9:
 286:.\Generated_Source\PSoC5/isr_1.c **** {
 416              		.loc 1 286 0
 417              		.cfi_startproc
 418              		@ args = 0, pretend = 0, frame = 0
 419              		@ frame_needed = 0, uses_anonymous_args = 0
 420              		@ link register save eliminated.
 288:.\Generated_Source\PSoC5/isr_1.c ****     return ((*isr_1_INTC_SET_EN & (uint32)isr_1__INTC_MASK) != 0u) ? 1u:0u;
 421              		.loc 1 288 0
 422 0000 024B     		ldr	r3, .L27
 423 0002 1868     		ldr	r0, [r3, #0]
 289:.\Generated_Source\PSoC5/isr_1.c **** }
 424              		.loc 1 289 0
 425 0004 00F00100 		and	r0, r0, #1
 426 0008 7047     		bx	lr
 427              	.L28:
 428 000a 00BF     		.align	2
 429              	.L27:
 430 000c 00E100E0 		.word	-536813312
 431              		.cfi_endproc
 432              	.LFE9:
 433              		.size	isr_1_GetState, .-isr_1_GetState
 434              		.section	.text.isr_1_Disable,"ax",%progbits
 435              		.align	1
 436              		.global	isr_1_Disable
 437              		.thumb
 438              		.thumb_func
 439              		.type	isr_1_Disable, %function
 440              	isr_1_Disable:
 441              	.LFB10:
 307:.\Generated_Source\PSoC5/isr_1.c **** {
 442              		.loc 1 307 0
 443              		.cfi_startproc
 444              		@ args = 0, pretend = 0, frame = 0
 445              		@ frame_needed = 0, uses_anonymous_args = 0
 446              		@ link register save eliminated.
 447              		.loc 1 309 0
 448 0000 014B     		ldr	r3, .L30
ARM GAS  C:\TEMP\cc27ZDrL.s 			page 15


 449 0002 0122     		movs	r2, #1
 450 0004 1A60     		str	r2, [r3, #0]
 451 0006 7047     		bx	lr
 452              	.L31:
 453              		.align	2
 454              	.L30:
 455 0008 80E100E0 		.word	-536813184
 456              		.cfi_endproc
 457              	.LFE10:
 458              		.size	isr_1_Disable, .-isr_1_Disable
 459              		.section	.text.isr_1_SetPending,"ax",%progbits
 460              		.align	1
 461              		.global	isr_1_SetPending
 462              		.thumb
 463              		.thumb_func
 464              		.type	isr_1_SetPending, %function
 465              	isr_1_SetPending:
 466              	.LFB11:
 310:.\Generated_Source\PSoC5/isr_1.c **** }
 311:.\Generated_Source\PSoC5/isr_1.c **** 
 312:.\Generated_Source\PSoC5/isr_1.c **** 
 313:.\Generated_Source\PSoC5/isr_1.c **** /*******************************************************************************
 314:.\Generated_Source\PSoC5/isr_1.c **** * Function Name: isr_1_SetPending
 315:.\Generated_Source\PSoC5/isr_1.c **** ********************************************************************************
 316:.\Generated_Source\PSoC5/isr_1.c **** *
 317:.\Generated_Source\PSoC5/isr_1.c **** * Summary:
 318:.\Generated_Source\PSoC5/isr_1.c **** *   Causes the Interrupt to enter the pending state, a software method of
 319:.\Generated_Source\PSoC5/isr_1.c **** *   generating the interrupt.
 320:.\Generated_Source\PSoC5/isr_1.c **** *
 321:.\Generated_Source\PSoC5/isr_1.c **** * Parameters:
 322:.\Generated_Source\PSoC5/isr_1.c **** *   None
 323:.\Generated_Source\PSoC5/isr_1.c **** *
 324:.\Generated_Source\PSoC5/isr_1.c **** * Return:
 325:.\Generated_Source\PSoC5/isr_1.c **** *   None
 326:.\Generated_Source\PSoC5/isr_1.c **** *
 327:.\Generated_Source\PSoC5/isr_1.c **** *******************************************************************************/
 328:.\Generated_Source\PSoC5/isr_1.c **** void isr_1_SetPending(void)
 329:.\Generated_Source\PSoC5/isr_1.c **** {
 467              		.loc 1 329 0
 468              		.cfi_startproc
 469              		@ args = 0, pretend = 0, frame = 0
 470              		@ frame_needed = 0, uses_anonymous_args = 0
 471              		@ link register save eliminated.
 330:.\Generated_Source\PSoC5/isr_1.c ****     *isr_1_INTC_SET_PD = isr_1__INTC_MASK;
 472              		.loc 1 330 0
 473 0000 014B     		ldr	r3, .L33
 474 0002 0122     		movs	r2, #1
 475 0004 1A60     		str	r2, [r3, #0]
 476 0006 7047     		bx	lr
 477              	.L34:
 478              		.align	2
 479              	.L33:
 480 0008 00E200E0 		.word	-536813056
 481              		.cfi_endproc
 482              	.LFE11:
 483              		.size	isr_1_SetPending, .-isr_1_SetPending
 484              		.section	.text.isr_1_ClearPending,"ax",%progbits
ARM GAS  C:\TEMP\cc27ZDrL.s 			page 16


 485              		.align	1
 486              		.global	isr_1_ClearPending
 487              		.thumb
 488              		.thumb_func
 489              		.type	isr_1_ClearPending, %function
 490              	isr_1_ClearPending:
 491              	.LFB12:
 331:.\Generated_Source\PSoC5/isr_1.c **** }
 332:.\Generated_Source\PSoC5/isr_1.c **** 
 333:.\Generated_Source\PSoC5/isr_1.c **** 
 334:.\Generated_Source\PSoC5/isr_1.c **** /*******************************************************************************
 335:.\Generated_Source\PSoC5/isr_1.c **** * Function Name: isr_1_ClearPending
 336:.\Generated_Source\PSoC5/isr_1.c **** ********************************************************************************
 337:.\Generated_Source\PSoC5/isr_1.c **** *
 338:.\Generated_Source\PSoC5/isr_1.c **** * Summary:
 339:.\Generated_Source\PSoC5/isr_1.c **** *   Clears a pending interrupt.
 340:.\Generated_Source\PSoC5/isr_1.c **** *
 341:.\Generated_Source\PSoC5/isr_1.c **** * Parameters:
 342:.\Generated_Source\PSoC5/isr_1.c **** *   None
 343:.\Generated_Source\PSoC5/isr_1.c **** *
 344:.\Generated_Source\PSoC5/isr_1.c **** * Return:
 345:.\Generated_Source\PSoC5/isr_1.c **** *   None
 346:.\Generated_Source\PSoC5/isr_1.c **** *
 347:.\Generated_Source\PSoC5/isr_1.c **** *******************************************************************************/
 348:.\Generated_Source\PSoC5/isr_1.c **** void isr_1_ClearPending(void)
 349:.\Generated_Source\PSoC5/isr_1.c **** {
 492              		.loc 1 349 0
 493              		.cfi_startproc
 494              		@ args = 0, pretend = 0, frame = 0
 495              		@ frame_needed = 0, uses_anonymous_args = 0
 496              		@ link register save eliminated.
 350:.\Generated_Source\PSoC5/isr_1.c ****     *isr_1_INTC_CLR_PD = isr_1__INTC_MASK;
 497              		.loc 1 350 0
 498 0000 014B     		ldr	r3, .L36
 499 0002 0122     		movs	r2, #1
 500 0004 1A60     		str	r2, [r3, #0]
 501 0006 7047     		bx	lr
 502              	.L37:
 503              		.align	2
 504              	.L36:
 505 0008 80E200E0 		.word	-536812928
 506              		.cfi_endproc
 507              	.LFE12:
 508              		.size	isr_1_ClearPending, .-isr_1_ClearPending
 509              		.text
 510              	.Letext0:
 511              		.file 2 "./Generated_Source/PSoC5/cytypes.h"