ARM GAS  C:\TEMP\cccG1N9w.s 			page 1


   1              		.syntax unified
   2              		.cpu cortex-m3
   3              		.fpu softvfp
   4              		.eabi_attribute 20, 1
   5              		.eabi_attribute 21, 1
   6              		.eabi_attribute 23, 3
   7              		.eabi_attribute 24, 1
   8              		.eabi_attribute 25, 1
   9              		.eabi_attribute 26, 1
  10              		.eabi_attribute 30, 4
  11              		.eabi_attribute 34, 1
  12              		.eabi_attribute 18, 4
  13              		.thumb
  14              		.file	"kernel_cfg.c"
  15              		.text
  16              	.Ltext0:
  17              		.cfi_sections	.debug_frame
  18              		.section	.text._kernel_inthdr_16,"ax",%progbits
  19              		.align	1
  20              		.global	_kernel_inthdr_16
  21              		.thumb
  22              		.thumb_func
  23              		.type	_kernel_inthdr_16, %function
  24              	_kernel_inthdr_16:
  25              	.LFB62:
  26              		.file 1 ".\\asp\\OBJS\\kernel_cfg.c"
   1:.\asp\OBJS/kernel_cfg.c **** /* kernel_cfg.c */
   2:.\asp\OBJS/kernel_cfg.c **** #include "kernel/kernel_int.h"
   3:.\asp\OBJS/kernel_cfg.c **** #include "kernel_cfg.h"
   4:.\asp\OBJS/kernel_cfg.c **** 
   5:.\asp\OBJS/kernel_cfg.c **** #if TKERNEL_PRID != 0x07u
   6:.\asp\OBJS/kernel_cfg.c **** #error The kernel does not match this configuration file.
   7:.\asp\OBJS/kernel_cfg.c **** #endif
   8:.\asp\OBJS/kernel_cfg.c **** 
   9:.\asp\OBJS/kernel_cfg.c **** /*
  10:.\asp\OBJS/kernel_cfg.c ****  *  Include Directives (#include)
  11:.\asp\OBJS/kernel_cfg.c ****  */
  12:.\asp\OBJS/kernel_cfg.c **** 
  13:.\asp\OBJS/kernel_cfg.c **** #include "target_timer.h"
  14:.\asp\OBJS/kernel_cfg.c **** #include "syssvc/syslog.h"
  15:.\asp\OBJS/kernel_cfg.c **** #include "syssvc/banner.h"
  16:.\asp\OBJS/kernel_cfg.c **** #include "target_syssvc.h"
  17:.\asp\OBJS/kernel_cfg.c **** #include "target_serial.h"
  18:.\asp\OBJS/kernel_cfg.c **** #include "syssvc/serial.h"
  19:.\asp\OBJS/kernel_cfg.c **** #include "syssvc/logtask.h"
  20:.\asp\OBJS/kernel_cfg.c **** #include "sample1.h"
  21:.\asp\OBJS/kernel_cfg.c **** 
  22:.\asp\OBJS/kernel_cfg.c **** /*
  23:.\asp\OBJS/kernel_cfg.c ****  *  Default Definitions of Trace Log Macros
  24:.\asp\OBJS/kernel_cfg.c ****  */
  25:.\asp\OBJS/kernel_cfg.c **** 
  26:.\asp\OBJS/kernel_cfg.c **** #ifndef LOG_ISR_ENTER
  27:.\asp\OBJS/kernel_cfg.c **** #define LOG_ISR_ENTER(intno)
  28:.\asp\OBJS/kernel_cfg.c **** #endif /* LOG_ISR_ENTER */
  29:.\asp\OBJS/kernel_cfg.c **** 
  30:.\asp\OBJS/kernel_cfg.c **** #ifndef LOG_ISR_LEAVE
  31:.\asp\OBJS/kernel_cfg.c **** #define LOG_ISR_LEAVE(intno)
ARM GAS  C:\TEMP\cccG1N9w.s 			page 2


  32:.\asp\OBJS/kernel_cfg.c **** #endif /* LOG_ISR_LEAVE */
  33:.\asp\OBJS/kernel_cfg.c **** 
  34:.\asp\OBJS/kernel_cfg.c **** /*
  35:.\asp\OBJS/kernel_cfg.c ****  *  Task Management Functions
  36:.\asp\OBJS/kernel_cfg.c ****  */
  37:.\asp\OBJS/kernel_cfg.c **** 
  38:.\asp\OBJS/kernel_cfg.c **** const ID _kernel_tmax_tskid = (TMIN_TSKID + TNUM_TSKID - 1);
  39:.\asp\OBJS/kernel_cfg.c **** 
  40:.\asp\OBJS/kernel_cfg.c **** static STK_T _kernel_stack_LOGTASK[COUNT_STK_T(LOGTASK_STACK_SIZE)];
  41:.\asp\OBJS/kernel_cfg.c **** static STK_T _kernel_stack_TASK1[COUNT_STK_T(STACK_SIZE)];
  42:.\asp\OBJS/kernel_cfg.c **** static STK_T _kernel_stack_TASK2[COUNT_STK_T(STACK_SIZE)];
  43:.\asp\OBJS/kernel_cfg.c **** static STK_T _kernel_stack_TASK3[COUNT_STK_T(STACK_SIZE)];
  44:.\asp\OBJS/kernel_cfg.c **** static STK_T _kernel_stack_MAIN_TASK[COUNT_STK_T(STACK_SIZE)];
  45:.\asp\OBJS/kernel_cfg.c **** 
  46:.\asp\OBJS/kernel_cfg.c **** const TINIB _kernel_tinib_table[TNUM_TSKID] = {
  47:.\asp\OBJS/kernel_cfg.c **** 	{ (TA_ACT), (intptr_t)(LOGTASK_PORTID), ((TASK)(logtask_main)), INT_PRIORITY(LOGTASK_PRIORITY), RO
  48:.\asp\OBJS/kernel_cfg.c **** 	{ (TA_NULL), (intptr_t)(1), ((TASK)(task)), INT_PRIORITY(MID_PRIORITY), ROUND_STK_T(STACK_SIZE), _
  49:.\asp\OBJS/kernel_cfg.c **** 	{ (TA_NULL), (intptr_t)(2), ((TASK)(task)), INT_PRIORITY(MID_PRIORITY), ROUND_STK_T(STACK_SIZE), _
  50:.\asp\OBJS/kernel_cfg.c **** 	{ (TA_NULL), (intptr_t)(3), ((TASK)(task)), INT_PRIORITY(MID_PRIORITY), ROUND_STK_T(STACK_SIZE), _
  51:.\asp\OBJS/kernel_cfg.c **** 	{ (TA_ACT), (intptr_t)(0), ((TASK)(main_task)), INT_PRIORITY(MAIN_PRIORITY), ROUND_STK_T(STACK_SIZ
  52:.\asp\OBJS/kernel_cfg.c **** };
  53:.\asp\OBJS/kernel_cfg.c **** 
  54:.\asp\OBJS/kernel_cfg.c **** TCB _kernel_tcb_table[TNUM_TSKID];
  55:.\asp\OBJS/kernel_cfg.c **** 
  56:.\asp\OBJS/kernel_cfg.c **** const ID _kernel_torder_table[TNUM_TSKID] = {
  57:.\asp\OBJS/kernel_cfg.c **** 	LOGTASK, TASK1, TASK2, TASK3, MAIN_TASK
  58:.\asp\OBJS/kernel_cfg.c **** };
  59:.\asp\OBJS/kernel_cfg.c **** 
  60:.\asp\OBJS/kernel_cfg.c **** /*
  61:.\asp\OBJS/kernel_cfg.c ****  *  Semaphore Functions
  62:.\asp\OBJS/kernel_cfg.c ****  */
  63:.\asp\OBJS/kernel_cfg.c **** 
  64:.\asp\OBJS/kernel_cfg.c **** const ID _kernel_tmax_semid = (TMIN_SEMID + TNUM_SEMID - 1);
  65:.\asp\OBJS/kernel_cfg.c **** 
  66:.\asp\OBJS/kernel_cfg.c **** const SEMINIB _kernel_seminib_table[TNUM_SEMID] = {
  67:.\asp\OBJS/kernel_cfg.c **** 	{ (TA_TPRI), (0), (1) },
  68:.\asp\OBJS/kernel_cfg.c **** 	{ (TA_TPRI), (1), (1) }
  69:.\asp\OBJS/kernel_cfg.c **** };
  70:.\asp\OBJS/kernel_cfg.c **** 
  71:.\asp\OBJS/kernel_cfg.c **** SEMCB _kernel_semcb_table[TNUM_SEMID];
  72:.\asp\OBJS/kernel_cfg.c **** 
  73:.\asp\OBJS/kernel_cfg.c **** /*
  74:.\asp\OBJS/kernel_cfg.c ****  *  Eventflag Functions
  75:.\asp\OBJS/kernel_cfg.c ****  */
  76:.\asp\OBJS/kernel_cfg.c **** 
  77:.\asp\OBJS/kernel_cfg.c **** const ID _kernel_tmax_flgid = (TMIN_FLGID + TNUM_FLGID - 1);
  78:.\asp\OBJS/kernel_cfg.c **** 
  79:.\asp\OBJS/kernel_cfg.c **** TOPPERS_EMPTY_LABEL(const FLGINIB, _kernel_flginib_table);
  80:.\asp\OBJS/kernel_cfg.c **** TOPPERS_EMPTY_LABEL(FLGCB, _kernel_flgcb_table);
  81:.\asp\OBJS/kernel_cfg.c **** 
  82:.\asp\OBJS/kernel_cfg.c **** /*
  83:.\asp\OBJS/kernel_cfg.c ****  *  Dataqueue Functions
  84:.\asp\OBJS/kernel_cfg.c ****  */
  85:.\asp\OBJS/kernel_cfg.c **** 
  86:.\asp\OBJS/kernel_cfg.c **** const ID _kernel_tmax_dtqid = (TMIN_DTQID + TNUM_DTQID - 1);
  87:.\asp\OBJS/kernel_cfg.c **** 
  88:.\asp\OBJS/kernel_cfg.c **** TOPPERS_EMPTY_LABEL(const DTQINIB, _kernel_dtqinib_table);
ARM GAS  C:\TEMP\cccG1N9w.s 			page 3


  89:.\asp\OBJS/kernel_cfg.c **** TOPPERS_EMPTY_LABEL(DTQCB, _kernel_dtqcb_table);
  90:.\asp\OBJS/kernel_cfg.c **** 
  91:.\asp\OBJS/kernel_cfg.c **** /*
  92:.\asp\OBJS/kernel_cfg.c ****  *  Priority Dataqueue Functions
  93:.\asp\OBJS/kernel_cfg.c ****  */
  94:.\asp\OBJS/kernel_cfg.c **** 
  95:.\asp\OBJS/kernel_cfg.c **** const ID _kernel_tmax_pdqid = (TMIN_PDQID + TNUM_PDQID - 1);
  96:.\asp\OBJS/kernel_cfg.c **** 
  97:.\asp\OBJS/kernel_cfg.c **** TOPPERS_EMPTY_LABEL(const PDQINIB, _kernel_pdqinib_table);
  98:.\asp\OBJS/kernel_cfg.c **** TOPPERS_EMPTY_LABEL(PDQCB, _kernel_pdqcb_table);
  99:.\asp\OBJS/kernel_cfg.c **** 
 100:.\asp\OBJS/kernel_cfg.c **** /*
 101:.\asp\OBJS/kernel_cfg.c ****  *  Mailbox Functions
 102:.\asp\OBJS/kernel_cfg.c ****  */
 103:.\asp\OBJS/kernel_cfg.c **** 
 104:.\asp\OBJS/kernel_cfg.c **** const ID _kernel_tmax_mbxid = (TMIN_MBXID + TNUM_MBXID - 1);
 105:.\asp\OBJS/kernel_cfg.c **** 
 106:.\asp\OBJS/kernel_cfg.c **** TOPPERS_EMPTY_LABEL(const MBXINIB, _kernel_mbxinib_table);
 107:.\asp\OBJS/kernel_cfg.c **** TOPPERS_EMPTY_LABEL(MBXCB, _kernel_mbxcb_table);
 108:.\asp\OBJS/kernel_cfg.c **** 
 109:.\asp\OBJS/kernel_cfg.c **** /*
 110:.\asp\OBJS/kernel_cfg.c ****  *  Fixed-sized Memorypool Functions
 111:.\asp\OBJS/kernel_cfg.c ****  */
 112:.\asp\OBJS/kernel_cfg.c **** 
 113:.\asp\OBJS/kernel_cfg.c **** const ID _kernel_tmax_mpfid = (TMIN_MPFID + TNUM_MPFID - 1);
 114:.\asp\OBJS/kernel_cfg.c **** 
 115:.\asp\OBJS/kernel_cfg.c **** TOPPERS_EMPTY_LABEL(const MPFINIB, _kernel_mpfinib_table);
 116:.\asp\OBJS/kernel_cfg.c **** TOPPERS_EMPTY_LABEL(MPFCB, _kernel_mpfcb_table);
 117:.\asp\OBJS/kernel_cfg.c **** 
 118:.\asp\OBJS/kernel_cfg.c **** /*
 119:.\asp\OBJS/kernel_cfg.c ****  *  Cyclic Handler Functions
 120:.\asp\OBJS/kernel_cfg.c ****  */
 121:.\asp\OBJS/kernel_cfg.c **** 
 122:.\asp\OBJS/kernel_cfg.c **** const ID _kernel_tmax_cycid = (TMIN_CYCID + TNUM_CYCID - 1);
 123:.\asp\OBJS/kernel_cfg.c **** 
 124:.\asp\OBJS/kernel_cfg.c **** const CYCINIB _kernel_cycinib_table[TNUM_CYCID] = {
 125:.\asp\OBJS/kernel_cfg.c **** 	{ (TA_NULL), (intptr_t)(0), (cyclic_handler), (2000), (0) }
 126:.\asp\OBJS/kernel_cfg.c **** };
 127:.\asp\OBJS/kernel_cfg.c **** 
 128:.\asp\OBJS/kernel_cfg.c **** CYCCB _kernel_cyccb_table[TNUM_CYCID];
 129:.\asp\OBJS/kernel_cfg.c **** 
 130:.\asp\OBJS/kernel_cfg.c **** /*
 131:.\asp\OBJS/kernel_cfg.c ****  *  Alarm Handler Functions
 132:.\asp\OBJS/kernel_cfg.c ****  */
 133:.\asp\OBJS/kernel_cfg.c **** 
 134:.\asp\OBJS/kernel_cfg.c **** const ID _kernel_tmax_almid = (TMIN_ALMID + TNUM_ALMID - 1);
 135:.\asp\OBJS/kernel_cfg.c **** 
 136:.\asp\OBJS/kernel_cfg.c **** const ALMINIB _kernel_alminib_table[TNUM_ALMID] = {
 137:.\asp\OBJS/kernel_cfg.c **** 	{ (TA_NULL), (intptr_t)(0), (alarm_handler) }
 138:.\asp\OBJS/kernel_cfg.c **** };
 139:.\asp\OBJS/kernel_cfg.c **** 
 140:.\asp\OBJS/kernel_cfg.c **** ALMCB _kernel_almcb_table[TNUM_ALMID];
 141:.\asp\OBJS/kernel_cfg.c **** 
 142:.\asp\OBJS/kernel_cfg.c **** /*
 143:.\asp\OBJS/kernel_cfg.c ****  *  Interrupt Management Functions
 144:.\asp\OBJS/kernel_cfg.c ****  */
 145:.\asp\OBJS/kernel_cfg.c **** 
ARM GAS  C:\TEMP\cccG1N9w.s 			page 4


 146:.\asp\OBJS/kernel_cfg.c **** void
 147:.\asp\OBJS/kernel_cfg.c **** _kernel_inthdr_16(void)
 148:.\asp\OBJS/kernel_cfg.c **** {
  27              		.loc 1 148 0
  28              		.cfi_startproc
  29              		@ args = 0, pretend = 0, frame = 0
  30              		@ frame_needed = 0, uses_anonymous_args = 0
  31              		@ link register save eliminated.
 149:.\asp\OBJS/kernel_cfg.c **** 	i_begin_int(16);
 150:.\asp\OBJS/kernel_cfg.c **** 	LOG_ISR_ENTER(16);
 151:.\asp\OBJS/kernel_cfg.c **** 	((ISR)(sio_isr))((intptr_t)(1));
  32              		.loc 1 151 0
  33 0000 0120     		movs	r0, #1
 152:.\asp\OBJS/kernel_cfg.c **** 	LOG_ISR_LEAVE(16);
 153:.\asp\OBJS/kernel_cfg.c **** 	i_end_int(16);
 154:.\asp\OBJS/kernel_cfg.c **** }
  34              		.loc 1 154 0
 151:.\asp\OBJS/kernel_cfg.c **** 	((ISR)(sio_isr))((intptr_t)(1));
  35              		.loc 1 151 0
  36 0002 FFF7FEBF 		b	sio_isr
  37              	.LVL0:
  38              		.cfi_endproc
  39              	.LFE62:
  40              		.size	_kernel_inthdr_16, .-_kernel_inthdr_16
  41              		.section	.text._kernel_initialize_object,"ax",%progbits
  42              		.align	1
  43              		.global	_kernel_initialize_object
  44              		.thumb
  45              		.thumb_func
  46              		.type	_kernel_initialize_object, %function
  47              	_kernel_initialize_object:
  48              	.LFB63:
 155:.\asp\OBJS/kernel_cfg.c **** 
 156:.\asp\OBJS/kernel_cfg.c **** #define TNUM_INHNO	2
 157:.\asp\OBJS/kernel_cfg.c **** const uint_t _kernel_tnum_inhno = TNUM_INHNO;
 158:.\asp\OBJS/kernel_cfg.c **** 
 159:.\asp\OBJS/kernel_cfg.c **** INTHDR_ENTRY(INHNO_TIMER, 15, target_timer_handler)
 160:.\asp\OBJS/kernel_cfg.c **** INTHDR_ENTRY(16, 16, _kernel_inthdr_16)
 161:.\asp\OBJS/kernel_cfg.c **** 
 162:.\asp\OBJS/kernel_cfg.c **** const INHINIB _kernel_inhinib_table[TNUM_INHNO] = {
 163:.\asp\OBJS/kernel_cfg.c **** 	{ (INHNO_TIMER), (TA_NULL), (FP)(INT_ENTRY(INHNO_TIMER, target_timer_handler)) },
 164:.\asp\OBJS/kernel_cfg.c **** 	{ (16), (TA_NULL), (FP)(INT_ENTRY(16, _kernel_inthdr_16)) }
 165:.\asp\OBJS/kernel_cfg.c **** };
 166:.\asp\OBJS/kernel_cfg.c **** 
 167:.\asp\OBJS/kernel_cfg.c **** #define TNUM_INTNO	2
 168:.\asp\OBJS/kernel_cfg.c **** const uint_t _kernel_tnum_intno = TNUM_INTNO;
 169:.\asp\OBJS/kernel_cfg.c **** 
 170:.\asp\OBJS/kernel_cfg.c **** const INTINIB _kernel_intinib_table[TNUM_INTNO] = {
 171:.\asp\OBJS/kernel_cfg.c **** 	{ (INTNO_TIMER), (TA_ENAINT|INTATR_TIMER), (INTPRI_TIMER) },
 172:.\asp\OBJS/kernel_cfg.c **** 	{ (INTNO_SIO), (INTATR_SIO), (INTPRI_SIO) }
 173:.\asp\OBJS/kernel_cfg.c **** };
 174:.\asp\OBJS/kernel_cfg.c **** 
 175:.\asp\OBJS/kernel_cfg.c **** /*
 176:.\asp\OBJS/kernel_cfg.c ****  *  CPU Exception Management Functions
 177:.\asp\OBJS/kernel_cfg.c ****  */
 178:.\asp\OBJS/kernel_cfg.c **** 
 179:.\asp\OBJS/kernel_cfg.c **** #define TNUM_EXCNO	1
ARM GAS  C:\TEMP\cccG1N9w.s 			page 5


 180:.\asp\OBJS/kernel_cfg.c **** const uint_t _kernel_tnum_excno = TNUM_EXCNO;
 181:.\asp\OBJS/kernel_cfg.c **** 
 182:.\asp\OBJS/kernel_cfg.c **** EXCHDR_ENTRY(CPUEXC1, 6, cpuexc_handler)
 183:.\asp\OBJS/kernel_cfg.c **** 
 184:.\asp\OBJS/kernel_cfg.c **** const EXCINIB _kernel_excinib_table[TNUM_EXCNO] = {
 185:.\asp\OBJS/kernel_cfg.c **** 	{ (CPUEXC1), (TA_NULL), (FP)(EXC_ENTRY(CPUEXC1, cpuexc_handler)) }
 186:.\asp\OBJS/kernel_cfg.c **** };
 187:.\asp\OBJS/kernel_cfg.c **** 
 188:.\asp\OBJS/kernel_cfg.c **** /*
 189:.\asp\OBJS/kernel_cfg.c ****  *  Stack Area for Non-task Context
 190:.\asp\OBJS/kernel_cfg.c ****  */
 191:.\asp\OBJS/kernel_cfg.c **** 
 192:.\asp\OBJS/kernel_cfg.c **** #ifdef DEFAULT_ISTK
 193:.\asp\OBJS/kernel_cfg.c **** 
 194:.\asp\OBJS/kernel_cfg.c **** #define TOPPERS_ISTKSZ		DEFAULT_ISTKSZ
 195:.\asp\OBJS/kernel_cfg.c **** #define TOPPERS_ISTK		DEFAULT_ISTK
 196:.\asp\OBJS/kernel_cfg.c **** 
 197:.\asp\OBJS/kernel_cfg.c **** #else /* DEAULT_ISTK */
 198:.\asp\OBJS/kernel_cfg.c **** 
 199:.\asp\OBJS/kernel_cfg.c **** static STK_T				_kernel_istack[COUNT_STK_T(DEFAULT_ISTKSZ)];
 200:.\asp\OBJS/kernel_cfg.c **** #define TOPPERS_ISTKSZ		ROUND_STK_T(DEFAULT_ISTKSZ)
 201:.\asp\OBJS/kernel_cfg.c **** #define TOPPERS_ISTK		_kernel_istack
 202:.\asp\OBJS/kernel_cfg.c **** 
 203:.\asp\OBJS/kernel_cfg.c **** #endif /* DEAULT_ISTK */
 204:.\asp\OBJS/kernel_cfg.c **** 
 205:.\asp\OBJS/kernel_cfg.c **** const SIZE		_kernel_istksz = TOPPERS_ISTKSZ;
 206:.\asp\OBJS/kernel_cfg.c **** STK_T *const	_kernel_istk = TOPPERS_ISTK;
 207:.\asp\OBJS/kernel_cfg.c **** 
 208:.\asp\OBJS/kernel_cfg.c **** #ifdef TOPPERS_ISTKPT
 209:.\asp\OBJS/kernel_cfg.c **** STK_T *const	_kernel_istkpt = TOPPERS_ISTKPT(TOPPERS_ISTK, TOPPERS_ISTKSZ);
 210:.\asp\OBJS/kernel_cfg.c **** #endif /* TOPPERS_ISTKPT */
 211:.\asp\OBJS/kernel_cfg.c **** 
 212:.\asp\OBJS/kernel_cfg.c **** /*
 213:.\asp\OBJS/kernel_cfg.c ****  *  Time Event Management
 214:.\asp\OBJS/kernel_cfg.c ****  */
 215:.\asp\OBJS/kernel_cfg.c **** 
 216:.\asp\OBJS/kernel_cfg.c **** TMEVTN   _kernel_tmevt_heap[TNUM_TSKID + TNUM_CYCID + TNUM_ALMID];
 217:.\asp\OBJS/kernel_cfg.c **** 
 218:.\asp\OBJS/kernel_cfg.c **** /*
 219:.\asp\OBJS/kernel_cfg.c ****  *  Module Initialization Function
 220:.\asp\OBJS/kernel_cfg.c ****  */
 221:.\asp\OBJS/kernel_cfg.c **** 
 222:.\asp\OBJS/kernel_cfg.c **** void
 223:.\asp\OBJS/kernel_cfg.c **** _kernel_initialize_object(void)
 224:.\asp\OBJS/kernel_cfg.c **** {
  49              		.loc 1 224 0
  50              		.cfi_startproc
  51              		@ args = 0, pretend = 0, frame = 0
  52              		@ frame_needed = 0, uses_anonymous_args = 0
  53 0000 08B5     		push	{r3, lr}
  54              	.LCFI0:
  55              		.cfi_def_cfa_offset 8
  56              		.cfi_offset 3, -8
  57              		.cfi_offset 14, -4
 225:.\asp\OBJS/kernel_cfg.c **** 	_kernel_initialize_task();
  58              		.loc 1 225 0
  59 0002 FFF7FEFF 		bl	_kernel_initialize_task
ARM GAS  C:\TEMP\cccG1N9w.s 			page 6


  60              	.LVL1:
 226:.\asp\OBJS/kernel_cfg.c **** 	_kernel_initialize_semaphore();
  61              		.loc 1 226 0
  62 0006 FFF7FEFF 		bl	_kernel_initialize_semaphore
  63              	.LVL2:
 227:.\asp\OBJS/kernel_cfg.c **** 	_kernel_initialize_cyclic();
  64              		.loc 1 227 0
  65 000a FFF7FEFF 		bl	_kernel_initialize_cyclic
  66              	.LVL3:
 228:.\asp\OBJS/kernel_cfg.c **** 	_kernel_initialize_alarm();
  67              		.loc 1 228 0
  68 000e FFF7FEFF 		bl	_kernel_initialize_alarm
  69              	.LVL4:
 229:.\asp\OBJS/kernel_cfg.c **** 	_kernel_initialize_interrupt();
  70              		.loc 1 229 0
  71 0012 FFF7FEFF 		bl	_kernel_initialize_interrupt
  72              	.LVL5:
 230:.\asp\OBJS/kernel_cfg.c **** 	_kernel_initialize_exception();
 231:.\asp\OBJS/kernel_cfg.c **** }
  73              		.loc 1 231 0
  74 0016 BDE80840 		pop	{r3, lr}
 230:.\asp\OBJS/kernel_cfg.c **** 	_kernel_initialize_exception();
  75              		.loc 1 230 0
  76 001a FFF7FEBF 		b	_kernel_initialize_exception
  77              	.LVL6:
  78              		.cfi_endproc
  79              	.LFE63:
  80              		.size	_kernel_initialize_object, .-_kernel_initialize_object
  81              		.section	.text._kernel_call_inirtn,"ax",%progbits
  82              		.align	1
  83              		.global	_kernel_call_inirtn
  84              		.thumb
  85              		.thumb_func
  86              		.type	_kernel_call_inirtn, %function
  87              	_kernel_call_inirtn:
  88              	.LFB64:
 232:.\asp\OBJS/kernel_cfg.c **** 
 233:.\asp\OBJS/kernel_cfg.c **** /*
 234:.\asp\OBJS/kernel_cfg.c ****  *  Initialization Routine
 235:.\asp\OBJS/kernel_cfg.c ****  */
 236:.\asp\OBJS/kernel_cfg.c **** 
 237:.\asp\OBJS/kernel_cfg.c **** void
 238:.\asp\OBJS/kernel_cfg.c **** _kernel_call_inirtn(void)
 239:.\asp\OBJS/kernel_cfg.c **** {
  89              		.loc 1 239 0
  90              		.cfi_startproc
  91              		@ args = 0, pretend = 0, frame = 0
  92              		@ frame_needed = 0, uses_anonymous_args = 0
  93 0000 08B5     		push	{r3, lr}
  94              	.LCFI1:
  95              		.cfi_def_cfa_offset 8
  96              		.cfi_offset 3, -8
  97              		.cfi_offset 14, -4
 240:.\asp\OBJS/kernel_cfg.c **** 	((INIRTN)(target_timer_initialize))((intptr_t)(0));
  98              		.loc 1 240 0
  99 0002 0020     		movs	r0, #0
 100 0004 FFF7FEFF 		bl	target_timer_initialize
ARM GAS  C:\TEMP\cccG1N9w.s 			page 7


 101              	.LVL7:
 241:.\asp\OBJS/kernel_cfg.c **** 	((INIRTN)(syslog_initialize))((intptr_t)(0));
 102              		.loc 1 241 0
 103 0008 0020     		movs	r0, #0
 104 000a FFF7FEFF 		bl	syslog_initialize
 105              	.LVL8:
 242:.\asp\OBJS/kernel_cfg.c **** 	((INIRTN)(print_banner))((intptr_t)(0));
 106              		.loc 1 242 0
 107 000e 0020     		movs	r0, #0
 108 0010 FFF7FEFF 		bl	print_banner
 109              	.LVL9:
 243:.\asp\OBJS/kernel_cfg.c **** 	((INIRTN)(sio_initialize))((intptr_t)(0));
 110              		.loc 1 243 0
 111 0014 0020     		movs	r0, #0
 112 0016 FFF7FEFF 		bl	sio_initialize
 113              	.LVL10:
 244:.\asp\OBJS/kernel_cfg.c **** 	((INIRTN)(serial_initialize))((intptr_t)(0));
 114              		.loc 1 244 0
 115 001a 0020     		movs	r0, #0
 245:.\asp\OBJS/kernel_cfg.c **** }
 116              		.loc 1 245 0
 117 001c BDE80840 		pop	{r3, lr}
 244:.\asp\OBJS/kernel_cfg.c **** 	((INIRTN)(serial_initialize))((intptr_t)(0));
 118              		.loc 1 244 0
 119 0020 FFF7FEBF 		b	serial_initialize
 120              	.LVL11:
 121              		.cfi_endproc
 122              	.LFE64:
 123              		.size	_kernel_call_inirtn, .-_kernel_call_inirtn
 124              		.section	.text._kernel_call_terrtn,"ax",%progbits
 125              		.align	1
 126              		.global	_kernel_call_terrtn
 127              		.thumb
 128              		.thumb_func
 129              		.type	_kernel_call_terrtn, %function
 130              	_kernel_call_terrtn:
 131              	.LFB65:
 246:.\asp\OBJS/kernel_cfg.c **** 
 247:.\asp\OBJS/kernel_cfg.c **** /*
 248:.\asp\OBJS/kernel_cfg.c ****  *  Termination Routine
 249:.\asp\OBJS/kernel_cfg.c ****  */
 250:.\asp\OBJS/kernel_cfg.c **** 
 251:.\asp\OBJS/kernel_cfg.c **** void
 252:.\asp\OBJS/kernel_cfg.c **** _kernel_call_terrtn(void)
 253:.\asp\OBJS/kernel_cfg.c **** {
 132              		.loc 1 253 0
 133              		.cfi_startproc
 134              		@ args = 0, pretend = 0, frame = 0
 135              		@ frame_needed = 0, uses_anonymous_args = 0
 254:.\asp\OBJS/kernel_cfg.c **** 	((TERRTN)(logtask_terminate))((intptr_t)(0));
 136              		.loc 1 254 0
 137 0000 0020     		movs	r0, #0
 253:.\asp\OBJS/kernel_cfg.c **** {
 138              		.loc 1 253 0
 139 0002 08B5     		push	{r3, lr}
 140              	.LCFI2:
 141              		.cfi_def_cfa_offset 8
ARM GAS  C:\TEMP\cccG1N9w.s 			page 8


 142              		.cfi_offset 3, -8
 143              		.cfi_offset 14, -4
 144              		.loc 1 254 0
 145 0004 FFF7FEFF 		bl	logtask_terminate
 146              	.LVL12:
 255:.\asp\OBJS/kernel_cfg.c **** 	((TERRTN)(target_timer_terminate))((intptr_t)(0));
 147              		.loc 1 255 0
 148 0008 0020     		movs	r0, #0
 256:.\asp\OBJS/kernel_cfg.c **** }
 149              		.loc 1 256 0
 150 000a BDE80840 		pop	{r3, lr}
 255:.\asp\OBJS/kernel_cfg.c **** 	((TERRTN)(target_timer_terminate))((intptr_t)(0));
 151              		.loc 1 255 0
 152 000e FFF7FEBF 		b	target_timer_terminate
 153              	.LVL13:
 154              		.cfi_endproc
 155              	.LFE65:
 156              		.size	_kernel_call_terrtn, .-_kernel_call_terrtn
 157              		.global	_kernel_int_iipm_tbl
 158              		.global	_kernel_bitpat_cfgint
 159              		.global	_kernel_exc_tbl
 160              		.global	_kernel_vector_table
 161              		.comm	_kernel_tmevt_heap,56,4
 162              		.global	_kernel_istkpt
 163              		.global	_kernel_istk
 164              		.global	_kernel_istksz
 165              		.global	_kernel_excinib_table
 166              		.global	_kernel_tnum_excno
 167              		.global	_kernel_intinib_table
 168              		.global	_kernel_tnum_intno
 169              		.global	_kernel_inhinib_table
 170              		.global	_kernel_tnum_inhno
 171              		.comm	_kernel_almcb_table,20,4
 172              		.global	_kernel_alminib_table
 173              		.global	_kernel_tmax_almid
 174              		.comm	_kernel_cyccb_table,24,4
 175              		.global	_kernel_cycinib_table
 176              		.global	_kernel_tmax_cycid
 177              		.comm	_kernel_mpfcb_table,0,4
 178              		.comm	_kernel_mpfinib_table,0,4
 179              		.global	_kernel_tmax_mpfid
 180              		.comm	_kernel_mbxcb_table,0,4
 181              		.comm	_kernel_mbxinib_table,0,4
 182              		.global	_kernel_tmax_mbxid
 183              		.comm	_kernel_pdqcb_table,0,4
 184              		.comm	_kernel_pdqinib_table,0,4
 185              		.global	_kernel_tmax_pdqid
 186              		.comm	_kernel_dtqcb_table,0,4
 187              		.comm	_kernel_dtqinib_table,0,4
 188              		.global	_kernel_tmax_dtqid
 189              		.comm	_kernel_flgcb_table,0,4
 190              		.comm	_kernel_flginib_table,0,4
 191              		.global	_kernel_tmax_flgid
 192              		.comm	_kernel_semcb_table,32,4
 193              		.global	_kernel_seminib_table
 194              		.global	_kernel_tmax_semid
 195              		.global	_kernel_torder_table
ARM GAS  C:\TEMP\cccG1N9w.s 			page 9


 196              		.comm	_kernel_tcb_table,160,4
 197              		.global	_kernel_tinib_table
 198              		.global	_kernel_tmax_tskid
 199              		.section	.rodata
 200              		.align	2
 201              		.type	_kernel_int_iipm_tbl, %object
 202              		.size	_kernel_int_iipm_tbl, 192
 203              	_kernel_int_iipm_tbl:
 204 0000 00000000 		.word	0
 205 0004 00000000 		.word	0
 206 0008 00000000 		.word	0
 207 000c 00000000 		.word	0
 208 0010 00000000 		.word	0
 209 0014 00000000 		.word	0
 210 0018 00000000 		.word	0
 211 001c 00000000 		.word	0
 212 0020 00000000 		.word	0
 213 0024 00000000 		.word	0
 214 0028 00000000 		.word	0
 215 002c 00000000 		.word	0
 216 0030 00000000 		.word	0
 217 0034 00000000 		.word	0
 218 0038 00000000 		.word	0
 219 003c 40000000 		.word	64
 220 0040 A0000000 		.word	160
 221 0044 00000000 		.word	0
 222 0048 00000000 		.word	0
 223 004c 00000000 		.word	0
 224 0050 00000000 		.word	0
 225 0054 00000000 		.word	0
 226 0058 00000000 		.word	0
 227 005c 00000000 		.word	0
 228 0060 00000000 		.word	0
 229 0064 00000000 		.word	0
 230 0068 00000000 		.word	0
 231 006c 00000000 		.word	0
 232 0070 00000000 		.word	0
 233 0074 00000000 		.word	0
 234 0078 00000000 		.word	0
 235 007c 00000000 		.word	0
 236 0080 00000000 		.word	0
 237 0084 00000000 		.word	0
 238 0088 00000000 		.word	0
 239 008c 00000000 		.word	0
 240 0090 00000000 		.word	0
 241 0094 00000000 		.word	0
 242 0098 00000000 		.word	0
 243 009c 00000000 		.word	0
 244 00a0 00000000 		.word	0
 245 00a4 00000000 		.word	0
 246 00a8 00000000 		.word	0
 247 00ac 00000000 		.word	0
 248 00b0 00000000 		.word	0
 249 00b4 00000000 		.word	0
 250 00b8 00000000 		.word	0
 251 00bc 00000000 		.word	0
 252              		.type	_kernel_bitpat_cfgint, %object
ARM GAS  C:\TEMP\cccG1N9w.s 			page 10


 253              		.size	_kernel_bitpat_cfgint, 12
 254              	_kernel_bitpat_cfgint:
 255 00c0 00800100 		.word	98304
 256 00c4 00000000 		.word	0
 257 00c8 00000000 		.word	0
 258              		.type	_kernel_exc_tbl, %object
 259              		.size	_kernel_exc_tbl, 192
 260              	_kernel_exc_tbl:
 261 00cc 00000000 		.word	_kernel_default_exc_handler
 262 00d0 00000000 		.word	_kernel_default_exc_handler
 263 00d4 00000000 		.word	_kernel_default_exc_handler
 264 00d8 00000000 		.word	_kernel_default_exc_handler
 265 00dc 00000000 		.word	_kernel_default_exc_handler
 266 00e0 00000000 		.word	_kernel_default_exc_handler
 267 00e4 00000000 		.word	cpuexc_handler
 268 00e8 00000000 		.word	_kernel_default_exc_handler
 269 00ec 00000000 		.word	_kernel_default_exc_handler
 270 00f0 00000000 		.word	_kernel_default_exc_handler
 271 00f4 00000000 		.word	_kernel_default_exc_handler
 272 00f8 00000000 		.word	_kernel_default_exc_handler
 273 00fc 00000000 		.word	_kernel_default_exc_handler
 274 0100 00000000 		.word	_kernel_default_exc_handler
 275 0104 00000000 		.word	_kernel_default_exc_handler
 276 0108 00000000 		.word	target_timer_handler
 277 010c 00000000 		.word	_kernel_inthdr_16
 278 0110 00000000 		.word	_kernel_default_int_handler
 279 0114 00000000 		.word	_kernel_default_int_handler
 280 0118 00000000 		.word	_kernel_default_int_handler
 281 011c 00000000 		.word	_kernel_default_int_handler
 282 0120 00000000 		.word	_kernel_default_int_handler
 283 0124 00000000 		.word	_kernel_default_int_handler
 284 0128 00000000 		.word	_kernel_default_int_handler
 285 012c 00000000 		.word	_kernel_default_int_handler
 286 0130 00000000 		.word	_kernel_default_int_handler
 287 0134 00000000 		.word	_kernel_default_int_handler
 288 0138 00000000 		.word	_kernel_default_int_handler
 289 013c 00000000 		.word	_kernel_default_int_handler
 290 0140 00000000 		.word	_kernel_default_int_handler
 291 0144 00000000 		.word	_kernel_default_int_handler
 292 0148 00000000 		.word	_kernel_default_int_handler
 293 014c 00000000 		.word	_kernel_default_int_handler
 294 0150 00000000 		.word	_kernel_default_int_handler
 295 0154 00000000 		.word	_kernel_default_int_handler
 296 0158 00000000 		.word	_kernel_default_int_handler
 297 015c 00000000 		.word	_kernel_default_int_handler
 298 0160 00000000 		.word	_kernel_default_int_handler
 299 0164 00000000 		.word	_kernel_default_int_handler
 300 0168 00000000 		.word	_kernel_default_int_handler
 301 016c 00000000 		.word	_kernel_default_int_handler
 302 0170 00000000 		.word	_kernel_default_int_handler
 303 0174 00000000 		.word	_kernel_default_int_handler
 304 0178 00000000 		.word	_kernel_default_int_handler
 305 017c 00000000 		.word	_kernel_default_int_handler
 306 0180 00000000 		.word	_kernel_default_int_handler
 307 0184 00000000 		.word	_kernel_default_int_handler
 308 0188 00000000 		.word	_kernel_default_int_handler
 309              		.type	_kernel_istkpt, %object
ARM GAS  C:\TEMP\cccG1N9w.s 			page 11


 310              		.size	_kernel_istkpt, 4
 311              	_kernel_istkpt:
 312 018c 00100000 		.word	_kernel_istack+4096
 313              		.type	_kernel_istk, %object
 314              		.size	_kernel_istk, 4
 315              	_kernel_istk:
 316 0190 00000000 		.word	_kernel_istack
 317              		.type	_kernel_istksz, %object
 318              		.size	_kernel_istksz, 4
 319              	_kernel_istksz:
 320 0194 00100000 		.word	4096
 321              		.type	_kernel_excinib_table, %object
 322              		.size	_kernel_excinib_table, 12
 323              	_kernel_excinib_table:
 324 0198 06000000 		.word	6
 325 019c 00000000 		.word	0
 326 01a0 00000000 		.word	cpuexc_handler
 327              		.type	_kernel_tnum_excno, %object
 328              		.size	_kernel_tnum_excno, 4
 329              	_kernel_tnum_excno:
 330 01a4 01000000 		.word	1
 331              		.type	_kernel_intinib_table, %object
 332              		.size	_kernel_intinib_table, 24
 333              	_kernel_intinib_table:
 334 01a8 0F000000 		.word	15
 335 01ac 01000000 		.word	1
 336 01b0 FAFFFFFF 		.word	-6
 337 01b4 10000000 		.word	16
 338 01b8 00000000 		.word	0
 339 01bc FDFFFFFF 		.word	-3
 340              		.type	_kernel_tnum_intno, %object
 341              		.size	_kernel_tnum_intno, 4
 342              	_kernel_tnum_intno:
 343 01c0 02000000 		.word	2
 344              		.type	_kernel_inhinib_table, %object
 345              		.size	_kernel_inhinib_table, 24
 346              	_kernel_inhinib_table:
 347 01c4 0F000000 		.word	15
 348 01c8 00000000 		.word	0
 349 01cc 00000000 		.word	target_timer_handler
 350 01d0 10000000 		.word	16
 351 01d4 00000000 		.word	0
 352 01d8 00000000 		.word	_kernel_inthdr_16
 353              		.type	_kernel_tnum_inhno, %object
 354              		.size	_kernel_tnum_inhno, 4
 355              	_kernel_tnum_inhno:
 356 01dc 02000000 		.word	2
 357              		.type	_kernel_alminib_table, %object
 358              		.size	_kernel_alminib_table, 12
 359              	_kernel_alminib_table:
 360 01e0 00000000 		.word	0
 361 01e4 00000000 		.word	0
 362 01e8 00000000 		.word	alarm_handler
 363              		.type	_kernel_tmax_almid, %object
 364              		.size	_kernel_tmax_almid, 4
 365              	_kernel_tmax_almid:
 366 01ec 01000000 		.word	1
ARM GAS  C:\TEMP\cccG1N9w.s 			page 12


 367              		.type	_kernel_cycinib_table, %object
 368              		.size	_kernel_cycinib_table, 20
 369              	_kernel_cycinib_table:
 370 01f0 00000000 		.word	0
 371 01f4 00000000 		.word	0
 372 01f8 00000000 		.word	cyclic_handler
 373 01fc D0070000 		.word	2000
 374 0200 00000000 		.word	0
 375              		.type	_kernel_tmax_cycid, %object
 376              		.size	_kernel_tmax_cycid, 4
 377              	_kernel_tmax_cycid:
 378 0204 01000000 		.word	1
 379              		.type	_kernel_tmax_mpfid, %object
 380              		.size	_kernel_tmax_mpfid, 4
 381              	_kernel_tmax_mpfid:
 382 0208 00000000 		.space	4
 383              		.type	_kernel_tmax_mbxid, %object
 384              		.size	_kernel_tmax_mbxid, 4
 385              	_kernel_tmax_mbxid:
 386 020c 00000000 		.space	4
 387              		.type	_kernel_tmax_pdqid, %object
 388              		.size	_kernel_tmax_pdqid, 4
 389              	_kernel_tmax_pdqid:
 390 0210 00000000 		.space	4
 391              		.type	_kernel_tmax_dtqid, %object
 392              		.size	_kernel_tmax_dtqid, 4
 393              	_kernel_tmax_dtqid:
 394 0214 00000000 		.space	4
 395              		.type	_kernel_tmax_flgid, %object
 396              		.size	_kernel_tmax_flgid, 4
 397              	_kernel_tmax_flgid:
 398 0218 00000000 		.space	4
 399              		.type	_kernel_seminib_table, %object
 400              		.size	_kernel_seminib_table, 24
 401              	_kernel_seminib_table:
 402 021c 01000000 		.word	1
 403 0220 00000000 		.word	0
 404 0224 01000000 		.word	1
 405 0228 01000000 		.word	1
 406 022c 01000000 		.word	1
 407 0230 01000000 		.word	1
 408              		.type	_kernel_tmax_semid, %object
 409              		.size	_kernel_tmax_semid, 4
 410              	_kernel_tmax_semid:
 411 0234 02000000 		.word	2
 412              		.type	_kernel_torder_table, %object
 413              		.size	_kernel_torder_table, 20
 414              	_kernel_torder_table:
 415 0238 01000000 		.word	1
 416 023c 02000000 		.word	2
 417 0240 03000000 		.word	3
 418 0244 04000000 		.word	4
 419 0248 05000000 		.word	5
 420              		.type	_kernel_tinib_table, %object
 421              		.size	_kernel_tinib_table, 160
 422              	_kernel_tinib_table:
 423 024c 02000000 		.word	2
ARM GAS  C:\TEMP\cccG1N9w.s 			page 13


 424 0250 01000000 		.word	1
 425 0254 00000000 		.word	logtask_main
 426 0258 02000000 		.word	2
 427 025c 00040000 		.word	1024
 428 0260 00100000 		.word	_kernel_stack_LOGTASK
 429 0264 00000000 		.word	0
 430 0268 00000000 		.word	0
 431 026c 00000000 		.word	0
 432 0270 01000000 		.word	1
 433 0274 00000000 		.word	task
 434 0278 09000000 		.word	9
 435 027c 00100000 		.word	4096
 436 0280 00140000 		.word	_kernel_stack_TASK1
 437 0284 00000000 		.word	0
 438 0288 00000000 		.word	tex_routine
 439 028c 00000000 		.word	0
 440 0290 02000000 		.word	2
 441 0294 00000000 		.word	task
 442 0298 09000000 		.word	9
 443 029c 00100000 		.word	4096
 444 02a0 00240000 		.word	_kernel_stack_TASK2
 445 02a4 00000000 		.word	0
 446 02a8 00000000 		.word	tex_routine
 447 02ac 00000000 		.word	0
 448 02b0 03000000 		.word	3
 449 02b4 00000000 		.word	task
 450 02b8 09000000 		.word	9
 451 02bc 00100000 		.word	4096
 452 02c0 00340000 		.word	_kernel_stack_TASK3
 453 02c4 00000000 		.word	0
 454 02c8 00000000 		.word	tex_routine
 455 02cc 02000000 		.word	2
 456 02d0 00000000 		.word	0
 457 02d4 00000000 		.word	main_task
 458 02d8 04000000 		.word	4
 459 02dc 00100000 		.word	4096
 460 02e0 00440000 		.word	_kernel_stack_MAIN_TASK
 461 02e4 00000000 		.word	0
 462 02e8 00000000 		.word	0
 463              		.type	_kernel_tmax_tskid, %object
 464              		.size	_kernel_tmax_tskid, 4
 465              	_kernel_tmax_tskid:
 466 02ec 05000000 		.word	5
 467              		.section	.vector,"a",%progbits
 468              		.align	2
 469              		.type	_kernel_vector_table, %object
 470              		.size	_kernel_vector_table, 192
 471              	_kernel_vector_table:
 472 0000 00100000 		.word	_kernel_istack+4096
 473 0004 00000000 		.word	_start
 474 0008 00000000 		.word	_kernel_core_exc_entry
 475 000c 00000000 		.word	_kernel_core_exc_entry
 476 0010 00000000 		.word	_kernel_core_exc_entry
 477 0014 00000000 		.word	_kernel_core_exc_entry
 478 0018 00000000 		.word	_kernel_core_exc_entry
 479 001c 00000000 		.word	_kernel_core_exc_entry
 480 0020 00000000 		.word	_kernel_core_exc_entry
ARM GAS  C:\TEMP\cccG1N9w.s 			page 14


 481 0024 00000000 		.word	_kernel_core_exc_entry
 482 0028 00000000 		.word	_kernel_core_exc_entry
 483 002c 00000000 		.word	_kernel_svc_handler
 484 0030 00000000 		.word	_kernel_core_exc_entry
 485 0034 00000000 		.word	_kernel_core_exc_entry
 486 0038 00000000 		.word	_kernel_core_exc_entry
 487 003c 00000000 		.word	_kernel_core_int_entry
 488 0040 00000000 		.word	_kernel_core_int_entry
 489 0044 00000000 		.word	_kernel_core_int_entry
 490 0048 00000000 		.word	_kernel_core_int_entry
 491 004c 00000000 		.word	_kernel_core_int_entry
 492 0050 00000000 		.word	_kernel_core_int_entry
 493 0054 00000000 		.word	_kernel_core_int_entry
 494 0058 00000000 		.word	_kernel_core_int_entry
 495 005c 00000000 		.word	_kernel_core_int_entry
 496 0060 00000000 		.word	_kernel_core_int_entry
 497 0064 00000000 		.word	_kernel_core_int_entry
 498 0068 00000000 		.word	_kernel_core_int_entry
 499 006c 00000000 		.word	_kernel_core_int_entry
 500 0070 00000000 		.word	_kernel_core_int_entry
 501 0074 00000000 		.word	_kernel_core_int_entry
 502 0078 00000000 		.word	_kernel_core_int_entry
 503 007c 00000000 		.word	_kernel_core_int_entry
 504 0080 00000000 		.word	_kernel_core_int_entry
 505 0084 00000000 		.word	_kernel_core_int_entry
 506 0088 00000000 		.word	_kernel_core_int_entry
 507 008c 00000000 		.word	_kernel_core_int_entry
 508 0090 00000000 		.word	_kernel_core_int_entry
 509 0094 00000000 		.word	_kernel_core_int_entry
 510 0098 00000000 		.word	_kernel_core_int_entry
 511 009c 00000000 		.word	_kernel_core_int_entry
 512 00a0 00000000 		.word	_kernel_core_int_entry
 513 00a4 00000000 		.word	_kernel_core_int_entry
 514 00a8 00000000 		.word	_kernel_core_int_entry
 515 00ac 00000000 		.word	_kernel_core_int_entry
 516 00b0 00000000 		.word	_kernel_core_int_entry
 517 00b4 00000000 		.word	_kernel_core_int_entry
 518 00b8 00000000 		.word	_kernel_core_int_entry
 519 00bc 00000000 		.word	_kernel_core_int_entry
 520              		.bss
 521              		.align	3
 522              		.type	_kernel_istack, %object
 523              		.size	_kernel_istack, 4096
 524              	_kernel_istack:
 525 0000 00000000 		.space	4096
 525      00000000 
 525      00000000 
 525      00000000 
 525      00000000 
 526              		.type	_kernel_stack_LOGTASK, %object
 527              		.size	_kernel_stack_LOGTASK, 1024
 528              	_kernel_stack_LOGTASK:
 529 1000 00000000 		.space	1024
 529      00000000 
 529      00000000 
 529      00000000 
 529      00000000 
ARM GAS  C:\TEMP\cccG1N9w.s 			page 15


 530              		.type	_kernel_stack_TASK1, %object
 531              		.size	_kernel_stack_TASK1, 4096
 532              	_kernel_stack_TASK1:
 533 1400 00000000 		.space	4096
 533      00000000 
 533      00000000 
 533      00000000 
 533      00000000 
 534              		.type	_kernel_stack_TASK2, %object
 535              		.size	_kernel_stack_TASK2, 4096
 536              	_kernel_stack_TASK2:
 537 2400 00000000 		.space	4096
 537      00000000 
 537      00000000 
 537      00000000 
 537      00000000 
 538              		.type	_kernel_stack_TASK3, %object
 539              		.size	_kernel_stack_TASK3, 4096
 540              	_kernel_stack_TASK3:
 541 3400 00000000 		.space	4096
 541      00000000 
 541      00000000 
 541      00000000 
 541      00000000 
 542              		.type	_kernel_stack_MAIN_TASK, %object
 543              		.size	_kernel_stack_MAIN_TASK, 4096
 544              	_kernel_stack_MAIN_TASK:
 545 4400 00000000 		.space	4096
 545      00000000 
 545      00000000 
 545      00000000 
 545      00000000 
 546              		.text
 547              	.Letext0:
 548              		.file 2 ".\\asp\\arch\\gcc/tool_stddef.h"
 549              		.file 3 ".\\asp\\include/t_stddef.h"
 550              		.file 4 ".\\asp\\include/kernel.h"
 551              		.file 5 ".\\asp\\arch\\arm_m_gcc\\common/core_config.h"
 552              		.file 6 ".\\asp\\include/queue.h"
 553              		.file 7 ".\\asp/kernel/time_event.h"
 554              		.file 8 ".\\asp/kernel/task.h"
 555              		.file 9 ".\\asp/kernel/semaphore.h"
 556              		.file 10 ".\\asp/kernel/eventflag.h"
 557              		.file 11 ".\\asp/kernel/dataqueue.h"
 558              		.file 12 ".\\asp/kernel/pridataq.h"
 559              		.file 13 ".\\asp/kernel/mailbox.h"
 560              		.file 14 ".\\asp/kernel/mempfix.h"
 561              		.file 15 ".\\asp/kernel/cyclic.h"
 562              		.file 16 ".\\asp/kernel/alarm.h"
 563              		.file 17 ".\\asp/kernel/interrupt.h"
 564              		.file 18 ".\\asp/kernel/exception.h"
 565              		.file 19 ".\\asp\\target\\cy8ckit050_gcc/target_serial.h"
 566              		.file 20 ".\\asp\\arch/arm_m_gcc/common/core_timer.h"
 567              		.file 21 ".\\asp/syssvc/syslog.h"
 568              		.file 22 ".\\asp/syssvc/banner.h"
 569              		.file 23 ".\\asp/syssvc/serial.h"
 570              		.file 24 ".\\asp/syssvc/logtask.h"
ARM GAS  C:\TEMP\cccG1N9w.s 			page 16

