ARM GAS  C:\TEMP\ccdXN0Nh.s 			page 1


   1              		.syntax unified
   2              		.cpu cortex-m3
   3              		.fpu softvfp
   4              		.eabi_attribute 20, 1
   5              		.eabi_attribute 21, 1
   6              		.eabi_attribute 23, 3
   7              		.eabi_attribute 24, 1
   8              		.eabi_attribute 25, 1
   9              		.eabi_attribute 26, 1
  10              		.eabi_attribute 30, 4
  11              		.eabi_attribute 34, 1
  12              		.eabi_attribute 18, 4
  13              		.thumb
  14              		.file	"log_output.c"
  15              		.text
  16              	.Ltext0:
  17              		.cfi_sections	.debug_frame
  18              		.section	.text.convert,"ax",%progbits
  19              		.align	1
  20              		.thumb
  21              		.thumb_func
  22              		.type	convert, %function
  23              	convert:
  24              	.LFB8:
  25              		.file 1 ".\\asp\\library\\log_output.c"
   1:.\asp\library/log_output.c **** /*
   2:.\asp\library/log_output.c ****  *  TOPPERS Software
   3:.\asp\library/log_output.c ****  *      Toyohashi Open Platform for Embedded Real-Time Systems
   4:.\asp\library/log_output.c ****  * 
   5:.\asp\library/log_output.c ****  *  Copyright (C) 2000-2003 by Embedded and Real-Time Systems Laboratory
   6:.\asp\library/log_output.c ****  *                              Toyohashi Univ. of Technology, JAPAN
   7:.\asp\library/log_output.c ****  *  Copyright (C) 2004-2011 by Embedded and Real-Time Systems Laboratory
   8:.\asp\library/log_output.c ****  *              Graduate School of Information Science, Nagoya Univ., JAPAN
   9:.\asp\library/log_output.c ****  * 
  10:.\asp\library/log_output.c ****  *  上記著作権者は，以下の(1)〜(4)の条件を満たす場合に限り，本ソフトウェ
  11:.\asp\library/log_output.c ****  *  ア（本ソフトウェアを改変したものを含む．以下同じ）を使用・複製・改
  12:.\asp\library/log_output.c ****  *  変・再配布（以下，利用と呼ぶ）することを無償で許諾する．
  13:.\asp\library/log_output.c ****  *  (1) 本ソフトウェアをソースコードの形で利用する場合には，上記の著作
  14:.\asp\library/log_output.c ****  *      権表示，この利用条件および下記の無保証規定が，そのままの形でソー
  15:.\asp\library/log_output.c ****  *      スコード中に含まれていること．
  16:.\asp\library/log_output.c ****  *  (2) 本ソフトウェアを，ライブラリ形式など，他のソフトウェア開発に使
  17:.\asp\library/log_output.c ****  *      用できる形で再配布する場合には，再配布に伴うドキュメント（利用
  18:.\asp\library/log_output.c ****  *      者マニュアルなど）に，上記の著作権表示，この利用条件および下記
  19:.\asp\library/log_output.c ****  *      の無保証規定を掲載すること．
  20:.\asp\library/log_output.c ****  *  (3) 本ソフトウェアを，機器に組み込むなど，他のソフトウェア開発に使
  21:.\asp\library/log_output.c ****  *      用できない形で再配布する場合には，次のいずれかの条件を満たすこ
  22:.\asp\library/log_output.c ****  *      と．
  23:.\asp\library/log_output.c ****  *    (a) 再配布に伴うドキュメント（利用者マニュアルなど）に，上記の著
  24:.\asp\library/log_output.c ****  *        作権表示，この利用条件および下記の無保証規定を掲載すること．
  25:.\asp\library/log_output.c ****  *    (b) 再配布の形態を，別に定める方法によって，TOPPERSプロジェクトに
  26:.\asp\library/log_output.c ****  *        報告すること．
  27:.\asp\library/log_output.c ****  *  (4) 本ソフトウェアの利用により直接的または間接的に生じるいかなる損
  28:.\asp\library/log_output.c ****  *      害からも，上記著作権者およびTOPPERSプロジェクトを免責すること．
  29:.\asp\library/log_output.c ****  *      また，本ソフトウェアのユーザまたはエンドユーザからのいかなる理
  30:.\asp\library/log_output.c ****  *      由に基づく請求からも，上記著作権者およびTOPPERSプロジェクトを
  31:.\asp\library/log_output.c ****  *      免責すること．
  32:.\asp\library/log_output.c ****  * 
ARM GAS  C:\TEMP\ccdXN0Nh.s 			page 2


  33:.\asp\library/log_output.c ****  *  本ソフトウェアは，無保証で提供されているものである．上記著作権者お
  34:.\asp\library/log_output.c ****  *  よびTOPPERSプロジェクトは，本ソフトウェアに関して，特定の使用目的
  35:.\asp\library/log_output.c ****  *  に対する適合性も含めて，いかなる保証も行わない．また，本ソフトウェ
  36:.\asp\library/log_output.c ****  *  アの利用により直接的または間接的に生じたいかなる損害に関しても，そ
  37:.\asp\library/log_output.c ****  *  の責任を負わない．
  38:.\asp\library/log_output.c ****  * 
  39:.\asp\library/log_output.c ****  *  @(#) $Id: log_output.c 2246 2011-08-26 22:39:15Z ertl-hiro $
  40:.\asp\library/log_output.c ****  */
  41:.\asp\library/log_output.c **** 
  42:.\asp\library/log_output.c **** /*
  43:.\asp\library/log_output.c ****  *		システムログのフォーマット出力
  44:.\asp\library/log_output.c ****  */
  45:.\asp\library/log_output.c **** 
  46:.\asp\library/log_output.c **** #include <t_stddef.h>
  47:.\asp\library/log_output.c **** #include <t_syslog.h>
  48:.\asp\library/log_output.c **** #include <log_output.h>
  49:.\asp\library/log_output.c **** 
  50:.\asp\library/log_output.c **** /*
  51:.\asp\library/log_output.c ****  *  数値を文字列に変換
  52:.\asp\library/log_output.c ****  */
  53:.\asp\library/log_output.c **** #define CONVERT_BUFLEN	((sizeof(uintptr_t) * CHAR_BIT + 2) / 3)
  54:.\asp\library/log_output.c **** 										/* uintptr_t型の数値の最大文字数 */
  55:.\asp\library/log_output.c **** static void
  56:.\asp\library/log_output.c **** convert(uintptr_t val, uint_t radix, const char *radchar,
  57:.\asp\library/log_output.c **** 			uint_t width, bool_t minus, bool_t padzero, void (*putc)(char))
  58:.\asp\library/log_output.c **** {
  26              		.loc 1 58 0
  27              		.cfi_startproc
  28              		@ args = 12, pretend = 0, frame = 16
  29              		@ frame_needed = 0, uses_anonymous_args = 0
  30              	.LVL0:
  31 0000 2DE9F043 		push	{r4, r5, r6, r7, r8, r9, lr}
  32              	.LCFI0:
  33              		.cfi_def_cfa_offset 28
  34              		.cfi_offset 4, -28
  35              		.cfi_offset 5, -24
  36              		.cfi_offset 6, -20
  37              		.cfi_offset 7, -16
  38              		.cfi_offset 8, -12
  39              		.cfi_offset 9, -8
  40              		.cfi_offset 14, -4
  41 0004 85B0     		sub	sp, sp, #20
  42              	.LCFI1:
  43              		.cfi_def_cfa_offset 48
  44              		.loc 1 58 0
  45 0006 DDF83090 		ldr	r9, [sp, #48]
  46 000a 0D9F     		ldr	r7, [sp, #52]
  47 000c 0E9D     		ldr	r5, [sp, #56]
  48 000e 1E46     		mov	r6, r3
  59:.\asp\library/log_output.c **** 	char	buf[CONVERT_BUFLEN];
  60:.\asp\library/log_output.c **** 	uint_t	i, j;
  61:.\asp\library/log_output.c **** 
  62:.\asp\library/log_output.c **** 	i = 0U;
  49              		.loc 1 62 0
  50 0010 0024     		movs	r4, #0
  51              	.LVL1:
  52              	.L3:
ARM GAS  C:\TEMP\ccdXN0Nh.s 			page 3


  63:.\asp\library/log_output.c **** 	do {
  64:.\asp\library/log_output.c **** 		buf[i++] = radchar[val % radix];
  53              		.loc 1 64 0 discriminator 1
  54 0012 B0FBF1F3 		udiv	r3, r0, r1
  55 0016 01FB1300 		mls	r0, r1, r3, r0
  56              	.LVL2:
  57 001a 12F800E0 		ldrb	lr, [r2, r0]	@ zero_extendqisi2
  58 001e 01A8     		add	r0, sp, #4
  59 0020 04F800E0 		strb	lr, [r4, r0]
  60 0024 0134     		adds	r4, r4, #1
  61              	.LVL3:
  65:.\asp\library/log_output.c **** 		val /= radix;
  66:.\asp\library/log_output.c **** 	} while (i < CONVERT_BUFLEN && val != 0);
  62              		.loc 1 66 0 discriminator 1
  63 0026 0B2C     		cmp	r4, #11
  65:.\asp\library/log_output.c **** 		val /= radix;
  64              		.loc 1 65 0 discriminator 1
  65 0028 1846     		mov	r0, r3
  66              	.LVL4:
  67              		.loc 1 66 0 discriminator 1
  68 002a 01D0     		beq	.L2
  69 002c 002B     		cmp	r3, #0
  70 002e F0D1     		bne	.L3
  71              	.L2:
  67:.\asp\library/log_output.c **** 
  68:.\asp\library/log_output.c **** 	if (minus && width > 0) {
  72              		.loc 1 68 0
  73 0030 B9F1000F 		cmp	r9, #0
  74 0034 04D0     		beq	.L4
  75              		.loc 1 68 0 is_stmt 0 discriminator 1
  76 0036 06B1     		cbz	r6, .L5
  69:.\asp\library/log_output.c **** 		width -= 1;
  77              		.loc 1 69 0 is_stmt 1
  78 0038 013E     		subs	r6, r6, #1
  79              	.LVL5:
  80              	.L5:
  70:.\asp\library/log_output.c **** 	}
  71:.\asp\library/log_output.c **** 	if (minus && padzero) {
  81              		.loc 1 71 0
  82 003a 0FB1     		cbz	r7, .L4
  72:.\asp\library/log_output.c **** 		(*putc)('-');
  83              		.loc 1 72 0
  84 003c 2D20     		movs	r0, #45
  85              	.LVL6:
  86 003e A847     		blx	r5
  87              	.LVL7:
  88              	.L4:
  73:.\asp\library/log_output.c **** 	}
  74:.\asp\library/log_output.c **** 	for (j = i; j < width; j++) {
  75:.\asp\library/log_output.c **** 		(*putc)(padzero ? '0' : ' ');
  89              		.loc 1 75 0 discriminator 1
  90 0040 A046     		mov	r8, r4
  91              	.L6:
  92              	.LVL8:
  74:.\asp\library/log_output.c **** 	for (j = i; j < width; j++) {
  93              		.loc 1 74 0 discriminator 1
  94 0042 B045     		cmp	r8, r6
ARM GAS  C:\TEMP\ccdXN0Nh.s 			page 4


  95 0044 07D2     		bcs	.L31
  96              	.L8:
  97              		.loc 1 75 0
  98 0046 002F     		cmp	r7, #0
  99 0048 0CBF     		ite	eq
 100 004a 2020     		moveq	r0, #32
 101 004c 3020     		movne	r0, #48
 102 004e A847     		blx	r5
 103              	.LVL9:
  74:.\asp\library/log_output.c **** 	for (j = i; j < width; j++) {
 104              		.loc 1 74 0
 105 0050 08F10108 		add	r8, r8, #1
 106              	.LVL10:
 107 0054 F5E7     		b	.L6
 108              	.L31:
  76:.\asp\library/log_output.c **** 	}
  77:.\asp\library/log_output.c **** 	if (minus && !padzero) {
 109              		.loc 1 77 0
 110 0056 B9F1000F 		cmp	r9, #0
 111 005a 02D0     		beq	.L21
 112              		.loc 1 77 0 is_stmt 0 discriminator 1
 113 005c 0FB9     		cbnz	r7, .L21
  78:.\asp\library/log_output.c **** 		(*putc)('-');
 114              		.loc 1 78 0 is_stmt 1
 115 005e 2D20     		movs	r0, #45
 116 0060 A847     		blx	r5
 117              	.LVL11:
 118              	.L21:
  79:.\asp\library/log_output.c **** 	}
  80:.\asp\library/log_output.c **** 	while (i > 0U) {
  81:.\asp\library/log_output.c **** 		(*putc)(buf[--i]);
 119              		.loc 1 81 0
 120 0062 013C     		subs	r4, r4, #1
 121              	.LVL12:
 122 0064 01A9     		add	r1, sp, #4
 123 0066 085D     		ldrb	r0, [r1, r4]	@ zero_extendqisi2
 124 0068 A847     		blx	r5
 125              	.LVL13:
  80:.\asp\library/log_output.c **** 	while (i > 0U) {
 126              		.loc 1 80 0
 127 006a 002C     		cmp	r4, #0
 128 006c F9D1     		bne	.L21
  82:.\asp\library/log_output.c **** 	}
  83:.\asp\library/log_output.c **** }
 129              		.loc 1 83 0
 130 006e 05B0     		add	sp, sp, #20
 131 0070 BDE8F083 		pop	{r4, r5, r6, r7, r8, r9, pc}
 132              		.cfi_endproc
 133              	.LFE8:
 134              		.size	convert, .-convert
 135              		.section	.text.syslog_printf,"ax",%progbits
 136              		.align	1
 137              		.global	syslog_printf
 138              		.thumb
 139              		.thumb_func
 140              		.type	syslog_printf, %function
 141              	syslog_printf:
ARM GAS  C:\TEMP\ccdXN0Nh.s 			page 5


 142              	.LFB9:
  84:.\asp\library/log_output.c **** 
  85:.\asp\library/log_output.c **** /*
  86:.\asp\library/log_output.c ****  *  文字列整形出力
  87:.\asp\library/log_output.c ****  */
  88:.\asp\library/log_output.c **** static const char raddec[] = "0123456789";
  89:.\asp\library/log_output.c **** static const char radhex[] = "0123456789abcdef";
  90:.\asp\library/log_output.c **** static const char radHEX[] = "0123456789ABCDEF";
  91:.\asp\library/log_output.c **** 
  92:.\asp\library/log_output.c **** void
  93:.\asp\library/log_output.c **** syslog_printf(const char *format, const intptr_t *p_args, void (*putc)(char))
  94:.\asp\library/log_output.c **** {
 143              		.loc 1 94 0
 144              		.cfi_startproc
 145              		@ args = 0, pretend = 0, frame = 0
 146              		@ frame_needed = 0, uses_anonymous_args = 0
 147              	.LVL14:
 148 0000 F0B5     		push	{r4, r5, r6, r7, lr}
 149              	.LCFI2:
 150              		.cfi_def_cfa_offset 20
 151              		.cfi_offset 4, -20
 152              		.cfi_offset 5, -16
 153              		.cfi_offset 6, -12
 154              		.cfi_offset 7, -8
 155              		.cfi_offset 14, -4
 156 0002 0446     		mov	r4, r0
 157 0004 85B0     		sub	sp, sp, #20
 158              	.LCFI3:
 159              		.cfi_def_cfa_offset 40
 160 0006 0D46     		mov	r5, r1
 161 0008 1646     		mov	r6, r2
 162              	.LVL15:
 163              	.L63:
  95:.\asp\library/log_output.c **** 	char		c;
  96:.\asp\library/log_output.c **** 	uint_t		width;
  97:.\asp\library/log_output.c **** 	bool_t		padzero;
  98:.\asp\library/log_output.c **** 	intptr_t	val;
  99:.\asp\library/log_output.c **** 	const char	*str;
 100:.\asp\library/log_output.c **** 
 101:.\asp\library/log_output.c **** 	while ((c = *format++) != '\0') {
 164              		.loc 1 101 0 discriminator 1
 165 000a 2078     		ldrb	r0, [r4, #0]	@ zero_extendqisi2
 166              	.LVL16:
 167 000c 0028     		cmp	r0, #0
 168 000e 66D0     		beq	.L68
 169              	.L54:
 102:.\asp\library/log_output.c **** 		if (c != '%') {
 170              		.loc 1 102 0
 171 0010 2528     		cmp	r0, #37
 172 0012 01D0     		beq	.L34
 101:.\asp\library/log_output.c **** 	while ((c = *format++) != '\0') {
 173              		.loc 1 101 0
 174 0014 0134     		adds	r4, r4, #1
 175              	.LVL17:
 176 0016 58E0     		b	.L64
 177              	.LVL18:
 178              	.L34:
ARM GAS  C:\TEMP\ccdXN0Nh.s 			page 6


 103:.\asp\library/log_output.c **** 			(*putc)(c);
 104:.\asp\library/log_output.c **** 			continue;
 105:.\asp\library/log_output.c **** 		}
 106:.\asp\library/log_output.c **** 
 107:.\asp\library/log_output.c **** 		width = 0U;
 108:.\asp\library/log_output.c **** 		padzero = false;
 109:.\asp\library/log_output.c **** 		if ((c = *format++) == '0') {
 179              		.loc 1 109 0
 180 0018 6078     		ldrb	r0, [r4, #1]	@ zero_extendqisi2
 181              	.LVL19:
 182 001a 3028     		cmp	r0, #48
 183 001c 02D0     		beq	.L36
 184 001e 0234     		adds	r4, r4, #2
 185              	.LVL20:
 108:.\asp\library/log_output.c **** 		padzero = false;
 186              		.loc 1 108 0
 187 0020 0022     		movs	r2, #0
 188 0022 02E0     		b	.L37
 189              	.LVL21:
 190              	.L36:
 110:.\asp\library/log_output.c **** 			padzero = true;
 111:.\asp\library/log_output.c **** 			c = *format++;
 191              		.loc 1 111 0
 192 0024 A078     		ldrb	r0, [r4, #2]	@ zero_extendqisi2
 193              	.LVL22:
 110:.\asp\library/log_output.c **** 			padzero = true;
 194              		.loc 1 110 0
 195 0026 0122     		movs	r2, #1
 196              		.loc 1 111 0
 197 0028 0334     		adds	r4, r4, #3
 198              	.LVL23:
 199              	.L37:
 108:.\asp\library/log_output.c **** 		padzero = false;
 200              		.loc 1 108 0 discriminator 1
 201 002a 0023     		movs	r3, #0
 202              	.LVL24:
 203              	.L38:
 112:.\asp\library/log_output.c **** 		}
 113:.\asp\library/log_output.c **** 		while ('0' <= c && c <= '9') {
 204              		.loc 1 113 0 discriminator 1
 205 002c A0F13001 		sub	r1, r0, #48
 206 0030 0929     		cmp	r1, #9
 207 0032 06D8     		bhi	.L69
 208              	.L39:
 114:.\asp\library/log_output.c **** 			width = width * 10U + c - '0';
 209              		.loc 1 114 0
 210 0034 0A21     		movs	r1, #10
 211 0036 01FB0303 		mla	r3, r1, r3, r0
 212              	.LVL25:
 115:.\asp\library/log_output.c **** 			c = *format++;
 213              		.loc 1 115 0
 214 003a 14F8010B 		ldrb	r0, [r4], #1	@ zero_extendqisi2
 215              	.LVL26:
 114:.\asp\library/log_output.c **** 			width = width * 10U + c - '0';
 216              		.loc 1 114 0
 217 003e 303B     		subs	r3, r3, #48
 218              	.LVL27:
ARM GAS  C:\TEMP\ccdXN0Nh.s 			page 7


 219 0040 F4E7     		b	.L38
 220              	.LVL28:
 221              	.L69:
 116:.\asp\library/log_output.c **** 		}
 117:.\asp\library/log_output.c **** 		if (c == 'l') {
 222              		.loc 1 117 0
 223 0042 6C28     		cmp	r0, #108
 118:.\asp\library/log_output.c **** 			c = *format++;
 224              		.loc 1 118 0
 225 0044 08BF     		it	eq
 226 0046 14F8010B 		ldrbeq	r0, [r4], #1	@ zero_extendqisi2
 227              	.LVL29:
 119:.\asp\library/log_output.c **** 		}
 120:.\asp\library/log_output.c **** 		switch (c) {
 228              		.loc 1 120 0
 229 004a 7028     		cmp	r0, #112
 230 004c 2AD0     		beq	.L46
 231 004e 0DD8     		bhi	.L49
 232 0050 6328     		cmp	r0, #99
 233 0052 37D0     		beq	.L44
 234 0054 07D8     		bhi	.L50
 235 0056 5828     		cmp	r0, #88
 236 0058 2CD0     		beq	.L43
 237 005a D6D8     		bhi	.L63
 238 005c 0028     		cmp	r0, #0
 239 005e 3CD0     		beq	.L41
 240 0060 2528     		cmp	r0, #37
 241 0062 D2D1     		bne	.L63
 242 0064 31E0     		b	.L64
 243              	.L50:
 244 0066 6428     		cmp	r0, #100
 245 0068 CFD1     		bne	.L63
 246 006a 08E0     		b	.L70
 247              	.L49:
 248 006c 7528     		cmp	r0, #117
 249 006e 13D0     		beq	.L48
 250 0070 7828     		cmp	r0, #120
 251 0072 17D0     		beq	.L46
 252 0074 7328     		cmp	r0, #115
 253 0076 C8D1     		bne	.L63
 121:.\asp\library/log_output.c **** 		case 'd':
 122:.\asp\library/log_output.c **** 			val = (intptr_t)(*p_args++);
 123:.\asp\library/log_output.c **** 			if (val >= 0) {
 124:.\asp\library/log_output.c **** 				convert((uintptr_t) val, 10U, raddec,
 125:.\asp\library/log_output.c **** 										width, false, padzero, putc);
 126:.\asp\library/log_output.c **** 			}
 127:.\asp\library/log_output.c **** 			else {
 128:.\asp\library/log_output.c **** 				convert((uintptr_t)(-val), 10U, raddec,
 129:.\asp\library/log_output.c **** 										width, true, padzero, putc);
 130:.\asp\library/log_output.c **** 			}
 131:.\asp\library/log_output.c **** 			break;
 132:.\asp\library/log_output.c **** 		case 'u':
 133:.\asp\library/log_output.c **** 			val = (intptr_t)(*p_args++);
 134:.\asp\library/log_output.c **** 			convert((uintptr_t) val, 10U, raddec, width, false, padzero, putc);
 135:.\asp\library/log_output.c **** 			break;
 136:.\asp\library/log_output.c **** 		case 'x':
 137:.\asp\library/log_output.c **** 		case 'p':
ARM GAS  C:\TEMP\ccdXN0Nh.s 			page 8


 138:.\asp\library/log_output.c **** 			val = (intptr_t)(*p_args++);
 139:.\asp\library/log_output.c **** 			convert((uintptr_t) val, 16U, radhex, width, false, padzero, putc);
 140:.\asp\library/log_output.c **** 			break;
 141:.\asp\library/log_output.c **** 		case 'X':
 142:.\asp\library/log_output.c **** 			val = (intptr_t)(*p_args++);
 143:.\asp\library/log_output.c **** 			convert((uintptr_t) val, 16U, radHEX, width, false, padzero, putc);
 144:.\asp\library/log_output.c **** 			break;
 145:.\asp\library/log_output.c **** 		case 'c':
 146:.\asp\library/log_output.c **** 			(*putc)((char)(intptr_t)(*p_args++));
 147:.\asp\library/log_output.c **** 			break;
 148:.\asp\library/log_output.c **** 		case 's':
 149:.\asp\library/log_output.c **** 			str = (const char *)(*p_args++);
 254              		.loc 1 149 0
 255 0078 55F8047B 		ldr	r7, [r5], #4
 256              	.LVL30:
 150:.\asp\library/log_output.c **** 			while ((c = *str++) != '\0') {
 257              		.loc 1 150 0
 258 007c 27E0     		b	.L52
 259              	.LVL31:
 260              	.L70:
 122:.\asp\library/log_output.c **** 			val = (intptr_t)(*p_args++);
 261              		.loc 1 122 0
 262 007e 55F8040B 		ldr	r0, [r5], #4
 263              	.LVL32:
 123:.\asp\library/log_output.c **** 			if (val >= 0) {
 264              		.loc 1 123 0
 265 0082 0028     		cmp	r0, #0
 266 0084 0ADA     		bge	.L67
 267              	.L51:
 128:.\asp\library/log_output.c **** 				convert((uintptr_t)(-val), 10U, raddec,
 268              		.loc 1 128 0
 269 0086 0121     		movs	r1, #1
 270 0088 8DE84600 		stmia	sp, {r1, r2, r6}
 271 008c 4042     		negs	r0, r0
 272              	.LVL33:
 273              	.L65:
 274 008e 154A     		ldr	r2, .L71
 275 0090 0A21     		movs	r1, #10
 276              	.L66:
 277 0092 FFF7FEFF 		bl	convert
 278              	.LVL34:
 279 0096 B8E7     		b	.L63
 280              	.LVL35:
 281              	.L48:
 133:.\asp\library/log_output.c **** 			val = (intptr_t)(*p_args++);
 282              		.loc 1 133 0
 283 0098 55F8040B 		ldr	r0, [r5], #4
 284              	.LVL36:
 285              	.L67:
 134:.\asp\library/log_output.c **** 			convert((uintptr_t) val, 10U, raddec, width, false, padzero, putc);
 286              		.loc 1 134 0
 287 009c 0021     		movs	r1, #0
 288 009e 8DE84600 		stmia	sp, {r1, r2, r6}
 289 00a2 F4E7     		b	.L65
 290              	.LVL37:
 291              	.L46:
 139:.\asp\library/log_output.c **** 			convert((uintptr_t) val, 16U, radhex, width, false, padzero, putc);
ARM GAS  C:\TEMP\ccdXN0Nh.s 			page 9


 292              		.loc 1 139 0
 293 00a4 0021     		movs	r1, #0
 294 00a6 8DE84600 		stmia	sp, {r1, r2, r6}
 138:.\asp\library/log_output.c **** 			val = (intptr_t)(*p_args++);
 295              		.loc 1 138 0
 296 00aa 55F8040B 		ldr	r0, [r5], #4
 297              	.LVL38:
 139:.\asp\library/log_output.c **** 			convert((uintptr_t) val, 16U, radhex, width, false, padzero, putc);
 298              		.loc 1 139 0
 299 00ae 1021     		movs	r1, #16
 300 00b0 0D4A     		ldr	r2, .L71+4
 301 00b2 EEE7     		b	.L66
 302              	.LVL39:
 303              	.L43:
 143:.\asp\library/log_output.c **** 			convert((uintptr_t) val, 16U, radHEX, width, false, padzero, putc);
 304              		.loc 1 143 0
 305 00b4 0021     		movs	r1, #0
 306 00b6 8DE84600 		stmia	sp, {r1, r2, r6}
 142:.\asp\library/log_output.c **** 			val = (intptr_t)(*p_args++);
 307              		.loc 1 142 0
 308 00ba 55F8040B 		ldr	r0, [r5], #4
 309              	.LVL40:
 143:.\asp\library/log_output.c **** 			convert((uintptr_t) val, 16U, radHEX, width, false, padzero, putc);
 310              		.loc 1 143 0
 311 00be 1021     		movs	r1, #16
 312 00c0 0A4A     		ldr	r2, .L71+8
 313 00c2 E6E7     		b	.L66
 314              	.LVL41:
 315              	.L44:
 146:.\asp\library/log_output.c **** 			(*putc)((char)(intptr_t)(*p_args++));
 316              		.loc 1 146 0
 317 00c4 55F8040B 		ldr	r0, [r5], #4
 318              	.LVL42:
 319 00c8 C0B2     		uxtb	r0, r0
 320              	.LVL43:
 321              	.L64:
 322 00ca B047     		blx	r6
 323              	.LVL44:
 147:.\asp\library/log_output.c **** 			break;
 324              		.loc 1 147 0
 325 00cc 9DE7     		b	.L63
 326              	.LVL45:
 327              	.L52:
 328              		.loc 1 150 0 discriminator 1
 329 00ce 17F8010B 		ldrb	r0, [r7], #1	@ zero_extendqisi2
 330              	.LVL46:
 331 00d2 0028     		cmp	r0, #0
 332 00d4 99D0     		beq	.L63
 333              	.L53:
 151:.\asp\library/log_output.c **** 				(*putc)(c);
 334              		.loc 1 151 0
 335 00d6 B047     		blx	r6
 336              	.LVL47:
 337 00d8 F9E7     		b	.L52
 338              	.LVL48:
 339              	.L41:
 152:.\asp\library/log_output.c **** 			}
ARM GAS  C:\TEMP\ccdXN0Nh.s 			page 10


 153:.\asp\library/log_output.c **** 			break;
 154:.\asp\library/log_output.c **** 		case '%':
 155:.\asp\library/log_output.c **** 			(*putc)('%');
 156:.\asp\library/log_output.c **** 			break;
 157:.\asp\library/log_output.c **** 		case '\0':
 158:.\asp\library/log_output.c **** 			format--;
 340              		.loc 1 158 0
 341 00da 013C     		subs	r4, r4, #1
 342              	.LVL49:
 159:.\asp\library/log_output.c **** 			break;
 343              		.loc 1 159 0
 344 00dc 95E7     		b	.L63
 345              	.LVL50:
 346              	.L68:
 160:.\asp\library/log_output.c **** 		default:
 161:.\asp\library/log_output.c **** 			break;
 162:.\asp\library/log_output.c **** 		}
 163:.\asp\library/log_output.c **** 	}
 164:.\asp\library/log_output.c **** }
 347              		.loc 1 164 0
 348 00de 05B0     		add	sp, sp, #20
 349 00e0 F0BD     		pop	{r4, r5, r6, r7, pc}
 350              	.L72:
 351 00e2 00BF     		.align	2
 352              	.L71:
 353 00e4 00000000 		.word	.LANCHOR0
 354 00e8 0B000000 		.word	.LANCHOR0+11
 355 00ec 1C000000 		.word	.LANCHOR0+28
 356              		.cfi_endproc
 357              	.LFE9:
 358              		.size	syslog_printf, .-syslog_printf
 359              		.section	.text.syslog_print,"ax",%progbits
 360              		.align	1
 361              		.global	syslog_print
 362              		.thumb
 363              		.thumb_func
 364              		.type	syslog_print, %function
 365              	syslog_print:
 366              	.LFB10:
 165:.\asp\library/log_output.c **** 
 166:.\asp\library/log_output.c **** /*
 167:.\asp\library/log_output.c ****  *  ログ情報の出力
 168:.\asp\library/log_output.c ****  */
 169:.\asp\library/log_output.c **** void
 170:.\asp\library/log_output.c **** syslog_print(const SYSLOG *p_syslog, void (*putc)(char))
 171:.\asp\library/log_output.c **** {
 367              		.loc 1 171 0
 368              		.cfi_startproc
 369              		@ args = 0, pretend = 0, frame = 0
 370              		@ frame_needed = 0, uses_anonymous_args = 0
 371              		@ link register save eliminated.
 372              	.LVL51:
 373              		.loc 1 171 0
 374 0000 0A46     		mov	r2, r1
 172:.\asp\library/log_output.c **** 	switch (p_syslog->logtype) {
 375              		.loc 1 172 0
 376 0002 0168     		ldr	r1, [r0, #0]
ARM GAS  C:\TEMP\ccdXN0Nh.s 			page 11


 377              	.LVL52:
 171:.\asp\library/log_output.c **** {
 378              		.loc 1 171 0
 379 0004 0346     		mov	r3, r0
 380              		.loc 1 172 0
 381 0006 0129     		cmp	r1, #1
 382 0008 05D0     		beq	.L75
 383 000a 0229     		cmp	r1, #2
 384 000c 08D1     		bne	.L77
 173:.\asp\library/log_output.c **** 	case LOG_TYPE_COMMENT:
 174:.\asp\library/log_output.c **** 		syslog_printf((const char *)(p_syslog->loginfo[0]),
 175:.\asp\library/log_output.c **** 								&(p_syslog->loginfo[1]), putc);
 176:.\asp\library/log_output.c **** 		break;
 177:.\asp\library/log_output.c **** 	case LOG_TYPE_ASSERT:
 178:.\asp\library/log_output.c **** 		syslog_printf("%s:%u: Assertion `%s' failed.",
 385              		.loc 1 178 0
 386 000e 0548     		ldr	r0, .L79
 387              	.LVL53:
 388 0010 03F10801 		add	r1, r3, #8
 389 0014 02E0     		b	.L78
 390              	.LVL54:
 391              	.L75:
 174:.\asp\library/log_output.c **** 		syslog_printf((const char *)(p_syslog->loginfo[0]),
 392              		.loc 1 174 0
 393 0016 8068     		ldr	r0, [r0, #8]
 394              	.LVL55:
 395 0018 03F10C01 		add	r1, r3, #12
 396              	.L78:
 179:.\asp\library/log_output.c **** 								&(p_syslog->loginfo[0]), putc);
 180:.\asp\library/log_output.c **** 		break;
 181:.\asp\library/log_output.c **** 	default:
 182:.\asp\library/log_output.c **** 		/*
 183:.\asp\library/log_output.c **** 		 *  他の種別のログ情報には対応していない．
 184:.\asp\library/log_output.c **** 		 */
 185:.\asp\library/log_output.c **** 		break;
 186:.\asp\library/log_output.c **** 	}
 187:.\asp\library/log_output.c **** }
 397              		.loc 1 187 0
 178:.\asp\library/log_output.c **** 		syslog_printf("%s:%u: Assertion `%s' failed.",
 398              		.loc 1 178 0
 399 001c FFF7FEBF 		b	syslog_printf
 400              	.LVL56:
 401              	.L77:
 402 0020 7047     		bx	lr
 403              	.L80:
 404 0022 00BF     		.align	2
 405              	.L79:
 406 0024 00000000 		.word	.LC0
 407              		.cfi_endproc
 408              	.LFE10:
 409              		.size	syslog_print, .-syslog_print
 410              		.section	.text.syslog_lostmsg,"ax",%progbits
 411              		.align	1
 412              		.global	syslog_lostmsg
 413              		.thumb
 414              		.thumb_func
 415              		.type	syslog_lostmsg, %function
ARM GAS  C:\TEMP\ccdXN0Nh.s 			page 12


 416              	syslog_lostmsg:
 417              	.LFB11:
 188:.\asp\library/log_output.c **** 
 189:.\asp\library/log_output.c **** /*
 190:.\asp\library/log_output.c ****  *  ログ情報喪失メッセージの出力
 191:.\asp\library/log_output.c ****  */
 192:.\asp\library/log_output.c **** void
 193:.\asp\library/log_output.c **** syslog_lostmsg(uint_t lostlog, void (*putc)(char))
 194:.\asp\library/log_output.c **** {
 418              		.loc 1 194 0
 419              		.cfi_startproc
 420              		@ args = 0, pretend = 0, frame = 8
 421              		@ frame_needed = 0, uses_anonymous_args = 0
 422              	.LVL57:
 423 0000 13B5     		push	{r0, r1, r4, lr}
 424              	.LCFI4:
 425              		.cfi_def_cfa_offset 16
 426              		.cfi_offset 0, -16
 427              		.cfi_offset 1, -12
 428              		.cfi_offset 4, -8
 429              		.cfi_offset 14, -4
 430              		.loc 1 194 0
 431 0002 0C46     		mov	r4, r1
 195:.\asp\library/log_output.c **** 	intptr_t	lostinfo[1];
 196:.\asp\library/log_output.c **** 
 197:.\asp\library/log_output.c **** 	lostinfo[0] = (intptr_t) lostlog;
 432              		.loc 1 197 0
 433 0004 02A9     		add	r1, sp, #8
 434              	.LVL58:
 435 0006 41F8040D 		str	r0, [r1, #-4]!
 198:.\asp\library/log_output.c **** 	syslog_printf("%d messages are lost.", lostinfo, putc);
 436              		.loc 1 198 0
 437 000a 2246     		mov	r2, r4
 438 000c 0248     		ldr	r0, .L82
 439              	.LVL59:
 440 000e FFF7FEFF 		bl	syslog_printf
 441              	.LVL60:
 199:.\asp\library/log_output.c **** 	(*putc)('\n');
 442              		.loc 1 199 0
 443 0012 0A20     		movs	r0, #10
 444 0014 A047     		blx	r4
 445              	.LVL61:
 200:.\asp\library/log_output.c **** }
 446              		.loc 1 200 0
 447 0016 1CBD     		pop	{r2, r3, r4, pc}
 448              	.L83:
 449              		.align	2
 450              	.L82:
 451 0018 1E000000 		.word	.LC1
 452              		.cfi_endproc
 453              	.LFE11:
 454              		.size	syslog_lostmsg, .-syslog_lostmsg
 455              		.section	.rodata
 456              		.set	.LANCHOR0,. + 0
 457              		.type	raddec, %object
 458              		.size	raddec, 11
 459              	raddec:
ARM GAS  C:\TEMP\ccdXN0Nh.s 			page 13


 460 0000 30313233 		.ascii	"0123456789\000"
 460      34353637 
 460      383900
 461              		.type	radhex, %object
 462              		.size	radhex, 17
 463              	radhex:
 464 000b 30313233 		.ascii	"0123456789abcdef\000"
 464      34353637 
 464      38396162 
 464      63646566 
 464      00
 465              		.type	radHEX, %object
 466              		.size	radHEX, 17
 467              	radHEX:
 468 001c 30313233 		.ascii	"0123456789ABCDEF\000"
 468      34353637 
 468      38394142 
 468      43444546 
 468      00
 469              		.section	.rodata.str1.1,"aMS",%progbits,1
 470              	.LC0:
 471 0000 25733A25 		.ascii	"%s:%u: Assertion `%s' failed.\000"
 471      753A2041 
 471      73736572 
 471      74696F6E 
 471      20602573 
 472              	.LC1:
 473 001e 2564206D 		.ascii	"%d messages are lost.\000"
 473      65737361 
 473      67657320 
 473      61726520 
 473      6C6F7374 
 474              		.text
 475              	.Letext0:
 476              		.file 2 ".\\asp\\arch\\gcc/tool_stddef.h"
 477              		.file 3 ".\\asp\\include/t_stddef.h"
 478              		.file 4 ".\\asp\\include/t_syslog.h"