ARM GAS  C:\TEMP\ccwItflk.s 			page 1


   1              		.syntax unified
   2              		.cpu cortex-m3
   3              		.fpu softvfp
   4              		.eabi_attribute 20, 1
   5              		.eabi_attribute 21, 1
   6              		.eabi_attribute 23, 3
   7              		.eabi_attribute 24, 1
   8              		.eabi_attribute 25, 1
   9              		.eabi_attribute 26, 1
  10              		.eabi_attribute 30, 4
  11              		.eabi_attribute 34, 1
  12              		.eabi_attribute 18, 4
  13              		.thumb
  14              		.file	"logtask.c"
  15              		.text
  16              	.Ltext0:
  17              		.cfi_sections	.debug_frame
  18              		.section	.text.logtask_putc,"ax",%progbits
  19              		.align	1
  20              		.thumb
  21              		.thumb_func
  22              		.type	logtask_putc, %function
  23              	logtask_putc:
  24              	.LFB20:
  25              		.file 1 ".\\asp\\syssvc\\logtask.c"
   1:.\asp\syssvc/logtask.c **** /*
   2:.\asp\syssvc/logtask.c ****  *  TOPPERS/ASP Kernel
   3:.\asp\syssvc/logtask.c ****  *      Toyohashi Open Platform for Embedded Real-Time Systems/
   4:.\asp\syssvc/logtask.c ****  *      Advanced Standard Profile Kernel
   5:.\asp\syssvc/logtask.c ****  * 
   6:.\asp\syssvc/logtask.c ****  *  Copyright (C) 2000-2003 by Embedded and Real-Time Systems Laboratory
   7:.\asp\syssvc/logtask.c ****  *                              Toyohashi Univ. of Technology, JAPAN
   8:.\asp\syssvc/logtask.c ****  *  Copyright (C) 2005-2011 by Embedded and Real-Time Systems Laboratory
   9:.\asp\syssvc/logtask.c ****  *              Graduate School of Information Science, Nagoya Univ., JAPAN
  10:.\asp\syssvc/logtask.c ****  * 
  11:.\asp\syssvc/logtask.c ****  *  上記著作権者は，以下の(1)〜(4)の条件を満たす場合に限り，本ソフトウェ
  12:.\asp\syssvc/logtask.c ****  *  ア（本ソフトウェアを改変したものを含む．以下同じ）を使用・複製・改
  13:.\asp\syssvc/logtask.c ****  *  変・再配布（以下，利用と呼ぶ）することを無償で許諾する．
  14:.\asp\syssvc/logtask.c ****  *  (1) 本ソフトウェアをソースコードの形で利用する場合には，上記の著作
  15:.\asp\syssvc/logtask.c ****  *      権表示，この利用条件および下記の無保証規定が，そのままの形でソー
  16:.\asp\syssvc/logtask.c ****  *      スコード中に含まれていること．
  17:.\asp\syssvc/logtask.c ****  *  (2) 本ソフトウェアを，ライブラリ形式など，他のソフトウェア開発に使
  18:.\asp\syssvc/logtask.c ****  *      用できる形で再配布する場合には，再配布に伴うドキュメント（利用
  19:.\asp\syssvc/logtask.c ****  *      者マニュアルなど）に，上記の著作権表示，この利用条件および下記
  20:.\asp\syssvc/logtask.c ****  *      の無保証規定を掲載すること．
  21:.\asp\syssvc/logtask.c ****  *  (3) 本ソフトウェアを，機器に組み込むなど，他のソフトウェア開発に使
  22:.\asp\syssvc/logtask.c ****  *      用できない形で再配布する場合には，次のいずれかの条件を満たすこ
  23:.\asp\syssvc/logtask.c ****  *      と．
  24:.\asp\syssvc/logtask.c ****  *    (a) 再配布に伴うドキュメント（利用者マニュアルなど）に，上記の著
  25:.\asp\syssvc/logtask.c ****  *        作権表示，この利用条件および下記の無保証規定を掲載すること．
  26:.\asp\syssvc/logtask.c ****  *    (b) 再配布の形態を，別に定める方法によって，TOPPERSプロジェクトに
  27:.\asp\syssvc/logtask.c ****  *        報告すること．
  28:.\asp\syssvc/logtask.c ****  *  (4) 本ソフトウェアの利用により直接的または間接的に生じるいかなる損
  29:.\asp\syssvc/logtask.c ****  *      害からも，上記著作権者およびTOPPERSプロジェクトを免責すること．
  30:.\asp\syssvc/logtask.c ****  *      また，本ソフトウェアのユーザまたはエンドユーザからのいかなる理
  31:.\asp\syssvc/logtask.c ****  *      由に基づく請求からも，上記著作権者およびTOPPERSプロジェクトを
  32:.\asp\syssvc/logtask.c ****  *      免責すること．
ARM GAS  C:\TEMP\ccwItflk.s 			page 2


  33:.\asp\syssvc/logtask.c ****  * 
  34:.\asp\syssvc/logtask.c ****  *  本ソフトウェアは，無保証で提供されているものである．上記著作権者お
  35:.\asp\syssvc/logtask.c ****  *  よびTOPPERSプロジェクトは，本ソフトウェアに関して，特定の使用目的
  36:.\asp\syssvc/logtask.c ****  *  に対する適合性も含めて，いかなる保証も行わない．また，本ソフトウェ
  37:.\asp\syssvc/logtask.c ****  *  アの利用により直接的または間接的に生じたいかなる損害に関しても，そ
  38:.\asp\syssvc/logtask.c ****  *  の責任を負わない．
  39:.\asp\syssvc/logtask.c ****  * 
  40:.\asp\syssvc/logtask.c ****  *  @(#) $Id: logtask.c 2246 2011-08-26 22:39:15Z ertl-hiro $
  41:.\asp\syssvc/logtask.c ****  */
  42:.\asp\syssvc/logtask.c **** 
  43:.\asp\syssvc/logtask.c **** /*
  44:.\asp\syssvc/logtask.c ****  *		システムログタスク
  45:.\asp\syssvc/logtask.c ****  */
  46:.\asp\syssvc/logtask.c **** 
  47:.\asp\syssvc/logtask.c **** #include <kernel.h>
  48:.\asp\syssvc/logtask.c **** #include <t_syslog.h>
  49:.\asp\syssvc/logtask.c **** #include <log_output.h>
  50:.\asp\syssvc/logtask.c **** #include "syssvc/serial.h"
  51:.\asp\syssvc/logtask.c **** #include "syssvc/syslog.h"
  52:.\asp\syssvc/logtask.c **** #include "logtask.h"
  53:.\asp\syssvc/logtask.c **** 
  54:.\asp\syssvc/logtask.c **** /*
  55:.\asp\syssvc/logtask.c ****  *  システムログタスクの出力先のポートID
  56:.\asp\syssvc/logtask.c ****  */
  57:.\asp\syssvc/logtask.c **** static ID	logtask_portid;
  58:.\asp\syssvc/logtask.c **** 
  59:.\asp\syssvc/logtask.c **** /*
  60:.\asp\syssvc/logtask.c ****  *  シリアルインタフェースへの1文字出力
  61:.\asp\syssvc/logtask.c ****  */
  62:.\asp\syssvc/logtask.c **** static void
  63:.\asp\syssvc/logtask.c **** logtask_putc(char c)
  64:.\asp\syssvc/logtask.c **** {
  26              		.loc 1 64 0
  27              		.cfi_startproc
  28              		@ args = 0, pretend = 0, frame = 8
  29              		@ frame_needed = 0, uses_anonymous_args = 0
  30              	.LVL0:
  31 0000 07B5     		push	{r0, r1, r2, lr}
  32              	.LCFI0:
  33              		.cfi_def_cfa_offset 16
  34              		.cfi_offset 0, -16
  35              		.cfi_offset 1, -12
  36              		.cfi_offset 2, -8
  37              		.cfi_offset 14, -4
  65:.\asp\syssvc/logtask.c **** 	(void) serial_wri_dat(logtask_portid, &c, 1);
  38              		.loc 1 65 0
  39 0002 044B     		ldr	r3, .L2
  64:.\asp\syssvc/logtask.c **** {
  40              		.loc 1 64 0
  41 0004 02A9     		add	r1, sp, #8
  42 0006 01F8010D 		strb	r0, [r1, #-1]!
  43              		.loc 1 65 0
  44 000a 0122     		movs	r2, #1
  45 000c 1868     		ldr	r0, [r3, #0]
  46              	.LVL1:
  47 000e FFF7FEFF 		bl	serial_wri_dat
  48              	.LVL2:
ARM GAS  C:\TEMP\ccwItflk.s 			page 3


  66:.\asp\syssvc/logtask.c **** }
  49              		.loc 1 66 0
  50 0012 0EBD     		pop	{r1, r2, r3, pc}
  51              	.L3:
  52              		.align	2
  53              	.L2:
  54 0014 00000000 		.word	.LANCHOR0
  55              		.cfi_endproc
  56              	.LFE20:
  57              		.size	logtask_putc, .-logtask_putc
  58              		.section	.text.logtask_flush,"ax",%progbits
  59              		.align	1
  60              		.global	logtask_flush
  61              		.thumb
  62              		.thumb_func
  63              		.type	logtask_flush, %function
  64              	logtask_flush:
  65              	.LFB21:
  67:.\asp\syssvc/logtask.c **** 
  68:.\asp\syssvc/logtask.c **** /*
  69:.\asp\syssvc/logtask.c ****  *  システムログ出力の待ち合わせ
  70:.\asp\syssvc/logtask.c ****  */
  71:.\asp\syssvc/logtask.c **** ER
  72:.\asp\syssvc/logtask.c **** logtask_flush(uint_t count)
  73:.\asp\syssvc/logtask.c **** {
  66              		.loc 1 73 0
  67              		.cfi_startproc
  68              		@ args = 0, pretend = 0, frame = 24
  69              		@ frame_needed = 0, uses_anonymous_args = 0
  70              	.LVL3:
  71 0000 10B5     		push	{r4, lr}
  72              	.LCFI1:
  73              		.cfi_def_cfa_offset 8
  74              		.cfi_offset 4, -8
  75              		.cfi_offset 14, -4
  76 0002 86B0     		sub	sp, sp, #24
  77              	.LCFI2:
  78              		.cfi_def_cfa_offset 32
  79              		.loc 1 73 0
  80 0004 0446     		mov	r4, r0
  74:.\asp\syssvc/logtask.c **** 	T_SYSLOG_RLOG	rlog;
  75:.\asp\syssvc/logtask.c **** 	T_SERIAL_RPOR	rpor;
  76:.\asp\syssvc/logtask.c **** 	ER				ercd, rercd;
  77:.\asp\syssvc/logtask.c **** 
  78:.\asp\syssvc/logtask.c **** 	if (sns_dpn()) {
  81              		.loc 1 78 0
  82 0006 FFF7FEFF 		bl	sns_dpn
  83              	.LVL4:
  84 000a 20BB     		cbnz	r0, .L14
  85              	.L19:
  79:.\asp\syssvc/logtask.c **** 		ercd = E_CTX;
  80:.\asp\syssvc/logtask.c **** 	}
  81:.\asp\syssvc/logtask.c **** 	else {
  82:.\asp\syssvc/logtask.c **** 		for (;;) {
  83:.\asp\syssvc/logtask.c **** 			if (syslog_ref_log(&rlog) < 0) {
  86              		.loc 1 83 0
  87 000c 02A8     		add	r0, sp, #8
ARM GAS  C:\TEMP\ccwItflk.s 			page 4


  88 000e FFF7FEFF 		bl	syslog_ref_log
  89              	.LVL5:
  90 0012 0028     		cmp	r0, #0
  91 0014 02DA     		bge	.L6
  92              	.L11:
  84:.\asp\syssvc/logtask.c **** 				ercd = E_SYS;
  93              		.loc 1 84 0
  94 0016 6FF00400 		mvn	r0, #4
  95 001a 1EE0     		b	.L5
  96              	.L6:
  85:.\asp\syssvc/logtask.c **** 				goto error_exit;
  86:.\asp\syssvc/logtask.c **** 			}
  87:.\asp\syssvc/logtask.c **** 			if (rlog.count <= count) {
  97              		.loc 1 87 0
  98 001c 029B     		ldr	r3, [sp, #8]
  99 001e A342     		cmp	r3, r4
 100 0020 0BD9     		bls	.L7
 101              	.L13:
  88:.\asp\syssvc/logtask.c **** 				if (count == 0U) {
  89:.\asp\syssvc/logtask.c **** 					/*
  90:.\asp\syssvc/logtask.c **** 					 *  countが0の場合には，シリアルバッファが空かを確
  91:.\asp\syssvc/logtask.c **** 					 *  認する．
  92:.\asp\syssvc/logtask.c **** 					 */
  93:.\asp\syssvc/logtask.c **** 					if (serial_ref_por(logtask_portid, &rpor) < 0) {
  94:.\asp\syssvc/logtask.c **** 						ercd = E_SYS;
  95:.\asp\syssvc/logtask.c **** 						goto error_exit;
  96:.\asp\syssvc/logtask.c **** 					}
  97:.\asp\syssvc/logtask.c **** 					if (rpor.wricnt == 0U) {
  98:.\asp\syssvc/logtask.c **** 						ercd = E_OK;
  99:.\asp\syssvc/logtask.c **** 						goto error_exit;
 100:.\asp\syssvc/logtask.c **** 					}
 101:.\asp\syssvc/logtask.c **** 				}
 102:.\asp\syssvc/logtask.c **** 				else {
 103:.\asp\syssvc/logtask.c **** 					ercd = E_OK;
 104:.\asp\syssvc/logtask.c **** 					goto error_exit;
 105:.\asp\syssvc/logtask.c **** 				}
 106:.\asp\syssvc/logtask.c **** 			}
 107:.\asp\syssvc/logtask.c **** 
 108:.\asp\syssvc/logtask.c **** 			/*
 109:.\asp\syssvc/logtask.c **** 			 *  LOGTASK_FLUSH_WAITミリ秒待つ．
 110:.\asp\syssvc/logtask.c **** 			 */
 111:.\asp\syssvc/logtask.c **** 			rercd = dly_tsk(LOGTASK_FLUSH_WAIT);
 102              		.loc 1 111 0
 103 0022 0120     		movs	r0, #1
 104 0024 FFF7FEFF 		bl	dly_tsk
 105              	.LVL6:
 112:.\asp\syssvc/logtask.c **** 			if (rercd < 0) {
 106              		.loc 1 112 0
 107 0028 0028     		cmp	r0, #0
 108 002a EFDA     		bge	.L19
 113:.\asp\syssvc/logtask.c **** 				ercd = (rercd == E_RLWAI) ? rercd : E_SYS;
 109              		.loc 1 113 0
 110 002c 3130     		adds	r0, r0, #49
 111              	.LVL7:
 112 002e 14BF     		ite	ne
 113 0030 6FF00400 		mvnne	r0, #4
 114 0034 6FF03000 		mvneq	r0, #48
ARM GAS  C:\TEMP\ccwItflk.s 			page 5


 115              	.LVL8:
 116 0038 0FE0     		b	.L5
 117              	.L7:
  88:.\asp\syssvc/logtask.c **** 				if (count == 0U) {
 118              		.loc 1 88 0
 119 003a 0CB1     		cbz	r4, .L10
 120              	.L12:
 103:.\asp\syssvc/logtask.c **** 					ercd = E_OK;
 121              		.loc 1 103 0
 122 003c 0020     		movs	r0, #0
 123 003e 0CE0     		b	.L5
 124              	.L10:
  93:.\asp\syssvc/logtask.c **** 					if (serial_ref_por(logtask_portid, &rpor) < 0) {
 125              		.loc 1 93 0
 126 0040 0748     		ldr	r0, .L21
 127 0042 6946     		mov	r1, sp
 128 0044 0068     		ldr	r0, [r0, #0]
 129 0046 FFF7FEFF 		bl	serial_ref_por
 130              	.LVL9:
 131 004a 0028     		cmp	r0, #0
 132 004c E3DB     		blt	.L11
  97:.\asp\syssvc/logtask.c **** 					if (rpor.wricnt == 0U) {
 133              		.loc 1 97 0
 134 004e 0199     		ldr	r1, [sp, #4]
 135 0050 0029     		cmp	r1, #0
 136 0052 E6D1     		bne	.L13
 137 0054 F2E7     		b	.L12
 138              	.L14:
  79:.\asp\syssvc/logtask.c **** 		ercd = E_CTX;
 139              		.loc 1 79 0
 140 0056 6FF01800 		mvn	r0, #24
 141              	.L5:
 142              	.LVL10:
 114:.\asp\syssvc/logtask.c **** 				goto error_exit;
 115:.\asp\syssvc/logtask.c **** 			}
 116:.\asp\syssvc/logtask.c **** 		}
 117:.\asp\syssvc/logtask.c **** 	}
 118:.\asp\syssvc/logtask.c **** 
 119:.\asp\syssvc/logtask.c ****   error_exit:
 120:.\asp\syssvc/logtask.c **** 	return(ercd);
 121:.\asp\syssvc/logtask.c **** }
 143              		.loc 1 121 0
 144 005a 06B0     		add	sp, sp, #24
 145 005c 10BD     		pop	{r4, pc}
 146              	.L22:
 147 005e 00BF     		.align	2
 148              	.L21:
 149 0060 00000000 		.word	.LANCHOR0
 150              		.cfi_endproc
 151              	.LFE21:
 152              		.size	logtask_flush, .-logtask_flush
 153              		.section	.text.logtask_main,"ax",%progbits
 154              		.align	1
 155              		.global	logtask_main
 156              		.thumb
 157              		.thumb_func
 158              		.type	logtask_main, %function
ARM GAS  C:\TEMP\ccwItflk.s 			page 6


 159              	logtask_main:
 160              	.LFB22:
 122:.\asp\syssvc/logtask.c **** 
 123:.\asp\syssvc/logtask.c **** /*
 124:.\asp\syssvc/logtask.c ****  *  システムログタスクの本体
 125:.\asp\syssvc/logtask.c ****  */
 126:.\asp\syssvc/logtask.c **** void
 127:.\asp\syssvc/logtask.c **** logtask_main(intptr_t exinf)
 128:.\asp\syssvc/logtask.c **** {
 161              		.loc 1 128 0
 162              		.cfi_startproc
 163              		@ args = 0, pretend = 0, frame = 32
 164              		@ frame_needed = 0, uses_anonymous_args = 0
 165              	.LVL11:
 166 0000 10B5     		push	{r4, lr}
 167              	.LCFI3:
 168              		.cfi_def_cfa_offset 8
 169              		.cfi_offset 4, -8
 170              		.cfi_offset 14, -4
 129:.\asp\syssvc/logtask.c **** 	SYSLOG	logbuf;
 130:.\asp\syssvc/logtask.c **** 	uint_t	lostlog;
 131:.\asp\syssvc/logtask.c **** 	ER_UINT	rercd;
 132:.\asp\syssvc/logtask.c **** 
 133:.\asp\syssvc/logtask.c **** 	logtask_portid = (ID) exinf;
 171              		.loc 1 133 0
 172 0002 194C     		ldr	r4, .L43
 128:.\asp\syssvc/logtask.c **** {
 173              		.loc 1 128 0
 174 0004 88B0     		sub	sp, sp, #32
 175              	.LCFI4:
 176              		.cfi_def_cfa_offset 40
 177              		.loc 1 133 0
 178 0006 2060     		str	r0, [r4, #0]
 134:.\asp\syssvc/logtask.c **** 	(void) serial_opn_por(logtask_portid);
 179              		.loc 1 134 0
 180 0008 FFF7FEFF 		bl	serial_opn_por
 181              	.LVL12:
 135:.\asp\syssvc/logtask.c **** 	(void) syslog_msk_log(LOG_UPTO(LOG_NOTICE), LOG_UPTO(LOG_EMERG));
 182              		.loc 1 135 0
 183 000c 0121     		movs	r1, #1
 184 000e 3F20     		movs	r0, #63
 185 0010 FFF7FEFF 		bl	syslog_msk_log
 186              	.LVL13:
 187              	.LBB4:
 188              	.LBB5:
 189              		.file 2 ".\\asp\\include/t_syslog.h"
   1:.\asp\include/t_syslog.h **** /*
   2:.\asp\include/t_syslog.h ****  *  TOPPERS/ASP Kernel
   3:.\asp\include/t_syslog.h ****  *      Toyohashi Open Platform for Embedded Real-Time Systems/
   4:.\asp\include/t_syslog.h ****  *      Advanced Standard Profile Kernel
   5:.\asp\include/t_syslog.h ****  * 
   6:.\asp\include/t_syslog.h ****  *  Copyright (C) 2000-2003 by Embedded and Real-Time Systems Laboratory
   7:.\asp\include/t_syslog.h ****  *                              Toyohashi Univ. of Technology, JAPAN
   8:.\asp\include/t_syslog.h ****  *  Copyright (C) 2004-2011 by Embedded and Real-Time Systems Laboratory
   9:.\asp\include/t_syslog.h ****  *              Graduate School of Information Science, Nagoya Univ., JAPAN
  10:.\asp\include/t_syslog.h ****  * 
  11:.\asp\include/t_syslog.h ****  *  上記著作権者は，以下の(1)〜(4)の条件を満たす場合に限り，本ソフトウェ
ARM GAS  C:\TEMP\ccwItflk.s 			page 7


  12:.\asp\include/t_syslog.h ****  *  ア（本ソフトウェアを改変したものを含む．以下同じ）を使用・複製・改
  13:.\asp\include/t_syslog.h ****  *  変・再配布（以下，利用と呼ぶ）することを無償で許諾する．
  14:.\asp\include/t_syslog.h ****  *  (1) 本ソフトウェアをソースコードの形で利用する場合には，上記の著作
  15:.\asp\include/t_syslog.h ****  *      権表示，この利用条件および下記の無保証規定が，そのままの形でソー
  16:.\asp\include/t_syslog.h ****  *      スコード中に含まれていること．
  17:.\asp\include/t_syslog.h ****  *  (2) 本ソフトウェアを，ライブラリ形式など，他のソフトウェア開発に使
  18:.\asp\include/t_syslog.h ****  *      用できる形で再配布する場合には，再配布に伴うドキュメント（利用
  19:.\asp\include/t_syslog.h ****  *      者マニュアルなど）に，上記の著作権表示，この利用条件および下記
  20:.\asp\include/t_syslog.h ****  *      の無保証規定を掲載すること．
  21:.\asp\include/t_syslog.h ****  *  (3) 本ソフトウェアを，機器に組み込むなど，他のソフトウェア開発に使
  22:.\asp\include/t_syslog.h ****  *      用できない形で再配布する場合には，次のいずれかの条件を満たすこ
  23:.\asp\include/t_syslog.h ****  *      と．
  24:.\asp\include/t_syslog.h ****  *    (a) 再配布に伴うドキュメント（利用者マニュアルなど）に，上記の著
  25:.\asp\include/t_syslog.h ****  *        作権表示，この利用条件および下記の無保証規定を掲載すること．
  26:.\asp\include/t_syslog.h ****  *    (b) 再配布の形態を，別に定める方法によって，TOPPERSプロジェクトに
  27:.\asp\include/t_syslog.h ****  *        報告すること．
  28:.\asp\include/t_syslog.h ****  *  (4) 本ソフトウェアの利用により直接的または間接的に生じるいかなる損
  29:.\asp\include/t_syslog.h ****  *      害からも，上記著作権者およびTOPPERSプロジェクトを免責すること．
  30:.\asp\include/t_syslog.h ****  *      また，本ソフトウェアのユーザまたはエンドユーザからのいかなる理
  31:.\asp\include/t_syslog.h ****  *      由に基づく請求からも，上記著作権者およびTOPPERSプロジェクトを
  32:.\asp\include/t_syslog.h ****  *      免責すること．
  33:.\asp\include/t_syslog.h ****  * 
  34:.\asp\include/t_syslog.h ****  *  本ソフトウェアは，無保証で提供されているものである．上記著作権者お
  35:.\asp\include/t_syslog.h ****  *  よびTOPPERSプロジェクトは，本ソフトウェアに関して，特定の使用目的
  36:.\asp\include/t_syslog.h ****  *  に対する適合性も含めて，いかなる保証も行わない．また，本ソフトウェ
  37:.\asp\include/t_syslog.h ****  *  アの利用により直接的または間接的に生じたいかなる損害に関しても，そ
  38:.\asp\include/t_syslog.h ****  *  の責任を負わない．
  39:.\asp\include/t_syslog.h ****  * 
  40:.\asp\include/t_syslog.h ****  *  @(#) $Id: t_syslog.h 2126 2011-06-26 01:07:35Z ertl-hiro $
  41:.\asp\include/t_syslog.h ****  */
  42:.\asp\include/t_syslog.h **** 
  43:.\asp\include/t_syslog.h **** /*
  44:.\asp\include/t_syslog.h ****  *		システムログ出力を行うための定義
  45:.\asp\include/t_syslog.h ****  *
  46:.\asp\include/t_syslog.h ****  *  システムログサービスは，システムのログ情報を出力するためのサービス
  47:.\asp\include/t_syslog.h ****  *  である．カーネルからのログ情報の出力にも用いるため，内部で待ち状態
  48:.\asp\include/t_syslog.h ****  *  にはいることはない．
  49:.\asp\include/t_syslog.h ****  *
  50:.\asp\include/t_syslog.h ****  *  ログ情報は，カーネル内のログバッファに書き込むか，低レベルの文字出
  51:.\asp\include/t_syslog.h ****  *  力関数を用いて出力する．どちらを使うかは，拡張サービスコールで切り
  52:.\asp\include/t_syslog.h ****  *  換えることができる．
  53:.\asp\include/t_syslog.h ****  *
  54:.\asp\include/t_syslog.h ****  *  ログバッファ領域がオーバフローした場合には，古いログ情報を消して上
  55:.\asp\include/t_syslog.h ****  *  書きする．
  56:.\asp\include/t_syslog.h ****  *
  57:.\asp\include/t_syslog.h ****  *  アセンブリ言語のソースファイルからこのファイルをインクルードする時
  58:.\asp\include/t_syslog.h ****  *  は，TOPPERS_MACRO_ONLYを定義しておくことで，マクロ定義以外の記述を
  59:.\asp\include/t_syslog.h ****  *  除くことができる．
  60:.\asp\include/t_syslog.h ****  *
  61:.\asp\include/t_syslog.h ****  *  このファイルをインクルードする前に，t_stddef.hをインクルードしてお
  62:.\asp\include/t_syslog.h ****  *  くことが必要である．
  63:.\asp\include/t_syslog.h ****  */
  64:.\asp\include/t_syslog.h **** 
  65:.\asp\include/t_syslog.h **** #ifndef TOPPERS_T_SYSLOG_H
  66:.\asp\include/t_syslog.h **** #define TOPPERS_T_SYSLOG_H
  67:.\asp\include/t_syslog.h **** 
  68:.\asp\include/t_syslog.h **** #ifdef __cplusplus
ARM GAS  C:\TEMP\ccwItflk.s 			page 8


  69:.\asp\include/t_syslog.h **** extern "C" {
  70:.\asp\include/t_syslog.h **** #endif
  71:.\asp\include/t_syslog.h **** 
  72:.\asp\include/t_syslog.h **** /*
  73:.\asp\include/t_syslog.h ****  *  ログ情報の種別の定義
  74:.\asp\include/t_syslog.h ****  */
  75:.\asp\include/t_syslog.h **** #define LOG_TYPE_COMMENT	UINT_C(0x01)	/* コメント */
  76:.\asp\include/t_syslog.h **** #define LOG_TYPE_ASSERT		UINT_C(0x02)	/* アサーションの失敗 */
  77:.\asp\include/t_syslog.h **** 
  78:.\asp\include/t_syslog.h **** #define LOG_TYPE_INH		UINT_C(0x11)	/* 割込みハンドラ */
  79:.\asp\include/t_syslog.h **** #define LOG_TYPE_ISR		UINT_C(0x12)	/* 割込みサービスルーチン */
  80:.\asp\include/t_syslog.h **** #define LOG_TYPE_CYC		UINT_C(0x13)	/* 周期ハンドラ */
  81:.\asp\include/t_syslog.h **** #define LOG_TYPE_ALM		UINT_C(0x14)	/* アラームハンドラ */
  82:.\asp\include/t_syslog.h **** #define LOG_TYPE_OVR		UINT_C(0x15)	/* オーバランハンドラ */
  83:.\asp\include/t_syslog.h **** #define LOG_TYPE_EXC		UINT_C(0x16)	/* CPU例外ハンドラ */
  84:.\asp\include/t_syslog.h **** #define LOG_TYPE_TEX		UINT_C(0x17)	/* タスク例外処理ルーチン */
  85:.\asp\include/t_syslog.h **** #define LOG_TYPE_TSKSTAT	UINT_C(0x18)	/* タスク状態変化 */
  86:.\asp\include/t_syslog.h **** #define LOG_TYPE_DSP		UINT_C(0x19)	/* ディスパッチャ */
  87:.\asp\include/t_syslog.h **** #define LOG_TYPE_SVC		UINT_C(0x1a)	/* サービスコール */
  88:.\asp\include/t_syslog.h **** 
  89:.\asp\include/t_syslog.h **** #define LOG_ENTER			UINT_C(0x00)	/* 入口／開始 */
  90:.\asp\include/t_syslog.h **** #define LOG_LEAVE			UINT_C(0x80)	/* 出口／終了 */
  91:.\asp\include/t_syslog.h **** 
  92:.\asp\include/t_syslog.h **** /*
  93:.\asp\include/t_syslog.h ****  *  ログ情報の重要度の定義
  94:.\asp\include/t_syslog.h ****  */
  95:.\asp\include/t_syslog.h **** #define LOG_EMERG			UINT_C(0)		/* シャットダウンに値するエラー */
  96:.\asp\include/t_syslog.h **** #define LOG_ALERT			UINT_C(1)
  97:.\asp\include/t_syslog.h **** #define LOG_CRIT			UINT_C(2)
  98:.\asp\include/t_syslog.h **** #define LOG_ERROR			UINT_C(3)		/* システムエラー */
  99:.\asp\include/t_syslog.h **** #define LOG_WARNING			UINT_C(4)		/* 警告メッセージ */
 100:.\asp\include/t_syslog.h **** #define LOG_NOTICE			UINT_C(5)
 101:.\asp\include/t_syslog.h **** #define LOG_INFO			UINT_C(6)
 102:.\asp\include/t_syslog.h **** #define LOG_DEBUG			UINT_C(7)		/* デバッグ用メッセージ */
 103:.\asp\include/t_syslog.h **** 
 104:.\asp\include/t_syslog.h **** #ifndef TOPPERS_MACRO_ONLY
 105:.\asp\include/t_syslog.h **** 
 106:.\asp\include/t_syslog.h **** /*
 107:.\asp\include/t_syslog.h ****  *  ログ情報のデータ構造
 108:.\asp\include/t_syslog.h ****  */
 109:.\asp\include/t_syslog.h **** 
 110:.\asp\include/t_syslog.h **** #define TMAX_LOGINFO	6
 111:.\asp\include/t_syslog.h **** 
 112:.\asp\include/t_syslog.h **** typedef struct {
 113:.\asp\include/t_syslog.h **** 	uint_t		logtype;				/* ログ情報の種別 */
 114:.\asp\include/t_syslog.h **** 	SYSTIM		logtim;					/* ログ時刻 */
 115:.\asp\include/t_syslog.h **** 	intptr_t	loginfo[TMAX_LOGINFO];	/* その他のログ情報 */
 116:.\asp\include/t_syslog.h **** } SYSLOG;
 117:.\asp\include/t_syslog.h **** 
 118:.\asp\include/t_syslog.h **** /*
 119:.\asp\include/t_syslog.h ****  *  ログ情報の重要度のビットマップを作るためのマクロ
 120:.\asp\include/t_syslog.h ****  */
 121:.\asp\include/t_syslog.h **** #define LOG_MASK(prio)		(1U << (prio))
 122:.\asp\include/t_syslog.h **** #define LOG_UPTO(prio)		((1U << ((prio) + 1)) - 1)
 123:.\asp\include/t_syslog.h **** 
 124:.\asp\include/t_syslog.h **** /*
 125:.\asp\include/t_syslog.h ****  *  パケット形式の定義
ARM GAS  C:\TEMP\ccwItflk.s 			page 9


 126:.\asp\include/t_syslog.h ****  */
 127:.\asp\include/t_syslog.h **** typedef struct t_syslog_rlog {
 128:.\asp\include/t_syslog.h **** 	uint_t	count;		/* ログバッファ中のログの数 */
 129:.\asp\include/t_syslog.h **** 	uint_t	lost;		/* 失われたログの数 */
 130:.\asp\include/t_syslog.h **** 	uint_t	logmask;	/* ログバッファに記録すべき重要度 */
 131:.\asp\include/t_syslog.h **** 	uint_t	lowmask;	/* 低レベル出力すべき重要度 */
 132:.\asp\include/t_syslog.h **** } T_SYSLOG_RLOG;
 133:.\asp\include/t_syslog.h **** 
 134:.\asp\include/t_syslog.h **** /*
 135:.\asp\include/t_syslog.h ****  *  ログ情報を出力するためのライブラリ関数
 136:.\asp\include/t_syslog.h ****  */
 137:.\asp\include/t_syslog.h **** 
 138:.\asp\include/t_syslog.h **** #ifndef TOPPERS_OMIT_SYSLOG
 139:.\asp\include/t_syslog.h **** 
 140:.\asp\include/t_syslog.h **** extern ER	syslog_wri_log(uint_t prio, const SYSLOG *p_syslog) throw();
 141:.\asp\include/t_syslog.h **** 
 142:.\asp\include/t_syslog.h **** Inline void
 143:.\asp\include/t_syslog.h **** _syslog_0(uint_t prio, uint_t type)
 144:.\asp\include/t_syslog.h **** {
 145:.\asp\include/t_syslog.h **** 	SYSLOG	logbuf;
 146:.\asp\include/t_syslog.h **** 
 147:.\asp\include/t_syslog.h **** 	logbuf.logtype = type;
 148:.\asp\include/t_syslog.h **** 	(void) syslog_wri_log(prio, &logbuf);
 149:.\asp\include/t_syslog.h **** }
 150:.\asp\include/t_syslog.h **** 
 151:.\asp\include/t_syslog.h **** Inline void
 152:.\asp\include/t_syslog.h **** _syslog_1(uint_t prio, uint_t type, intptr_t arg1)
 153:.\asp\include/t_syslog.h **** {
 154:.\asp\include/t_syslog.h **** 	SYSLOG	logbuf;
 155:.\asp\include/t_syslog.h **** 
 156:.\asp\include/t_syslog.h **** 	logbuf.logtype = type;
 157:.\asp\include/t_syslog.h **** 	logbuf.loginfo[0] = arg1;
 158:.\asp\include/t_syslog.h **** 	(void) syslog_wri_log(prio, &logbuf);
 159:.\asp\include/t_syslog.h **** }
 160:.\asp\include/t_syslog.h **** 
 161:.\asp\include/t_syslog.h **** Inline void
 162:.\asp\include/t_syslog.h **** _syslog_2(uint_t prio, uint_t type, intptr_t arg1, intptr_t arg2)
 163:.\asp\include/t_syslog.h **** {
 164:.\asp\include/t_syslog.h **** 	SYSLOG	logbuf;
 165:.\asp\include/t_syslog.h **** 
 166:.\asp\include/t_syslog.h **** 	logbuf.logtype = type;
 167:.\asp\include/t_syslog.h **** 	logbuf.loginfo[0] = arg1;
 190              		.loc 2 167 0
 191 0014 1548     		ldr	r0, .L43+4
 192              	.LBE5:
 193              	.LBE4:
 136:.\asp\syssvc/logtask.c **** 	syslog_1(LOG_NOTICE, "System logging task is started on port %d.",
 194              		.loc 1 136 0
 195 0016 2368     		ldr	r3, [r4, #0]
 196              	.LVL14:
 197              	.LBB7:
 198              	.LBB6:
 166:.\asp\include/t_syslog.h **** 	logbuf.logtype = type;
 199              		.loc 2 166 0
 200 0018 0122     		movs	r2, #1
 201              		.loc 2 167 0
 202 001a 0290     		str	r0, [sp, #8]
ARM GAS  C:\TEMP\ccwItflk.s 			page 10


 168:.\asp\include/t_syslog.h **** 	logbuf.loginfo[1] = arg2;
 169:.\asp\include/t_syslog.h **** 	(void) syslog_wri_log(prio, &logbuf);
 203              		.loc 2 169 0
 204 001c 6946     		mov	r1, sp
 205 001e 0520     		movs	r0, #5
 166:.\asp\include/t_syslog.h **** 	logbuf.logtype = type;
 206              		.loc 2 166 0
 207 0020 0092     		str	r2, [sp, #0]
 168:.\asp\include/t_syslog.h **** 	logbuf.loginfo[1] = arg2;
 208              		.loc 2 168 0
 209 0022 0393     		str	r3, [sp, #12]
 210              		.loc 2 169 0
 211 0024 FFF7FEFF 		bl	syslog_wri_log
 212              	.LVL15:
 213              	.L41:
 214              	.LBE6:
 215              	.LBE7:
 137:.\asp\syssvc/logtask.c **** 													logtask_portid);
 138:.\asp\syssvc/logtask.c **** 	for (;;) {
 139:.\asp\syssvc/logtask.c **** 		lostlog = 0U;
 140:.\asp\syssvc/logtask.c **** 		while ((rercd = syslog_rea_log(&logbuf)) >= 0) {
 141:.\asp\syssvc/logtask.c **** 			lostlog += (uint_t) rercd;
 142:.\asp\syssvc/logtask.c **** 			if (logbuf.logtype >= LOG_TYPE_COMMENT) {
 143:.\asp\syssvc/logtask.c **** 				if (lostlog > 0U) {
 144:.\asp\syssvc/logtask.c **** 					syslog_lostmsg(lostlog, logtask_putc);
 145:.\asp\syssvc/logtask.c **** 					lostlog = 0U;
 146:.\asp\syssvc/logtask.c **** 				}
 147:.\asp\syssvc/logtask.c **** 				syslog_print(&logbuf, logtask_putc);
 148:.\asp\syssvc/logtask.c **** 				logtask_putc('\n');
 216              		.loc 1 148 0
 217 0028 0024     		movs	r4, #0
 218              	.L40:
 219              	.LVL16:
 140:.\asp\syssvc/logtask.c **** 		while ((rercd = syslog_rea_log(&logbuf)) >= 0) {
 220              		.loc 1 140 0 discriminator 1
 221 002a 6846     		mov	r0, sp
 222 002c FFF7FEFF 		bl	syslog_rea_log
 223              	.LVL17:
 224 0030 0028     		cmp	r0, #0
 225 0032 10DB     		blt	.L42
 226              	.L27:
 142:.\asp\syssvc/logtask.c **** 			if (logbuf.logtype >= LOG_TYPE_COMMENT) {
 227              		.loc 1 142 0
 228 0034 0099     		ldr	r1, [sp, #0]
 141:.\asp\syssvc/logtask.c **** 			lostlog += (uint_t) rercd;
 229              		.loc 1 141 0
 230 0036 2418     		adds	r4, r4, r0
 231              	.LVL18:
 142:.\asp\syssvc/logtask.c **** 			if (logbuf.logtype >= LOG_TYPE_COMMENT) {
 232              		.loc 1 142 0
 233 0038 0029     		cmp	r1, #0
 234 003a F6D0     		beq	.L40
 143:.\asp\syssvc/logtask.c **** 				if (lostlog > 0U) {
 235              		.loc 1 143 0
 236 003c 1CB1     		cbz	r4, .L26
 144:.\asp\syssvc/logtask.c **** 					syslog_lostmsg(lostlog, logtask_putc);
 237              		.loc 1 144 0
ARM GAS  C:\TEMP\ccwItflk.s 			page 11


 238 003e 2046     		mov	r0, r4
 239              	.LVL19:
 240 0040 0B49     		ldr	r1, .L43+8
 241 0042 FFF7FEFF 		bl	syslog_lostmsg
 242              	.LVL20:
 243              	.L26:
 147:.\asp\syssvc/logtask.c **** 				syslog_print(&logbuf, logtask_putc);
 244              		.loc 1 147 0
 245 0046 6846     		mov	r0, sp
 246 0048 0949     		ldr	r1, .L43+8
 247 004a FFF7FEFF 		bl	syslog_print
 248              	.LVL21:
 249              		.loc 1 148 0
 250 004e 0A20     		movs	r0, #10
 251 0050 FFF7FEFF 		bl	logtask_putc
 252              	.LVL22:
 253 0054 E8E7     		b	.L41
 254              	.LVL23:
 255              	.L42:
 149:.\asp\syssvc/logtask.c **** 			}
 150:.\asp\syssvc/logtask.c **** 		}
 151:.\asp\syssvc/logtask.c **** 		if (lostlog > 0U) {
 256              		.loc 1 151 0
 257 0056 1CB1     		cbz	r4, .L28
 152:.\asp\syssvc/logtask.c **** 			syslog_lostmsg(lostlog, logtask_putc);
 258              		.loc 1 152 0
 259 0058 2046     		mov	r0, r4
 260              	.LVL24:
 261 005a 0549     		ldr	r1, .L43+8
 262 005c FFF7FEFF 		bl	syslog_lostmsg
 263              	.LVL25:
 264              	.L28:
 153:.\asp\syssvc/logtask.c **** 		}
 154:.\asp\syssvc/logtask.c **** 		(void) dly_tsk(LOGTASK_INTERVAL);
 265              		.loc 1 154 0
 266 0060 0A20     		movs	r0, #10
 267 0062 FFF7FEFF 		bl	dly_tsk
 268              	.LVL26:
 269 0066 DFE7     		b	.L41
 270              	.L44:
 271              		.align	2
 272              	.L43:
 273 0068 00000000 		.word	.LANCHOR0
 274 006c 00000000 		.word	.LC0
 275 0070 00000000 		.word	logtask_putc
 276              		.cfi_endproc
 277              	.LFE22:
 278              		.size	logtask_main, .-logtask_main
 279              		.section	.text.logtask_terminate,"ax",%progbits
 280              		.align	1
 281              		.global	logtask_terminate
 282              		.thumb
 283              		.thumb_func
 284              		.type	logtask_terminate, %function
 285              	logtask_terminate:
 286              	.LFB23:
 155:.\asp\syssvc/logtask.c **** 	}
ARM GAS  C:\TEMP\ccwItflk.s 			page 12


 156:.\asp\syssvc/logtask.c **** }
 157:.\asp\syssvc/logtask.c **** 
 158:.\asp\syssvc/logtask.c **** /*
 159:.\asp\syssvc/logtask.c ****  *  システムログタスクの終了処理
 160:.\asp\syssvc/logtask.c ****  */
 161:.\asp\syssvc/logtask.c **** void
 162:.\asp\syssvc/logtask.c **** logtask_terminate(intptr_t exinf)
 163:.\asp\syssvc/logtask.c **** {
 287              		.loc 1 163 0
 288              		.cfi_startproc
 289              		@ args = 0, pretend = 0, frame = 40
 290              		@ frame_needed = 0, uses_anonymous_args = 0
 291              	.LVL27:
 292 0000 30B5     		push	{r4, r5, lr}
 293              	.LCFI5:
 294              		.cfi_def_cfa_offset 12
 295              		.cfi_offset 4, -12
 296              		.cfi_offset 5, -8
 297              		.cfi_offset 14, -4
 298 0002 8BB0     		sub	sp, sp, #44
 299              	.LCFI6:
 300              		.cfi_def_cfa_offset 56
 301              	.LVL28:
 302              	.L46:
 164:.\asp\syssvc/logtask.c **** 	char	c;
 165:.\asp\syssvc/logtask.c **** 	SYSLOG	logbuf;
 166:.\asp\syssvc/logtask.c **** 	bool_t	msgflg = false;
 167:.\asp\syssvc/logtask.c **** 	ER_UINT	rercd;
 168:.\asp\syssvc/logtask.c **** 
 169:.\asp\syssvc/logtask.c **** 	/*
 170:.\asp\syssvc/logtask.c **** 	 *  シリアルインタフェースドライバの送信バッファに蓄積されたデータ
 171:.\asp\syssvc/logtask.c **** 	 *  を，低レベル出力機能を用いて出力する．
 172:.\asp\syssvc/logtask.c **** 	 */
 173:.\asp\syssvc/logtask.c **** 	while (serial_get_chr(logtask_portid, &c)) {
 303              		.loc 1 173 0 discriminator 1
 304 0004 144B     		ldr	r3, .L61
 305 0006 0DF10701 		add	r1, sp, #7
 306 000a 1868     		ldr	r0, [r3, #0]
 307 000c FFF7FEFF 		bl	serial_get_chr
 308              	.LVL29:
 309 0010 20B1     		cbz	r0, .L59
 310              	.L47:
 174:.\asp\syssvc/logtask.c **** 		target_fput_log(c);
 311              		.loc 1 174 0
 312 0012 9DF80700 		ldrb	r0, [sp, #7]	@ zero_extendqisi2
 313 0016 FFF7FEFF 		bl	target_fput_log
 314              	.LVL30:
 315 001a F3E7     		b	.L46
 316              	.L59:
 173:.\asp\syssvc/logtask.c **** 	while (serial_get_chr(logtask_portid, &c)) {
 317              		.loc 1 173 0
 318 001c 0446     		mov	r4, r0
 319              	.LVL31:
 320              	.L48:
 175:.\asp\syssvc/logtask.c **** 	}
 176:.\asp\syssvc/logtask.c **** 
 177:.\asp\syssvc/logtask.c **** 	/*
ARM GAS  C:\TEMP\ccwItflk.s 			page 13


 178:.\asp\syssvc/logtask.c **** 	 *  ログバッファに記録されたログ情報を，低レベル出力機能を用いて出
 179:.\asp\syssvc/logtask.c **** 	 *  力する．
 180:.\asp\syssvc/logtask.c **** 	 */
 181:.\asp\syssvc/logtask.c **** 	while ((rercd = syslog_rea_log(&logbuf)) >= 0) {
 321              		.loc 1 181 0 discriminator 1
 322 001e 02A8     		add	r0, sp, #8
 323 0020 FFF7FEFF 		bl	syslog_rea_log
 324              	.LVL32:
 325 0024 051E     		subs	r5, r0, #0
 326 0026 15DB     		blt	.L60
 327              	.L52:
 182:.\asp\syssvc/logtask.c **** 		if (!msgflg) {
 328              		.loc 1 182 0
 329 0028 24B9     		cbnz	r4, .L49
 183:.\asp\syssvc/logtask.c **** 			/*
 184:.\asp\syssvc/logtask.c **** 			 *  ログバッファに残ったログ情報であることを示す文字列を出
 185:.\asp\syssvc/logtask.c **** 			 *  力する．
 186:.\asp\syssvc/logtask.c **** 			 */
 187:.\asp\syssvc/logtask.c **** 			syslog_printf("-- buffered messages --\n", NULL, target_fput_log);
 330              		.loc 1 187 0
 331 002a 0C48     		ldr	r0, .L61+4
 332              	.LVL33:
 333 002c 2146     		mov	r1, r4
 334 002e 0C4A     		ldr	r2, .L61+8
 335 0030 FFF7FEFF 		bl	syslog_printf
 336              	.LVL34:
 337              	.L49:
 188:.\asp\syssvc/logtask.c **** 			msgflg = true;
 189:.\asp\syssvc/logtask.c **** 		}
 190:.\asp\syssvc/logtask.c **** 		if (rercd > 0) {
 338              		.loc 1 190 0
 339 0034 1DB1     		cbz	r5, .L50
 191:.\asp\syssvc/logtask.c **** 			syslog_lostmsg((uint_t) rercd, target_fput_log);
 340              		.loc 1 191 0
 341 0036 2846     		mov	r0, r5
 342 0038 0949     		ldr	r1, .L61+8
 343 003a FFF7FEFF 		bl	syslog_lostmsg
 344              	.LVL35:
 345              	.L50:
 192:.\asp\syssvc/logtask.c **** 		}
 193:.\asp\syssvc/logtask.c **** 		if (logbuf.logtype >= LOG_TYPE_COMMENT) {
 346              		.loc 1 193 0
 347 003e 0298     		ldr	r0, [sp, #8]
 348 0040 30B1     		cbz	r0, .L51
 194:.\asp\syssvc/logtask.c **** 			syslog_print(&logbuf, target_fput_log);
 349              		.loc 1 194 0
 350 0042 02A8     		add	r0, sp, #8
 351 0044 0649     		ldr	r1, .L61+8
 352 0046 FFF7FEFF 		bl	syslog_print
 353              	.LVL36:
 195:.\asp\syssvc/logtask.c **** 			target_fput_log('\n');
 354              		.loc 1 195 0
 355 004a 0A20     		movs	r0, #10
 356 004c FFF7FEFF 		bl	target_fput_log
 357              	.LVL37:
 358              	.L51:
 359 0050 0124     		movs	r4, #1
ARM GAS  C:\TEMP\ccwItflk.s 			page 14


 360 0052 E4E7     		b	.L48
 361              	.LVL38:
 362              	.L60:
 196:.\asp\syssvc/logtask.c **** 		}
 197:.\asp\syssvc/logtask.c **** 	}
 198:.\asp\syssvc/logtask.c **** }
 363              		.loc 1 198 0
 364 0054 0BB0     		add	sp, sp, #44
 365 0056 30BD     		pop	{r4, r5, pc}
 366              	.L62:
 367              		.align	2
 368              	.L61:
 369 0058 00000000 		.word	.LANCHOR0
 370 005c 2B000000 		.word	.LC1
 371 0060 00000000 		.word	target_fput_log
 372              		.cfi_endproc
 373              	.LFE23:
 374              		.size	logtask_terminate, .-logtask_terminate
 375              		.section	.rodata.str1.1,"aMS",%progbits,1
 376              	.LC0:
 377 0000 53797374 		.ascii	"System logging task is started on port %d.\000"
 377      656D206C 
 377      6F676769 
 377      6E672074 
 377      61736B20 
 378              	.LC1:
 379 002b 2D2D2062 		.ascii	"-- buffered messages --\012\000"
 379      75666665 
 379      72656420 
 379      6D657373 
 379      61676573 
 380              		.bss
 381              		.align	2
 382              		.set	.LANCHOR0,. + 0
 383              		.type	logtask_portid, %object
 384              		.size	logtask_portid, 4
 385              	logtask_portid:
 386 0000 00000000 		.space	4
 387              		.text
 388              	.Letext0:
 389              		.file 3 ".\\asp\\arch\\gcc/tool_stddef.h"
 390              		.file 4 ".\\asp\\include/t_stddef.h"
 391              		.file 5 ".\\asp/syssvc/serial.h"
 392              		.file 6 ".\\asp/syssvc/syslog.h"
 393              		.file 7 ".\\asp\\include/kernel.h"
 394              		.file 8 ".\\asp\\include/log_output.h"
 395              		.file 9 ".\\asp\\target\\cy8ckit050_gcc/target_syssvc.h"