ARM GAS  C:\TEMP\ccEaFuvY.s 			page 1


   1              		.syntax unified
   2              		.cpu cortex-m3
   3              		.fpu softvfp
   4              		.eabi_attribute 20, 1
   5              		.eabi_attribute 21, 1
   6              		.eabi_attribute 23, 3
   7              		.eabi_attribute 24, 1
   8              		.eabi_attribute 25, 1
   9              		.eabi_attribute 26, 1
  10              		.eabi_attribute 30, 4
  11              		.eabi_attribute 34, 1
  12              		.eabi_attribute 18, 4
  13              		.thumb
  14              		.file	"sample1.c"
  15              		.text
  16              	.Ltext0:
  17              		.cfi_sections	.debug_frame
  18              		.section	.text.svc_perror.constprop.0,"ax",%progbits
  19              		.align	1
  20              		.thumb
  21              		.thumb_func
  22              		.type	svc_perror.constprop.0, %function
  23              	svc_perror.constprop.0:
  24              	.LFB15:
  25              		.file 1 ".\\asp\\OBJS\\sample1.c"
   1:.\asp\OBJS/sample1.c **** /*
   2:.\asp\OBJS/sample1.c ****  *  TOPPERS/ASP Kernel
   3:.\asp\OBJS/sample1.c ****  *      Toyohashi Open Platform for Embedded Real-Time Systems/
   4:.\asp\OBJS/sample1.c ****  *      Advanced Standard Profile Kernel
   5:.\asp\OBJS/sample1.c ****  * 
   6:.\asp\OBJS/sample1.c ****  *  Copyright (C) 2000-2003 by Embedded and Real-Time Systems Laboratory
   7:.\asp\OBJS/sample1.c ****  *                              Toyohashi Univ. of Technology, JAPAN
   8:.\asp\OBJS/sample1.c ****  *  Copyright (C) 2004-2012 by Embedded and Real-Time Systems Laboratory
   9:.\asp\OBJS/sample1.c ****  *              Graduate School of Information Science, Nagoya Univ., JAPAN
  10:.\asp\OBJS/sample1.c ****  * 
  11:.\asp\OBJS/sample1.c ****  *  上記著作権者は，以下の(1)〜(4)の条件を満たす場合に限り，本ソフトウェ
  12:.\asp\OBJS/sample1.c ****  *  ア（本ソフトウェアを改変したものを含む．以下同じ）を使用・複製・改
  13:.\asp\OBJS/sample1.c ****  *  変・再配布（以下，利用と呼ぶ）することを無償で許諾する．
  14:.\asp\OBJS/sample1.c ****  *  (1) 本ソフトウェアをソースコードの形で利用する場合には，上記の著作
  15:.\asp\OBJS/sample1.c ****  *      権表示，この利用条件および下記の無保証規定が，そのままの形でソー
  16:.\asp\OBJS/sample1.c ****  *      スコード中に含まれていること．
  17:.\asp\OBJS/sample1.c ****  *  (2) 本ソフトウェアを，ライブラリ形式など，他のソフトウェア開発に使
  18:.\asp\OBJS/sample1.c ****  *      用できる形で再配布する場合には，再配布に伴うドキュメント（利用
  19:.\asp\OBJS/sample1.c ****  *      者マニュアルなど）に，上記の著作権表示，この利用条件および下記
  20:.\asp\OBJS/sample1.c ****  *      の無保証規定を掲載すること．
  21:.\asp\OBJS/sample1.c ****  *  (3) 本ソフトウェアを，機器に組み込むなど，他のソフトウェア開発に使
  22:.\asp\OBJS/sample1.c ****  *      用できない形で再配布する場合には，次のいずれかの条件を満たすこ
  23:.\asp\OBJS/sample1.c ****  *      と．
  24:.\asp\OBJS/sample1.c ****  *    (a) 再配布に伴うドキュメント（利用者マニュアルなど）に，上記の著
  25:.\asp\OBJS/sample1.c ****  *        作権表示，この利用条件および下記の無保証規定を掲載すること．
  26:.\asp\OBJS/sample1.c ****  *    (b) 再配布の形態を，別に定める方法によって，TOPPERSプロジェクトに
  27:.\asp\OBJS/sample1.c ****  *        報告すること．
  28:.\asp\OBJS/sample1.c ****  *  (4) 本ソフトウェアの利用により直接的または間接的に生じるいかなる損
  29:.\asp\OBJS/sample1.c ****  *      害からも，上記著作権者およびTOPPERSプロジェクトを免責すること．
  30:.\asp\OBJS/sample1.c ****  *      また，本ソフトウェアのユーザまたはエンドユーザからのいかなる理
  31:.\asp\OBJS/sample1.c ****  *      由に基づく請求からも，上記著作権者およびTOPPERSプロジェクトを
  32:.\asp\OBJS/sample1.c ****  *      免責すること．
ARM GAS  C:\TEMP\ccEaFuvY.s 			page 2


  33:.\asp\OBJS/sample1.c ****  * 
  34:.\asp\OBJS/sample1.c ****  *  本ソフトウェアは，無保証で提供されているものである．上記著作権者お
  35:.\asp\OBJS/sample1.c ****  *  よびTOPPERSプロジェクトは，本ソフトウェアに関して，特定の使用目的
  36:.\asp\OBJS/sample1.c ****  *  に対する適合性も含めて，いかなる保証も行わない．また，本ソフトウェ
  37:.\asp\OBJS/sample1.c ****  *  アの利用により直接的または間接的に生じたいかなる損害に関しても，そ
  38:.\asp\OBJS/sample1.c ****  *  の責任を負わない．
  39:.\asp\OBJS/sample1.c ****  * 
  40:.\asp\OBJS/sample1.c ****  *  $Id: sample1.c 2416 2012-09-07 08:06:20Z ertl-hiro $
  41:.\asp\OBJS/sample1.c ****  */
  42:.\asp\OBJS/sample1.c **** 
  43:.\asp\OBJS/sample1.c **** /* 
  44:.\asp\OBJS/sample1.c ****  *  サンプルプログラム(1)の本体
  45:.\asp\OBJS/sample1.c ****  *
  46:.\asp\OBJS/sample1.c ****  *  ASPカーネルの基本的な動作を確認するためのサンプルプログラム．
  47:.\asp\OBJS/sample1.c ****  *
  48:.\asp\OBJS/sample1.c ****  *  プログラムの概要:
  49:.\asp\OBJS/sample1.c ****  *
  50:.\asp\OBJS/sample1.c ****  *  ユーザインタフェースを受け持つメインタスク（タスクID: MAIN_TASK，優
  51:.\asp\OBJS/sample1.c ****  *  先度: MAIN_PRIORITY）と，3つの並行実行されるタスク（タスクID:
  52:.\asp\OBJS/sample1.c ****  *  TASK1〜TASK3，初期優先度: MID_PRIORITY）で構成される．また，起動周
  53:.\asp\OBJS/sample1.c ****  *  期が2秒の周期ハンドラ（周期ハンドラID: CYCHDR1）を用いる．
  54:.\asp\OBJS/sample1.c ****  *
  55:.\asp\OBJS/sample1.c ****  *  並行実行されるタスクは，task_loop回空ループを実行する度に，タスクが
  56:.\asp\OBJS/sample1.c ****  *  実行中であることをあらわすメッセージを表示する．空ループを実行する
  57:.\asp\OBJS/sample1.c ****  *  のは，空ループなしでメッセージを出力すると，多量のメッセージが出力
  58:.\asp\OBJS/sample1.c ****  *  され，プログラムの動作が確認しずらくなるためである．また，低速なシ
  59:.\asp\OBJS/sample1.c ****  *  リアルポートを用いてメッセージを出力する場合に，すべてのメッセージ
  60:.\asp\OBJS/sample1.c ****  *  が出力できるように，メッセージの量を制限するという理由もある．
  61:.\asp\OBJS/sample1.c ****  *
  62:.\asp\OBJS/sample1.c ****  *  周期ハンドラは，三つの優先度（HIGH_PRIORITY，MID_PRIORITY，
  63:.\asp\OBJS/sample1.c ****  *  LOW_PRIORITY）のレディキューを回転させる．プログラムの起動直後は，
  64:.\asp\OBJS/sample1.c ****  *  周期ハンドラは停止状態になっている．
  65:.\asp\OBJS/sample1.c ****  *
  66:.\asp\OBJS/sample1.c ****  *  メインタスクは，シリアルI/Oポートからの文字入力を行い（文字入力を
  67:.\asp\OBJS/sample1.c ****  *  待っている間は，並行実行されるタスクが実行されている），入力された
  68:.\asp\OBJS/sample1.c ****  *  文字に対応した処理を実行する．入力された文字と処理の関係は次の通り．
  69:.\asp\OBJS/sample1.c ****  *  Control-Cまたは'Q'が入力されると，プログラムを終了する．
  70:.\asp\OBJS/sample1.c ****  *
  71:.\asp\OBJS/sample1.c ****  *  '1' : 対象タスクをTASK1に切り換える（初期設定）．
  72:.\asp\OBJS/sample1.c ****  *  '2' : 対象タスクをTASK2に切り換える．
  73:.\asp\OBJS/sample1.c ****  *  '3' : 対象タスクをTASK3に切り換える．
  74:.\asp\OBJS/sample1.c ****  *  'a' : 対象タスクをact_tskにより起動する．
  75:.\asp\OBJS/sample1.c ****  *  'A' : 対象タスクに対する起動要求をcan_actによりキャンセルする．
  76:.\asp\OBJS/sample1.c ****  *  'e' : 対象タスクにext_tskを呼び出させ，終了させる．
  77:.\asp\OBJS/sample1.c ****  *  't' : 対象タスクをter_tskにより強制終了する．
  78:.\asp\OBJS/sample1.c ****  *  '>' : 対象タスクの優先度をHIGH_PRIORITYにする．
  79:.\asp\OBJS/sample1.c ****  *  '=' : 対象タスクの優先度をMID_PRIORITYにする．
  80:.\asp\OBJS/sample1.c ****  *  '<' : 対象タスクの優先度をLOW_PRIORITYにする．
  81:.\asp\OBJS/sample1.c ****  *  'G' : 対象タスクの優先度をget_priで読み出す．
  82:.\asp\OBJS/sample1.c ****  *  's' : 対象タスクにslp_tskを呼び出させ，起床待ちにさせる．
  83:.\asp\OBJS/sample1.c ****  *  'S' : 対象タスクにtslp_tsk(10秒)を呼び出させ，起床待ちにさせる．
  84:.\asp\OBJS/sample1.c ****  *  'w' : 対象タスクをwup_tskにより起床する．
  85:.\asp\OBJS/sample1.c ****  *  'W' : 対象タスクに対する起床要求をcan_wupによりキャンセルする．
  86:.\asp\OBJS/sample1.c ****  *  'l' : 対象タスクをrel_waiにより強制的に待ち解除にする．
  87:.\asp\OBJS/sample1.c ****  *  'u' : 対象タスクをsus_tskにより強制待ち状態にする．
  88:.\asp\OBJS/sample1.c ****  *  'm' : 対象タスクの強制待ち状態をrsm_tskにより解除する．
  89:.\asp\OBJS/sample1.c ****  *  'd' : 対象タスクにdly_tsk(10秒)を呼び出させ，時間経過待ちにさせる．
ARM GAS  C:\TEMP\ccEaFuvY.s 			page 3


  90:.\asp\OBJS/sample1.c ****  *  'x' : 対象タスクに例外パターン0x0001の例外処理を要求する．
  91:.\asp\OBJS/sample1.c ****  *  'X' : 対象タスクに例外パターン0x0002の例外処理を要求する．
  92:.\asp\OBJS/sample1.c ****  *  'y' : 対象タスクにdis_texを呼び出させ，タスク例外を禁止する．
  93:.\asp\OBJS/sample1.c ****  *  'Y' : 対象タスクにena_texを呼び出させ，タスク例外を許可する．
  94:.\asp\OBJS/sample1.c ****  *  'r' : 3つの優先度（HIGH_PRIORITY，MID_PRIORITY，LOW_PRIORITY）のレ
  95:.\asp\OBJS/sample1.c ****  *        ディキューを回転させる．
  96:.\asp\OBJS/sample1.c ****  *  'c' : 周期ハンドラを動作開始させる．
  97:.\asp\OBJS/sample1.c ****  *  'C' : 周期ハンドラを動作停止させる．
  98:.\asp\OBJS/sample1.c ****  *  'b' : アラームハンドラを5秒後に起動するよう動作開始させる．
  99:.\asp\OBJS/sample1.c ****  *  'B' : アラームハンドラを動作停止させる．
 100:.\asp\OBJS/sample1.c ****  *  'z' : 対象タスクにCPU例外を発生させる（タスクを終了させる）．
 101:.\asp\OBJS/sample1.c ****  *  'Z' : 対象タスクにCPUロック状態でCPU例外を発生させる（プログラムを
 102:.\asp\OBJS/sample1.c ****  *        終了する）．
 103:.\asp\OBJS/sample1.c ****  *  'V' : get_utmで性能評価用システム時刻を2回読む．
 104:.\asp\OBJS/sample1.c ****  *  'v' : 発行したシステムコールを表示する（デフォルト）．
 105:.\asp\OBJS/sample1.c ****  *  'q' : 発行したシステムコールを表示しない．
 106:.\asp\OBJS/sample1.c ****  */
 107:.\asp\OBJS/sample1.c **** 
 108:.\asp\OBJS/sample1.c **** #include <kernel.h>
 109:.\asp\OBJS/sample1.c **** #include <t_syslog.h>
 110:.\asp\OBJS/sample1.c **** #include <t_stdlib.h>
 111:.\asp\OBJS/sample1.c **** #include "syssvc/serial.h"
 112:.\asp\OBJS/sample1.c **** #include "syssvc/syslog.h"
 113:.\asp\OBJS/sample1.c **** #include "kernel_cfg.h"
 114:.\asp\OBJS/sample1.c **** #include "sample1.h"
 115:.\asp\OBJS/sample1.c **** 
 116:.\asp\OBJS/sample1.c **** /*
 117:.\asp\OBJS/sample1.c ****  *  サービスコールのエラーのログ出力
 118:.\asp\OBJS/sample1.c ****  */
 119:.\asp\OBJS/sample1.c **** Inline void
 120:.\asp\OBJS/sample1.c **** svc_perror(const char *file, int_t line, const char *expr, ER ercd)
  26              		.loc 1 120 0
  27              		.cfi_startproc
  28              		@ args = 0, pretend = 0, frame = 0
  29              		@ frame_needed = 0, uses_anonymous_args = 0
  30              	.LVL0:
 121:.\asp\OBJS/sample1.c **** {
 122:.\asp\OBJS/sample1.c **** 	if (ercd < 0) {
  31              		.loc 1 122 0
  32 0000 002A     		cmp	r2, #0
 120:.\asp\OBJS/sample1.c **** svc_perror(const char *file, int_t line, const char *expr, ER ercd)
  33              		.loc 1 120 0
  34 0002 13B5     		push	{r0, r1, r4, lr}
  35              	.LCFI0:
  36              		.cfi_def_cfa_offset 16
  37              		.cfi_offset 0, -16
  38              		.cfi_offset 1, -12
  39              		.cfi_offset 4, -8
  40              		.cfi_offset 14, -4
 120:.\asp\OBJS/sample1.c **** svc_perror(const char *file, int_t line, const char *expr, ER ercd)
  41              		.loc 1 120 0
  42 0004 0B46     		mov	r3, r1
  43 0006 0446     		mov	r4, r0
  44              		.loc 1 122 0
  45 0008 05DA     		bge	.L1
 123:.\asp\OBJS/sample1.c **** 		t_perror(LOG_ERROR, file, line, expr, ercd);
  46              		.loc 1 123 0
ARM GAS  C:\TEMP\ccEaFuvY.s 			page 4


  47 000a 0092     		str	r2, [sp, #0]
  48 000c 0320     		movs	r0, #3
  49              	.LVL1:
  50 000e 0249     		ldr	r1, .L4
  51              	.LVL2:
  52 0010 2246     		mov	r2, r4
  53              	.LVL3:
  54 0012 FFF7FEFF 		bl	t_perror
  55              	.LVL4:
  56              	.L1:
 124:.\asp\OBJS/sample1.c **** 	}
 125:.\asp\OBJS/sample1.c **** }
  57              		.loc 1 125 0
  58 0016 1CBD     		pop	{r2, r3, r4, pc}
  59              	.L5:
  60              		.align	2
  61              	.L4:
  62 0018 00000000 		.word	.LC4
  63              		.cfi_endproc
  64              	.LFE15:
  65              		.size	svc_perror.constprop.0, .-svc_perror.constprop.0
  66              		.section	.text.task,"ax",%progbits
  67              		.align	1
  68              		.global	task
  69              		.thumb
  70              		.thumb_func
  71              		.type	task, %function
  72              	task:
  73              	.LFB9:
 126:.\asp\OBJS/sample1.c **** 
 127:.\asp\OBJS/sample1.c **** #define	SVC_PERROR(expr)	svc_perror(__FILE__, __LINE__, #expr, (expr))
 128:.\asp\OBJS/sample1.c **** 
 129:.\asp\OBJS/sample1.c **** /*
 130:.\asp\OBJS/sample1.c ****  *  並行実行されるタスクへのメッセージ領域
 131:.\asp\OBJS/sample1.c ****  */
 132:.\asp\OBJS/sample1.c **** char	message[3];
 133:.\asp\OBJS/sample1.c **** 
 134:.\asp\OBJS/sample1.c **** /*
 135:.\asp\OBJS/sample1.c ****  *  ループ回数
 136:.\asp\OBJS/sample1.c ****  */
 137:.\asp\OBJS/sample1.c **** ulong_t	task_loop;		/* タスク内でのループ回数 */
 138:.\asp\OBJS/sample1.c **** ulong_t	tex_loop;		/* 例外処理ルーチン内でのループ回数 */
 139:.\asp\OBJS/sample1.c **** 
 140:.\asp\OBJS/sample1.c **** /*
 141:.\asp\OBJS/sample1.c ****  *  並行実行されるタスク
 142:.\asp\OBJS/sample1.c ****  */
 143:.\asp\OBJS/sample1.c **** void task(intptr_t exinf)
 144:.\asp\OBJS/sample1.c **** {
  74              		.loc 1 144 0
  75              		.cfi_startproc
  76              		@ args = 0, pretend = 0, frame = 16
  77              		@ frame_needed = 0, uses_anonymous_args = 0
  78              	.LVL5:
  79 0000 70B5     		push	{r4, r5, r6, lr}
  80              	.LCFI1:
  81              		.cfi_def_cfa_offset 16
  82              		.cfi_offset 4, -16
ARM GAS  C:\TEMP\ccEaFuvY.s 			page 5


  83              		.cfi_offset 5, -12
  84              		.cfi_offset 6, -8
  85              		.cfi_offset 14, -4
 145:.\asp\OBJS/sample1.c **** 	volatile ulong_t	i;
 146:.\asp\OBJS/sample1.c **** 	int_t		n = 0;
 147:.\asp\OBJS/sample1.c **** 	int_t		tskno = (int_t) exinf;
 148:.\asp\OBJS/sample1.c **** 	const char	*graph[] = { "|", "  +", "    *" };
  86              		.loc 1 148 0
  87 0002 524B     		ldr	r3, .L27
 144:.\asp\OBJS/sample1.c **** {
  88              		.loc 1 144 0
  89 0004 86B0     		sub	sp, sp, #24
  90              	.LCFI2:
  91              		.cfi_def_cfa_offset 40
  92              		.loc 1 148 0
  93 0006 06AD     		add	r5, sp, #24
 144:.\asp\OBJS/sample1.c **** {
  94              		.loc 1 144 0
  95 0008 0446     		mov	r4, r0
  96              	.LVL6:
  97              		.loc 1 148 0
  98 000a 93E80700 		ldmia	r3, {r0, r1, r2}
  99              	.LVL7:
 100 000e 05E90700 		stmdb	r5, {r0, r1, r2}
 149:.\asp\OBJS/sample1.c **** 	char		c;
 150:.\asp\OBJS/sample1.c **** 
 151:.\asp\OBJS/sample1.c **** 	SVC_PERROR(ena_tex());
 101              		.loc 1 151 0
 102 0012 FFF7FEFF 		bl	ena_tex
 103              	.LVL8:
 104 0016 4E49     		ldr	r1, .L27+4
 105 0018 0246     		mov	r2, r0
 106 001a 9720     		movs	r0, #151
 107 001c FFF7FEFF 		bl	svc_perror.constprop.0
 108              	.LVL9:
 146:.\asp\OBJS/sample1.c **** 	int_t		n = 0;
 109              		.loc 1 146 0
 110 0020 0025     		movs	r5, #0
 111              	.LVL10:
 112              	.L24:
 152:.\asp\OBJS/sample1.c **** 	while (true) {
 153:.\asp\OBJS/sample1.c **** 		syslog(LOG_NOTICE, "task%d is running (%03d).   %s",
 113              		.loc 1 153 0
 114 0022 06AA     		add	r2, sp, #24
 154:.\asp\OBJS/sample1.c **** 										tskno, ++n, graph[tskno-1]);
 115              		.loc 1 154 0
 116 0024 661E     		subs	r6, r4, #1
 153:.\asp\OBJS/sample1.c **** 		syslog(LOG_NOTICE, "task%d is running (%03d).   %s",
 117              		.loc 1 153 0
 118 0026 02EB8600 		add	r0, r2, r6, lsl #2
 119 002a 50F80C1C 		ldr	r1, [r0, #-12]
 120 002e 0135     		adds	r5, r5, #1
 121              	.LVL11:
 122 0030 0091     		str	r1, [sp, #0]
 123 0032 2246     		mov	r2, r4
 124 0034 2B46     		mov	r3, r5
 125 0036 0520     		movs	r0, #5
ARM GAS  C:\TEMP\ccEaFuvY.s 			page 6


 126 0038 4649     		ldr	r1, .L27+8
 127 003a FFF7FEFF 		bl	syslog
 128              	.LVL12:
 155:.\asp\OBJS/sample1.c **** 		for (i = 0; i < task_loop; i++);
 129              		.loc 1 155 0
 130 003e 464A     		ldr	r2, .L27+12
 131 0040 0023     		movs	r3, #0
 132 0042 0293     		str	r3, [sp, #8]
 133 0044 1368     		ldr	r3, [r2, #0]
 134              	.L9:
 135              		.loc 1 155 0 is_stmt 0 discriminator 1
 136 0046 0298     		ldr	r0, [sp, #8]
 137 0048 9842     		cmp	r0, r3
 138 004a 03D2     		bcs	.L26
 139              	.L10:
 140              		.loc 1 155 0 discriminator 2
 141 004c 0298     		ldr	r0, [sp, #8]
 142 004e 421C     		adds	r2, r0, #1
 143              	.LVL13:
 144 0050 0292     		str	r2, [sp, #8]
 145              	.LVL14:
 146 0052 F8E7     		b	.L9
 147              	.L26:
 156:.\asp\OBJS/sample1.c **** 		c = message[tskno-1];
 148              		.loc 1 156 0 is_stmt 1
 149 0054 414B     		ldr	r3, .L27+16
 157:.\asp\OBJS/sample1.c **** 		message[tskno-1] = 0;
 150              		.loc 1 157 0
 151 0056 0021     		movs	r1, #0
 156:.\asp\OBJS/sample1.c **** 		c = message[tskno-1];
 152              		.loc 1 156 0
 153 0058 9A5D     		ldrb	r2, [r3, r6]	@ zero_extendqisi2
 154              	.LVL15:
 155              		.loc 1 157 0
 156 005a 9955     		strb	r1, [r3, r6]
 158:.\asp\OBJS/sample1.c **** 		switch (c) {
 157              		.loc 1 158 0
 158 005c 642A     		cmp	r2, #100
 159 005e 3CD0     		beq	.L14
 160 0060 12D8     		bhi	.L19
 161 0062 592A     		cmp	r2, #89
 162 0064 51D0     		beq	.L12
 163 0066 5A2A     		cmp	r2, #90
 164 0068 5AD0     		beq	.L13
 165 006a 532A     		cmp	r2, #83
 166 006c D9D1     		bne	.L24
 159:.\asp\OBJS/sample1.c **** 		case 'e':
 160:.\asp\OBJS/sample1.c **** 			syslog(LOG_INFO, "#%d#ext_tsk()", tskno);
 161:.\asp\OBJS/sample1.c **** 			SVC_PERROR(ext_tsk());
 162:.\asp\OBJS/sample1.c **** 			assert(0);
 163:.\asp\OBJS/sample1.c **** 		case 's':
 164:.\asp\OBJS/sample1.c **** 			syslog(LOG_INFO, "#%d#slp_tsk()", tskno);
 165:.\asp\OBJS/sample1.c **** 			SVC_PERROR(slp_tsk());
 166:.\asp\OBJS/sample1.c **** 			break;
 167:.\asp\OBJS/sample1.c **** 		case 'S':
 168:.\asp\OBJS/sample1.c **** 			syslog(LOG_INFO, "#%d#tslp_tsk(10000)", tskno);
 167              		.loc 1 168 0
ARM GAS  C:\TEMP\ccEaFuvY.s 			page 7


 168 006e 3C49     		ldr	r1, .L27+20
 169 0070 2246     		mov	r2, r4
 170 0072 0620     		movs	r0, #6
 171 0074 FFF7FEFF 		bl	syslog
 172              	.LVL16:
 169:.\asp\OBJS/sample1.c **** 			SVC_PERROR(tslp_tsk(10000));
 173              		.loc 1 169 0
 174 0078 42F21070 		movw	r0, #10000
 175 007c FFF7FEFF 		bl	tslp_tsk
 176              	.LVL17:
 177 0080 3849     		ldr	r1, .L27+24
 178 0082 0246     		mov	r2, r0
 179 0084 A920     		movs	r0, #169
 180 0086 5EE0     		b	.L25
 181              	.LVL18:
 182              	.L19:
 158:.\asp\OBJS/sample1.c **** 		switch (c) {
 183              		.loc 1 158 0
 184 0088 732A     		cmp	r2, #115
 185 008a 1BD0     		beq	.L16
 186 008c 0ED8     		bhi	.L20
 187 008e 652A     		cmp	r2, #101
 188 0090 C7D1     		bne	.L24
 160:.\asp\OBJS/sample1.c **** 			syslog(LOG_INFO, "#%d#ext_tsk()", tskno);
 189              		.loc 1 160 0
 190 0092 2246     		mov	r2, r4
 191 0094 0620     		movs	r0, #6
 192 0096 3449     		ldr	r1, .L27+28
 193 0098 FFF7FEFF 		bl	syslog
 194              	.LVL19:
 161:.\asp\OBJS/sample1.c **** 			SVC_PERROR(ext_tsk());
 195              		.loc 1 161 0
 196 009c FFF7FEFF 		bl	ext_tsk
 197              	.LVL20:
 198 00a0 3249     		ldr	r1, .L27+32
 199 00a2 0246     		mov	r2, r0
 200 00a4 A120     		movs	r0, #161
 201 00a6 FFF7FEFF 		bl	svc_perror.constprop.0
 202              	.LVL21:
 203 00aa 0BE0     		b	.L16
 204              	.LVL22:
 205              	.L20:
 158:.\asp\OBJS/sample1.c **** 		switch (c) {
 206              		.loc 1 158 0
 207 00ac 792A     		cmp	r2, #121
 208 00ae 21D0     		beq	.L17
 209 00b0 7A2A     		cmp	r2, #122
 210 00b2 B6D1     		bne	.L24
 170:.\asp\OBJS/sample1.c **** 			break;
 171:.\asp\OBJS/sample1.c **** 		case 'd':
 172:.\asp\OBJS/sample1.c **** 			syslog(LOG_INFO, "#%d#dly_tsk(10000)", tskno);
 173:.\asp\OBJS/sample1.c **** 			SVC_PERROR(dly_tsk(10000));
 174:.\asp\OBJS/sample1.c **** 			break;
 175:.\asp\OBJS/sample1.c **** 		case 'y':
 176:.\asp\OBJS/sample1.c **** 			syslog(LOG_INFO, "#%d#dis_tex()", tskno);
 177:.\asp\OBJS/sample1.c **** 			SVC_PERROR(dis_tex());
 178:.\asp\OBJS/sample1.c **** 			break;
ARM GAS  C:\TEMP\ccEaFuvY.s 			page 8


 179:.\asp\OBJS/sample1.c **** 		case 'Y':
 180:.\asp\OBJS/sample1.c **** 			syslog(LOG_INFO, "#%d#ena_tex()", tskno);
 181:.\asp\OBJS/sample1.c **** 			SVC_PERROR(ena_tex());
 182:.\asp\OBJS/sample1.c **** 			break;
 183:.\asp\OBJS/sample1.c **** #ifdef CPUEXC1
 184:.\asp\OBJS/sample1.c **** 		case 'z':
 185:.\asp\OBJS/sample1.c **** 			syslog(LOG_NOTICE, "#%d#raise CPU exception", tskno);
 211              		.loc 1 185 0
 212 00b4 0520     		movs	r0, #5
 213 00b6 2E49     		ldr	r1, .L27+36
 214 00b8 2246     		mov	r2, r4
 215 00ba FFF7FEFF 		bl	syslog
 216              	.LVL23:
 186:.\asp\OBJS/sample1.c **** 			RAISE_CPU_EXCEPTION;
 217              		.loc 1 186 0
 218              	@ 186 ".\asp\OBJS\sample1.c" 1
 219 00be 02EE101F 		mcr p15, 0, r1, c2, c0, 0
 220              	@ 0 "" 2
 187:.\asp\OBJS/sample1.c **** 			break;
 221              		.loc 1 187 0
 222              		.thumb
 223 00c2 AEE7     		b	.L24
 224              	.L16:
 164:.\asp\OBJS/sample1.c **** 			syslog(LOG_INFO, "#%d#slp_tsk()", tskno);
 225              		.loc 1 164 0
 226 00c4 2B49     		ldr	r1, .L27+40
 227 00c6 2246     		mov	r2, r4
 228 00c8 0620     		movs	r0, #6
 229 00ca FFF7FEFF 		bl	syslog
 230              	.LVL24:
 165:.\asp\OBJS/sample1.c **** 			SVC_PERROR(slp_tsk());
 231              		.loc 1 165 0
 232 00ce FFF7FEFF 		bl	slp_tsk
 233              	.LVL25:
 234 00d2 2949     		ldr	r1, .L27+44
 235 00d4 0246     		mov	r2, r0
 236 00d6 A520     		movs	r0, #165
 237 00d8 35E0     		b	.L25
 238              	.LVL26:
 239              	.L14:
 172:.\asp\OBJS/sample1.c **** 			syslog(LOG_INFO, "#%d#dly_tsk(10000)", tskno);
 240              		.loc 1 172 0
 241 00da 2849     		ldr	r1, .L27+48
 242 00dc 2246     		mov	r2, r4
 243 00de 0620     		movs	r0, #6
 244 00e0 FFF7FEFF 		bl	syslog
 245              	.LVL27:
 173:.\asp\OBJS/sample1.c **** 			SVC_PERROR(dly_tsk(10000));
 246              		.loc 1 173 0
 247 00e4 42F21070 		movw	r0, #10000
 248 00e8 FFF7FEFF 		bl	dly_tsk
 249              	.LVL28:
 250 00ec 2449     		ldr	r1, .L27+52
 251 00ee 0246     		mov	r2, r0
 252 00f0 AD20     		movs	r0, #173
 253 00f2 28E0     		b	.L25
 254              	.LVL29:
ARM GAS  C:\TEMP\ccEaFuvY.s 			page 9


 255              	.L17:
 176:.\asp\OBJS/sample1.c **** 			syslog(LOG_INFO, "#%d#dis_tex()", tskno);
 256              		.loc 1 176 0
 257 00f4 2349     		ldr	r1, .L27+56
 258 00f6 2246     		mov	r2, r4
 259 00f8 0620     		movs	r0, #6
 260 00fa FFF7FEFF 		bl	syslog
 261              	.LVL30:
 177:.\asp\OBJS/sample1.c **** 			SVC_PERROR(dis_tex());
 262              		.loc 1 177 0
 263 00fe FFF7FEFF 		bl	dis_tex
 264              	.LVL31:
 265 0102 2149     		ldr	r1, .L27+60
 266 0104 0246     		mov	r2, r0
 267 0106 B120     		movs	r0, #177
 268 0108 1DE0     		b	.L25
 269              	.LVL32:
 270              	.L12:
 180:.\asp\OBJS/sample1.c **** 			syslog(LOG_INFO, "#%d#ena_tex()", tskno);
 271              		.loc 1 180 0
 272 010a 2049     		ldr	r1, .L27+64
 273 010c 2246     		mov	r2, r4
 274 010e 0620     		movs	r0, #6
 275 0110 FFF7FEFF 		bl	syslog
 276              	.LVL33:
 181:.\asp\OBJS/sample1.c **** 			SVC_PERROR(ena_tex());
 277              		.loc 1 181 0
 278 0114 FFF7FEFF 		bl	ena_tex
 279              	.LVL34:
 280 0118 0D49     		ldr	r1, .L27+4
 281 011a 0246     		mov	r2, r0
 282 011c B520     		movs	r0, #181
 283 011e 12E0     		b	.L25
 284              	.LVL35:
 285              	.L13:
 188:.\asp\OBJS/sample1.c **** 		case 'Z':
 189:.\asp\OBJS/sample1.c **** 			SVC_PERROR(loc_cpu());
 286              		.loc 1 189 0
 287 0120 FFF7FEFF 		bl	loc_cpu
 288              	.LVL36:
 289 0124 1A49     		ldr	r1, .L27+68
 290 0126 0246     		mov	r2, r0
 291 0128 BD20     		movs	r0, #189
 292 012a FFF7FEFF 		bl	svc_perror.constprop.0
 293              	.LVL37:
 190:.\asp\OBJS/sample1.c **** 			syslog(LOG_NOTICE, "#%d#raise CPU exception", tskno);
 294              		.loc 1 190 0
 295 012e 0520     		movs	r0, #5
 296 0130 0F49     		ldr	r1, .L27+36
 297 0132 2246     		mov	r2, r4
 298 0134 FFF7FEFF 		bl	syslog
 299              	.LVL38:
 191:.\asp\OBJS/sample1.c **** 			RAISE_CPU_EXCEPTION;
 300              		.loc 1 191 0
 301              	@ 191 ".\asp\OBJS\sample1.c" 1
 302 0138 02EE101F 		mcr p15, 0, r1, c2, c0, 0
 303              	@ 0 "" 2
ARM GAS  C:\TEMP\ccEaFuvY.s 			page 10


 192:.\asp\OBJS/sample1.c **** 			SVC_PERROR(unl_cpu());
 304              		.loc 1 192 0
 305              		.thumb
 306 013c FFF7FEFF 		bl	unl_cpu
 307              	.LVL39:
 308 0140 1449     		ldr	r1, .L27+72
 309 0142 0246     		mov	r2, r0
 310 0144 C020     		movs	r0, #192
 311              	.L25:
 312 0146 FFF7FEFF 		bl	svc_perror.constprop.0
 313              	.LVL40:
 193:.\asp\OBJS/sample1.c **** 			break;
 314              		.loc 1 193 0
 315 014a 6AE7     		b	.L24
 316              	.L28:
 317              		.align	2
 318              	.L27:
 319 014c 00000000 		.word	.LANCHOR0
 320 0150 15000000 		.word	.LC6
 321 0154 1F000000 		.word	.LC7
 322 0158 00000000 		.word	task_loop
 323 015c 00000000 		.word	message
 324 0160 6E000000 		.word	.LC12
 325 0164 82000000 		.word	.LC13
 326 0168 3E000000 		.word	.LC8
 327 016c 4C000000 		.word	.LC9
 328 0170 DA000000 		.word	.LC19
 329 0174 56000000 		.word	.LC10
 330 0178 64000000 		.word	.LC11
 331 017c 92000000 		.word	.LC14
 332 0180 A5000000 		.word	.LC15
 333 0184 B4000000 		.word	.LC16
 334 0188 C2000000 		.word	.LC17
 335 018c CC000000 		.word	.LC18
 336 0190 F2000000 		.word	.LC20
 337 0194 FC000000 		.word	.LC21
 338              		.cfi_endproc
 339              	.LFE9:
 340              		.size	task, .-task
 341              		.section	.text.tex_routine,"ax",%progbits
 342              		.align	1
 343              		.global	tex_routine
 344              		.thumb
 345              		.thumb_func
 346              		.type	tex_routine, %function
 347              	tex_routine:
 348              	.LFB10:
 194:.\asp\OBJS/sample1.c **** #endif /* CPUEXC1 */
 195:.\asp\OBJS/sample1.c **** 		default:
 196:.\asp\OBJS/sample1.c **** 			break;
 197:.\asp\OBJS/sample1.c **** 		}
 198:.\asp\OBJS/sample1.c **** 	}
 199:.\asp\OBJS/sample1.c **** }
 200:.\asp\OBJS/sample1.c **** 
 201:.\asp\OBJS/sample1.c **** /*
 202:.\asp\OBJS/sample1.c ****  *  並行して実行されるタスク用のタスク例外処理ルーチン
 203:.\asp\OBJS/sample1.c ****  */
ARM GAS  C:\TEMP\ccEaFuvY.s 			page 11


 204:.\asp\OBJS/sample1.c **** void tex_routine(TEXPTN texptn, intptr_t exinf)
 205:.\asp\OBJS/sample1.c **** {
 349              		.loc 1 205 0
 350              		.cfi_startproc
 351              		@ args = 0, pretend = 0, frame = 8
 352              		@ frame_needed = 0, uses_anonymous_args = 0
 353              	.LVL41:
 354 0000 37B5     		push	{r0, r1, r2, r4, r5, lr}
 355              	.LCFI3:
 356              		.cfi_def_cfa_offset 24
 357              		.cfi_offset 0, -24
 358              		.cfi_offset 1, -20
 359              		.cfi_offset 2, -16
 360              		.cfi_offset 4, -12
 361              		.cfi_offset 5, -8
 362              		.cfi_offset 14, -4
 363              		.loc 1 205 0
 364 0002 0546     		mov	r5, r0
 365 0004 0C46     		mov	r4, r1
 366              	.LVL42:
 206:.\asp\OBJS/sample1.c **** 	volatile ulong_t	i;
 207:.\asp\OBJS/sample1.c **** 	int_t	tskno = (int_t) exinf;
 208:.\asp\OBJS/sample1.c **** 
 209:.\asp\OBJS/sample1.c **** 	syslog(LOG_NOTICE, "task%d receives exception 0x%04x.", tskno, texptn);
 367              		.loc 1 209 0
 368 0006 0520     		movs	r0, #5
 369              	.LVL43:
 370 0008 0F49     		ldr	r1, .L37
 371              	.LVL44:
 372 000a 2B46     		mov	r3, r5
 373 000c 2246     		mov	r2, r4
 374 000e FFF7FEFF 		bl	syslog
 375              	.LVL45:
 210:.\asp\OBJS/sample1.c **** 	for (i = 0; i < tex_loop; i++);
 376              		.loc 1 210 0
 377 0012 0E48     		ldr	r0, .L37+4
 378 0014 0023     		movs	r3, #0
 379 0016 0168     		ldr	r1, [r0, #0]
 380 0018 0193     		str	r3, [sp, #4]
 381              	.LVL46:
 382              	.L30:
 383              		.loc 1 210 0 is_stmt 0 discriminator 1
 384 001a 019A     		ldr	r2, [sp, #4]
 385 001c 8A42     		cmp	r2, r1
 386 001e 03D2     		bcs	.L36
 387              	.L31:
 388              		.loc 1 210 0 discriminator 2
 389 0020 019B     		ldr	r3, [sp, #4]
 390 0022 581C     		adds	r0, r3, #1
 391              	.LVL47:
 392 0024 0190     		str	r0, [sp, #4]
 393              	.LVL48:
 394 0026 F8E7     		b	.L30
 395              	.L36:
 211:.\asp\OBJS/sample1.c **** 
 212:.\asp\OBJS/sample1.c **** 	if ((texptn & 0x8000U) != 0U) {
 396              		.loc 1 212 0 is_stmt 1
ARM GAS  C:\TEMP\ccEaFuvY.s 			page 12


 397 0028 2B04     		lsls	r3, r5, #16
 398 002a 0BD5     		bpl	.L29
 213:.\asp\OBJS/sample1.c **** 		syslog(LOG_INFO, "#%d#ext_tsk()", tskno);
 399              		.loc 1 213 0
 400 002c 0849     		ldr	r1, .L37+8
 401 002e 2246     		mov	r2, r4
 402 0030 0620     		movs	r0, #6
 403 0032 FFF7FEFF 		bl	syslog
 404              	.LVL49:
 214:.\asp\OBJS/sample1.c **** 		SVC_PERROR(ext_tsk());
 405              		.loc 1 214 0
 406 0036 FFF7FEFF 		bl	ext_tsk
 407              	.LVL50:
 408 003a 0649     		ldr	r1, .L37+12
 409 003c 0246     		mov	r2, r0
 410 003e D620     		movs	r0, #214
 411 0040 FFF7FEFF 		bl	svc_perror.constprop.0
 412              	.LVL51:
 413              	.L29:
 215:.\asp\OBJS/sample1.c **** 		assert(0);
 216:.\asp\OBJS/sample1.c **** 	}
 217:.\asp\OBJS/sample1.c **** }
 414              		.loc 1 217 0
 415 0044 3EBD     		pop	{r1, r2, r3, r4, r5, pc}
 416              	.L38:
 417 0046 00BF     		.align	2
 418              	.L37:
 419 0048 06010000 		.word	.LC22
 420 004c 00000000 		.word	tex_loop
 421 0050 3E000000 		.word	.LC8
 422 0054 4C000000 		.word	.LC9
 423              		.cfi_endproc
 424              	.LFE10:
 425              		.size	tex_routine, .-tex_routine
 426              		.section	.text.cpuexc_handler,"ax",%progbits
 427              		.align	1
 428              		.global	cpuexc_handler
 429              		.thumb
 430              		.thumb_func
 431              		.type	cpuexc_handler, %function
 432              	cpuexc_handler:
 433              	.LFB11:
 218:.\asp\OBJS/sample1.c **** 
 219:.\asp\OBJS/sample1.c **** /*
 220:.\asp\OBJS/sample1.c ****  *  CPU例外ハンドラ
 221:.\asp\OBJS/sample1.c ****  */
 222:.\asp\OBJS/sample1.c **** #ifdef CPUEXC1
 223:.\asp\OBJS/sample1.c **** 
 224:.\asp\OBJS/sample1.c **** void
 225:.\asp\OBJS/sample1.c **** cpuexc_handler(void *p_excinf)
 226:.\asp\OBJS/sample1.c **** {
 434              		.loc 1 226 0
 435              		.cfi_startproc
 436              		@ args = 0, pretend = 0, frame = 8
 437              		@ frame_needed = 0, uses_anonymous_args = 0
 438              	.LVL52:
 439 0000 7FB5     		push	{r0, r1, r2, r3, r4, r5, r6, lr}
ARM GAS  C:\TEMP\ccEaFuvY.s 			page 13


 440              	.LCFI4:
 441              		.cfi_def_cfa_offset 32
 442              		.cfi_offset 0, -32
 443              		.cfi_offset 1, -28
 444              		.cfi_offset 2, -24
 445              		.cfi_offset 3, -20
 446              		.cfi_offset 4, -16
 447              		.cfi_offset 5, -12
 448              		.cfi_offset 6, -8
 449              		.cfi_offset 14, -4
 450              		.loc 1 226 0
 451 0002 0446     		mov	r4, r0
 227:.\asp\OBJS/sample1.c **** 	ID		tskid;
 228:.\asp\OBJS/sample1.c **** 
 229:.\asp\OBJS/sample1.c **** 	syslog(LOG_NOTICE, "CPU exception handler (p_excinf = %08p).", p_excinf);
 452              		.loc 1 229 0
 453 0004 2949     		ldr	r1, .L52
 454 0006 0520     		movs	r0, #5
 455              	.LVL53:
 456 0008 2246     		mov	r2, r4
 457 000a FFF7FEFF 		bl	syslog
 458              	.LVL54:
 230:.\asp\OBJS/sample1.c **** 	if (sns_ctx() != true) {
 459              		.loc 1 230 0
 460 000e FFF7FEFF 		bl	sns_ctx
 461              	.LVL55:
 462 0012 0128     		cmp	r0, #1
 463 0014 03D0     		beq	.L40
 231:.\asp\OBJS/sample1.c **** 		syslog(LOG_WARNING,
 464              		.loc 1 231 0
 465 0016 0420     		movs	r0, #4
 466 0018 2549     		ldr	r1, .L52+4
 467 001a FFF7FEFF 		bl	syslog
 468              	.LVL56:
 469              	.L40:
 232:.\asp\OBJS/sample1.c **** 					"sns_ctx() is not true in CPU exception handler.");
 233:.\asp\OBJS/sample1.c **** 	}
 234:.\asp\OBJS/sample1.c **** 	if (sns_dpn() != true) {
 470              		.loc 1 234 0
 471 001e FFF7FEFF 		bl	sns_dpn
 472              	.LVL57:
 473 0022 0128     		cmp	r0, #1
 474 0024 03D0     		beq	.L41
 235:.\asp\OBJS/sample1.c **** 		syslog(LOG_WARNING,
 475              		.loc 1 235 0
 476 0026 0420     		movs	r0, #4
 477 0028 2249     		ldr	r1, .L52+8
 478 002a FFF7FEFF 		bl	syslog
 479              	.LVL58:
 480              	.L41:
 236:.\asp\OBJS/sample1.c **** 					"sns_dpn() is not true in CPU exception handler.");
 237:.\asp\OBJS/sample1.c **** 	}
 238:.\asp\OBJS/sample1.c **** 	syslog(LOG_INFO, "sns_loc = %d sns_dsp = %d sns_tex = %d",
 481              		.loc 1 238 0
 482 002e FFF7FEFF 		bl	sns_loc
 483              	.LVL59:
 484 0032 0646     		mov	r6, r0
ARM GAS  C:\TEMP\ccEaFuvY.s 			page 14


 485 0034 FFF7FEFF 		bl	sns_dsp
 486              	.LVL60:
 487 0038 0546     		mov	r5, r0
 488 003a FFF7FEFF 		bl	sns_tex
 489              	.LVL61:
 490 003e 2B46     		mov	r3, r5
 491 0040 1D49     		ldr	r1, .L52+12
 492 0042 3246     		mov	r2, r6
 493 0044 0090     		str	r0, [sp, #0]
 494 0046 0620     		movs	r0, #6
 495 0048 FFF7FEFF 		bl	syslog
 496              	.LVL62:
 239:.\asp\OBJS/sample1.c **** 									sns_loc(), sns_dsp(), sns_tex());
 240:.\asp\OBJS/sample1.c **** 	syslog(LOG_INFO, "xsns_dpn = %d xsns_xpn = %d",
 497              		.loc 1 240 0
 498 004c 2046     		mov	r0, r4
 499 004e FFF7FEFF 		bl	xsns_dpn
 500              	.LVL63:
 501 0052 0546     		mov	r5, r0
 502 0054 2046     		mov	r0, r4
 503 0056 FFF7FEFF 		bl	xsns_xpn
 504              	.LVL64:
 505 005a 1849     		ldr	r1, .L52+16
 506 005c 0346     		mov	r3, r0
 507 005e 2A46     		mov	r2, r5
 508 0060 0620     		movs	r0, #6
 509 0062 FFF7FEFF 		bl	syslog
 510              	.LVL65:
 241:.\asp\OBJS/sample1.c **** 									xsns_dpn(p_excinf), xsns_xpn(p_excinf));
 242:.\asp\OBJS/sample1.c **** 
 243:.\asp\OBJS/sample1.c **** 	if (xsns_xpn(p_excinf)) {
 511              		.loc 1 243 0
 512 0066 2046     		mov	r0, r4
 513 0068 FFF7FEFF 		bl	xsns_xpn
 514              	.LVL66:
 515 006c 50B1     		cbz	r0, .L42
 244:.\asp\OBJS/sample1.c **** 		syslog(LOG_NOTICE, "Sample program ends with exception.");
 516              		.loc 1 244 0
 517 006e 1449     		ldr	r1, .L52+20
 518 0070 0520     		movs	r0, #5
 519 0072 FFF7FEFF 		bl	syslog
 520              	.LVL67:
 245:.\asp\OBJS/sample1.c **** 		SVC_PERROR(ext_ker());
 521              		.loc 1 245 0
 522 0076 FFF7FEFF 		bl	ext_ker
 523              	.LVL68:
 524 007a 1249     		ldr	r1, .L52+24
 525 007c 0246     		mov	r2, r0
 526 007e F520     		movs	r0, #245
 527 0080 FFF7FEFF 		bl	svc_perror.constprop.0
 528              	.LVL69:
 529              	.L42:
 246:.\asp\OBJS/sample1.c **** 		assert(0);
 247:.\asp\OBJS/sample1.c **** 	}
 248:.\asp\OBJS/sample1.c **** 
 249:.\asp\OBJS/sample1.c **** 	SVC_PERROR(iget_tid(&tskid));
 530              		.loc 1 249 0
ARM GAS  C:\TEMP\ccEaFuvY.s 			page 15


 531 0084 03A8     		add	r0, sp, #12
 532 0086 FFF7FEFF 		bl	iget_tid
 533              	.LVL70:
 534 008a 0F49     		ldr	r1, .L52+28
 535 008c 0246     		mov	r2, r0
 536 008e F920     		movs	r0, #249
 537 0090 FFF7FEFF 		bl	svc_perror.constprop.0
 538              	.LVL71:
 250:.\asp\OBJS/sample1.c **** 	SVC_PERROR(iras_tex(tskid, 0x8000U));
 539              		.loc 1 250 0
 540 0094 0398     		ldr	r0, [sp, #12]
 541 0096 4FF40041 		mov	r1, #32768
 542 009a FFF7FEFF 		bl	iras_tex
 543              	.LVL72:
 544 009e 0B49     		ldr	r1, .L52+32
 545 00a0 0246     		mov	r2, r0
 546 00a2 FA20     		movs	r0, #250
 547 00a4 FFF7FEFF 		bl	svc_perror.constprop.0
 548              	.LVL73:
 251:.\asp\OBJS/sample1.c **** }
 549              		.loc 1 251 0
 550 00a8 7FBD     		pop	{r0, r1, r2, r3, r4, r5, r6, pc}
 551              	.L53:
 552 00aa 00BF     		.align	2
 553              	.L52:
 554 00ac 28010000 		.word	.LC23
 555 00b0 51010000 		.word	.LC24
 556 00b4 81010000 		.word	.LC25
 557 00b8 B1010000 		.word	.LC26
 558 00bc D8010000 		.word	.LC27
 559 00c0 F4010000 		.word	.LC28
 560 00c4 18020000 		.word	.LC29
 561 00c8 22020000 		.word	.LC30
 562 00cc 33020000 		.word	.LC31
 563              		.cfi_endproc
 564              	.LFE11:
 565              		.size	cpuexc_handler, .-cpuexc_handler
 566              		.section	.text.cyclic_handler,"ax",%progbits
 567              		.align	1
 568              		.global	cyclic_handler
 569              		.thumb
 570              		.thumb_func
 571              		.type	cyclic_handler, %function
 572              	cyclic_handler:
 573              	.LFB12:
 252:.\asp\OBJS/sample1.c **** 
 253:.\asp\OBJS/sample1.c **** #endif /* CPUEXC1 */
 254:.\asp\OBJS/sample1.c **** 
 255:.\asp\OBJS/sample1.c **** /*
 256:.\asp\OBJS/sample1.c ****  *  周期ハンドラ
 257:.\asp\OBJS/sample1.c ****  *
 258:.\asp\OBJS/sample1.c ****  *  HIGH_PRIORITY，MID_PRIORITY，LOW_PRIORITY の各優先度のレディキュー
 259:.\asp\OBJS/sample1.c ****  *  を回転させる．
 260:.\asp\OBJS/sample1.c ****  */
 261:.\asp\OBJS/sample1.c **** void cyclic_handler(intptr_t exinf)
 262:.\asp\OBJS/sample1.c **** {
 574              		.loc 1 262 0
ARM GAS  C:\TEMP\ccEaFuvY.s 			page 16


 575              		.cfi_startproc
 576              		@ args = 0, pretend = 0, frame = 0
 577              		@ frame_needed = 0, uses_anonymous_args = 0
 578              	.LVL74:
 579 0000 08B5     		push	{r3, lr}
 580              	.LCFI5:
 581              		.cfi_def_cfa_offset 8
 582              		.cfi_offset 3, -8
 583              		.cfi_offset 14, -4
 263:.\asp\OBJS/sample1.c **** 	SVC_PERROR(irot_rdq(HIGH_PRIORITY));
 584              		.loc 1 263 0
 585 0002 0920     		movs	r0, #9
 586              	.LVL75:
 587 0004 FFF7FEFF 		bl	irot_rdq
 588              	.LVL76:
 589 0008 0C49     		ldr	r1, .L55
 590 000a 0246     		mov	r2, r0
 591 000c 40F20710 		movw	r0, #263
 592 0010 FFF7FEFF 		bl	svc_perror.constprop.0
 593              	.LVL77:
 264:.\asp\OBJS/sample1.c **** 	SVC_PERROR(irot_rdq(MID_PRIORITY));
 594              		.loc 1 264 0
 595 0014 0A20     		movs	r0, #10
 596 0016 FFF7FEFF 		bl	irot_rdq
 597              	.LVL78:
 598 001a 0949     		ldr	r1, .L55+4
 599 001c 0246     		mov	r2, r0
 600 001e 4FF48470 		mov	r0, #264
 601 0022 FFF7FEFF 		bl	svc_perror.constprop.0
 602              	.LVL79:
 265:.\asp\OBJS/sample1.c **** 	SVC_PERROR(irot_rdq(LOW_PRIORITY));
 603              		.loc 1 265 0
 604 0026 0B20     		movs	r0, #11
 605 0028 FFF7FEFF 		bl	irot_rdq
 606              	.LVL80:
 607 002c 0549     		ldr	r1, .L55+8
 608 002e 0246     		mov	r2, r0
 609 0030 40F20910 		movw	r0, #265
 266:.\asp\OBJS/sample1.c **** }
 610              		.loc 1 266 0
 611 0034 BDE80840 		pop	{r3, lr}
 265:.\asp\OBJS/sample1.c **** 	SVC_PERROR(irot_rdq(LOW_PRIORITY));
 612              		.loc 1 265 0
 613 0038 FFF7FEBF 		b	svc_perror.constprop.0
 614              	.LVL81:
 615              	.L56:
 616              		.align	2
 617              	.L55:
 618 003c 4C020000 		.word	.LC32
 619 0040 64020000 		.word	.LC33
 620 0044 7B020000 		.word	.LC34
 621              		.cfi_endproc
 622              	.LFE12:
 623              		.size	cyclic_handler, .-cyclic_handler
 624              		.section	.text.alarm_handler,"ax",%progbits
 625              		.align	1
 626              		.global	alarm_handler
ARM GAS  C:\TEMP\ccEaFuvY.s 			page 17


 627              		.thumb
 628              		.thumb_func
 629              		.type	alarm_handler, %function
 630              	alarm_handler:
 631              	.LFB13:
 267:.\asp\OBJS/sample1.c **** 
 268:.\asp\OBJS/sample1.c **** /*
 269:.\asp\OBJS/sample1.c ****  *  アラームハンドラ
 270:.\asp\OBJS/sample1.c ****  *
 271:.\asp\OBJS/sample1.c ****  *  HIGH_PRIORITY，MID_PRIORITY，LOW_PRIORITY の各優先度のレディキュー
 272:.\asp\OBJS/sample1.c ****  *  を回転させる．
 273:.\asp\OBJS/sample1.c ****  */
 274:.\asp\OBJS/sample1.c **** void alarm_handler(intptr_t exinf)
 275:.\asp\OBJS/sample1.c **** {
 632              		.loc 1 275 0
 633              		.cfi_startproc
 634              		@ args = 0, pretend = 0, frame = 0
 635              		@ frame_needed = 0, uses_anonymous_args = 0
 636              	.LVL82:
 637 0000 08B5     		push	{r3, lr}
 638              	.LCFI6:
 639              		.cfi_def_cfa_offset 8
 640              		.cfi_offset 3, -8
 641              		.cfi_offset 14, -4
 276:.\asp\OBJS/sample1.c **** 	SVC_PERROR(irot_rdq(HIGH_PRIORITY));
 642              		.loc 1 276 0
 643 0002 0920     		movs	r0, #9
 644              	.LVL83:
 645 0004 FFF7FEFF 		bl	irot_rdq
 646              	.LVL84:
 647 0008 0C49     		ldr	r1, .L58
 648 000a 0246     		mov	r2, r0
 649 000c 4FF48A70 		mov	r0, #276
 650 0010 FFF7FEFF 		bl	svc_perror.constprop.0
 651              	.LVL85:
 277:.\asp\OBJS/sample1.c **** 	SVC_PERROR(irot_rdq(MID_PRIORITY));
 652              		.loc 1 277 0
 653 0014 0A20     		movs	r0, #10
 654 0016 FFF7FEFF 		bl	irot_rdq
 655              	.LVL86:
 656 001a 0949     		ldr	r1, .L58+4
 657 001c 0246     		mov	r2, r0
 658 001e 40F21510 		movw	r0, #277
 659 0022 FFF7FEFF 		bl	svc_perror.constprop.0
 660              	.LVL87:
 278:.\asp\OBJS/sample1.c **** 	SVC_PERROR(irot_rdq(LOW_PRIORITY));
 661              		.loc 1 278 0
 662 0026 0B20     		movs	r0, #11
 663 0028 FFF7FEFF 		bl	irot_rdq
 664              	.LVL88:
 665 002c 0549     		ldr	r1, .L58+8
 666 002e 0246     		mov	r2, r0
 667 0030 4FF48B70 		mov	r0, #278
 279:.\asp\OBJS/sample1.c **** }
 668              		.loc 1 279 0
 669 0034 BDE80840 		pop	{r3, lr}
 278:.\asp\OBJS/sample1.c **** 	SVC_PERROR(irot_rdq(LOW_PRIORITY));
ARM GAS  C:\TEMP\ccEaFuvY.s 			page 18


 670              		.loc 1 278 0
 671 0038 FFF7FEBF 		b	svc_perror.constprop.0
 672              	.LVL89:
 673              	.L59:
 674              		.align	2
 675              	.L58:
 676 003c 4C020000 		.word	.LC32
 677 0040 64020000 		.word	.LC33
 678 0044 7B020000 		.word	.LC34
 679              		.cfi_endproc
 680              	.LFE13:
 681              		.size	alarm_handler, .-alarm_handler
 682              		.section	.text.main_task,"ax",%progbits
 683              		.align	1
 684              		.global	main_task
 685              		.thumb
 686              		.thumb_func
 687              		.type	main_task, %function
 688              	main_task:
 689              	.LFB14:
 280:.\asp\OBJS/sample1.c **** 
 281:.\asp\OBJS/sample1.c **** /*
 282:.\asp\OBJS/sample1.c ****  *  メインタスク
 283:.\asp\OBJS/sample1.c ****  */
 284:.\asp\OBJS/sample1.c **** void main_task(intptr_t exinf)
 285:.\asp\OBJS/sample1.c **** {
 690              		.loc 1 285 0
 691              		.cfi_startproc
 692              		@ args = 0, pretend = 0, frame = 32
 693              		@ frame_needed = 0, uses_anonymous_args = 0
 694              	.LVL90:
 695 0000 70B5     		push	{r4, r5, r6, lr}
 696              	.LCFI7:
 697              		.cfi_def_cfa_offset 16
 698              		.cfi_offset 4, -16
 699              		.cfi_offset 5, -12
 700              		.cfi_offset 6, -8
 701              		.cfi_offset 14, -4
 286:.\asp\OBJS/sample1.c **** 	char	c;
 287:.\asp\OBJS/sample1.c **** 	ID		tskid = TASK1;
 288:.\asp\OBJS/sample1.c **** 	int_t	tskno = 1;
 289:.\asp\OBJS/sample1.c **** 	ER_UINT	ercd;
 290:.\asp\OBJS/sample1.c **** 	PRI		tskpri;
 291:.\asp\OBJS/sample1.c **** #ifndef TASK_LOOP
 292:.\asp\OBJS/sample1.c **** 	volatile ulong_t	i;
 293:.\asp\OBJS/sample1.c **** 	SYSTIM	stime1, stime2;
 294:.\asp\OBJS/sample1.c **** #endif /* TASK_LOOP */
 295:.\asp\OBJS/sample1.c **** #ifdef TOPPERS_SUPPORT_GET_UTM
 296:.\asp\OBJS/sample1.c **** 	SYSUTM	utime1, utime2;
 297:.\asp\OBJS/sample1.c **** #endif /* TOPPERS_SUPPORT_GET_UTM */
 298:.\asp\OBJS/sample1.c **** 
 299:.\asp\OBJS/sample1.c **** 	SVC_PERROR(syslog_msk_log(LOG_UPTO(LOG_INFO), LOG_UPTO(LOG_EMERG)));
 702              		.loc 1 299 0
 703 0002 0121     		movs	r1, #1
 285:.\asp\OBJS/sample1.c **** {
 704              		.loc 1 285 0
 705 0004 88B0     		sub	sp, sp, #32
ARM GAS  C:\TEMP\ccEaFuvY.s 			page 19


 706              	.LCFI8:
 707              		.cfi_def_cfa_offset 48
 285:.\asp\OBJS/sample1.c **** {
 708              		.loc 1 285 0
 709 0006 0446     		mov	r4, r0
 710              		.loc 1 299 0
 711 0008 7F20     		movs	r0, #127
 712              	.LVL91:
 713 000a FFF7FEFF 		bl	syslog_msk_log
 714              	.LVL92:
 715 000e A549     		ldr	r1, .L106
 716 0010 0246     		mov	r2, r0
 717 0012 40F22B10 		movw	r0, #299
 718 0016 FFF7FEFF 		bl	svc_perror.constprop.0
 719              	.LVL93:
 300:.\asp\OBJS/sample1.c **** 	syslog(LOG_NOTICE, "Sample program starts (exinf = %d).", (int_t) exinf);
 720              		.loc 1 300 0
 721 001a 0520     		movs	r0, #5
 722 001c A249     		ldr	r1, .L106+4
 723 001e 2246     		mov	r2, r4
 724 0020 FFF7FEFF 		bl	syslog
 725              	.LVL94:
 301:.\asp\OBJS/sample1.c **** 
 302:.\asp\OBJS/sample1.c **** 	/*
 303:.\asp\OBJS/sample1.c **** 	 *  シリアルポートの初期化
 304:.\asp\OBJS/sample1.c **** 	 *
 305:.\asp\OBJS/sample1.c **** 	 *  システムログタスクと同じシリアルポートを使う場合など，シリアル
 306:.\asp\OBJS/sample1.c **** 	 *  ポートがオープン済みの場合にはここでE_OBJエラーになるが，支障は
 307:.\asp\OBJS/sample1.c **** 	 *  ない．
 308:.\asp\OBJS/sample1.c **** 	 */
 309:.\asp\OBJS/sample1.c **** 	ercd = serial_opn_por(TASK_PORTID);
 726              		.loc 1 309 0
 727 0024 0120     		movs	r0, #1
 728 0026 FFF7FEFF 		bl	serial_opn_por
 729              	.LVL95:
 310:.\asp\OBJS/sample1.c **** 	if (ercd < 0 && MERCD(ercd) != E_OBJ) {
 730              		.loc 1 310 0
 731 002a 051E     		subs	r5, r0, #0
 732 002c 0ADA     		bge	.L61
 733              		.loc 1 310 0 is_stmt 0 discriminator 1
 734 002e 6BB2     		sxtb	r3, r5
 735 0030 2933     		adds	r3, r3, #41
 736 0032 07D0     		beq	.L61
 311:.\asp\OBJS/sample1.c **** 		syslog(LOG_ERROR, "%s (%d) reported by `serial_opn_por'.",
 737              		.loc 1 311 0 is_stmt 1
 738 0034 FFF7FEFF 		bl	itron_strerror
 739              	.LVL96:
 740 0038 9C49     		ldr	r1, .L106+8
 741 003a 0246     		mov	r2, r0
 742 003c 2B12     		asrs	r3, r5, #8
 743 003e 0320     		movs	r0, #3
 744 0040 FFF7FEFF 		bl	syslog
 745              	.LVL97:
 746              	.L61:
 312:.\asp\OBJS/sample1.c **** 									itron_strerror(ercd), SERCD(ercd));
 313:.\asp\OBJS/sample1.c **** 	}
 314:.\asp\OBJS/sample1.c **** 	SVC_PERROR(serial_ctl_por(TASK_PORTID,
ARM GAS  C:\TEMP\ccEaFuvY.s 			page 20


 747              		.loc 1 314 0
 748 0044 4FF4A261 		mov	r1, #1296
 749 0048 0120     		movs	r0, #1
 750 004a FFF7FEFF 		bl	serial_ctl_por
 751              	.LVL98:
 752 004e 9849     		ldr	r1, .L106+12
 753 0050 0246     		mov	r2, r0
 754 0052 40F23B10 		movw	r0, #315
 755 0056 FFF7FEFF 		bl	svc_perror.constprop.0
 756              	.LVL99:
 315:.\asp\OBJS/sample1.c **** 							(IOCTL_CRLF | IOCTL_FCSND | IOCTL_FCRCV)));
 316:.\asp\OBJS/sample1.c **** 
 317:.\asp\OBJS/sample1.c **** 	/*
 318:.\asp\OBJS/sample1.c ****  	 *  ループ回数の設定
 319:.\asp\OBJS/sample1.c **** 	 *
 320:.\asp\OBJS/sample1.c **** 	 *  並行実行されるタスク内での空ループの回数（task_loop）は，空ルー
 321:.\asp\OBJS/sample1.c **** 	 *  プの実行時間が約0.4秒になるように設定する．この設定のために，
 322:.\asp\OBJS/sample1.c **** 	 *  LOOP_REF回の空ループの実行時間を，その前後でget_timを呼ぶことで
 323:.\asp\OBJS/sample1.c **** 	 *  測定し，その測定結果から空ループの実行時間が0.4秒になるループ回
 324:.\asp\OBJS/sample1.c **** 	 *  数を求め，task_loopに設定する．
 325:.\asp\OBJS/sample1.c **** 	 *
 326:.\asp\OBJS/sample1.c **** 	 *  LOOP_REFは，デフォルトでは1,000,000に設定しているが，想定したよ
 327:.\asp\OBJS/sample1.c **** 	 *  り遅いプロセッサでは，サンプルプログラムの実行開始に時間がかか
 328:.\asp\OBJS/sample1.c **** 	 *  りすぎるという問題を生じる．逆に想定したより速いプロセッサでは，
 329:.\asp\OBJS/sample1.c **** 	 *  LOOP_REF回の空ループの実行時間が短くなり，task_loopに設定する値
 330:.\asp\OBJS/sample1.c **** 	 *  の誤差が大きくなるという問題がある．
 331:.\asp\OBJS/sample1.c **** 	 *
 332:.\asp\OBJS/sample1.c **** 	 *  そこで，そのようなターゲットでは，target_test.hで，LOOP_REFを適
 333:.\asp\OBJS/sample1.c **** 	 *  切な値に定義するのが望ましい．
 334:.\asp\OBJS/sample1.c **** 	 *
 335:.\asp\OBJS/sample1.c **** 	 *  また，task_loopの値を固定したい場合には，その値をTASK_LOOPにマ
 336:.\asp\OBJS/sample1.c **** 	 *  クロ定義する．TASK_LOOPがマクロ定義されている場合，上記の測定を
 337:.\asp\OBJS/sample1.c **** 	 *  行わずに，TASK_LOOPに定義された値を空ループの回数とする．
 338:.\asp\OBJS/sample1.c **** 	 *
 339:.\asp\OBJS/sample1.c **** 	 * ターゲットによっては，空ループの実行時間の1回目の測定で，本来よ
 340:.\asp\OBJS/sample1.c **** 	 * りも長めになるものがある．このようなターゲットでは，MEASURE_TWICE
 341:.\asp\OBJS/sample1.c **** 	 * をマクロ定義することで，1回目の測定結果を捨てて，2回目の測定結果
 342:.\asp\OBJS/sample1.c **** 	 * を使う．
 343:.\asp\OBJS/sample1.c **** 	 *
 344:.\asp\OBJS/sample1.c **** 	 *  タスク例外処理ルーチン内での空ループの回数（tex_loop）は，
 345:.\asp\OBJS/sample1.c **** 	 *  task_loopの4分の1の値（空ループの実行時間が0.1秒になるループ回
 346:.\asp\OBJS/sample1.c **** 	 *  数）に設定する．
 347:.\asp\OBJS/sample1.c **** 	 */
 348:.\asp\OBJS/sample1.c **** #ifdef TASK_LOOP
 349:.\asp\OBJS/sample1.c **** 	task_loop = TASK_LOOP;
 350:.\asp\OBJS/sample1.c **** #else /* TASK_LOOP */
 351:.\asp\OBJS/sample1.c **** 
 352:.\asp\OBJS/sample1.c **** #ifdef MEASURE_TWICE
 353:.\asp\OBJS/sample1.c **** 	task_loop = LOOP_REF;
 354:.\asp\OBJS/sample1.c **** 	SVC_PERROR(get_tim(&stime1));
 355:.\asp\OBJS/sample1.c **** 	for (i = 0; i < task_loop; i++);
 356:.\asp\OBJS/sample1.c **** 	SVC_PERROR(get_tim(&stime2));
 357:.\asp\OBJS/sample1.c **** #endif /* MEASURE_TWICE */
 358:.\asp\OBJS/sample1.c **** 
 359:.\asp\OBJS/sample1.c **** 	task_loop = LOOP_REF;
 757              		.loc 1 359 0
 758 005a 964C     		ldr	r4, .L106+16
ARM GAS  C:\TEMP\ccEaFuvY.s 			page 21


 759              	.LVL100:
 760 005c 9648     		ldr	r0, .L106+20
 761 005e 2060     		str	r0, [r4, #0]
 360:.\asp\OBJS/sample1.c **** 	SVC_PERROR(get_tim(&stime1));
 762              		.loc 1 360 0
 763 0060 04A8     		add	r0, sp, #16
 764 0062 FFF7FEFF 		bl	get_tim
 765              	.LVL101:
 766 0066 9549     		ldr	r1, .L106+24
 767 0068 0246     		mov	r2, r0
 768 006a 4FF4B470 		mov	r0, #360
 769 006e FFF7FEFF 		bl	svc_perror.constprop.0
 770              	.LVL102:
 361:.\asp\OBJS/sample1.c **** 	for (i = 0; i < task_loop; i++);
 771              		.loc 1 361 0
 772 0072 0021     		movs	r1, #0
 773 0074 2468     		ldr	r4, [r4, #0]
 774 0076 0391     		str	r1, [sp, #12]
 775              	.LVL103:
 776              	.L62:
 777              		.loc 1 361 0 is_stmt 0 discriminator 1
 778 0078 039A     		ldr	r2, [sp, #12]
 779 007a A242     		cmp	r2, r4
 780 007c 03D2     		bcs	.L105
 781              	.L63:
 782              		.loc 1 361 0 discriminator 2
 783 007e 039D     		ldr	r5, [sp, #12]
 784 0080 6A1C     		adds	r2, r5, #1
 785              	.LVL104:
 786 0082 0392     		str	r2, [sp, #12]
 787              	.LVL105:
 788 0084 F8E7     		b	.L62
 789              	.LVL106:
 790              	.L105:
 362:.\asp\OBJS/sample1.c **** 	SVC_PERROR(get_tim(&stime2));
 791              		.loc 1 362 0 is_stmt 1
 792 0086 05A8     		add	r0, sp, #20
 793 0088 FFF7FEFF 		bl	get_tim
 794              	.LVL107:
 795 008c 8C49     		ldr	r1, .L106+28
 796 008e 0246     		mov	r2, r0
 797 0090 4FF4B570 		mov	r0, #362
 798 0094 FFF7FEFF 		bl	svc_perror.constprop.0
 799              	.LVL108:
 363:.\asp\OBJS/sample1.c **** 	task_loop = LOOP_REF * 400UL / (stime2 - stime1);
 800              		.loc 1 363 0
 801 0098 049D     		ldr	r5, [sp, #16]
 802              	.LVL109:
 803 009a 059B     		ldr	r3, [sp, #20]
 804 009c 8948     		ldr	r0, .L106+32
 805 009e 5C1B     		subs	r4, r3, r5
 806 00a0 B0FBF4F1 		udiv	r1, r0, r4
 364:.\asp\OBJS/sample1.c **** 
 365:.\asp\OBJS/sample1.c **** #endif /* TASK_LOOP */
 366:.\asp\OBJS/sample1.c **** 	tex_loop = task_loop / 4;
 807              		.loc 1 366 0
 808 00a4 884B     		ldr	r3, .L106+36
ARM GAS  C:\TEMP\ccEaFuvY.s 			page 22


 363:.\asp\OBJS/sample1.c **** 	task_loop = LOOP_REF * 400UL / (stime2 - stime1);
 809              		.loc 1 363 0
 810 00a6 834A     		ldr	r2, .L106+16
 811              		.loc 1 366 0
 812 00a8 8D08     		lsrs	r5, r1, #2
 367:.\asp\OBJS/sample1.c **** 
 368:.\asp\OBJS/sample1.c **** 	/*
 369:.\asp\OBJS/sample1.c ****  	 *  タスクの起動
 370:.\asp\OBJS/sample1.c **** 	 */
 371:.\asp\OBJS/sample1.c **** 	SVC_PERROR(act_tsk(TASK1));
 813              		.loc 1 371 0
 814 00aa 0220     		movs	r0, #2
 366:.\asp\OBJS/sample1.c **** 	tex_loop = task_loop / 4;
 815              		.loc 1 366 0
 816 00ac 1D60     		str	r5, [r3, #0]
 363:.\asp\OBJS/sample1.c **** 	task_loop = LOOP_REF * 400UL / (stime2 - stime1);
 817              		.loc 1 363 0
 818 00ae 1160     		str	r1, [r2, #0]
 819              		.loc 1 371 0
 820 00b0 FFF7FEFF 		bl	act_tsk
 821              	.LVL110:
 822 00b4 8549     		ldr	r1, .L106+40
 823 00b6 0246     		mov	r2, r0
 824 00b8 40F27310 		movw	r0, #371
 825 00bc FFF7FEFF 		bl	svc_perror.constprop.0
 826              	.LVL111:
 372:.\asp\OBJS/sample1.c **** 	SVC_PERROR(act_tsk(TASK2));
 827              		.loc 1 372 0
 828 00c0 0320     		movs	r0, #3
 829 00c2 FFF7FEFF 		bl	act_tsk
 830              	.LVL112:
 831 00c6 8249     		ldr	r1, .L106+44
 832 00c8 0246     		mov	r2, r0
 833 00ca 4FF4BA70 		mov	r0, #372
 834 00ce FFF7FEFF 		bl	svc_perror.constprop.0
 835              	.LVL113:
 373:.\asp\OBJS/sample1.c **** 	SVC_PERROR(act_tsk(TASK3));
 836              		.loc 1 373 0
 837 00d2 0420     		movs	r0, #4
 838 00d4 FFF7FEFF 		bl	act_tsk
 839              	.LVL114:
 840 00d8 7E49     		ldr	r1, .L106+48
 841 00da 0246     		mov	r2, r0
 842 00dc 40F27510 		movw	r0, #373
 843 00e0 FFF7FEFF 		bl	svc_perror.constprop.0
 844              	.LVL115:
 288:.\asp\OBJS/sample1.c **** 	int_t	tskno = 1;
 845              		.loc 1 288 0
 846 00e4 0124     		movs	r4, #1
 287:.\asp\OBJS/sample1.c **** 	ID		tskid = TASK1;
 847              		.loc 1 287 0
 848 00e6 0225     		movs	r5, #2
 849              	.LVL116:
 850              	.L93:
 374:.\asp\OBJS/sample1.c **** 
 375:.\asp\OBJS/sample1.c **** 	/*
 376:.\asp\OBJS/sample1.c ****  	 *  メインループ
ARM GAS  C:\TEMP\ccEaFuvY.s 			page 23


 377:.\asp\OBJS/sample1.c **** 	 */
 378:.\asp\OBJS/sample1.c **** 	do {
 379:.\asp\OBJS/sample1.c **** 		SVC_PERROR(serial_rea_dat(TASK_PORTID, &c, 1));
 851              		.loc 1 379 0
 852 00e8 0120     		movs	r0, #1
 853 00ea 0DF10701 		add	r1, sp, #7
 854 00ee 0246     		mov	r2, r0
 855 00f0 FFF7FEFF 		bl	serial_rea_dat
 856              	.LVL117:
 857 00f4 7849     		ldr	r1, .L106+52
 858 00f6 0246     		mov	r2, r0
 859 00f8 40F27B10 		movw	r0, #379
 860 00fc FFF7FEFF 		bl	svc_perror.constprop.0
 861              	.LVL118:
 380:.\asp\OBJS/sample1.c **** 		switch (c) {
 862              		.loc 1 380 0
 863 0100 9DF80700 		ldrb	r0, [sp, #7]	@ zero_extendqisi2
 864 0104 A0F13102 		sub	r2, r0, #49
 865 0108 492A     		cmp	r2, #73
 866 010a 00F2ED81 		bhi	.L65
 867 010e DFE812F0 		tbh	[pc, r2, lsl #1]
 868              	.L91:
 869 0112 E901     		.2byte	(.L94-.L91)/2
 870 0114 4F00     		.2byte	(.L66-.L91)/2
 871 0116 5200     		.2byte	(.L67-.L91)/2
 872 0118 EB01     		.2byte	(.L65-.L91)/2
 873 011a EB01     		.2byte	(.L65-.L91)/2
 874 011c EB01     		.2byte	(.L65-.L91)/2
 875 011e EB01     		.2byte	(.L65-.L91)/2
 876 0120 EB01     		.2byte	(.L65-.L91)/2
 877 0122 EB01     		.2byte	(.L65-.L91)/2
 878 0124 EB01     		.2byte	(.L65-.L91)/2
 879 0126 EB01     		.2byte	(.L65-.L91)/2
 880 0128 A000     		.2byte	(.L68-.L91)/2
 881 012a 9200     		.2byte	(.L69-.L91)/2
 882 012c 8400     		.2byte	(.L70-.L91)/2
 883 012e EB01     		.2byte	(.L65-.L91)/2
 884 0130 EB01     		.2byte	(.L65-.L91)/2
 885 0132 6200     		.2byte	(.L71-.L91)/2
 886 0134 B201     		.2byte	(.L72-.L91)/2
 887 0136 9801     		.2byte	(.L73-.L91)/2
 888 0138 EB01     		.2byte	(.L65-.L91)/2
 889 013a EB01     		.2byte	(.L65-.L91)/2
 890 013c EB01     		.2byte	(.L65-.L91)/2
 891 013e AE00     		.2byte	(.L74-.L91)/2
 892 0140 EB01     		.2byte	(.L65-.L91)/2
 893 0142 EB01     		.2byte	(.L65-.L91)/2
 894 0144 EB01     		.2byte	(.L65-.L91)/2
 895 0146 EB01     		.2byte	(.L65-.L91)/2
 896 0148 EB01     		.2byte	(.L65-.L91)/2
 897 014a EB01     		.2byte	(.L65-.L91)/2
 898 014c EB01     		.2byte	(.L65-.L91)/2
 899 014e EB01     		.2byte	(.L65-.L91)/2
 900 0150 EB01     		.2byte	(.L65-.L91)/2
 901 0152 EB01     		.2byte	(.L65-.L91)/2
 902 0154 EB01     		.2byte	(.L65-.L91)/2
 903 0156 4A00     		.2byte	(.L75-.L91)/2
ARM GAS  C:\TEMP\ccEaFuvY.s 			page 24


 904 0158 EB01     		.2byte	(.L65-.L91)/2
 905 015a EB01     		.2byte	(.L65-.L91)/2
 906 015c BE01     		.2byte	(.L76-.L91)/2
 907 015e 1401     		.2byte	(.L77-.L91)/2
 908 0160 6001     		.2byte	(.L78-.L91)/2
 909 0162 4A00     		.2byte	(.L75-.L91)/2
 910 0164 4A00     		.2byte	(.L75-.L91)/2
 911 0166 EB01     		.2byte	(.L65-.L91)/2
 912 0168 EB01     		.2byte	(.L65-.L91)/2
 913 016a EB01     		.2byte	(.L65-.L91)/2
 914 016c EB01     		.2byte	(.L65-.L91)/2
 915 016e EB01     		.2byte	(.L65-.L91)/2
 916 0170 EB01     		.2byte	(.L65-.L91)/2
 917 0172 5500     		.2byte	(.L79-.L91)/2
 918 0174 A401     		.2byte	(.L80-.L91)/2
 919 0176 8C01     		.2byte	(.L81-.L91)/2
 920 0178 4A00     		.2byte	(.L75-.L91)/2
 921 017a 4A00     		.2byte	(.L75-.L91)/2
 922 017c EB01     		.2byte	(.L65-.L91)/2
 923 017e EB01     		.2byte	(.L65-.L91)/2
 924 0180 EB01     		.2byte	(.L65-.L91)/2
 925 0182 EB01     		.2byte	(.L65-.L91)/2
 926 0184 EB01     		.2byte	(.L65-.L91)/2
 927 0186 EB01     		.2byte	(.L65-.L91)/2
 928 0188 2B01     		.2byte	(.L82-.L91)/2
 929 018a 4501     		.2byte	(.L83-.L91)/2
 930 018c EB01     		.2byte	(.L65-.L91)/2
 931 018e EB01     		.2byte	(.L65-.L91)/2
 932 0190 EB01     		.2byte	(.L65-.L91)/2
 933 0192 DE01     		.2byte	(.L84-.L91)/2
 934 0194 6E01     		.2byte	(.L85-.L91)/2
 935 0196 4A00     		.2byte	(.L75-.L91)/2
 936 0198 7700     		.2byte	(.L86-.L91)/2
 937 019a 3801     		.2byte	(.L87-.L91)/2
 938 019c D501     		.2byte	(.L88-.L91)/2
 939 019e 0701     		.2byte	(.L89-.L91)/2
 940 01a0 5201     		.2byte	(.L90-.L91)/2
 941 01a2 4A00     		.2byte	(.L75-.L91)/2
 942 01a4 4A00     		.2byte	(.L75-.L91)/2
 943              	.L75:
 381:.\asp\OBJS/sample1.c **** 		case 'e':
 382:.\asp\OBJS/sample1.c **** 		case 's':
 383:.\asp\OBJS/sample1.c **** 		case 'S':
 384:.\asp\OBJS/sample1.c **** 		case 'd':
 385:.\asp\OBJS/sample1.c **** 		case 'y':
 386:.\asp\OBJS/sample1.c **** 		case 'Y':
 387:.\asp\OBJS/sample1.c **** 		case 'z':
 388:.\asp\OBJS/sample1.c **** 		case 'Z':
 389:.\asp\OBJS/sample1.c **** 			message[tskno-1] = c;
 944              		.loc 1 389 0
 945 01a6 4D49     		ldr	r1, .L106+56
 946 01a8 0B19     		adds	r3, r1, r4
 947 01aa 03F8010C 		strb	r0, [r3, #-1]
 390:.\asp\OBJS/sample1.c **** 			break;
 948              		.loc 1 390 0
 949 01ae 9BE1     		b	.L65
 950              	.L66:
ARM GAS  C:\TEMP\ccEaFuvY.s 			page 25


 951              	.LVL119:
 391:.\asp\OBJS/sample1.c **** 		case '1':
 392:.\asp\OBJS/sample1.c **** 			tskno = 1;
 393:.\asp\OBJS/sample1.c **** 			tskid = TASK1;
 394:.\asp\OBJS/sample1.c **** 			break;
 395:.\asp\OBJS/sample1.c **** 		case '2':
 396:.\asp\OBJS/sample1.c **** 			tskno = 2;
 952              		.loc 1 396 0
 953 01b0 0224     		movs	r4, #2
 397:.\asp\OBJS/sample1.c **** 			tskid = TASK2;
 954              		.loc 1 397 0
 955 01b2 0325     		movs	r5, #3
 398:.\asp\OBJS/sample1.c **** 			break;
 956              		.loc 1 398 0
 957 01b4 98E1     		b	.L65
 958              	.LVL120:
 959              	.L67:
 399:.\asp\OBJS/sample1.c **** 		case '3':
 400:.\asp\OBJS/sample1.c **** 			tskno = 3;
 960              		.loc 1 400 0
 961 01b6 0324     		movs	r4, #3
 401:.\asp\OBJS/sample1.c **** 			tskid = TASK3;
 962              		.loc 1 401 0
 963 01b8 0425     		movs	r5, #4
 402:.\asp\OBJS/sample1.c **** 			break;
 964              		.loc 1 402 0
 965 01ba 95E1     		b	.L65
 966              	.LVL121:
 967              	.L79:
 403:.\asp\OBJS/sample1.c **** 		case 'a':
 404:.\asp\OBJS/sample1.c **** 			syslog(LOG_INFO, "#act_tsk(%d)", tskno);
 968              		.loc 1 404 0
 969 01bc 4849     		ldr	r1, .L106+60
 970 01be 2246     		mov	r2, r4
 971 01c0 0620     		movs	r0, #6
 972 01c2 FFF7FEFF 		bl	syslog
 973              	.LVL122:
 405:.\asp\OBJS/sample1.c **** 			SVC_PERROR(act_tsk(tskid));
 974              		.loc 1 405 0
 975 01c6 2846     		mov	r0, r5
 976 01c8 FFF7FEFF 		bl	act_tsk
 977              	.LVL123:
 978 01cc 4549     		ldr	r1, .L106+64
 979 01ce 0246     		mov	r2, r0
 980 01d0 40F29510 		movw	r0, #405
 981 01d4 83E1     		b	.L102
 982              	.L71:
 406:.\asp\OBJS/sample1.c **** 			break;
 407:.\asp\OBJS/sample1.c **** 		case 'A':
 408:.\asp\OBJS/sample1.c **** 			syslog(LOG_INFO, "#can_act(%d)", tskno);
 983              		.loc 1 408 0
 984 01d6 0620     		movs	r0, #6
 985 01d8 4349     		ldr	r1, .L106+68
 986 01da 2246     		mov	r2, r4
 987 01dc FFF7FEFF 		bl	syslog
 988              	.LVL124:
 409:.\asp\OBJS/sample1.c **** 			SVC_PERROR(ercd = can_act(tskid));
ARM GAS  C:\TEMP\ccEaFuvY.s 			page 26


 989              		.loc 1 409 0
 990 01e0 2846     		mov	r0, r5
 991 01e2 FFF7FEFF 		bl	can_act
 992              	.LVL125:
 993 01e6 0646     		mov	r6, r0
 994              	.LVL126:
 995 01e8 4049     		ldr	r1, .L106+72
 996 01ea 40F29910 		movw	r0, #409
 997              	.LVL127:
 998 01ee 3246     		mov	r2, r6
 999 01f0 FFF7FEFF 		bl	svc_perror.constprop.0
 1000              	.LVL128:
 410:.\asp\OBJS/sample1.c **** 			if (ercd >= 0) {
 1001              		.loc 1 410 0
 1002 01f4 002E     		cmp	r6, #0
 1003 01f6 C0F27781 		blt	.L65
 411:.\asp\OBJS/sample1.c **** 				syslog(LOG_NOTICE, "can_act(%d) returns %d", tskno, ercd);
 1004              		.loc 1 411 0
 1005 01fa 0520     		movs	r0, #5
 1006 01fc 3C49     		ldr	r1, .L106+76
 1007 01fe B0E0     		b	.L104
 1008              	.LVL129:
 1009              	.L86:
 412:.\asp\OBJS/sample1.c **** 			}
 413:.\asp\OBJS/sample1.c **** 			break;
 414:.\asp\OBJS/sample1.c **** 		case 't':
 415:.\asp\OBJS/sample1.c **** 			syslog(LOG_INFO, "#ter_tsk(%d)", tskno);
 1010              		.loc 1 415 0
 1011 0200 3C49     		ldr	r1, .L106+80
 1012 0202 2246     		mov	r2, r4
 1013 0204 0620     		movs	r0, #6
 1014 0206 FFF7FEFF 		bl	syslog
 1015              	.LVL130:
 416:.\asp\OBJS/sample1.c **** 			SVC_PERROR(ter_tsk(tskid));
 1016              		.loc 1 416 0
 1017 020a 2846     		mov	r0, r5
 1018 020c FFF7FEFF 		bl	ter_tsk
 1019              	.LVL131:
 1020 0210 3949     		ldr	r1, .L106+84
 1021 0212 0246     		mov	r2, r0
 1022 0214 4FF4D070 		mov	r0, #416
 1023 0218 61E1     		b	.L102
 1024              	.L70:
 417:.\asp\OBJS/sample1.c **** 			break;
 418:.\asp\OBJS/sample1.c **** 		case '>':
 419:.\asp\OBJS/sample1.c **** 			syslog(LOG_INFO, "#chg_pri(%d, HIGH_PRIORITY)", tskno);
 1025              		.loc 1 419 0
 1026 021a 2246     		mov	r2, r4
 1027 021c 0620     		movs	r0, #6
 1028 021e 3749     		ldr	r1, .L106+88
 1029 0220 FFF7FEFF 		bl	syslog
 1030              	.LVL132:
 420:.\asp\OBJS/sample1.c **** 			SVC_PERROR(chg_pri(tskid, HIGH_PRIORITY));
 1031              		.loc 1 420 0
 1032 0224 0921     		movs	r1, #9
 1033 0226 2846     		mov	r0, r5
 1034 0228 FFF7FEFF 		bl	chg_pri
ARM GAS  C:\TEMP\ccEaFuvY.s 			page 27


 1035              	.LVL133:
 1036 022c 3449     		ldr	r1, .L106+92
 1037 022e 0246     		mov	r2, r0
 1038 0230 4FF4D270 		mov	r0, #420
 1039 0234 53E1     		b	.L102
 1040              	.L69:
 421:.\asp\OBJS/sample1.c **** 			break;
 422:.\asp\OBJS/sample1.c **** 		case '=':
 423:.\asp\OBJS/sample1.c **** 			syslog(LOG_INFO, "#chg_pri(%d, MID_PRIORITY)", tskno);
 1041              		.loc 1 423 0
 1042 0236 2246     		mov	r2, r4
 1043 0238 0620     		movs	r0, #6
 1044 023a 3249     		ldr	r1, .L106+96
 1045 023c FFF7FEFF 		bl	syslog
 1046              	.LVL134:
 424:.\asp\OBJS/sample1.c **** 			SVC_PERROR(chg_pri(tskid, MID_PRIORITY));
 1047              		.loc 1 424 0
 1048 0240 0A21     		movs	r1, #10
 1049 0242 2846     		mov	r0, r5
 1050 0244 FFF7FEFF 		bl	chg_pri
 1051              	.LVL135:
 1052 0248 2F49     		ldr	r1, .L106+100
 1053 024a 0246     		mov	r2, r0
 1054 024c 4FF4D470 		mov	r0, #424
 1055 0250 45E1     		b	.L102
 1056              	.L68:
 425:.\asp\OBJS/sample1.c **** 			break;
 426:.\asp\OBJS/sample1.c **** 		case '<':
 427:.\asp\OBJS/sample1.c **** 			syslog(LOG_INFO, "#chg_pri(%d, LOW_PRIORITY)", tskno);
 1057              		.loc 1 427 0
 1058 0252 2246     		mov	r2, r4
 1059 0254 0620     		movs	r0, #6
 1060 0256 2D49     		ldr	r1, .L106+104
 1061 0258 FFF7FEFF 		bl	syslog
 1062              	.LVL136:
 428:.\asp\OBJS/sample1.c **** 			SVC_PERROR(chg_pri(tskid, LOW_PRIORITY));
 1063              		.loc 1 428 0
 1064 025c 0B21     		movs	r1, #11
 1065 025e 2846     		mov	r0, r5
 1066 0260 FFF7FEFF 		bl	chg_pri
 1067              	.LVL137:
 1068 0264 2A49     		ldr	r1, .L106+108
 1069 0266 0246     		mov	r2, r0
 1070 0268 4FF4D670 		mov	r0, #428
 1071 026c 37E1     		b	.L102
 1072              	.L74:
 429:.\asp\OBJS/sample1.c **** 			break;
 430:.\asp\OBJS/sample1.c **** 		case 'G':
 431:.\asp\OBJS/sample1.c **** 			syslog(LOG_INFO, "#get_pri(%d, &tskpri)", tskno);
 1073              		.loc 1 431 0
 1074 026e 0620     		movs	r0, #6
 1075 0270 2246     		mov	r2, r4
 1076 0272 2849     		ldr	r1, .L106+112
 1077 0274 FFF7FEFF 		bl	syslog
 1078              	.LVL138:
 432:.\asp\OBJS/sample1.c **** 			SVC_PERROR(ercd = get_pri(tskid, &tskpri));
 1079              		.loc 1 432 0
ARM GAS  C:\TEMP\ccEaFuvY.s 			page 28


 1080 0278 02A9     		add	r1, sp, #8
 1081 027a 2846     		mov	r0, r5
 1082 027c FFF7FEFF 		bl	get_pri
 1083              	.LVL139:
 1084 0280 0646     		mov	r6, r0
 1085              	.LVL140:
 1086 0282 2549     		ldr	r1, .L106+116
 1087 0284 4FF4D870 		mov	r0, #432
 1088              	.LVL141:
 1089 0288 3246     		mov	r2, r6
 1090 028a FFF7FEFF 		bl	svc_perror.constprop.0
 1091              	.LVL142:
 433:.\asp\OBJS/sample1.c **** 			if (ercd >= 0) {
 1092              		.loc 1 433 0
 1093 028e 002E     		cmp	r6, #0
 1094 0290 C0F22A81 		blt	.L65
 434:.\asp\OBJS/sample1.c **** 				syslog(LOG_NOTICE, "priority of task %d is %d", tskno, tskpri);
 1095              		.loc 1 434 0
 1096 0294 2149     		ldr	r1, .L106+120
 1097 0296 029B     		ldr	r3, [sp, #8]
 1098 0298 0520     		movs	r0, #5
 1099 029a 2246     		mov	r2, r4
 1100              	.LVL143:
 1101              	.L103:
 1102 029c FFF7FEFF 		bl	syslog
 1103              	.LVL144:
 1104 02a0 22E1     		b	.L65
 1105              	.L107:
 1106 02a2 00BF     		.align	2
 1107              	.L106:
 1108 02a4 92020000 		.word	.LC35
 1109 02a8 CA020000 		.word	.LC36
 1110 02ac EE020000 		.word	.LC37
 1111 02b0 14030000 		.word	.LC38
 1112 02b4 00000000 		.word	task_loop
 1113 02b8 40420F00 		.word	1000000
 1114 02bc 5A030000 		.word	.LC39
 1115 02c0 6B030000 		.word	.LC40
 1116 02c4 0084D717 		.word	400000000
 1117 02c8 00000000 		.word	tex_loop
 1118 02cc 7C030000 		.word	.LC41
 1119 02d0 8B030000 		.word	.LC42
 1120 02d4 9A030000 		.word	.LC43
 1121 02d8 A9030000 		.word	.LC44
 1122 02dc 00000000 		.word	message
 1123 02e0 CC030000 		.word	.LC45
 1124 02e4 D9030000 		.word	.LC46
 1125 02e8 E8030000 		.word	.LC47
 1126 02ec F5030000 		.word	.LC48
 1127 02f0 0B040000 		.word	.LC49
 1128 02f4 22040000 		.word	.LC50
 1129 02f8 2F040000 		.word	.LC51
 1130 02fc 3E040000 		.word	.LC52
 1131 0300 5A040000 		.word	.LC53
 1132 0304 78040000 		.word	.LC54
 1133 0308 93040000 		.word	.LC55
 1134 030c B0040000 		.word	.LC56
ARM GAS  C:\TEMP\ccEaFuvY.s 			page 29


 1135 0310 CB040000 		.word	.LC57
 1136 0314 E8040000 		.word	.LC58
 1137 0318 FE040000 		.word	.LC59
 1138 031c 1D050000 		.word	.LC60
 1139              	.L89:
 435:.\asp\OBJS/sample1.c **** 			}
 436:.\asp\OBJS/sample1.c **** 			break;
 437:.\asp\OBJS/sample1.c **** 		case 'w':
 438:.\asp\OBJS/sample1.c **** 			syslog(LOG_INFO, "#wup_tsk(%d)", tskno);
 1140              		.loc 1 438 0
 1141 0320 7C49     		ldr	r1, .L108
 1142 0322 2246     		mov	r2, r4
 1143 0324 0620     		movs	r0, #6
 1144 0326 FFF7FEFF 		bl	syslog
 1145              	.LVL145:
 439:.\asp\OBJS/sample1.c **** 			SVC_PERROR(wup_tsk(tskid));
 1146              		.loc 1 439 0
 1147 032a 2846     		mov	r0, r5
 1148 032c FFF7FEFF 		bl	wup_tsk
 1149              	.LVL146:
 1150 0330 7949     		ldr	r1, .L108+4
 1151 0332 0246     		mov	r2, r0
 1152 0334 40F2B710 		movw	r0, #439
 1153 0338 D1E0     		b	.L102
 1154              	.L77:
 440:.\asp\OBJS/sample1.c **** 			break;
 441:.\asp\OBJS/sample1.c **** 		case 'W':
 442:.\asp\OBJS/sample1.c **** 			syslog(LOG_INFO, "#can_wup(%d)", tskno);
 1155              		.loc 1 442 0
 1156 033a 0620     		movs	r0, #6
 1157 033c 7749     		ldr	r1, .L108+8
 1158 033e 2246     		mov	r2, r4
 1159 0340 FFF7FEFF 		bl	syslog
 1160              	.LVL147:
 443:.\asp\OBJS/sample1.c **** 			SVC_PERROR(ercd = can_wup(tskid));
 1161              		.loc 1 443 0
 1162 0344 2846     		mov	r0, r5
 1163 0346 FFF7FEFF 		bl	can_wup
 1164              	.LVL148:
 1165 034a 0646     		mov	r6, r0
 1166              	.LVL149:
 1167 034c 7449     		ldr	r1, .L108+12
 1168 034e 40F2BB10 		movw	r0, #443
 1169              	.LVL150:
 1170 0352 3246     		mov	r2, r6
 1171 0354 FFF7FEFF 		bl	svc_perror.constprop.0
 1172              	.LVL151:
 444:.\asp\OBJS/sample1.c **** 			if (ercd >= 0) {
 1173              		.loc 1 444 0
 1174 0358 002E     		cmp	r6, #0
 1175 035a C0F2C580 		blt	.L65
 445:.\asp\OBJS/sample1.c **** 				syslog(LOG_NOTICE, "can_wup(%d) returns %d", tskno, ercd);
 1176              		.loc 1 445 0
 1177 035e 7149     		ldr	r1, .L108+16
 1178 0360 0520     		movs	r0, #5
 1179              	.L104:
 1180 0362 2246     		mov	r2, r4
ARM GAS  C:\TEMP\ccEaFuvY.s 			page 30


 1181 0364 3346     		mov	r3, r6
 1182 0366 99E7     		b	.L103
 1183              	.LVL152:
 1184              	.L82:
 446:.\asp\OBJS/sample1.c **** 			}
 447:.\asp\OBJS/sample1.c **** 			break;
 448:.\asp\OBJS/sample1.c **** 		case 'l':
 449:.\asp\OBJS/sample1.c **** 			syslog(LOG_INFO, "#rel_wai(%d)", tskno);
 1185              		.loc 1 449 0
 1186 0368 6F49     		ldr	r1, .L108+20
 1187 036a 2246     		mov	r2, r4
 1188 036c 0620     		movs	r0, #6
 1189 036e FFF7FEFF 		bl	syslog
 1190              	.LVL153:
 450:.\asp\OBJS/sample1.c **** 			SVC_PERROR(rel_wai(tskid));
 1191              		.loc 1 450 0
 1192 0372 2846     		mov	r0, r5
 1193 0374 FFF7FEFF 		bl	rel_wai
 1194              	.LVL154:
 1195 0378 6C49     		ldr	r1, .L108+24
 1196 037a 0246     		mov	r2, r0
 1197 037c 4FF4E170 		mov	r0, #450
 1198 0380 ADE0     		b	.L102
 1199              	.L87:
 451:.\asp\OBJS/sample1.c **** 			break;
 452:.\asp\OBJS/sample1.c **** 		case 'u':
 453:.\asp\OBJS/sample1.c **** 			syslog(LOG_INFO, "#sus_tsk(%d)", tskno);
 1200              		.loc 1 453 0
 1201 0382 6B49     		ldr	r1, .L108+28
 1202 0384 2246     		mov	r2, r4
 1203 0386 0620     		movs	r0, #6
 1204 0388 FFF7FEFF 		bl	syslog
 1205              	.LVL155:
 454:.\asp\OBJS/sample1.c **** 			SVC_PERROR(sus_tsk(tskid));
 1206              		.loc 1 454 0
 1207 038c 2846     		mov	r0, r5
 1208 038e FFF7FEFF 		bl	sus_tsk
 1209              	.LVL156:
 1210 0392 6849     		ldr	r1, .L108+32
 1211 0394 0246     		mov	r2, r0
 1212 0396 4FF4E370 		mov	r0, #454
 1213 039a A0E0     		b	.L102
 1214              	.L83:
 455:.\asp\OBJS/sample1.c **** 			break;
 456:.\asp\OBJS/sample1.c **** 		case 'm':
 457:.\asp\OBJS/sample1.c **** 			syslog(LOG_INFO, "#rsm_tsk(%d)", tskno);
 1215              		.loc 1 457 0
 1216 039c 6649     		ldr	r1, .L108+36
 1217 039e 2246     		mov	r2, r4
 1218 03a0 0620     		movs	r0, #6
 1219 03a2 FFF7FEFF 		bl	syslog
 1220              	.LVL157:
 458:.\asp\OBJS/sample1.c **** 			SVC_PERROR(rsm_tsk(tskid));
 1221              		.loc 1 458 0
 1222 03a6 2846     		mov	r0, r5
 1223 03a8 FFF7FEFF 		bl	rsm_tsk
 1224              	.LVL158:
ARM GAS  C:\TEMP\ccEaFuvY.s 			page 31


 1225 03ac 6349     		ldr	r1, .L108+40
 1226 03ae 0246     		mov	r2, r0
 1227 03b0 4FF4E570 		mov	r0, #458
 1228 03b4 93E0     		b	.L102
 1229              	.L90:
 459:.\asp\OBJS/sample1.c **** 			break;
 460:.\asp\OBJS/sample1.c **** 		case 'x':
 461:.\asp\OBJS/sample1.c **** 			syslog(LOG_INFO, "#ras_tex(%d, 0x0001U)", tskno);
 1230              		.loc 1 461 0
 1231 03b6 2246     		mov	r2, r4
 1232 03b8 0620     		movs	r0, #6
 1233 03ba 6149     		ldr	r1, .L108+44
 1234 03bc FFF7FEFF 		bl	syslog
 1235              	.LVL159:
 462:.\asp\OBJS/sample1.c **** 			SVC_PERROR(ras_tex(tskid, 0x0001U));
 1236              		.loc 1 462 0
 1237 03c0 0121     		movs	r1, #1
 1238 03c2 2846     		mov	r0, r5
 1239 03c4 FFF7FEFF 		bl	ras_tex
 1240              	.LVL160:
 1241 03c8 5E49     		ldr	r1, .L108+48
 1242 03ca 0246     		mov	r2, r0
 1243 03cc 4FF4E770 		mov	r0, #462
 1244 03d0 85E0     		b	.L102
 1245              	.L78:
 463:.\asp\OBJS/sample1.c **** 			break;
 464:.\asp\OBJS/sample1.c **** 		case 'X':
 465:.\asp\OBJS/sample1.c **** 			syslog(LOG_INFO, "#ras_tex(%d, 0x0002U)", tskno);
 1246              		.loc 1 465 0
 1247 03d2 2246     		mov	r2, r4
 1248 03d4 0620     		movs	r0, #6
 1249 03d6 5C49     		ldr	r1, .L108+52
 1250 03d8 FFF7FEFF 		bl	syslog
 1251              	.LVL161:
 466:.\asp\OBJS/sample1.c **** 			SVC_PERROR(ras_tex(tskid, 0x0002U));
 1252              		.loc 1 466 0
 1253 03dc 0221     		movs	r1, #2
 1254 03de 2846     		mov	r0, r5
 1255 03e0 FFF7FEFF 		bl	ras_tex
 1256              	.LVL162:
 1257 03e4 5949     		ldr	r1, .L108+56
 1258 03e6 0246     		mov	r2, r0
 1259 03e8 4FF4E970 		mov	r0, #466
 1260 03ec 77E0     		b	.L102
 1261              	.L85:
 467:.\asp\OBJS/sample1.c **** 			break;
 468:.\asp\OBJS/sample1.c **** 		case 'r':
 469:.\asp\OBJS/sample1.c **** 			syslog(LOG_INFO, "#rot_rdq(three priorities)");
 1262              		.loc 1 469 0
 1263 03ee 5849     		ldr	r1, .L108+60
 1264 03f0 0620     		movs	r0, #6
 1265 03f2 FFF7FEFF 		bl	syslog
 1266              	.LVL163:
 470:.\asp\OBJS/sample1.c **** 			SVC_PERROR(rot_rdq(HIGH_PRIORITY));
 1267              		.loc 1 470 0
 1268 03f6 0920     		movs	r0, #9
 1269 03f8 FFF7FEFF 		bl	rot_rdq
ARM GAS  C:\TEMP\ccEaFuvY.s 			page 32


 1270              	.LVL164:
 1271 03fc 5549     		ldr	r1, .L108+64
 1272 03fe 0246     		mov	r2, r0
 1273 0400 4FF4EB70 		mov	r0, #470
 1274 0404 FFF7FEFF 		bl	svc_perror.constprop.0
 1275              	.LVL165:
 471:.\asp\OBJS/sample1.c **** 			SVC_PERROR(rot_rdq(MID_PRIORITY));
 1276              		.loc 1 471 0
 1277 0408 0A20     		movs	r0, #10
 1278 040a FFF7FEFF 		bl	rot_rdq
 1279              	.LVL166:
 1280 040e 5249     		ldr	r1, .L108+68
 1281 0410 0246     		mov	r2, r0
 1282 0412 40F2D710 		movw	r0, #471
 1283 0416 FFF7FEFF 		bl	svc_perror.constprop.0
 1284              	.LVL167:
 472:.\asp\OBJS/sample1.c **** 			SVC_PERROR(rot_rdq(LOW_PRIORITY));
 1285              		.loc 1 472 0
 1286 041a 0B20     		movs	r0, #11
 1287 041c FFF7FEFF 		bl	rot_rdq
 1288              	.LVL168:
 1289 0420 4E49     		ldr	r1, .L108+72
 1290 0422 0246     		mov	r2, r0
 1291 0424 4FF4EC70 		mov	r0, #472
 1292 0428 59E0     		b	.L102
 1293              	.L81:
 473:.\asp\OBJS/sample1.c **** 			break;
 474:.\asp\OBJS/sample1.c **** 		case 'c':
 475:.\asp\OBJS/sample1.c **** 			syslog(LOG_INFO, "#sta_cyc(1)");
 1294              		.loc 1 475 0
 1295 042a 4D49     		ldr	r1, .L108+76
 1296 042c 0620     		movs	r0, #6
 1297 042e FFF7FEFF 		bl	syslog
 1298              	.LVL169:
 476:.\asp\OBJS/sample1.c **** 			SVC_PERROR(sta_cyc(CYCHDR1));
 1299              		.loc 1 476 0
 1300 0432 0120     		movs	r0, #1
 1301 0434 FFF7FEFF 		bl	sta_cyc
 1302              	.LVL170:
 1303 0438 4A49     		ldr	r1, .L108+80
 1304 043a 0246     		mov	r2, r0
 1305 043c 4FF4EE70 		mov	r0, #476
 1306 0440 4DE0     		b	.L102
 1307              	.L73:
 477:.\asp\OBJS/sample1.c **** 			break;
 478:.\asp\OBJS/sample1.c **** 		case 'C':
 479:.\asp\OBJS/sample1.c **** 			syslog(LOG_INFO, "#stp_cyc(1)");
 1308              		.loc 1 479 0
 1309 0442 4949     		ldr	r1, .L108+84
 1310 0444 0620     		movs	r0, #6
 1311 0446 FFF7FEFF 		bl	syslog
 1312              	.LVL171:
 480:.\asp\OBJS/sample1.c **** 			SVC_PERROR(stp_cyc(CYCHDR1));
 1313              		.loc 1 480 0
 1314 044a 0120     		movs	r0, #1
 1315 044c FFF7FEFF 		bl	stp_cyc
 1316              	.LVL172:
ARM GAS  C:\TEMP\ccEaFuvY.s 			page 33


 1317 0450 4649     		ldr	r1, .L108+88
 1318 0452 0246     		mov	r2, r0
 1319 0454 4FF4F070 		mov	r0, #480
 1320 0458 41E0     		b	.L102
 1321              	.L80:
 481:.\asp\OBJS/sample1.c **** 			break;
 482:.\asp\OBJS/sample1.c **** 		case 'b':
 483:.\asp\OBJS/sample1.c **** 			syslog(LOG_INFO, "#sta_alm(1, 5000)");
 1322              		.loc 1 483 0
 1323 045a 0620     		movs	r0, #6
 1324 045c 4449     		ldr	r1, .L108+92
 1325 045e FFF7FEFF 		bl	syslog
 1326              	.LVL173:
 484:.\asp\OBJS/sample1.c **** 			SVC_PERROR(sta_alm(ALMHDR1, 5000));
 1327              		.loc 1 484 0
 1328 0462 41F28831 		movw	r1, #5000
 1329 0466 0120     		movs	r0, #1
 1330 0468 FFF7FEFF 		bl	sta_alm
 1331              	.LVL174:
 1332 046c 4149     		ldr	r1, .L108+96
 1333 046e 0246     		mov	r2, r0
 1334 0470 4FF4F270 		mov	r0, #484
 1335 0474 33E0     		b	.L102
 1336              	.L72:
 485:.\asp\OBJS/sample1.c **** 			break;
 486:.\asp\OBJS/sample1.c **** 		case 'B':
 487:.\asp\OBJS/sample1.c **** 			syslog(LOG_INFO, "#stp_alm(1)");
 1337              		.loc 1 487 0
 1338 0476 4049     		ldr	r1, .L108+100
 1339 0478 0620     		movs	r0, #6
 1340 047a FFF7FEFF 		bl	syslog
 1341              	.LVL175:
 488:.\asp\OBJS/sample1.c **** 			SVC_PERROR(stp_alm(ALMHDR1));
 1342              		.loc 1 488 0
 1343 047e 0120     		movs	r0, #1
 1344 0480 FFF7FEFF 		bl	stp_alm
 1345              	.LVL176:
 1346 0484 3D49     		ldr	r1, .L108+104
 1347 0486 0246     		mov	r2, r0
 1348 0488 4FF4F470 		mov	r0, #488
 1349 048c 27E0     		b	.L102
 1350              	.L76:
 489:.\asp\OBJS/sample1.c **** 			break;
 490:.\asp\OBJS/sample1.c **** 
 491:.\asp\OBJS/sample1.c **** 		case 'V':
 492:.\asp\OBJS/sample1.c **** #ifdef TOPPERS_SUPPORT_GET_UTM
 493:.\asp\OBJS/sample1.c **** 			SVC_PERROR(get_utm(&utime1));
 1351              		.loc 1 493 0
 1352 048e 06A8     		add	r0, sp, #24
 1353 0490 FFF7FEFF 		bl	get_utm
 1354              	.LVL177:
 1355 0494 3A49     		ldr	r1, .L108+108
 1356 0496 0246     		mov	r2, r0
 1357 0498 40F2ED10 		movw	r0, #493
 1358 049c FFF7FEFF 		bl	svc_perror.constprop.0
 1359              	.LVL178:
 494:.\asp\OBJS/sample1.c **** 			SVC_PERROR(get_utm(&utime2));
ARM GAS  C:\TEMP\ccEaFuvY.s 			page 34


 1360              		.loc 1 494 0
 1361 04a0 07A8     		add	r0, sp, #28
 1362 04a2 FFF7FEFF 		bl	get_utm
 1363              	.LVL179:
 1364 04a6 3749     		ldr	r1, .L108+112
 1365 04a8 0246     		mov	r2, r0
 1366 04aa 4FF4F770 		mov	r0, #494
 1367 04ae FFF7FEFF 		bl	svc_perror.constprop.0
 1368              	.LVL180:
 495:.\asp\OBJS/sample1.c **** 			syslog(LOG_NOTICE, "utime1 = %ld, utime2 = %ld",
 1369              		.loc 1 495 0
 1370 04b2 0520     		movs	r0, #5
 1371 04b4 3449     		ldr	r1, .L108+116
 1372 04b6 069A     		ldr	r2, [sp, #24]
 1373 04b8 079B     		ldr	r3, [sp, #28]
 1374 04ba EFE6     		b	.L103
 1375              	.L88:
 496:.\asp\OBJS/sample1.c **** 										(ulong_t) utime1, (ulong_t) utime2);
 497:.\asp\OBJS/sample1.c **** #else /* TOPPERS_SUPPORT_GET_UTM */
 498:.\asp\OBJS/sample1.c **** 			syslog(LOG_NOTICE, "get_utm is not supported.");
 499:.\asp\OBJS/sample1.c **** #endif /* TOPPERS_SUPPORT_GET_UTM */
 500:.\asp\OBJS/sample1.c **** 			break;
 501:.\asp\OBJS/sample1.c **** 
 502:.\asp\OBJS/sample1.c **** 		case 'v':
 503:.\asp\OBJS/sample1.c **** 			SVC_PERROR(syslog_msk_log(LOG_UPTO(LOG_INFO),
 1376              		.loc 1 503 0
 1377 04bc 0121     		movs	r1, #1
 1378 04be 7F20     		movs	r0, #127
 1379 04c0 FFF7FEFF 		bl	syslog_msk_log
 1380              	.LVL181:
 1381 04c4 3149     		ldr	r1, .L108+120
 1382 04c6 0246     		mov	r2, r0
 1383 04c8 4FF4FC70 		mov	r0, #504
 1384 04cc 07E0     		b	.L102
 1385              	.L84:
 504:.\asp\OBJS/sample1.c **** 										LOG_UPTO(LOG_EMERG)));
 505:.\asp\OBJS/sample1.c **** 			break;
 506:.\asp\OBJS/sample1.c **** 		case 'q':
 507:.\asp\OBJS/sample1.c **** 			SVC_PERROR(syslog_msk_log(LOG_UPTO(LOG_NOTICE),
 1386              		.loc 1 507 0
 1387 04ce 0121     		movs	r1, #1
 1388 04d0 3F20     		movs	r0, #63
 1389 04d2 FFF7FEFF 		bl	syslog_msk_log
 1390              	.LVL182:
 1391 04d6 2E49     		ldr	r1, .L108+124
 1392 04d8 0246     		mov	r2, r0
 1393 04da 4FF4FE70 		mov	r0, #508
 1394              	.L102:
 1395 04de FFF7FEFF 		bl	svc_perror.constprop.0
 1396              	.LVL183:
 508:.\asp\OBJS/sample1.c **** 										LOG_UPTO(LOG_EMERG)));
 509:.\asp\OBJS/sample1.c **** 			break;
 1397              		.loc 1 509 0
 1398 04e2 01E0     		b	.L65
 1399              	.L94:
 392:.\asp\OBJS/sample1.c **** 			tskno = 1;
 1400              		.loc 1 392 0
ARM GAS  C:\TEMP\ccEaFuvY.s 			page 35


 1401 04e4 0124     		movs	r4, #1
 1402              	.LVL184:
 393:.\asp\OBJS/sample1.c **** 			tskid = TASK1;
 1403              		.loc 1 393 0
 1404 04e6 0225     		movs	r5, #2
 1405              	.LVL185:
 1406              	.L65:
 510:.\asp\OBJS/sample1.c **** 
 511:.\asp\OBJS/sample1.c **** #ifdef BIT_KERNEL
 512:.\asp\OBJS/sample1.c **** 		case ' ':
 513:.\asp\OBJS/sample1.c **** 			SVC_PERROR(loc_cpu());
 514:.\asp\OBJS/sample1.c **** 			{
 515:.\asp\OBJS/sample1.c **** 				extern ER	bit_kernel(void);
 516:.\asp\OBJS/sample1.c **** 
 517:.\asp\OBJS/sample1.c **** 				SVC_PERROR(ercd = bit_kernel());
 518:.\asp\OBJS/sample1.c **** 				if (ercd >= 0) {
 519:.\asp\OBJS/sample1.c **** 					syslog(LOG_NOTICE, "bit_kernel passed.");
 520:.\asp\OBJS/sample1.c **** 				}
 521:.\asp\OBJS/sample1.c **** 			}
 522:.\asp\OBJS/sample1.c **** 			SVC_PERROR(unl_cpu());
 523:.\asp\OBJS/sample1.c **** 			break;
 524:.\asp\OBJS/sample1.c **** #endif /* BIT_KERNEL */
 525:.\asp\OBJS/sample1.c **** 
 526:.\asp\OBJS/sample1.c **** 		default:
 527:.\asp\OBJS/sample1.c **** 			break;
 528:.\asp\OBJS/sample1.c **** 		}
 529:.\asp\OBJS/sample1.c **** 	} while (c != '\003' && c != 'Q');
 1407              		.loc 1 529 0
 1408 04e8 9DF80700 		ldrb	r0, [sp, #7]	@ zero_extendqisi2
 1409 04ec 0328     		cmp	r0, #3
 1410 04ee 02D0     		beq	.L92
 1411              		.loc 1 529 0 is_stmt 0 discriminator 1
 1412 04f0 5128     		cmp	r0, #81
 1413 04f2 7FF4F9AD 		bne	.L93
 1414              	.L92:
 530:.\asp\OBJS/sample1.c **** 
 531:.\asp\OBJS/sample1.c **** 	syslog(LOG_NOTICE, "Sample program ends.");
 1415              		.loc 1 531 0 is_stmt 1
 1416 04f6 0520     		movs	r0, #5
 1417 04f8 2649     		ldr	r1, .L108+128
 1418 04fa FFF7FEFF 		bl	syslog
 1419              	.LVL186:
 532:.\asp\OBJS/sample1.c **** 	SVC_PERROR(ext_ker());
 1420              		.loc 1 532 0
 1421 04fe FFF7FEFF 		bl	ext_ker
 1422              	.LVL187:
 1423 0502 2549     		ldr	r1, .L108+132
 1424 0504 0246     		mov	r2, r0
 1425 0506 4FF40570 		mov	r0, #532
 1426 050a FFF7FEFF 		bl	svc_perror.constprop.0
 1427              	.LVL188:
 533:.\asp\OBJS/sample1.c **** 	assert(0);
 534:.\asp\OBJS/sample1.c **** }
 1428              		.loc 1 534 0
 1429 050e 08B0     		add	sp, sp, #32
 1430 0510 70BD     		pop	{r4, r5, r6, pc}
 1431              	.L109:
ARM GAS  C:\TEMP\ccEaFuvY.s 			page 36


 1432 0512 00BF     		.align	2
 1433              	.L108:
 1434 0514 37050000 		.word	.LC61
 1435 0518 44050000 		.word	.LC62
 1436 051c 53050000 		.word	.LC63
 1437 0520 60050000 		.word	.LC64
 1438 0524 76050000 		.word	.LC65
 1439 0528 8D050000 		.word	.LC66
 1440 052c 9A050000 		.word	.LC67
 1441 0530 A9050000 		.word	.LC68
 1442 0534 B6050000 		.word	.LC69
 1443 0538 C5050000 		.word	.LC70
 1444 053c D2050000 		.word	.LC71
 1445 0540 E1050000 		.word	.LC72
 1446 0544 F7050000 		.word	.LC73
 1447 0548 0F060000 		.word	.LC74
 1448 054c 25060000 		.word	.LC75
 1449 0550 3D060000 		.word	.LC76
 1450 0554 58060000 		.word	.LC77
 1451 0558 6F060000 		.word	.LC78
 1452 055c 85060000 		.word	.LC79
 1453 0560 9B060000 		.word	.LC80
 1454 0564 A7060000 		.word	.LC81
 1455 0568 B8060000 		.word	.LC82
 1456 056c C4060000 		.word	.LC83
 1457 0570 D5060000 		.word	.LC84
 1458 0574 E7060000 		.word	.LC85
 1459 0578 FE060000 		.word	.LC86
 1460 057c 0A070000 		.word	.LC87
 1461 0580 1B070000 		.word	.LC88
 1462 0584 2C070000 		.word	.LC89
 1463 0588 3D070000 		.word	.LC90
 1464 058c 92020000 		.word	.LC35
 1465 0590 58070000 		.word	.LC91
 1466 0594 92070000 		.word	.LC92
 1467 0598 18020000 		.word	.LC29
 1468              		.cfi_endproc
 1469              	.LFE14:
 1470              		.size	main_task, .-main_task
 1471              		.comm	tex_loop,4,4
 1472              		.comm	task_loop,4,4
 1473              		.comm	message,3,1
 1474              		.section	.rodata
 1475              		.align	2
 1476              		.set	.LANCHOR0,. + 0
 1477              	.LC5:
 1478 0000 A7070000 		.word	.LC0
 1479 0004 A9070000 		.word	.LC1
 1480 0008 AD070000 		.word	.LC2
 1481              		.section	.rodata.str1.1,"aMS",%progbits,1
 1482              	.LC4:
 1483 0000 2E5C6173 		.ascii	".\\asp\\OBJS\\sample1.c\000"
 1483      705C4F42 
 1483      4A535C73 
 1483      616D706C 
 1483      65312E63 
 1484              	.LC6:
ARM GAS  C:\TEMP\ccEaFuvY.s 			page 37


 1485 0015 656E615F 		.ascii	"ena_tex()\000"
 1485      74657828 
 1485      2900
 1486              	.LC7:
 1487 001f 7461736B 		.ascii	"task%d is running (%03d).   %s\000"
 1487      25642069 
 1487      73207275 
 1487      6E6E696E 
 1487      67202825 
 1488              	.LC8:
 1489 003e 23256423 		.ascii	"#%d#ext_tsk()\000"
 1489      6578745F 
 1489      74736B28 
 1489      2900
 1490              	.LC9:
 1491 004c 6578745F 		.ascii	"ext_tsk()\000"
 1491      74736B28 
 1491      2900
 1492              	.LC10:
 1493 0056 23256423 		.ascii	"#%d#slp_tsk()\000"
 1493      736C705F 
 1493      74736B28 
 1493      2900
 1494              	.LC11:
 1495 0064 736C705F 		.ascii	"slp_tsk()\000"
 1495      74736B28 
 1495      2900
 1496              	.LC12:
 1497 006e 23256423 		.ascii	"#%d#tslp_tsk(10000)\000"
 1497      74736C70 
 1497      5F74736B 
 1497      28313030 
 1497      30302900 
 1498              	.LC13:
 1499 0082 74736C70 		.ascii	"tslp_tsk(10000)\000"
 1499      5F74736B 
 1499      28313030 
 1499      30302900 
 1500              	.LC14:
 1501 0092 23256423 		.ascii	"#%d#dly_tsk(10000)\000"
 1501      646C795F 
 1501      74736B28 
 1501      31303030 
 1501      302900
 1502              	.LC15:
 1503 00a5 646C795F 		.ascii	"dly_tsk(10000)\000"
 1503      74736B28 
 1503      31303030 
 1503      302900
 1504              	.LC16:
 1505 00b4 23256423 		.ascii	"#%d#dis_tex()\000"
 1505      6469735F 
 1505      74657828 
 1505      2900
 1506              	.LC17:
 1507 00c2 6469735F 		.ascii	"dis_tex()\000"
 1507      74657828 
ARM GAS  C:\TEMP\ccEaFuvY.s 			page 38


 1507      2900
 1508              	.LC18:
 1509 00cc 23256423 		.ascii	"#%d#ena_tex()\000"
 1509      656E615F 
 1509      74657828 
 1509      2900
 1510              	.LC19:
 1511 00da 23256423 		.ascii	"#%d#raise CPU exception\000"
 1511      72616973 
 1511      65204350 
 1511      55206578 
 1511      63657074 
 1512              	.LC20:
 1513 00f2 6C6F635F 		.ascii	"loc_cpu()\000"
 1513      63707528 
 1513      2900
 1514              	.LC21:
 1515 00fc 756E6C5F 		.ascii	"unl_cpu()\000"
 1515      63707528 
 1515      2900
 1516              	.LC22:
 1517 0106 7461736B 		.ascii	"task%d receives exception 0x%04x.\000"
 1517      25642072 
 1517      65636569 
 1517      76657320 
 1517      65786365 
 1518              	.LC23:
 1519 0128 43505520 		.ascii	"CPU exception handler (p_excinf = %08p).\000"
 1519      65786365 
 1519      7074696F 
 1519      6E206861 
 1519      6E646C65 
 1520              	.LC24:
 1521 0151 736E735F 		.ascii	"sns_ctx() is not true in CPU exception handler.\000"
 1521      63747828 
 1521      29206973 
 1521      206E6F74 
 1521      20747275 
 1522              	.LC25:
 1523 0181 736E735F 		.ascii	"sns_dpn() is not true in CPU exception handler.\000"
 1523      64706E28 
 1523      29206973 
 1523      206E6F74 
 1523      20747275 
 1524              	.LC26:
 1525 01b1 736E735F 		.ascii	"sns_loc = %d sns_dsp = %d sns_tex = %d\000"
 1525      6C6F6320 
 1525      3D202564 
 1525      20736E73 
 1525      5F647370 
 1526              	.LC27:
 1527 01d8 78736E73 		.ascii	"xsns_dpn = %d xsns_xpn = %d\000"
 1527      5F64706E 
 1527      203D2025 
 1527      64207873 
 1527      6E735F78 
 1528              	.LC28:
ARM GAS  C:\TEMP\ccEaFuvY.s 			page 39


 1529 01f4 53616D70 		.ascii	"Sample program ends with exception.\000"
 1529      6C652070 
 1529      726F6772 
 1529      616D2065 
 1529      6E647320 
 1530              	.LC29:
 1531 0218 6578745F 		.ascii	"ext_ker()\000"
 1531      6B657228 
 1531      2900
 1532              	.LC30:
 1533 0222 69676574 		.ascii	"iget_tid(&tskid)\000"
 1533      5F746964 
 1533      28267473 
 1533      6B696429 
 1533      00
 1534              	.LC31:
 1535 0233 69726173 		.ascii	"iras_tex(tskid, 0x8000U)\000"
 1535      5F746578 
 1535      2874736B 
 1535      69642C20 
 1535      30783830 
 1536              	.LC32:
 1537 024c 69726F74 		.ascii	"irot_rdq(HIGH_PRIORITY)\000"
 1537      5F726471 
 1537      28484947 
 1537      485F5052 
 1537      494F5249 
 1538              	.LC33:
 1539 0264 69726F74 		.ascii	"irot_rdq(MID_PRIORITY)\000"
 1539      5F726471 
 1539      284D4944 
 1539      5F505249 
 1539      4F524954 
 1540              	.LC34:
 1541 027b 69726F74 		.ascii	"irot_rdq(LOW_PRIORITY)\000"
 1541      5F726471 
 1541      284C4F57 
 1541      5F505249 
 1541      4F524954 
 1542              	.LC35:
 1543 0292 7379736C 		.ascii	"syslog_msk_log(LOG_UPTO(LOG_INFO), LOG_UPTO(LOG_EME"
 1543      6F675F6D 
 1543      736B5F6C 
 1543      6F67284C 
 1543      4F475F55 
 1544 02c5 52472929 		.ascii	"RG))\000"
 1544      00
 1545              	.LC36:
 1546 02ca 53616D70 		.ascii	"Sample program starts (exinf = %d).\000"
 1546      6C652070 
 1546      726F6772 
 1546      616D2073 
 1546      74617274 
 1547              	.LC37:
 1548 02ee 25732028 		.ascii	"%s (%d) reported by `serial_opn_por'.\000"
 1548      25642920 
 1548      7265706F 
ARM GAS  C:\TEMP\ccEaFuvY.s 			page 40


 1548      72746564 
 1548      20627920 
 1549              	.LC38:
 1550 0314 73657269 		.ascii	"serial_ctl_por(TASK_PORTID, (IOCTL_CRLF | IOCTL_FCS"
 1550      616C5F63 
 1550      746C5F70 
 1550      6F722854 
 1550      41534B5F 
 1551 0347 4E44207C 		.ascii	"ND | IOCTL_FCRCV))\000"
 1551      20494F43 
 1551      544C5F46 
 1551      43524356 
 1551      292900
 1552              	.LC39:
 1553 035a 6765745F 		.ascii	"get_tim(&stime1)\000"
 1553      74696D28 
 1553      26737469 
 1553      6D653129 
 1553      00
 1554              	.LC40:
 1555 036b 6765745F 		.ascii	"get_tim(&stime2)\000"
 1555      74696D28 
 1555      26737469 
 1555      6D653229 
 1555      00
 1556              	.LC41:
 1557 037c 6163745F 		.ascii	"act_tsk(TASK1)\000"
 1557      74736B28 
 1557      5441534B 
 1557      312900
 1558              	.LC42:
 1559 038b 6163745F 		.ascii	"act_tsk(TASK2)\000"
 1559      74736B28 
 1559      5441534B 
 1559      322900
 1560              	.LC43:
 1561 039a 6163745F 		.ascii	"act_tsk(TASK3)\000"
 1561      74736B28 
 1561      5441534B 
 1561      332900
 1562              	.LC44:
 1563 03a9 73657269 		.ascii	"serial_rea_dat(TASK_PORTID, &c, 1)\000"
 1563      616C5F72 
 1563      65615F64 
 1563      61742854 
 1563      41534B5F 
 1564              	.LC45:
 1565 03cc 23616374 		.ascii	"#act_tsk(%d)\000"
 1565      5F74736B 
 1565      28256429 
 1565      00
 1566              	.LC46:
 1567 03d9 6163745F 		.ascii	"act_tsk(tskid)\000"
 1567      74736B28 
 1567      74736B69 
 1567      642900
 1568              	.LC47:
ARM GAS  C:\TEMP\ccEaFuvY.s 			page 41


 1569 03e8 2363616E 		.ascii	"#can_act(%d)\000"
 1569      5F616374 
 1569      28256429 
 1569      00
 1570              	.LC48:
 1571 03f5 65726364 		.ascii	"ercd = can_act(tskid)\000"
 1571      203D2063 
 1571      616E5F61 
 1571      63742874 
 1571      736B6964 
 1572              	.LC49:
 1573 040b 63616E5F 		.ascii	"can_act(%d) returns %d\000"
 1573      61637428 
 1573      25642920 
 1573      72657475 
 1573      726E7320 
 1574              	.LC50:
 1575 0422 23746572 		.ascii	"#ter_tsk(%d)\000"
 1575      5F74736B 
 1575      28256429 
 1575      00
 1576              	.LC51:
 1577 042f 7465725F 		.ascii	"ter_tsk(tskid)\000"
 1577      74736B28 
 1577      74736B69 
 1577      642900
 1578              	.LC52:
 1579 043e 23636867 		.ascii	"#chg_pri(%d, HIGH_PRIORITY)\000"
 1579      5F707269 
 1579      2825642C 
 1579      20484947 
 1579      485F5052 
 1580              	.LC53:
 1581 045a 6368675F 		.ascii	"chg_pri(tskid, HIGH_PRIORITY)\000"
 1581      70726928 
 1581      74736B69 
 1581      642C2048 
 1581      4947485F 
 1582              	.LC54:
 1583 0478 23636867 		.ascii	"#chg_pri(%d, MID_PRIORITY)\000"
 1583      5F707269 
 1583      2825642C 
 1583      204D4944 
 1583      5F505249 
 1584              	.LC55:
 1585 0493 6368675F 		.ascii	"chg_pri(tskid, MID_PRIORITY)\000"
 1585      70726928 
 1585      74736B69 
 1585      642C204D 
 1585      49445F50 
 1586              	.LC56:
 1587 04b0 23636867 		.ascii	"#chg_pri(%d, LOW_PRIORITY)\000"
 1587      5F707269 
 1587      2825642C 
 1587      204C4F57 
 1587      5F505249 
 1588              	.LC57:
ARM GAS  C:\TEMP\ccEaFuvY.s 			page 42


 1589 04cb 6368675F 		.ascii	"chg_pri(tskid, LOW_PRIORITY)\000"
 1589      70726928 
 1589      74736B69 
 1589      642C204C 
 1589      4F575F50 
 1590              	.LC58:
 1591 04e8 23676574 		.ascii	"#get_pri(%d, &tskpri)\000"
 1591      5F707269 
 1591      2825642C 
 1591      20267473 
 1591      6B707269 
 1592              	.LC59:
 1593 04fe 65726364 		.ascii	"ercd = get_pri(tskid, &tskpri)\000"
 1593      203D2067 
 1593      65745F70 
 1593      72692874 
 1593      736B6964 
 1594              	.LC60:
 1595 051d 7072696F 		.ascii	"priority of task %d is %d\000"
 1595      72697479 
 1595      206F6620 
 1595      7461736B 
 1595      20256420 
 1596              	.LC61:
 1597 0537 23777570 		.ascii	"#wup_tsk(%d)\000"
 1597      5F74736B 
 1597      28256429 
 1597      00
 1598              	.LC62:
 1599 0544 7775705F 		.ascii	"wup_tsk(tskid)\000"
 1599      74736B28 
 1599      74736B69 
 1599      642900
 1600              	.LC63:
 1601 0553 2363616E 		.ascii	"#can_wup(%d)\000"
 1601      5F777570 
 1601      28256429 
 1601      00
 1602              	.LC64:
 1603 0560 65726364 		.ascii	"ercd = can_wup(tskid)\000"
 1603      203D2063 
 1603      616E5F77 
 1603      75702874 
 1603      736B6964 
 1604              	.LC65:
 1605 0576 63616E5F 		.ascii	"can_wup(%d) returns %d\000"
 1605      77757028 
 1605      25642920 
 1605      72657475 
 1605      726E7320 
 1606              	.LC66:
 1607 058d 2372656C 		.ascii	"#rel_wai(%d)\000"
 1607      5F776169 
 1607      28256429 
 1607      00
 1608              	.LC67:
 1609 059a 72656C5F 		.ascii	"rel_wai(tskid)\000"
ARM GAS  C:\TEMP\ccEaFuvY.s 			page 43


 1609      77616928 
 1609      74736B69 
 1609      642900
 1610              	.LC68:
 1611 05a9 23737573 		.ascii	"#sus_tsk(%d)\000"
 1611      5F74736B 
 1611      28256429 
 1611      00
 1612              	.LC69:
 1613 05b6 7375735F 		.ascii	"sus_tsk(tskid)\000"
 1613      74736B28 
 1613      74736B69 
 1613      642900
 1614              	.LC70:
 1615 05c5 2372736D 		.ascii	"#rsm_tsk(%d)\000"
 1615      5F74736B 
 1615      28256429 
 1615      00
 1616              	.LC71:
 1617 05d2 72736D5F 		.ascii	"rsm_tsk(tskid)\000"
 1617      74736B28 
 1617      74736B69 
 1617      642900
 1618              	.LC72:
 1619 05e1 23726173 		.ascii	"#ras_tex(%d, 0x0001U)\000"
 1619      5F746578 
 1619      2825642C 
 1619      20307830 
 1619      30303155 
 1620              	.LC73:
 1621 05f7 7261735F 		.ascii	"ras_tex(tskid, 0x0001U)\000"
 1621      74657828 
 1621      74736B69 
 1621      642C2030 
 1621      78303030 
 1622              	.LC74:
 1623 060f 23726173 		.ascii	"#ras_tex(%d, 0x0002U)\000"
 1623      5F746578 
 1623      2825642C 
 1623      20307830 
 1623      30303255 
 1624              	.LC75:
 1625 0625 7261735F 		.ascii	"ras_tex(tskid, 0x0002U)\000"
 1625      74657828 
 1625      74736B69 
 1625      642C2030 
 1625      78303030 
 1626              	.LC76:
 1627 063d 23726F74 		.ascii	"#rot_rdq(three priorities)\000"
 1627      5F726471 
 1627      28746872 
 1627      65652070 
 1627      72696F72 
 1628              	.LC77:
 1629 0658 726F745F 		.ascii	"rot_rdq(HIGH_PRIORITY)\000"
 1629      72647128 
 1629      48494748 
ARM GAS  C:\TEMP\ccEaFuvY.s 			page 44


 1629      5F505249 
 1629      4F524954 
 1630              	.LC78:
 1631 066f 726F745F 		.ascii	"rot_rdq(MID_PRIORITY)\000"
 1631      72647128 
 1631      4D49445F 
 1631      5052494F 
 1631      52495459 
 1632              	.LC79:
 1633 0685 726F745F 		.ascii	"rot_rdq(LOW_PRIORITY)\000"
 1633      72647128 
 1633      4C4F575F 
 1633      5052494F 
 1633      52495459 
 1634              	.LC80:
 1635 069b 23737461 		.ascii	"#sta_cyc(1)\000"
 1635      5F637963 
 1635      28312900 
 1636              	.LC81:
 1637 06a7 7374615F 		.ascii	"sta_cyc(CYCHDR1)\000"
 1637      63796328 
 1637      43594348 
 1637      44523129 
 1637      00
 1638              	.LC82:
 1639 06b8 23737470 		.ascii	"#stp_cyc(1)\000"
 1639      5F637963 
 1639      28312900 
 1640              	.LC83:
 1641 06c4 7374705F 		.ascii	"stp_cyc(CYCHDR1)\000"
 1641      63796328 
 1641      43594348 
 1641      44523129 
 1641      00
 1642              	.LC84:
 1643 06d5 23737461 		.ascii	"#sta_alm(1, 5000)\000"
 1643      5F616C6D 
 1643      28312C20 
 1643      35303030 
 1643      2900
 1644              	.LC85:
 1645 06e7 7374615F 		.ascii	"sta_alm(ALMHDR1, 5000)\000"
 1645      616C6D28 
 1645      414C4D48 
 1645      4452312C 
 1645      20353030 
 1646              	.LC86:
 1647 06fe 23737470 		.ascii	"#stp_alm(1)\000"
 1647      5F616C6D 
 1647      28312900 
 1648              	.LC87:
 1649 070a 7374705F 		.ascii	"stp_alm(ALMHDR1)\000"
 1649      616C6D28 
 1649      414C4D48 
 1649      44523129 
 1649      00
 1650              	.LC88:
ARM GAS  C:\TEMP\ccEaFuvY.s 			page 45


 1651 071b 6765745F 		.ascii	"get_utm(&utime1)\000"
 1651      75746D28 
 1651      26757469 
 1651      6D653129 
 1651      00
 1652              	.LC89:
 1653 072c 6765745F 		.ascii	"get_utm(&utime2)\000"
 1653      75746D28 
 1653      26757469 
 1653      6D653229 
 1653      00
 1654              	.LC90:
 1655 073d 7574696D 		.ascii	"utime1 = %ld, utime2 = %ld\000"
 1655      6531203D 
 1655      20256C64 
 1655      2C207574 
 1655      696D6532 
 1656              	.LC91:
 1657 0758 7379736C 		.ascii	"syslog_msk_log(LOG_UPTO(LOG_NOTICE), LOG_UPTO(LOG_E"
 1657      6F675F6D 
 1657      736B5F6C 
 1657      6F67284C 
 1657      4F475F55 
 1658 078b 4D455247 		.ascii	"MERG))\000"
 1658      292900
 1659              	.LC92:
 1660 0792 53616D70 		.ascii	"Sample program ends.\000"
 1660      6C652070 
 1660      726F6772 
 1660      616D2065 
 1660      6E64732E 
 1661              	.LC0:
 1662 07a7 7C00     		.ascii	"|\000"
 1663              	.LC1:
 1664 07a9 20202B00 		.ascii	"  +\000"
 1665              	.LC2:
 1666 07ad 20202020 		.ascii	"    *\000"
 1666      2A00
 1667              		.text
 1668              	.Letext0:
 1669              		.file 2 ".\\asp\\arch\\gcc/tool_stddef.h"
 1670              		.file 3 ".\\asp\\include/t_stddef.h"
 1671              		.file 4 ".\\asp\\include/kernel.h"
 1672              		.file 5 ".\\asp\\include/t_stdlib.h"
 1673              		.file 6 ".\\asp\\include/t_syslog.h"
 1674              		.file 7 ".\\asp/syssvc/syslog.h"
 1675              		.file 8 ".\\asp/syssvc/serial.h"