ARM GAS  C:\TEMP\cc3QDC5c.s 			page 1


   1              		.syntax unified
   2              		.cpu cortex-m3
   3              		.fpu softvfp
   4              		.eabi_attribute 20, 1
   5              		.eabi_attribute 21, 1
   6              		.eabi_attribute 23, 3
   7              		.eabi_attribute 24, 1
   8              		.eabi_attribute 25, 1
   9              		.eabi_attribute 26, 1
  10              		.eabi_attribute 30, 4
  11              		.eabi_attribute 34, 1
  12              		.eabi_attribute 18, 4
  13              		.thumb
  14              		.file	"semaphore.c"
  15              		.text
  16              	.Ltext0:
  17              		.cfi_sections	.debug_frame
  18              		.section	.text.sense_context,"ax",%progbits
  19              		.align	1
  20              		.thumb
  21              		.thumb_func
  22              		.type	sense_context, %function
  23              	sense_context:
  24              	.LFB29:
  25              		.file 1 ".\\asp\\arch\\arm_m_gcc\\common/core_config.h"
   1:.\asp\arch\arm_m_gcc\common/core_config.h **** /*
   2:.\asp\arch\arm_m_gcc\common/core_config.h ****  *  TOPPERS/ASP Kernel
   3:.\asp\arch\arm_m_gcc\common/core_config.h ****  *      Toyohashi Open Platform for Embedded Real-Time Systems/
   4:.\asp\arch\arm_m_gcc\common/core_config.h ****  *      Advanced Standard Profile Kernel
   5:.\asp\arch\arm_m_gcc\common/core_config.h ****  * 
   6:.\asp\arch\arm_m_gcc\common/core_config.h ****  *  Copyright (C) 2008-2011,2013 by Embedded and Real-Time Systems Laboratory
   7:.\asp\arch\arm_m_gcc\common/core_config.h ****  *              Graduate School of Information Science, Nagoya Univ., JAPAN
   8:.\asp\arch\arm_m_gcc\common/core_config.h ****  * 
   9:.\asp\arch\arm_m_gcc\common/core_config.h ****  *  ã‹L’˜ìŒ Ò‚ÍCˆÈ‰º‚Ì(1)`(4)‚ÌğŒ‚ğ–‚½‚·ê‡‚ÉŒÀ‚èC–{ƒ\ƒtƒgƒEƒF
  10:.\asp\arch\arm_m_gcc\common/core_config.h ****  *  ƒAi–{ƒ\ƒtƒgƒEƒFƒA‚ğ‰ü•Ï‚µ‚½‚à‚Ì‚ğŠÜ‚ŞDˆÈ‰º“¯‚¶j‚ğg—pE•¡»E‰ü
  11:.\asp\arch\arm_m_gcc\common/core_config.h ****  *  •ÏEÄ”z•ziˆÈ‰ºC—˜—p‚ÆŒÄ‚Ôj‚·‚é‚±‚Æ‚ğ–³‚Å‹–‘ø‚·‚éD
  12:.\asp\arch\arm_m_gcc\common/core_config.h ****  *  (1) –{ƒ\ƒtƒgƒEƒFƒA‚ğƒ\[ƒXƒR[ƒh‚ÌŒ`‚Å—˜—p‚·‚éê‡‚É‚ÍCã‹L‚Ì’˜ì
  13:.\asp\arch\arm_m_gcc\common/core_config.h ****  *      Œ •\¦C‚±‚Ì—˜—pğŒ‚¨‚æ‚Ñ‰º‹L‚Ì–³•ÛØ‹K’è‚ªC‚»‚Ì‚Ü‚Ü‚ÌŒ`‚Åƒ\[
  14:.\asp\arch\arm_m_gcc\common/core_config.h ****  *      ƒXƒR[ƒh’†‚ÉŠÜ‚Ü‚ê‚Ä‚¢‚é‚±‚ÆD
  15:.\asp\arch\arm_m_gcc\common/core_config.h ****  *  (2) –{ƒ\ƒtƒgƒEƒFƒA‚ğCƒ‰ƒCƒuƒ‰ƒŠŒ`®‚È‚ÇC‘¼‚Ìƒ\ƒtƒgƒEƒFƒAŠJ”­‚Ég
  16:.\asp\arch\arm_m_gcc\common/core_config.h ****  *      —p‚Å‚«‚éŒ`‚ÅÄ”z•z‚·‚éê‡‚É‚ÍCÄ”z•z‚É”º‚¤ƒhƒLƒ…ƒƒ“ƒgi—˜—p
  17:.\asp\arch\arm_m_gcc\common/core_config.h ****  *      Òƒ}ƒjƒ…ƒAƒ‹‚È‚Çj‚ÉCã‹L‚Ì’˜ìŒ •\¦C‚±‚Ì—˜—pğŒ‚¨‚æ‚Ñ‰º‹L
  18:.\asp\arch\arm_m_gcc\common/core_config.h ****  *      ‚Ì–³•ÛØ‹K’è‚ğŒfÚ‚·‚é‚±‚ÆD
  19:.\asp\arch\arm_m_gcc\common/core_config.h ****  *  (3) –{ƒ\ƒtƒgƒEƒFƒA‚ğC‹@Ší‚É‘g‚İ‚Ş‚È‚ÇC‘¼‚Ìƒ\ƒtƒgƒEƒFƒAŠJ”­‚Ég
  20:.\asp\arch\arm_m_gcc\common/core_config.h ****  *      —p‚Å‚«‚È‚¢Œ`‚ÅÄ”z•z‚·‚éê‡‚É‚ÍCŸ‚Ì‚¢‚¸‚ê‚©‚ÌğŒ‚ğ–‚½‚·‚±
  21:.\asp\arch\arm_m_gcc\common/core_config.h ****  *      ‚ÆD
  22:.\asp\arch\arm_m_gcc\common/core_config.h ****  *    (a) Ä”z•z‚É”º‚¤ƒhƒLƒ…ƒƒ“ƒgi—˜—pÒƒ}ƒjƒ…ƒAƒ‹‚È‚Çj‚ÉCã‹L‚Ì’˜
  23:.\asp\arch\arm_m_gcc\common/core_config.h ****  *        ìŒ •\¦C‚±‚Ì—˜—pğŒ‚¨‚æ‚Ñ‰º‹L‚Ì–³•ÛØ‹K’è‚ğŒfÚ‚·‚é‚±‚ÆD
  24:.\asp\arch\arm_m_gcc\common/core_config.h ****  *    (b) Ä”z•z‚ÌŒ`‘Ô‚ğC•Ê‚É’è‚ß‚é•û–@‚É‚æ‚Á‚ÄCTOPPERSƒvƒƒWƒFƒNƒg‚É
  25:.\asp\arch\arm_m_gcc\common/core_config.h ****  *        •ñ‚·‚é‚±‚ÆD
  26:.\asp\arch\arm_m_gcc\common/core_config.h ****  *  (4) –{ƒ\ƒtƒgƒEƒFƒA‚Ì—˜—p‚É‚æ‚è’¼Ú“I‚Ü‚½‚ÍŠÔÚ“I‚É¶‚¶‚é‚¢‚©‚È‚é‘¹
  27:.\asp\arch\arm_m_gcc\common/core_config.h ****  *      ŠQ‚©‚ç‚àCã‹L’˜ìŒ Ò‚¨‚æ‚ÑTOPPERSƒvƒƒWƒFƒNƒg‚ğ–ÆÓ‚·‚é‚±‚ÆD
  28:.\asp\arch\arm_m_gcc\common/core_config.h ****  *      ‚Ü‚½C–{ƒ\ƒtƒgƒEƒFƒA‚Ìƒ†[ƒU‚Ü‚½‚ÍƒGƒ“ƒhƒ†[ƒU‚©‚ç‚Ì‚¢‚©‚È‚é—
  29:.\asp\arch\arm_m_gcc\common/core_config.h ****  *      —R‚ÉŠî‚Ã‚­¿‹‚©‚ç‚àCã‹L’˜ìŒ Ò‚¨‚æ‚ÑTOPPERSƒvƒƒWƒFƒNƒg‚ğ
  30:.\asp\arch\arm_m_gcc\common/core_config.h ****  *      –ÆÓ‚·‚é‚±‚ÆD
  31:.\asp\arch\arm_m_gcc\common/core_config.h ****  * 
  32:.\asp\arch\arm_m_gcc\common/core_config.h ****  *  –{ƒ\ƒtƒgƒEƒFƒA‚ÍC–³•ÛØ‚Å’ñ‹Ÿ‚³‚ê‚Ä‚¢‚é‚à‚Ì‚Å‚ ‚éDã‹L’˜ìŒ Ò‚¨
ARM GAS  C:\TEMP\cc3QDC5c.s 			page 2


  33:.\asp\arch\arm_m_gcc\common/core_config.h ****  *  ‚æ‚ÑTOPPERSƒvƒƒWƒFƒNƒg‚ÍC–{ƒ\ƒtƒgƒEƒFƒA‚ÉŠÖ‚µ‚ÄC“Á’è‚Ìg—p–Ú“I
  34:.\asp\arch\arm_m_gcc\common/core_config.h ****  *  ‚É‘Î‚·‚é“K‡«‚àŠÜ‚ß‚ÄC‚¢‚©‚È‚é•ÛØ‚às‚í‚È‚¢D‚Ü‚½C–{ƒ\ƒtƒgƒEƒF
  35:.\asp\arch\arm_m_gcc\common/core_config.h ****  *  ƒA‚Ì—˜—p‚É‚æ‚è’¼Ú“I‚Ü‚½‚ÍŠÔÚ“I‚É¶‚¶‚½‚¢‚©‚È‚é‘¹ŠQ‚ÉŠÖ‚µ‚Ä‚àC‚»
  36:.\asp\arch\arm_m_gcc\common/core_config.h ****  *  ‚ÌÓ”C‚ğ•‰‚í‚È‚¢D
  37:.\asp\arch\arm_m_gcc\common/core_config.h ****  * 
  38:.\asp\arch\arm_m_gcc\common/core_config.h ****  *  @(#) $Id: core_config.h 2554 2013-10-17 02:53:02Z ertl-honda $
  39:.\asp\arch\arm_m_gcc\common/core_config.h ****  */
  40:.\asp\arch\arm_m_gcc\common/core_config.h **** 
  41:.\asp\arch\arm_m_gcc\common/core_config.h **** /*
  42:.\asp\arch\arm_m_gcc\common/core_config.h ****  *		ƒvƒƒZƒbƒTˆË‘¶ƒ‚ƒWƒ…[ƒ‹iARM-M—pj
  43:.\asp\arch\arm_m_gcc\common/core_config.h ****  *
  44:.\asp\arch\arm_m_gcc\common/core_config.h ****  *  ‚±‚ÌƒCƒ“ƒNƒ‹[ƒhƒtƒ@ƒCƒ‹‚ÍCtarget_config.hi‚Ü‚½‚ÍC‚»‚±‚©‚çƒCƒ“ƒN
  45:.\asp\arch\arm_m_gcc\common/core_config.h ****  *  ƒ‹[ƒh‚³‚ê‚éƒtƒ@ƒCƒ‹j‚Ì‚İ‚©‚çƒCƒ“ƒNƒ‹[ƒh‚³‚ê‚éD‘¼‚Ìƒtƒ@ƒCƒ‹‚©‚ç
  46:.\asp\arch\arm_m_gcc\common/core_config.h ****  *  ’¼ÚƒCƒ“ƒNƒ‹[ƒh‚µ‚Ä‚Í‚È‚ç‚È‚¢D
  47:.\asp\arch\arm_m_gcc\common/core_config.h ****  */
  48:.\asp\arch\arm_m_gcc\common/core_config.h **** 
  49:.\asp\arch\arm_m_gcc\common/core_config.h **** #ifndef TOPPERS_CORE_CONFIG_H
  50:.\asp\arch\arm_m_gcc\common/core_config.h **** #define TOPPERS_CORE_CONFIG_H
  51:.\asp\arch\arm_m_gcc\common/core_config.h **** 
  52:.\asp\arch\arm_m_gcc\common/core_config.h **** #ifndef TOPPERS_MACRO_ONLY
  53:.\asp\arch\arm_m_gcc\common/core_config.h **** 
  54:.\asp\arch\arm_m_gcc\common/core_config.h **** /*
  55:.\asp\arch\arm_m_gcc\common/core_config.h ****  *  ƒvƒƒZƒbƒT‚Ì“Áê–½—ß‚ÌƒCƒ“ƒ‰ƒCƒ“ŠÖ”’è‹`
  56:.\asp\arch\arm_m_gcc\common/core_config.h ****  */
  57:.\asp\arch\arm_m_gcc\common/core_config.h **** #include <core_insn.h>
  58:.\asp\arch\arm_m_gcc\common/core_config.h **** 
  59:.\asp\arch\arm_m_gcc\common/core_config.h **** /*
  60:.\asp\arch\arm_m_gcc\common/core_config.h ****  *  ƒ^[ƒQƒbƒgˆË‘¶‚ÌƒIƒuƒWƒFƒNƒg‘®«
  61:.\asp\arch\arm_m_gcc\common/core_config.h ****  */
  62:.\asp\arch\arm_m_gcc\common/core_config.h **** #define TARGET_INHATR  TA_NONKERNEL /* ƒ^[ƒQƒbƒg’è‹`‚ÌŠ„‚İƒnƒ“ƒhƒ‰‘®« */
  63:.\asp\arch\arm_m_gcc\common/core_config.h **** 
  64:.\asp\arch\arm_m_gcc\common/core_config.h **** /*
  65:.\asp\arch\arm_m_gcc\common/core_config.h ****  *  ƒGƒ‰[ƒ`ƒFƒbƒN•û–@‚Ìw’è
  66:.\asp\arch\arm_m_gcc\common/core_config.h ****  */
  67:.\asp\arch\arm_m_gcc\common/core_config.h **** #define CHECK_STKSZ_ALIGN	8	/* ƒXƒ^ƒbƒNƒTƒCƒY‚ÌƒAƒ‰ƒCƒ“’PˆÊ */
  68:.\asp\arch\arm_m_gcc\common/core_config.h **** #define CHECK_FUNC_ALIGN	1	/* ŠÖ”‚ÌƒAƒ‰ƒCƒ“’PˆÊ */
  69:.\asp\arch\arm_m_gcc\common/core_config.h **** #define CHECK_FUNC_NONNULL		/* ŠÖ”‚Ì”ñNULLƒ`ƒFƒbƒN */
  70:.\asp\arch\arm_m_gcc\common/core_config.h **** #define CHECK_STACK_ALIGN	8	/* ƒXƒ^ƒbƒN—Ìˆæ‚ÌƒAƒ‰ƒCƒ“’PˆÊ */
  71:.\asp\arch\arm_m_gcc\common/core_config.h **** #define CHECK_STACK_NONNULL		/* ƒXƒ^ƒbƒN—Ìˆæ‚Ì”ñNULLƒ`ƒFƒbƒN */
  72:.\asp\arch\arm_m_gcc\common/core_config.h **** #define CHECK_MPF_ALIGN		4	/* ŒÅ’è’·ƒƒ‚ƒŠƒv[ƒ‹—Ìˆæ‚ÌƒAƒ‰ƒCƒ“’PˆÊ */
  73:.\asp\arch\arm_m_gcc\common/core_config.h **** #define CHECK_MPF_NONNULL		/* ŒÅ’è’·ƒƒ‚ƒŠƒv[ƒ‹—Ìˆæ‚Ì”ñNULLƒ`ƒFƒbƒN */
  74:.\asp\arch\arm_m_gcc\common/core_config.h **** #define CHECK_MB_ALIGN		4	/* ŠÇ——Ìˆæ‚ÌƒAƒ‰ƒCƒ“’PˆÊ */
  75:.\asp\arch\arm_m_gcc\common/core_config.h **** 
  76:.\asp\arch\arm_m_gcc\common/core_config.h **** /*
  77:.\asp\arch\arm_m_gcc\common/core_config.h ****  *  ”ñƒ^ƒXƒNƒRƒ“ƒeƒLƒXƒg—p‚ÌƒXƒ^ƒbƒN‰Šú’l
  78:.\asp\arch\arm_m_gcc\common/core_config.h ****  */
  79:.\asp\arch\arm_m_gcc\common/core_config.h **** #define TOPPERS_ISTKPT(istk, istksz) ((STK_T *)((uint8_t *)(istk) + (istksz)))
  80:.\asp\arch\arm_m_gcc\common/core_config.h **** 
  81:.\asp\arch\arm_m_gcc\common/core_config.h **** /*
  82:.\asp\arch\arm_m_gcc\common/core_config.h ****  *  ƒ^ƒXƒNƒRƒ“ƒeƒLƒXƒgƒuƒƒbƒN‚Ì’è‹`
  83:.\asp\arch\arm_m_gcc\common/core_config.h ****  */
  84:.\asp\arch\arm_m_gcc\common/core_config.h **** typedef struct task_context_block {
  85:.\asp\arch\arm_m_gcc\common/core_config.h **** 	void	*sp;		/* ƒXƒ^ƒbƒNƒ|ƒCƒ“ƒ^ */
  86:.\asp\arch\arm_m_gcc\common/core_config.h **** 	FP		pc;			/* ƒvƒƒOƒ‰ƒ€ƒJƒEƒ“ƒ^ */
  87:.\asp\arch\arm_m_gcc\common/core_config.h **** } TSKCTXB;
  88:.\asp\arch\arm_m_gcc\common/core_config.h **** 
  89:.\asp\arch\arm_m_gcc\common/core_config.h **** #endif /* TOPPERS_MACRO_ONLY */
ARM GAS  C:\TEMP\cc3QDC5c.s 			page 3


  90:.\asp\arch\arm_m_gcc\common/core_config.h **** 
  91:.\asp\arch\arm_m_gcc\common/core_config.h **** #ifndef TOPPERS_MACRO_ONLY
  92:.\asp\arch\arm_m_gcc\common/core_config.h **** /*
  93:.\asp\arch\arm_m_gcc\common/core_config.h ****  *  ƒRƒ“ƒeƒLƒXƒg‚ÌQÆ
  94:.\asp\arch\arm_m_gcc\common/core_config.h ****  *
  95:.\asp\arch\arm_m_gcc\common/core_config.h ****  */
  96:.\asp\arch\arm_m_gcc\common/core_config.h **** Inline bool_t
  97:.\asp\arch\arm_m_gcc\common/core_config.h **** sense_context(void)
  98:.\asp\arch\arm_m_gcc\common/core_config.h **** {
  26              		.loc 1 98 0
  27              		.cfi_startproc
  28              		@ args = 0, pretend = 0, frame = 0
  29              		@ frame_needed = 0, uses_anonymous_args = 0
  30              		@ link register save eliminated.
  31              	.LBB32:
  32              	.LBB33:
  33              		.file 2 ".\\asp\\arch\\arm_m_gcc\\common/core_insn.h"
   1:.\asp\arch\arm_m_gcc\common/core_insn.h **** /*
   2:.\asp\arch\arm_m_gcc\common/core_insn.h ****  *  TOPPERS/ASP Kernel
   3:.\asp\arch\arm_m_gcc\common/core_insn.h ****  *      Toyohashi Open Platform for Embedded Real-Time Systems/
   4:.\asp\arch\arm_m_gcc\common/core_insn.h ****  *      Advanced Standard Profile Kernel
   5:.\asp\arch\arm_m_gcc\common/core_insn.h ****  * 
   6:.\asp\arch\arm_m_gcc\common/core_insn.h ****  *  Copyright (C) 2008 by Embedded and Real-Time Systems Laboratory
   7:.\asp\arch\arm_m_gcc\common/core_insn.h ****  *              Graduate School of Information Science, Nagoya Univ., JAPAN
   8:.\asp\arch\arm_m_gcc\common/core_insn.h ****  * 
   9:.\asp\arch\arm_m_gcc\common/core_insn.h ****  *  ã‹L’˜ìŒ Ò‚ÍCˆÈ‰º‚Ì(1)`(4)‚ÌğŒ‚ğ–‚½‚·ê‡‚ÉŒÀ‚èC–{ƒ\ƒtƒgƒEƒF
  10:.\asp\arch\arm_m_gcc\common/core_insn.h ****  *  ƒAi–{ƒ\ƒtƒgƒEƒFƒA‚ğ‰ü•Ï‚µ‚½‚à‚Ì‚ğŠÜ‚ŞDˆÈ‰º“¯‚¶j‚ğg—pE•¡»E‰ü
  11:.\asp\arch\arm_m_gcc\common/core_insn.h ****  *  •ÏEÄ”z•ziˆÈ‰ºC—˜—p‚ÆŒÄ‚Ôj‚·‚é‚±‚Æ‚ğ–³‚Å‹–‘ø‚·‚éD
  12:.\asp\arch\arm_m_gcc\common/core_insn.h ****  *  (1) –{ƒ\ƒtƒgƒEƒFƒA‚ğƒ\[ƒXƒR[ƒh‚ÌŒ`‚Å—˜—p‚·‚éê‡‚É‚ÍCã‹L‚Ì’˜ì
  13:.\asp\arch\arm_m_gcc\common/core_insn.h ****  *      Œ •\¦C‚±‚Ì—˜—pğŒ‚¨‚æ‚Ñ‰º‹L‚Ì–³•ÛØ‹K’è‚ªC‚»‚Ì‚Ü‚Ü‚ÌŒ`‚Åƒ\[
  14:.\asp\arch\arm_m_gcc\common/core_insn.h ****  *      ƒXƒR[ƒh’†‚ÉŠÜ‚Ü‚ê‚Ä‚¢‚é‚±‚ÆD
  15:.\asp\arch\arm_m_gcc\common/core_insn.h ****  *  (2) –{ƒ\ƒtƒgƒEƒFƒA‚ğCƒ‰ƒCƒuƒ‰ƒŠŒ`®‚È‚ÇC‘¼‚Ìƒ\ƒtƒgƒEƒFƒAŠJ”­‚Ég
  16:.\asp\arch\arm_m_gcc\common/core_insn.h ****  *      —p‚Å‚«‚éŒ`‚ÅÄ”z•z‚·‚éê‡‚É‚ÍCÄ”z•z‚É”º‚¤ƒhƒLƒ…ƒƒ“ƒgi—˜—p
  17:.\asp\arch\arm_m_gcc\common/core_insn.h ****  *      Òƒ}ƒjƒ…ƒAƒ‹‚È‚Çj‚ÉCã‹L‚Ì’˜ìŒ •\¦C‚±‚Ì—˜—pğŒ‚¨‚æ‚Ñ‰º‹L
  18:.\asp\arch\arm_m_gcc\common/core_insn.h ****  *      ‚Ì–³•ÛØ‹K’è‚ğŒfÚ‚·‚é‚±‚ÆD
  19:.\asp\arch\arm_m_gcc\common/core_insn.h ****  *  (3) –{ƒ\ƒtƒgƒEƒFƒA‚ğC‹@Ší‚É‘g‚İ‚Ş‚È‚ÇC‘¼‚Ìƒ\ƒtƒgƒEƒFƒAŠJ”­‚Ég
  20:.\asp\arch\arm_m_gcc\common/core_insn.h ****  *      —p‚Å‚«‚È‚¢Œ`‚ÅÄ”z•z‚·‚éê‡‚É‚ÍCŸ‚Ì‚¢‚¸‚ê‚©‚ÌğŒ‚ğ–‚½‚·‚±
  21:.\asp\arch\arm_m_gcc\common/core_insn.h ****  *      ‚ÆD
  22:.\asp\arch\arm_m_gcc\common/core_insn.h ****  *    (a) Ä”z•z‚É”º‚¤ƒhƒLƒ…ƒƒ“ƒgi—˜—pÒƒ}ƒjƒ…ƒAƒ‹‚È‚Çj‚ÉCã‹L‚Ì’˜
  23:.\asp\arch\arm_m_gcc\common/core_insn.h ****  *        ìŒ •\¦C‚±‚Ì—˜—pğŒ‚¨‚æ‚Ñ‰º‹L‚Ì–³•ÛØ‹K’è‚ğŒfÚ‚·‚é‚±‚ÆD
  24:.\asp\arch\arm_m_gcc\common/core_insn.h ****  *    (b) Ä”z•z‚ÌŒ`‘Ô‚ğC•Ê‚É’è‚ß‚é•û–@‚É‚æ‚Á‚ÄCTOPPERSƒvƒƒWƒFƒNƒg‚É
  25:.\asp\arch\arm_m_gcc\common/core_insn.h ****  *        •ñ‚·‚é‚±‚ÆD
  26:.\asp\arch\arm_m_gcc\common/core_insn.h ****  *  (4) –{ƒ\ƒtƒgƒEƒFƒA‚Ì—˜—p‚É‚æ‚è’¼Ú“I‚Ü‚½‚ÍŠÔÚ“I‚É¶‚¶‚é‚¢‚©‚È‚é‘¹
  27:.\asp\arch\arm_m_gcc\common/core_insn.h ****  *      ŠQ‚©‚ç‚àCã‹L’˜ìŒ Ò‚¨‚æ‚ÑTOPPERSƒvƒƒWƒFƒNƒg‚ğ–ÆÓ‚·‚é‚±‚ÆD
  28:.\asp\arch\arm_m_gcc\common/core_insn.h ****  *      ‚Ü‚½C–{ƒ\ƒtƒgƒEƒFƒA‚Ìƒ†[ƒU‚Ü‚½‚ÍƒGƒ“ƒhƒ†[ƒU‚©‚ç‚Ì‚¢‚©‚È‚é—
  29:.\asp\arch\arm_m_gcc\common/core_insn.h ****  *      —R‚ÉŠî‚Ã‚­¿‹‚©‚ç‚àCã‹L’˜ìŒ Ò‚¨‚æ‚ÑTOPPERSƒvƒƒWƒFƒNƒg‚ğ
  30:.\asp\arch\arm_m_gcc\common/core_insn.h ****  *      –ÆÓ‚·‚é‚±‚ÆD
  31:.\asp\arch\arm_m_gcc\common/core_insn.h ****  * 
  32:.\asp\arch\arm_m_gcc\common/core_insn.h ****  *  –{ƒ\ƒtƒgƒEƒFƒA‚ÍC–³•ÛØ‚Å’ñ‹Ÿ‚³‚ê‚Ä‚¢‚é‚à‚Ì‚Å‚ ‚éDã‹L’˜ìŒ Ò‚¨
  33:.\asp\arch\arm_m_gcc\common/core_insn.h ****  *  ‚æ‚ÑTOPPERSƒvƒƒWƒFƒNƒg‚ÍC–{ƒ\ƒtƒgƒEƒFƒA‚ÉŠÖ‚µ‚ÄC“Á’è‚Ìg—p–Ú“I
  34:.\asp\arch\arm_m_gcc\common/core_insn.h ****  *  ‚É‘Î‚·‚é“K‡«‚àŠÜ‚ß‚ÄC‚¢‚©‚È‚é•ÛØ‚às‚í‚È‚¢D‚Ü‚½C–{ƒ\ƒtƒgƒEƒF
  35:.\asp\arch\arm_m_gcc\common/core_insn.h ****  *  ƒA‚Ì—˜—p‚É‚æ‚è’¼Ú“I‚Ü‚½‚ÍŠÔÚ“I‚É¶‚¶‚½‚¢‚©‚È‚é‘¹ŠQ‚ÉŠÖ‚µ‚Ä‚àC‚»
  36:.\asp\arch\arm_m_gcc\common/core_insn.h ****  *  ‚ÌÓ”C‚ğ•‰‚í‚È‚¢D
  37:.\asp\arch\arm_m_gcc\common/core_insn.h ****  * 
  38:.\asp\arch\arm_m_gcc\common/core_insn.h ****  *  @(#) $Id: core_insn.h 2310 2012-02-23 02:14:28Z ertl-honda $
  39:.\asp\arch\arm_m_gcc\common/core_insn.h ****  */
  40:.\asp\arch\arm_m_gcc\common/core_insn.h **** 
ARM GAS  C:\TEMP\cc3QDC5c.s 			page 4


  41:.\asp\arch\arm_m_gcc\common/core_insn.h **** 
  42:.\asp\arch\arm_m_gcc\common/core_insn.h **** /*
  43:.\asp\arch\arm_m_gcc\common/core_insn.h ****  *  ƒRƒAˆË‘¶‚Ì“Áê–½—ß‚ÌƒCƒ“ƒ‰ƒCƒ“ŠÖ”’è‹`iARM-M—pj
  44:.\asp\arch\arm_m_gcc\common/core_insn.h ****  */
  45:.\asp\arch\arm_m_gcc\common/core_insn.h **** 
  46:.\asp\arch\arm_m_gcc\common/core_insn.h **** #ifndef CORE_INSN_H
  47:.\asp\arch\arm_m_gcc\common/core_insn.h **** #define CORE_INSN_H
  48:.\asp\arch\arm_m_gcc\common/core_insn.h **** 
  49:.\asp\arch\arm_m_gcc\common/core_insn.h **** #include <arm_m.h>
  50:.\asp\arch\arm_m_gcc\common/core_insn.h **** 
  51:.\asp\arch\arm_m_gcc\common/core_insn.h **** /*
  52:.\asp\arch\arm_m_gcc\common/core_insn.h ****  *  ƒƒ‚ƒŠ‚ª•ÏX‚³‚ê‚é‚±‚Æ‚ğƒRƒ“ƒpƒCƒ‰‚É“`‚¦‚é‚½‚ß‚Ìƒ}ƒNƒ
  53:.\asp\arch\arm_m_gcc\common/core_insn.h ****  */
  54:.\asp\arch\arm_m_gcc\common/core_insn.h **** #define ARM_MEMORY_CHANGED Asm("":::"memory")
  55:.\asp\arch\arm_m_gcc\common/core_insn.h **** 
  56:.\asp\arch\arm_m_gcc\common/core_insn.h **** /*
  57:.\asp\arch\arm_m_gcc\common/core_insn.h ****  *  FAULTMASK‚ÌƒZƒbƒg
  58:.\asp\arch\arm_m_gcc\common/core_insn.h ****  */
  59:.\asp\arch\arm_m_gcc\common/core_insn.h **** Inline void
  60:.\asp\arch\arm_m_gcc\common/core_insn.h **** set_faultmask(void){
  61:.\asp\arch\arm_m_gcc\common/core_insn.h **** 	Asm("cpsid f":::"memory");
  62:.\asp\arch\arm_m_gcc\common/core_insn.h **** }
  63:.\asp\arch\arm_m_gcc\common/core_insn.h **** 
  64:.\asp\arch\arm_m_gcc\common/core_insn.h **** /*
  65:.\asp\arch\arm_m_gcc\common/core_insn.h ****  *  FAULTMASK‚ÌƒNƒŠƒA
  66:.\asp\arch\arm_m_gcc\common/core_insn.h ****  */
  67:.\asp\arch\arm_m_gcc\common/core_insn.h **** Inline void
  68:.\asp\arch\arm_m_gcc\common/core_insn.h **** clear_faultmask(void){
  69:.\asp\arch\arm_m_gcc\common/core_insn.h **** 	Asm("cpsie f":::"memory");
  70:.\asp\arch\arm_m_gcc\common/core_insn.h **** }
  71:.\asp\arch\arm_m_gcc\common/core_insn.h **** 
  72:.\asp\arch\arm_m_gcc\common/core_insn.h **** /*
  73:.\asp\arch\arm_m_gcc\common/core_insn.h ****  *  PRIMASK‚ÌƒZƒbƒg
  74:.\asp\arch\arm_m_gcc\common/core_insn.h ****  */
  75:.\asp\arch\arm_m_gcc\common/core_insn.h **** Inline void
  76:.\asp\arch\arm_m_gcc\common/core_insn.h **** set_primask(void){
  77:.\asp\arch\arm_m_gcc\common/core_insn.h **** 	Asm("cpsid i":::"memory");
  78:.\asp\arch\arm_m_gcc\common/core_insn.h **** }
  79:.\asp\arch\arm_m_gcc\common/core_insn.h **** 
  80:.\asp\arch\arm_m_gcc\common/core_insn.h **** /*
  81:.\asp\arch\arm_m_gcc\common/core_insn.h ****  *  PRIMASK‚ÌƒNƒŠƒA
  82:.\asp\arch\arm_m_gcc\common/core_insn.h ****  */
  83:.\asp\arch\arm_m_gcc\common/core_insn.h **** Inline void
  84:.\asp\arch\arm_m_gcc\common/core_insn.h **** clear_primask(void){
  85:.\asp\arch\arm_m_gcc\common/core_insn.h **** 	Asm("cpsie i":::"memory");
  86:.\asp\arch\arm_m_gcc\common/core_insn.h **** }
  87:.\asp\arch\arm_m_gcc\common/core_insn.h **** 
  88:.\asp\arch\arm_m_gcc\common/core_insn.h **** /*
  89:.\asp\arch\arm_m_gcc\common/core_insn.h ****  *  BASEPRI‚ÌƒZƒbƒg
  90:.\asp\arch\arm_m_gcc\common/core_insn.h ****  */
  91:.\asp\arch\arm_m_gcc\common/core_insn.h **** Inline void
  92:.\asp\arch\arm_m_gcc\common/core_insn.h **** set_basepri(uint32_t val){
  93:.\asp\arch\arm_m_gcc\common/core_insn.h **** 	Asm("msr BASEPRI, %0" : : "r"(val) : "memory");
  94:.\asp\arch\arm_m_gcc\common/core_insn.h **** }
  95:.\asp\arch\arm_m_gcc\common/core_insn.h **** 
  96:.\asp\arch\arm_m_gcc\common/core_insn.h **** /*
  97:.\asp\arch\arm_m_gcc\common/core_insn.h ****  *  BASEPRI‚Ìæ“¾
ARM GAS  C:\TEMP\cc3QDC5c.s 			page 5


  98:.\asp\arch\arm_m_gcc\common/core_insn.h ****  */
  99:.\asp\arch\arm_m_gcc\common/core_insn.h **** Inline uint32_t
 100:.\asp\arch\arm_m_gcc\common/core_insn.h **** get_basepri(void){
 101:.\asp\arch\arm_m_gcc\common/core_insn.h **** 	uint32_t val;
 102:.\asp\arch\arm_m_gcc\common/core_insn.h **** 	Asm("mrs  %0, BASEPRI" : "=r"(val));
 103:.\asp\arch\arm_m_gcc\common/core_insn.h **** 	return(val);
 104:.\asp\arch\arm_m_gcc\common/core_insn.h **** }
 105:.\asp\arch\arm_m_gcc\common/core_insn.h **** 
 106:.\asp\arch\arm_m_gcc\common/core_insn.h **** /*
 107:.\asp\arch\arm_m_gcc\common/core_insn.h ****  *  CONTROL‚ÌƒZƒbƒg
 108:.\asp\arch\arm_m_gcc\common/core_insn.h ****  */
 109:.\asp\arch\arm_m_gcc\common/core_insn.h **** Inline void
 110:.\asp\arch\arm_m_gcc\common/core_insn.h **** set_control(uint32_t val){
 111:.\asp\arch\arm_m_gcc\common/core_insn.h **** 	/*
 112:.\asp\arch\arm_m_gcc\common/core_insn.h **** 	 *  controlƒŒƒWƒXƒ^ƒZƒbƒgŒã‚É‚Íisb‚ª•K{
 113:.\asp\arch\arm_m_gcc\common/core_insn.h **** 	 *  [ARMv7-M Architecture Reference Manaual(DDI0403B) A3-37]
 114:.\asp\arch\arm_m_gcc\common/core_insn.h **** 	 */
 115:.\asp\arch\arm_m_gcc\common/core_insn.h **** 	Asm("msr control, %0 \n"
 116:.\asp\arch\arm_m_gcc\common/core_insn.h **** 		" isb"
 117:.\asp\arch\arm_m_gcc\common/core_insn.h **** 		: : "r"(val) : "memory");
 118:.\asp\arch\arm_m_gcc\common/core_insn.h **** }
 119:.\asp\arch\arm_m_gcc\common/core_insn.h **** 
 120:.\asp\arch\arm_m_gcc\common/core_insn.h **** /*
 121:.\asp\arch\arm_m_gcc\common/core_insn.h ****  *  CONTROL‚Ìæ“¾
 122:.\asp\arch\arm_m_gcc\common/core_insn.h ****  */
 123:.\asp\arch\arm_m_gcc\common/core_insn.h **** Inline uint32_t
 124:.\asp\arch\arm_m_gcc\common/core_insn.h **** get_control(void){
 125:.\asp\arch\arm_m_gcc\common/core_insn.h **** 	uint32_t val;
 126:.\asp\arch\arm_m_gcc\common/core_insn.h **** 	Asm("mrs  %0, CONTROL" : "=r"(val));
  34              		.loc 2 126 0
  35              	@ 126 ".\asp\arch\arm_m_gcc\common/core_insn.h" 1
  36 0000 EFF31480 		mrs  r0, CONTROL
  37              	@ 0 "" 2
  38              	.LVL0:
  39              		.thumb
  40              	.LBE33:
  41              	.LBE32:
  99:.\asp\arch\arm_m_gcc\common/core_config.h **** 	/*
 100:.\asp\arch\arm_m_gcc\common/core_config.h **** 	 *  PSP‚ª—LŒø‚È‚çƒ^ƒXƒNƒRƒ“ƒeƒLƒXƒgCMSP‚ª—LŒø‚È‚ç”ñƒ^ƒXƒNƒRƒ“ƒeƒLƒXƒg
 101:.\asp\arch\arm_m_gcc\common/core_config.h **** 	 *  ‚Æ‚·‚éD 
 102:.\asp\arch\arm_m_gcc\common/core_config.h **** 	 */
 103:.\asp\arch\arm_m_gcc\common/core_config.h **** 	if ((get_control() & CONTROL_PSP) == CONTROL_PSP){
  42              		.loc 1 103 0
  43 0004 80F00201 		eor	r1, r0, #2
 104:.\asp\arch\arm_m_gcc\common/core_config.h **** 		return false;
 105:.\asp\arch\arm_m_gcc\common/core_config.h **** 	}
 106:.\asp\arch\arm_m_gcc\common/core_config.h **** 	else {
 107:.\asp\arch\arm_m_gcc\common/core_config.h **** 		return true;
 108:.\asp\arch\arm_m_gcc\common/core_config.h **** 	}
 109:.\asp\arch\arm_m_gcc\common/core_config.h **** }
  44              		.loc 1 109 0
  45 0008 C1F34000 		ubfx	r0, r1, #1, #1
  46              	.LVL1:
  47 000c 7047     		bx	lr
  48              		.cfi_endproc
  49              	.LFE29:
  50              		.size	sense_context, .-sense_context
ARM GAS  C:\TEMP\cc3QDC5c.s 			page 6


  51              		.section	.text.x_lock_cpu,"ax",%progbits
  52              		.align	1
  53              		.thumb
  54              		.thumb_func
  55              		.type	x_lock_cpu, %function
  56              	x_lock_cpu:
  57              	.LFB30:
 110:.\asp\arch\arm_m_gcc\common/core_config.h **** 
 111:.\asp\arch\arm_m_gcc\common/core_config.h **** #endif /* TOPPERS_MACRO_ONLY */
 112:.\asp\arch\arm_m_gcc\common/core_config.h **** 
 113:.\asp\arch\arm_m_gcc\common/core_config.h **** /*
 114:.\asp\arch\arm_m_gcc\common/core_config.h ****  *  TOPPERS•W€Š„‚İˆ—ƒ‚ƒfƒ‹‚ÌÀŒ»
 115:.\asp\arch\arm_m_gcc\common/core_config.h ****  *
 116:.\asp\arch\arm_m_gcc\common/core_config.h ****  *  Š„‚İ—Dæ“xƒ}ƒXƒN‚Æ‚µ‚Ä‚ÍCBASEPRI‚ğ—p‚¢‚éD‘SŠ„‚İ‚ğ‹Ö~‚·‚é
 117:.\asp\arch\arm_m_gcc\common/core_config.h ****  *  ‹@”\‚Æ‚µ‚ÄCFAULTMASK‚âPRIMASK‚ª‚ ‚é‚ªCƒJ[ƒlƒ‹ŠÇ—ŠO‚ÌŠ„‚İ‚ğ
 118:.\asp\arch\arm_m_gcc\common/core_config.h ****  *  ƒTƒ|[ƒg‚·‚é‚½‚ßC‚±‚ê‚ç‚ÍCPUƒƒbƒN‚Ì‚½‚ß‚É—p‚¢‚È‚¢D
 119:.\asp\arch\arm_m_gcc\common/core_config.h ****  *  ‚»‚Ì‚½‚ßCBASEPRI‚ğ—p‚¢‚Ä‹[—“I‚ÉCPUƒƒbƒNƒtƒ‰ƒO‚ğÀŒ»‚·‚éD
 120:.\asp\arch\arm_m_gcc\common/core_config.h ****  *
 121:.\asp\arch\arm_m_gcc\common/core_config.h ****  *  ‚Ü‚¸CCPUƒƒbƒNó‘Ô‚ğŠÇ—‚·‚½‚ß‚Ì•Ï”(lock_flag)‚ğ—pˆÓ‚·‚éD
 122:.\asp\arch\arm_m_gcc\common/core_config.h ****  *
 123:.\asp\arch\arm_m_gcc\common/core_config.h ****  *  CPUƒƒbƒNƒtƒ‰ƒO‚ªƒNƒŠƒA‚³‚ê‚Ä‚¢‚éŠÔ‚ÍCBASEPRI‚ğƒ‚ƒfƒ‹ã‚ÌŠ„‚İ
 124:.\asp\arch\arm_m_gcc\common/core_config.h ****  *  —Dæ“xƒ}ƒXƒN‚Ì’l‚Éİ’è‚·‚éD‚±‚ÌŠÔ‚ÍCƒ‚ƒfƒ‹ã‚ÌŠ„‚İ—Dæ“xƒ}ƒX
 125:.\asp\arch\arm_m_gcc\common/core_config.h ****  *  ƒN‚ÍCBASEPRI‚ğ—p‚¢‚éD
 126:.\asp\arch\arm_m_gcc\common/core_config.h ****  * 
 127:.\asp\arch\arm_m_gcc\common/core_config.h ****  *  ‚»‚ê‚É‘Î‚µ‚ÄCPUƒƒbƒNƒtƒ‰ƒO‚ªƒZƒbƒg‚³‚ê‚¢‚éŠÔ‚ÍCBASEPRI‚ğCƒJ[ƒl
 128:.\asp\arch\arm_m_gcc\common/core_config.h ****  *  ƒ‹ŠÇ—ŠO‚Ì‚à‚Ì‚ğœ‚­‚·‚×‚Ä‚ÌŠ„‚İ—v‹‚ğƒ}ƒXƒN‚·‚é’l(TIPM_LOCK)‚ÆC
 129:.\asp\arch\arm_m_gcc\common/core_config.h ****  *  ƒ‚ƒfƒ‹ã‚ÌŠ„‚İ—Dæ“xƒ}ƒXƒN‚Æ‚Ì‚‚¢•û‚Éİ’è‚·‚éD‚±‚ÌŠÔ‚Ìƒ‚ƒfƒ‹ã
 130:.\asp\arch\arm_m_gcc\common/core_config.h ****  *  ‚ÌŠ„‚İ—Dæ“xƒ}ƒXƒN‚ÍC‚»‚Ì‚½‚ß‚Ì•Ï”(saved_iipm, “à•”•\Œ»‚Å•Û)
 131:.\asp\arch\arm_m_gcc\common/core_config.h ****  *  ‚ğ—pˆÓ‚µ‚Ä•Û‚·‚éD
 132:.\asp\arch\arm_m_gcc\common/core_config.h ****  */
 133:.\asp\arch\arm_m_gcc\common/core_config.h **** 
 134:.\asp\arch\arm_m_gcc\common/core_config.h **** /*
 135:.\asp\arch\arm_m_gcc\common/core_config.h ****  *  Š„‚İ—Dæ“xƒ}ƒXƒN‚ÌŠO•”•\Œ»‚Æ“à•”•\Œ»‚Ì•ÏŠ·
 136:.\asp\arch\arm_m_gcc\common/core_config.h ****  *
 137:.\asp\arch\arm_m_gcc\common/core_config.h ****  *  ƒAƒZƒ“ƒuƒŠŒ¾Œê‚Ìƒ\[ƒXƒtƒ@ƒCƒ‹‚©‚çƒCƒ“ƒNƒ‹[ƒh‚·‚éê‡‚Ì‚½‚ß‚ÉC
 138:.\asp\arch\arm_m_gcc\common/core_config.h ****  *  CAST‚ğg—p
 139:.\asp\arch\arm_m_gcc\common/core_config.h ****  *  Š„‚İ—Dæ“x‚Ìƒrƒbƒg•(TBITW_IPRI)‚ª 8 ‚Ìê‡‚ÍC“à•”—Dæ“x 255
 140:.\asp\arch\arm_m_gcc\common/core_config.h ****  *  ‚ÍCŠO•”—Dæ“x -1 ‚É‘Î‰‚·‚éD
 141:.\asp\arch\arm_m_gcc\common/core_config.h ****  */
 142:.\asp\arch\arm_m_gcc\common/core_config.h **** #define EXT_IPM(iipm)   (CAST(PRI,((iipm >> (8 - TBITW_IPRI)) - (1 << TBITW_IPRI))))       /* “à•”•
 143:.\asp\arch\arm_m_gcc\common/core_config.h **** #define INT_IPM(ipm)    (((1 << TBITW_IPRI) - CAST(uint8_t, -(ipm)))  << (8 - TBITW_IPRI)) /* ŠO•”•
 144:.\asp\arch\arm_m_gcc\common/core_config.h **** 
 145:.\asp\arch\arm_m_gcc\common/core_config.h **** /*
 146:.\asp\arch\arm_m_gcc\common/core_config.h ****  *  CPUƒƒbƒNó‘Ô‚Å‚ÌŠ„‚İ—Dæ“xƒ}ƒXƒN
 147:.\asp\arch\arm_m_gcc\common/core_config.h ****  */
 148:.\asp\arch\arm_m_gcc\common/core_config.h **** #define TIPM_LOCK    TMIN_INTPRI
 149:.\asp\arch\arm_m_gcc\common/core_config.h **** 
 150:.\asp\arch\arm_m_gcc\common/core_config.h **** /*
 151:.\asp\arch\arm_m_gcc\common/core_config.h ****  *  CPUƒƒbƒNó‘Ô‚Å‚ÌŠ„‚İ—Dæ“xƒ}ƒXƒN‚Ì“à•”•\Œ»
 152:.\asp\arch\arm_m_gcc\common/core_config.h ****  *
 153:.\asp\arch\arm_m_gcc\common/core_config.h ****  *  TIPM_LOCK‚ÍCCPUƒƒbƒNó‘Ô‚Å‚ÌBASEPRI‚Ì’lDƒJ[ƒlƒ‹ŠÇ—ŠO‚Ì‚à‚Ì‚ğ
 154:.\asp\arch\arm_m_gcc\common/core_config.h ****  *  œ‚­‚·‚×‚Ä‚ÌŠ„‚İ‚ğƒ}ƒXƒN‚·‚é’l‚É’è‹`‚·‚éD  
 155:.\asp\arch\arm_m_gcc\common/core_config.h ****  */
 156:.\asp\arch\arm_m_gcc\common/core_config.h **** #define IIPM_LOCK    INT_IPM(TIPM_LOCK)
 157:.\asp\arch\arm_m_gcc\common/core_config.h **** 
 158:.\asp\arch\arm_m_gcc\common/core_config.h **** /*
 159:.\asp\arch\arm_m_gcc\common/core_config.h ****  *  TIPM_ENAALLiŠ„‚İ—Dæ“xƒ}ƒXƒN‘S‰ğœj‚Ì“à•”•\Œ»
ARM GAS  C:\TEMP\cc3QDC5c.s 			page 7


 160:.\asp\arch\arm_m_gcc\common/core_config.h ****  *
 161:.\asp\arch\arm_m_gcc\common/core_config.h ****  *  BASEPRI‚É '0' ‚ğİ’è‚·‚é‚±‚Æ‚ÅC‘SŠ„‚İ‚ğ‹–‰Â‚·‚éD
 162:.\asp\arch\arm_m_gcc\common/core_config.h ****  */
 163:.\asp\arch\arm_m_gcc\common/core_config.h **** #define IIPM_ENAALL  (0)
 164:.\asp\arch\arm_m_gcc\common/core_config.h **** 
 165:.\asp\arch\arm_m_gcc\common/core_config.h **** 
 166:.\asp\arch\arm_m_gcc\common/core_config.h **** #ifndef TOPPERS_MACRO_ONLY
 167:.\asp\arch\arm_m_gcc\common/core_config.h **** 
 168:.\asp\arch\arm_m_gcc\common/core_config.h **** /*
 169:.\asp\arch\arm_m_gcc\common/core_config.h ****  *  CPUƒƒbƒNƒtƒ‰ƒOÀŒ»‚Ì‚½‚ß‚Ì•Ï”
 170:.\asp\arch\arm_m_gcc\common/core_config.h ****  * 
 171:.\asp\arch\arm_m_gcc\common/core_config.h ****  *  ‚±‚ê‚ç‚Ì•Ï”‚ÍCCPUƒƒbƒNó‘Ô‚Ì‚Ì‚İ‘‚«Š·‚¦‚Ä‚à‚æ‚¢‚Æ‚·‚éD
 172:.\asp\arch\arm_m_gcc\common/core_config.h ****  *  ƒCƒ“ƒ‰ƒCƒ“ŠÖ”’†‚ÅCƒAƒNƒZƒX‚Ì‡˜‚ª•Ï‰»‚µ‚È‚¢‚æ‚¤Cvolatile ‚ğw’èD 
 173:.\asp\arch\arm_m_gcc\common/core_config.h ****  */
 174:.\asp\arch\arm_m_gcc\common/core_config.h **** extern volatile bool_t  lock_flag;    /* CPUƒƒbƒNƒtƒ‰ƒO‚Ì’l‚ğ•Û‚·‚é•Ï” */
 175:.\asp\arch\arm_m_gcc\common/core_config.h **** extern volatile uint32_t saved_iipm;  /* Š„‚İ—Dæ“x‚ğƒ}ƒXƒN‚·‚é•Ï” */
 176:.\asp\arch\arm_m_gcc\common/core_config.h **** 
 177:.\asp\arch\arm_m_gcc\common/core_config.h **** /*
 178:.\asp\arch\arm_m_gcc\common/core_config.h ****  *  CPUƒƒbƒNó‘Ô‚Ö‚ÌˆÚs
 179:.\asp\arch\arm_m_gcc\common/core_config.h ****  *
 180:.\asp\arch\arm_m_gcc\common/core_config.h ****  *  BASEPRIiƒn[ƒhƒEƒFƒA‚ÌŠ„‚İ—Dæ“xƒ}ƒXƒNj‚ğCsaved_iipm‚É•Û‘¶‚µC
 181:.\asp\arch\arm_m_gcc\common/core_config.h ****  *  ƒJ[ƒlƒ‹ŠÇ—ŠO‚Ì‚à‚Ì‚ğœ‚­‚·‚×‚Ä‚ÌŠ„‚İ‚ğƒ}ƒXƒN‚·‚é’liTIPM_LOCKj
 182:.\asp\arch\arm_m_gcc\common/core_config.h ****  *  ‚Éİ’è‚·‚éD‚Ü‚½Clock_flag‚ğtrue‚É‚·‚éD
 183:.\asp\arch\arm_m_gcc\common/core_config.h ****  *
 184:.\asp\arch\arm_m_gcc\common/core_config.h ****  *  BASEPRI‚ªCÅ‰‚©‚çTIPM_LOCK‚Æ“¯‚¶‚©‚»‚ê‚æ‚è‚‚¢ê‡‚É‚ÍC‚»‚ê‚ğ
 185:.\asp\arch\arm_m_gcc\common/core_config.h ****  *  saved_iipm‚É•Û‘¶‚·‚é‚Ì‚İ‚ÅCTIPM_LOCK‚É‚Íİ’è‚µ‚È‚¢D‚±‚ê‚ÍCƒ‚ƒfƒ‹
 186:.\asp\arch\arm_m_gcc\common/core_config.h ****  *  ã‚ÌŠ„‚İ—Dæ“xƒ}ƒXƒN‚ªCTIPM_LOCK‚Æ“¯‚¶‚©‚»‚ê‚æ‚è‚‚¢ƒŒƒxƒ‹‚Éİ’è
 187:.\asp\arch\arm_m_gcc\common/core_config.h ****  *  ‚³‚ê‚Ä‚¢‚éó‘Ô‚É‚ ‚½‚éD
 188:.\asp\arch\arm_m_gcc\common/core_config.h ****  *
 189:.\asp\arch\arm_m_gcc\common/core_config.h ****  *  ‚±‚ÌŠÖ”‚ÍCCPUƒƒbƒNó‘Ôilock_flag‚ªtrue‚Ìó‘Ôj‚ÅŒÄ‚Î‚ê‚é‚±‚Æ‚Í
 190:.\asp\arch\arm_m_gcc\common/core_config.h ****  *  ‚È‚¢‚à‚Ì‚Æ‘z’è‚µ‚Ä‚¢‚éD
 191:.\asp\arch\arm_m_gcc\common/core_config.h ****  */
 192:.\asp\arch\arm_m_gcc\common/core_config.h **** Inline void
 193:.\asp\arch\arm_m_gcc\common/core_config.h **** x_lock_cpu(void)
 194:.\asp\arch\arm_m_gcc\common/core_config.h **** {
  58              		.loc 1 194 0
  59              		.cfi_startproc
  60              		@ args = 0, pretend = 0, frame = 0
  61              		@ frame_needed = 0, uses_anonymous_args = 0
  62              		@ link register save eliminated.
  63              	.LBB34:
  64              	.LBB35:
 102:.\asp\arch\arm_m_gcc\common/core_insn.h **** 	Asm("mrs  %0, BASEPRI" : "=r"(val));
  65              		.loc 2 102 0
  66              	@ 102 ".\asp\arch\arm_m_gcc\common/core_insn.h" 1
  67 0000 EFF31183 		mrs  r3, BASEPRI
  68              	@ 0 "" 2
  69              	.LVL2:
  70              		.thumb
  71              	.LBE35:
  72              	.LBE34:
 195:.\asp\arch\arm_m_gcc\common/core_config.h **** 	uint32_t iipm;
 196:.\asp\arch\arm_m_gcc\common/core_config.h **** 
 197:.\asp\arch\arm_m_gcc\common/core_config.h **** 	/*
 198:.\asp\arch\arm_m_gcc\common/core_config.h **** 	 *  get_basepri()‚Ì•Ô‚è’l‚ğ’¼Úsaved_iipm‚É•Û‘¶‚¹‚¸Cˆê•Ï”iipm
 199:.\asp\arch\arm_m_gcc\common/core_config.h **** 	 *  ‚ğ—p‚¢‚Ä‚¢‚é‚Ì‚ÍCget_baespri()‚ğŒÄ‚ñ‚¾’¼Œã‚ÉŠ„‚İ‚ª”­¶‚µC
 200:.\asp\arch\arm_m_gcc\common/core_config.h **** 	 *  ‹N“®‚³‚ê‚½Š„‚İˆ—‚Åsaved_iipm‚ª•ÏX‚³‚ê‚é‰Â”\«‚ª‚ ‚é‚½‚ß‚Å
ARM GAS  C:\TEMP\cc3QDC5c.s 			page 8


 201:.\asp\arch\arm_m_gcc\common/core_config.h **** 	 *  ‚ ‚éD
 202:.\asp\arch\arm_m_gcc\common/core_config.h **** 	 */
 203:.\asp\arch\arm_m_gcc\common/core_config.h **** 	iipm = get_basepri();
 204:.\asp\arch\arm_m_gcc\common/core_config.h **** 	/*
 205:.\asp\arch\arm_m_gcc\common/core_config.h **** 	 *  BASEPRIƒŒƒWƒXƒ^‚Í’l‚ª¬‚³‚¢‚Ù‚Ç—Dæ“x‚ª‚‚¢‚ªCIIPM_ENAALL ‚ª
 206:.\asp\arch\arm_m_gcc\common/core_config.h **** 	 *  '0'‚Å‚ ‚é‚½‚ßC’Pƒ‚É—Dæ“x”äŠr‚¾‚¯‚Å‚Í•s\•ª‚Å‚ ‚éD
 207:.\asp\arch\arm_m_gcc\common/core_config.h **** 	 */
 208:.\asp\arch\arm_m_gcc\common/core_config.h **** 	if ((IIPM_LOCK < iipm) || (IIPM_ENAALL == iipm)) {
  73              		.loc 1 208 0
  74 0004 5A1E     		subs	r2, r3, #1
  75 0006 1F2A     		cmp	r2, #31
  76 0008 02D9     		bls	.L3
  77              	.LVL3:
  78              	.LBB36:
  79              	.LBB37:
  93:.\asp\arch\arm_m_gcc\common/core_insn.h **** 	Asm("msr BASEPRI, %0" : : "r"(val) : "memory");
  80              		.loc 2 93 0
  81 000a 2020     		movs	r0, #32
  82              	@ 93 ".\asp\arch\arm_m_gcc\common/core_insn.h" 1
  83 000c 80F31188 		msr BASEPRI, r0
  84              	@ 0 "" 2
  85              	.LVL4:
  86              		.thumb
  87              	.L3:
  88              	.LBE37:
  89              	.LBE36:
 209:.\asp\arch\arm_m_gcc\common/core_config.h **** 		set_basepri(IIPM_LOCK);
 210:.\asp\arch\arm_m_gcc\common/core_config.h **** 	}
 211:.\asp\arch\arm_m_gcc\common/core_config.h **** 	saved_iipm = iipm;
  90              		.loc 1 211 0
  91 0010 0249     		ldr	r1, .L5
 212:.\asp\arch\arm_m_gcc\common/core_config.h **** 	lock_flag = true;
  92              		.loc 1 212 0
  93 0012 0122     		movs	r2, #1
 211:.\asp\arch\arm_m_gcc\common/core_config.h **** 	saved_iipm = iipm;
  94              		.loc 1 211 0
  95 0014 0B60     		str	r3, [r1, #0]
  96              		.loc 1 212 0
  97 0016 024B     		ldr	r3, .L5+4
  98              	.LVL5:
  99 0018 1A60     		str	r2, [r3, #0]
 213:.\asp\arch\arm_m_gcc\common/core_config.h **** 	/* ƒNƒŠƒeƒBƒJƒ‹ƒZƒNƒVƒ‡ƒ“‚Ì‘OŒã‚Åƒƒ‚ƒŠ‚ª‘‚«Š·‚í‚é‰Â”\«‚ª‚ ‚é */
 214:.\asp\arch\arm_m_gcc\common/core_config.h **** 	ARM_MEMORY_CHANGED;
 100              		.loc 1 214 0
 101 001a 7047     		bx	lr
 102              	.L6:
 103              		.align	2
 104              	.L5:
 105 001c 00000000 		.word	_kernel_saved_iipm
 106 0020 00000000 		.word	_kernel_lock_flag
 107              		.cfi_endproc
 108              	.LFE30:
 109              		.size	x_lock_cpu, .-x_lock_cpu
 110              		.section	.text.x_unlock_cpu,"ax",%progbits
 111              		.align	1
 112              		.thumb
 113              		.thumb_func
ARM GAS  C:\TEMP\cc3QDC5c.s 			page 9


 114              		.type	x_unlock_cpu, %function
 115              	x_unlock_cpu:
 116              	.LFB31:
 215:.\asp\arch\arm_m_gcc\common/core_config.h **** }
 216:.\asp\arch\arm_m_gcc\common/core_config.h **** 
 217:.\asp\arch\arm_m_gcc\common/core_config.h **** #define t_lock_cpu()    x_lock_cpu()
 218:.\asp\arch\arm_m_gcc\common/core_config.h **** #define i_lock_cpu()    x_lock_cpu()
 219:.\asp\arch\arm_m_gcc\common/core_config.h **** 
 220:.\asp\arch\arm_m_gcc\common/core_config.h **** /*
 221:.\asp\arch\arm_m_gcc\common/core_config.h ****  *  CPUƒƒbƒNó‘Ô‚Ì‰ğœ
 222:.\asp\arch\arm_m_gcc\common/core_config.h ****  *
 223:.\asp\arch\arm_m_gcc\common/core_config.h ****  *  lock_flag‚ğfalse‚É‚µCIPMiƒn[ƒhƒEƒFƒA‚ÌŠ„‚İ—Dæ“xƒ}ƒXƒNj‚ğC
 224:.\asp\arch\arm_m_gcc\common/core_config.h ****  *  saved_iipm‚É•Û‘¶‚µ‚½’l‚É–ß‚·D
 225:.\asp\arch\arm_m_gcc\common/core_config.h ****  *
 226:.\asp\arch\arm_m_gcc\common/core_config.h ****  *  ‚±‚ÌŠÖ”‚ÍCCPUƒƒbƒNó‘Ôilock_flag‚ªtrue‚Ìó‘Ôj‚Å‚Ì‚İŒÄ‚Î‚ê‚é‚à
 227:.\asp\arch\arm_m_gcc\common/core_config.h ****  *  ‚Ì‚Æ‘z’è‚µ‚Ä‚¢‚éD
 228:.\asp\arch\arm_m_gcc\common/core_config.h ****  */
 229:.\asp\arch\arm_m_gcc\common/core_config.h **** Inline void
 230:.\asp\arch\arm_m_gcc\common/core_config.h **** x_unlock_cpu(void)
 231:.\asp\arch\arm_m_gcc\common/core_config.h **** {
 117              		.loc 1 231 0
 118              		.cfi_startproc
 119              		@ args = 0, pretend = 0, frame = 0
 120              		@ frame_needed = 0, uses_anonymous_args = 0
 121              		@ link register save eliminated.
 232:.\asp\arch\arm_m_gcc\common/core_config.h **** 	/* ƒNƒŠƒeƒBƒJƒ‹ƒZƒNƒVƒ‡ƒ“‚Ì‘OŒã‚Åƒƒ‚ƒŠ‚ª‘‚«Š·‚í‚é‰Â”\«‚ª‚ ‚é */
 233:.\asp\arch\arm_m_gcc\common/core_config.h **** 	ARM_MEMORY_CHANGED;
 122              		.loc 1 233 0
 234:.\asp\arch\arm_m_gcc\common/core_config.h **** 	lock_flag = false;
 123              		.loc 1 234 0
 124 0000 034B     		ldr	r3, .L8
 125 0002 0022     		movs	r2, #0
 235:.\asp\arch\arm_m_gcc\common/core_config.h **** 	set_basepri(saved_iipm);
 126              		.loc 1 235 0
 127 0004 0348     		ldr	r0, .L8+4
 234:.\asp\arch\arm_m_gcc\common/core_config.h **** 	lock_flag = false;
 128              		.loc 1 234 0
 129 0006 1A60     		str	r2, [r3, #0]
 130              		.loc 1 235 0
 131 0008 0168     		ldr	r1, [r0, #0]
 132              	.LVL6:
 133              	.LBB38:
 134              	.LBB39:
  93:.\asp\arch\arm_m_gcc\common/core_insn.h **** 	Asm("msr BASEPRI, %0" : : "r"(val) : "memory");
 135              		.loc 2 93 0
 136              	@ 93 ".\asp\arch\arm_m_gcc\common/core_insn.h" 1
 137 000a 81F31188 		msr BASEPRI, r1
 138              	@ 0 "" 2
 139              		.thumb
 140 000e 7047     		bx	lr
 141              	.L9:
 142              		.align	2
 143              	.L8:
 144 0010 00000000 		.word	_kernel_lock_flag
 145 0014 00000000 		.word	_kernel_saved_iipm
 146              	.LBE39:
 147              	.LBE38:
ARM GAS  C:\TEMP\cc3QDC5c.s 			page 10


 148              		.cfi_endproc
 149              	.LFE31:
 150              		.size	x_unlock_cpu, .-x_unlock_cpu
 151              		.section	.text._kernel_initialize_semaphore,"ax",%progbits
 152              		.align	1
 153              		.global	_kernel_initialize_semaphore
 154              		.thumb
 155              		.thumb_func
 156              		.type	_kernel_initialize_semaphore, %function
 157              	_kernel_initialize_semaphore:
 158              	.LFB60:
 159              		.file 3 ".\\asp\\kernel\\semaphore.c"
   1:.\asp\kernel/semaphore.c **** /*
   2:.\asp\kernel/semaphore.c ****  *  TOPPERS/ASP Kernel
   3:.\asp\kernel/semaphore.c ****  *      Toyohashi Open Platform for Embedded Real-Time Systems/
   4:.\asp\kernel/semaphore.c ****  *      Advanced Standard Profile Kernel
   5:.\asp\kernel/semaphore.c ****  * 
   6:.\asp\kernel/semaphore.c ****  *  Copyright (C) 2000-2003 by Embedded and Real-Time Systems Laboratory
   7:.\asp\kernel/semaphore.c ****  *                              Toyohashi Univ. of Technology, JAPAN
   8:.\asp\kernel/semaphore.c ****  *  Copyright (C) 2005-2011 by Embedded and Real-Time Systems Laboratory
   9:.\asp\kernel/semaphore.c ****  *              Graduate School of Information Science, Nagoya Univ., JAPAN
  10:.\asp\kernel/semaphore.c ****  * 
  11:.\asp\kernel/semaphore.c ****  *  ã‹L’˜ìŒ Ò‚ÍCˆÈ‰º‚Ì(1)`(4)‚ÌğŒ‚ğ–‚½‚·ê‡‚ÉŒÀ‚èC–{ƒ\ƒtƒgƒEƒF
  12:.\asp\kernel/semaphore.c ****  *  ƒAi–{ƒ\ƒtƒgƒEƒFƒA‚ğ‰ü•Ï‚µ‚½‚à‚Ì‚ğŠÜ‚ŞDˆÈ‰º“¯‚¶j‚ğg—pE•¡»E‰ü
  13:.\asp\kernel/semaphore.c ****  *  •ÏEÄ”z•ziˆÈ‰ºC—˜—p‚ÆŒÄ‚Ôj‚·‚é‚±‚Æ‚ğ–³‚Å‹–‘ø‚·‚éD
  14:.\asp\kernel/semaphore.c ****  *  (1) –{ƒ\ƒtƒgƒEƒFƒA‚ğƒ\[ƒXƒR[ƒh‚ÌŒ`‚Å—˜—p‚·‚éê‡‚É‚ÍCã‹L‚Ì’˜ì
  15:.\asp\kernel/semaphore.c ****  *      Œ •\¦C‚±‚Ì—˜—pğŒ‚¨‚æ‚Ñ‰º‹L‚Ì–³•ÛØ‹K’è‚ªC‚»‚Ì‚Ü‚Ü‚ÌŒ`‚Åƒ\[
  16:.\asp\kernel/semaphore.c ****  *      ƒXƒR[ƒh’†‚ÉŠÜ‚Ü‚ê‚Ä‚¢‚é‚±‚ÆD
  17:.\asp\kernel/semaphore.c ****  *  (2) –{ƒ\ƒtƒgƒEƒFƒA‚ğCƒ‰ƒCƒuƒ‰ƒŠŒ`®‚È‚ÇC‘¼‚Ìƒ\ƒtƒgƒEƒFƒAŠJ”­‚Ég
  18:.\asp\kernel/semaphore.c ****  *      —p‚Å‚«‚éŒ`‚ÅÄ”z•z‚·‚éê‡‚É‚ÍCÄ”z•z‚É”º‚¤ƒhƒLƒ…ƒƒ“ƒgi—˜—p
  19:.\asp\kernel/semaphore.c ****  *      Òƒ}ƒjƒ…ƒAƒ‹‚È‚Çj‚ÉCã‹L‚Ì’˜ìŒ •\¦C‚±‚Ì—˜—pğŒ‚¨‚æ‚Ñ‰º‹L
  20:.\asp\kernel/semaphore.c ****  *      ‚Ì–³•ÛØ‹K’è‚ğŒfÚ‚·‚é‚±‚ÆD
  21:.\asp\kernel/semaphore.c ****  *  (3) –{ƒ\ƒtƒgƒEƒFƒA‚ğC‹@Ší‚É‘g‚İ‚Ş‚È‚ÇC‘¼‚Ìƒ\ƒtƒgƒEƒFƒAŠJ”­‚Ég
  22:.\asp\kernel/semaphore.c ****  *      —p‚Å‚«‚È‚¢Œ`‚ÅÄ”z•z‚·‚éê‡‚É‚ÍCŸ‚Ì‚¢‚¸‚ê‚©‚ÌğŒ‚ğ–‚½‚·‚±
  23:.\asp\kernel/semaphore.c ****  *      ‚ÆD
  24:.\asp\kernel/semaphore.c ****  *    (a) Ä”z•z‚É”º‚¤ƒhƒLƒ…ƒƒ“ƒgi—˜—pÒƒ}ƒjƒ…ƒAƒ‹‚È‚Çj‚ÉCã‹L‚Ì’˜
  25:.\asp\kernel/semaphore.c ****  *        ìŒ •\¦C‚±‚Ì—˜—pğŒ‚¨‚æ‚Ñ‰º‹L‚Ì–³•ÛØ‹K’è‚ğŒfÚ‚·‚é‚±‚ÆD
  26:.\asp\kernel/semaphore.c ****  *    (b) Ä”z•z‚ÌŒ`‘Ô‚ğC•Ê‚É’è‚ß‚é•û–@‚É‚æ‚Á‚ÄCTOPPERSƒvƒƒWƒFƒNƒg‚É
  27:.\asp\kernel/semaphore.c ****  *        •ñ‚·‚é‚±‚ÆD
  28:.\asp\kernel/semaphore.c ****  *  (4) –{ƒ\ƒtƒgƒEƒFƒA‚Ì—˜—p‚É‚æ‚è’¼Ú“I‚Ü‚½‚ÍŠÔÚ“I‚É¶‚¶‚é‚¢‚©‚È‚é‘¹
  29:.\asp\kernel/semaphore.c ****  *      ŠQ‚©‚ç‚àCã‹L’˜ìŒ Ò‚¨‚æ‚ÑTOPPERSƒvƒƒWƒFƒNƒg‚ğ–ÆÓ‚·‚é‚±‚ÆD
  30:.\asp\kernel/semaphore.c ****  *      ‚Ü‚½C–{ƒ\ƒtƒgƒEƒFƒA‚Ìƒ†[ƒU‚Ü‚½‚ÍƒGƒ“ƒhƒ†[ƒU‚©‚ç‚Ì‚¢‚©‚È‚é—
  31:.\asp\kernel/semaphore.c ****  *      —R‚ÉŠî‚Ã‚­¿‹‚©‚ç‚àCã‹L’˜ìŒ Ò‚¨‚æ‚ÑTOPPERSƒvƒƒWƒFƒNƒg‚ğ
  32:.\asp\kernel/semaphore.c ****  *      –ÆÓ‚·‚é‚±‚ÆD
  33:.\asp\kernel/semaphore.c ****  * 
  34:.\asp\kernel/semaphore.c ****  *  –{ƒ\ƒtƒgƒEƒFƒA‚ÍC–³•ÛØ‚Å’ñ‹Ÿ‚³‚ê‚Ä‚¢‚é‚à‚Ì‚Å‚ ‚éDã‹L’˜ìŒ Ò‚¨
  35:.\asp\kernel/semaphore.c ****  *  ‚æ‚ÑTOPPERSƒvƒƒWƒFƒNƒg‚ÍC–{ƒ\ƒtƒgƒEƒFƒA‚ÉŠÖ‚µ‚ÄC“Á’è‚Ìg—p–Ú“I
  36:.\asp\kernel/semaphore.c ****  *  ‚É‘Î‚·‚é“K‡«‚àŠÜ‚ß‚ÄC‚¢‚©‚È‚é•ÛØ‚às‚í‚È‚¢D‚Ü‚½C–{ƒ\ƒtƒgƒEƒF
  37:.\asp\kernel/semaphore.c ****  *  ƒA‚Ì—˜—p‚É‚æ‚è’¼Ú“I‚Ü‚½‚ÍŠÔÚ“I‚É¶‚¶‚½‚¢‚©‚È‚é‘¹ŠQ‚ÉŠÖ‚µ‚Ä‚àC‚»
  38:.\asp\kernel/semaphore.c ****  *  ‚ÌÓ”C‚ğ•‰‚í‚È‚¢D
  39:.\asp\kernel/semaphore.c ****  * 
  40:.\asp\kernel/semaphore.c ****  *  @(#) $Id: semaphore.c 2133 2011-06-26 03:14:51Z ertl-hiro $
  41:.\asp\kernel/semaphore.c ****  */
  42:.\asp\kernel/semaphore.c **** 
  43:.\asp\kernel/semaphore.c **** /*
  44:.\asp\kernel/semaphore.c ****  *		ƒZƒ}ƒtƒH‹@”\
  45:.\asp\kernel/semaphore.c ****  */
ARM GAS  C:\TEMP\cc3QDC5c.s 			page 11


  46:.\asp\kernel/semaphore.c **** 
  47:.\asp\kernel/semaphore.c **** #include "kernel_impl.h"
  48:.\asp\kernel/semaphore.c **** #include "check.h"
  49:.\asp\kernel/semaphore.c **** #include "task.h"
  50:.\asp\kernel/semaphore.c **** #include "wait.h"
  51:.\asp\kernel/semaphore.c **** #include "semaphore.h"
  52:.\asp\kernel/semaphore.c **** 
  53:.\asp\kernel/semaphore.c **** /*
  54:.\asp\kernel/semaphore.c ****  *  ƒgƒŒ[ƒXƒƒOƒ}ƒNƒ‚ÌƒfƒtƒHƒ‹ƒg’è‹`
  55:.\asp\kernel/semaphore.c ****  */
  56:.\asp\kernel/semaphore.c **** #ifndef LOG_SIG_SEM_ENTER
  57:.\asp\kernel/semaphore.c **** #define LOG_SIG_SEM_ENTER(semid)
  58:.\asp\kernel/semaphore.c **** #endif /* LOG_SIG_SEM_ENTER */
  59:.\asp\kernel/semaphore.c **** 
  60:.\asp\kernel/semaphore.c **** #ifndef LOG_SIG_SEM_LEAVE
  61:.\asp\kernel/semaphore.c **** #define LOG_SIG_SEM_LEAVE(ercd)
  62:.\asp\kernel/semaphore.c **** #endif /* LOG_SIG_SEM_LEAVE */
  63:.\asp\kernel/semaphore.c **** 
  64:.\asp\kernel/semaphore.c **** #ifndef LOG_ISIG_SEM_ENTER
  65:.\asp\kernel/semaphore.c **** #define LOG_ISIG_SEM_ENTER(semid)
  66:.\asp\kernel/semaphore.c **** #endif /* LOG_ISIG_SEM_ENTER */
  67:.\asp\kernel/semaphore.c **** 
  68:.\asp\kernel/semaphore.c **** #ifndef LOG_ISIG_SEM_LEAVE
  69:.\asp\kernel/semaphore.c **** #define LOG_ISIG_SEM_LEAVE(ercd)
  70:.\asp\kernel/semaphore.c **** #endif /* LOG_ISIG_SEM_LEAVE */
  71:.\asp\kernel/semaphore.c **** 
  72:.\asp\kernel/semaphore.c **** #ifndef LOG_WAI_SEM_ENTER
  73:.\asp\kernel/semaphore.c **** #define LOG_WAI_SEM_ENTER(semid)
  74:.\asp\kernel/semaphore.c **** #endif /* LOG_WAI_SEM_ENTER */
  75:.\asp\kernel/semaphore.c **** 
  76:.\asp\kernel/semaphore.c **** #ifndef LOG_WAI_SEM_LEAVE
  77:.\asp\kernel/semaphore.c **** #define LOG_WAI_SEM_LEAVE(ercd)
  78:.\asp\kernel/semaphore.c **** #endif /* LOG_WAI_SEM_LEAVE */
  79:.\asp\kernel/semaphore.c **** 
  80:.\asp\kernel/semaphore.c **** #ifndef LOG_POL_SEM_ENTER
  81:.\asp\kernel/semaphore.c **** #define LOG_POL_SEM_ENTER(semid)
  82:.\asp\kernel/semaphore.c **** #endif /* LOG_POL_SEM_ENTER */
  83:.\asp\kernel/semaphore.c **** 
  84:.\asp\kernel/semaphore.c **** #ifndef LOG_POL_SEM_LEAVE
  85:.\asp\kernel/semaphore.c **** #define LOG_POL_SEM_LEAVE(ercd)
  86:.\asp\kernel/semaphore.c **** #endif /* LOG_POL_SEM_LEAVE */
  87:.\asp\kernel/semaphore.c **** 
  88:.\asp\kernel/semaphore.c **** #ifndef LOG_TWAI_SEM_ENTER
  89:.\asp\kernel/semaphore.c **** #define LOG_TWAI_SEM_ENTER(semid, tmout)
  90:.\asp\kernel/semaphore.c **** #endif /* LOG_TWAI_SEM_ENTER */
  91:.\asp\kernel/semaphore.c **** 
  92:.\asp\kernel/semaphore.c **** #ifndef LOG_TWAI_SEM_LEAVE
  93:.\asp\kernel/semaphore.c **** #define LOG_TWAI_SEM_LEAVE(ercd)
  94:.\asp\kernel/semaphore.c **** #endif /* LOG_TWAI_SEM_LEAVE */
  95:.\asp\kernel/semaphore.c **** 
  96:.\asp\kernel/semaphore.c **** #ifndef LOG_INI_SEM_ENTER
  97:.\asp\kernel/semaphore.c **** #define LOG_INI_SEM_ENTER(semid)
  98:.\asp\kernel/semaphore.c **** #endif /* LOG_INI_SEM_ENTER */
  99:.\asp\kernel/semaphore.c **** 
 100:.\asp\kernel/semaphore.c **** #ifndef LOG_INI_SEM_LEAVE
 101:.\asp\kernel/semaphore.c **** #define LOG_INI_SEM_LEAVE(ercd)
 102:.\asp\kernel/semaphore.c **** #endif /* LOG_INI_SEM_LEAVE */
ARM GAS  C:\TEMP\cc3QDC5c.s 			page 12


 103:.\asp\kernel/semaphore.c **** 
 104:.\asp\kernel/semaphore.c **** #ifndef LOG_REF_SEM_ENTER
 105:.\asp\kernel/semaphore.c **** #define LOG_REF_SEM_ENTER(semid, pk_rsem)
 106:.\asp\kernel/semaphore.c **** #endif /* LOG_REF_SEM_ENTER */
 107:.\asp\kernel/semaphore.c **** 
 108:.\asp\kernel/semaphore.c **** #ifndef LOG_REF_SEM_LEAVE
 109:.\asp\kernel/semaphore.c **** #define LOG_REF_SEM_LEAVE(ercd, pk_rsem)
 110:.\asp\kernel/semaphore.c **** #endif /* LOG_REF_SEM_LEAVE */
 111:.\asp\kernel/semaphore.c **** 
 112:.\asp\kernel/semaphore.c **** /*
 113:.\asp\kernel/semaphore.c ****  *  ƒZƒ}ƒtƒH‚Ì”
 114:.\asp\kernel/semaphore.c ****  */
 115:.\asp\kernel/semaphore.c **** #define tnum_sem	((uint_t)(tmax_semid - TMIN_SEMID + 1))
 116:.\asp\kernel/semaphore.c **** 
 117:.\asp\kernel/semaphore.c **** /*
 118:.\asp\kernel/semaphore.c ****  *  ƒZƒ}ƒtƒHID‚©‚çƒZƒ}ƒtƒHŠÇ—ƒuƒƒbƒN‚ğæ‚èo‚·‚½‚ß‚Ìƒ}ƒNƒ
 119:.\asp\kernel/semaphore.c ****  */
 120:.\asp\kernel/semaphore.c **** #define INDEX_SEM(semid)	((uint_t)((semid) - TMIN_SEMID))
 121:.\asp\kernel/semaphore.c **** #define get_semcb(semid)	(&(semcb_table[INDEX_SEM(semid)]))
 122:.\asp\kernel/semaphore.c **** 
 123:.\asp\kernel/semaphore.c **** /* 
 124:.\asp\kernel/semaphore.c ****  *  ƒZƒ}ƒtƒH‹@”\‚Ì‰Šú‰»
 125:.\asp\kernel/semaphore.c ****  */
 126:.\asp\kernel/semaphore.c **** #ifdef TOPPERS_semini
 127:.\asp\kernel/semaphore.c **** 
 128:.\asp\kernel/semaphore.c **** void
 129:.\asp\kernel/semaphore.c **** initialize_semaphore(void)
 130:.\asp\kernel/semaphore.c **** {
 160              		.loc 3 130 0
 161              		.cfi_startproc
 162              		@ args = 0, pretend = 0, frame = 0
 163              		@ frame_needed = 0, uses_anonymous_args = 0
 164              	.LVL7:
 131:.\asp\kernel/semaphore.c **** 	uint_t	i;
 132:.\asp\kernel/semaphore.c **** 	SEMCB	*p_semcb;
 133:.\asp\kernel/semaphore.c **** 
 134:.\asp\kernel/semaphore.c **** 	for (i = 0; i < tnum_sem; i++) {
 165              		.loc 3 134 0
 166 0000 0A4B     		ldr	r3, .L14
 130:.\asp\kernel/semaphore.c **** {
 167              		.loc 3 130 0
 168 0002 10B5     		push	{r4, lr}
 169              	.LCFI0:
 170              		.cfi_def_cfa_offset 8
 171              		.cfi_offset 4, -8
 172              		.cfi_offset 14, -4
 173              		.loc 3 134 0
 174 0004 1C68     		ldr	r4, [r3, #0]
 175 0006 0023     		movs	r3, #0
 176              	.LVL8:
 177              	.L11:
 178              		.loc 3 134 0 is_stmt 0 discriminator 1
 179 0008 A342     		cmp	r3, r4
 180 000a 0DD0     		beq	.L13
 181              	.L12:
 135:.\asp\kernel/semaphore.c **** 		p_semcb = &(semcb_table[i]);
 182              		.loc 3 135 0 is_stmt 1 discriminator 2
ARM GAS  C:\TEMP\cc3QDC5c.s 			page 13


 183 000c 0849     		ldr	r1, .L14+4
 184 000e 1801     		lsls	r0, r3, #4
 185 0010 4218     		adds	r2, r0, r1
 186              	.LVL9:
 187              	.LBB40:
 188              	.LBB41:
 189              		.file 4 ".\\asp\\include/queue.h"
   1:.\asp\include/queue.h **** /*
   2:.\asp\include/queue.h ****  *  TOPPERS Software
   3:.\asp\include/queue.h ****  *      Toyohashi Open Platform for Embedded Real-Time Systems
   4:.\asp\include/queue.h ****  * 
   5:.\asp\include/queue.h ****  *  Copyright (C) 2000 by Embedded and Real-Time Systems Laboratory
   6:.\asp\include/queue.h ****  *                              Toyohashi Univ. of Technology, JAPAN
   7:.\asp\include/queue.h ****  *  Copyright (C) 2006-2011 by Embedded and Real-Time Systems Laboratory
   8:.\asp\include/queue.h ****  *              Graduate School of Information Science, Nagoya Univ., JAPAN
   9:.\asp\include/queue.h ****  * 
  10:.\asp\include/queue.h ****  *  ã‹L’˜ìŒ Ò‚ÍCˆÈ‰º‚Ì(1)`(4)‚ÌğŒ‚ğ–‚½‚·ê‡‚ÉŒÀ‚èC–{ƒ\ƒtƒgƒEƒF
  11:.\asp\include/queue.h ****  *  ƒAi–{ƒ\ƒtƒgƒEƒFƒA‚ğ‰ü•Ï‚µ‚½‚à‚Ì‚ğŠÜ‚ŞDˆÈ‰º“¯‚¶j‚ğg—pE•¡»E‰ü
  12:.\asp\include/queue.h ****  *  •ÏEÄ”z•ziˆÈ‰ºC—˜—p‚ÆŒÄ‚Ôj‚·‚é‚±‚Æ‚ğ–³‚Å‹–‘ø‚·‚éD
  13:.\asp\include/queue.h ****  *  (1) –{ƒ\ƒtƒgƒEƒFƒA‚ğƒ\[ƒXƒR[ƒh‚ÌŒ`‚Å—˜—p‚·‚éê‡‚É‚ÍCã‹L‚Ì’˜ì
  14:.\asp\include/queue.h ****  *      Œ •\¦C‚±‚Ì—˜—pğŒ‚¨‚æ‚Ñ‰º‹L‚Ì–³•ÛØ‹K’è‚ªC‚»‚Ì‚Ü‚Ü‚ÌŒ`‚Åƒ\[
  15:.\asp\include/queue.h ****  *      ƒXƒR[ƒh’†‚ÉŠÜ‚Ü‚ê‚Ä‚¢‚é‚±‚ÆD
  16:.\asp\include/queue.h ****  *  (2) –{ƒ\ƒtƒgƒEƒFƒA‚ğCƒ‰ƒCƒuƒ‰ƒŠŒ`®‚È‚ÇC‘¼‚Ìƒ\ƒtƒgƒEƒFƒAŠJ”­‚Ég
  17:.\asp\include/queue.h ****  *      —p‚Å‚«‚éŒ`‚ÅÄ”z•z‚·‚éê‡‚É‚ÍCÄ”z•z‚É”º‚¤ƒhƒLƒ…ƒƒ“ƒgi—˜—p
  18:.\asp\include/queue.h ****  *      Òƒ}ƒjƒ…ƒAƒ‹‚È‚Çj‚ÉCã‹L‚Ì’˜ìŒ •\¦C‚±‚Ì—˜—pğŒ‚¨‚æ‚Ñ‰º‹L
  19:.\asp\include/queue.h ****  *      ‚Ì–³•ÛØ‹K’è‚ğŒfÚ‚·‚é‚±‚ÆD
  20:.\asp\include/queue.h ****  *  (3) –{ƒ\ƒtƒgƒEƒFƒA‚ğC‹@Ší‚É‘g‚İ‚Ş‚È‚ÇC‘¼‚Ìƒ\ƒtƒgƒEƒFƒAŠJ”­‚Ég
  21:.\asp\include/queue.h ****  *      —p‚Å‚«‚È‚¢Œ`‚ÅÄ”z•z‚·‚éê‡‚É‚ÍCŸ‚Ì‚¢‚¸‚ê‚©‚ÌğŒ‚ğ–‚½‚·‚±
  22:.\asp\include/queue.h ****  *      ‚ÆD
  23:.\asp\include/queue.h ****  *    (a) Ä”z•z‚É”º‚¤ƒhƒLƒ…ƒƒ“ƒgi—˜—pÒƒ}ƒjƒ…ƒAƒ‹‚È‚Çj‚ÉCã‹L‚Ì’˜
  24:.\asp\include/queue.h ****  *        ìŒ •\¦C‚±‚Ì—˜—pğŒ‚¨‚æ‚Ñ‰º‹L‚Ì–³•ÛØ‹K’è‚ğŒfÚ‚·‚é‚±‚ÆD
  25:.\asp\include/queue.h ****  *    (b) Ä”z•z‚ÌŒ`‘Ô‚ğC•Ê‚É’è‚ß‚é•û–@‚É‚æ‚Á‚ÄCTOPPERSƒvƒƒWƒFƒNƒg‚É
  26:.\asp\include/queue.h ****  *        •ñ‚·‚é‚±‚ÆD
  27:.\asp\include/queue.h ****  *  (4) –{ƒ\ƒtƒgƒEƒFƒA‚Ì—˜—p‚É‚æ‚è’¼Ú“I‚Ü‚½‚ÍŠÔÚ“I‚É¶‚¶‚é‚¢‚©‚È‚é‘¹
  28:.\asp\include/queue.h ****  *      ŠQ‚©‚ç‚àCã‹L’˜ìŒ Ò‚¨‚æ‚ÑTOPPERSƒvƒƒWƒFƒNƒg‚ğ–ÆÓ‚·‚é‚±‚ÆD
  29:.\asp\include/queue.h ****  *      ‚Ü‚½C–{ƒ\ƒtƒgƒEƒFƒA‚Ìƒ†[ƒU‚Ü‚½‚ÍƒGƒ“ƒhƒ†[ƒU‚©‚ç‚Ì‚¢‚©‚È‚é—
  30:.\asp\include/queue.h ****  *      —R‚ÉŠî‚Ã‚­¿‹‚©‚ç‚àCã‹L’˜ìŒ Ò‚¨‚æ‚ÑTOPPERSƒvƒƒWƒFƒNƒg‚ğ
  31:.\asp\include/queue.h ****  *      –ÆÓ‚·‚é‚±‚ÆD
  32:.\asp\include/queue.h ****  * 
  33:.\asp\include/queue.h ****  *  –{ƒ\ƒtƒgƒEƒFƒA‚ÍC–³•ÛØ‚Å’ñ‹Ÿ‚³‚ê‚Ä‚¢‚é‚à‚Ì‚Å‚ ‚éDã‹L’˜ìŒ Ò‚¨
  34:.\asp\include/queue.h ****  *  ‚æ‚ÑTOPPERSƒvƒƒWƒFƒNƒg‚ÍC–{ƒ\ƒtƒgƒEƒFƒA‚ÉŠÖ‚µ‚ÄC“Á’è‚Ìg—p–Ú“I
  35:.\asp\include/queue.h ****  *  ‚É‘Î‚·‚é“K‡«‚àŠÜ‚ß‚ÄC‚¢‚©‚È‚é•ÛØ‚às‚í‚È‚¢D‚Ü‚½C–{ƒ\ƒtƒgƒEƒF
  36:.\asp\include/queue.h ****  *  ƒA‚Ì—˜—p‚É‚æ‚è’¼Ú“I‚Ü‚½‚ÍŠÔÚ“I‚É¶‚¶‚½‚¢‚©‚È‚é‘¹ŠQ‚ÉŠÖ‚µ‚Ä‚àC‚»
  37:.\asp\include/queue.h ****  *  ‚ÌÓ”C‚ğ•‰‚í‚È‚¢D
  38:.\asp\include/queue.h ****  * 
  39:.\asp\include/queue.h ****  *  @(#) $Id: queue.h 2247 2011-08-26 22:59:55Z ertl-hiro $
  40:.\asp\include/queue.h ****  */
  41:.\asp\include/queue.h **** 
  42:.\asp\include/queue.h **** /*
  43:.\asp\include/queue.h ****  *		ƒLƒ…[‘€ìƒ‰ƒCƒuƒ‰ƒŠ
  44:.\asp\include/queue.h ****  *
  45:.\asp\include/queue.h ****  *  ‚±‚ÌƒLƒ…[‘€ìƒ‰ƒCƒuƒ‰ƒŠ‚Å‚ÍCƒLƒ…[ƒwƒbƒ_‚ğŠÜ‚ŞƒŠƒ“ƒO\‘¢‚Ìƒ_ƒuƒ‹
  46:.\asp\include/queue.h ****  *  ƒŠƒ“ƒNƒLƒ…[‚ğˆµ‚¤D‹ï‘Ì“I‚É‚ÍCƒLƒ…[ƒwƒbƒ_‚ÌŸƒGƒ“ƒgƒŠ‚ÍƒLƒ…[‚Ì
  47:.\asp\include/queue.h ****  *  æ“ª‚ÌƒGƒ“ƒgƒŠC‘OƒGƒ“ƒgƒŠ‚ÍƒLƒ…[‚Ì––”ö‚ÌƒGƒ“ƒgƒŠ‚Æ‚·‚éD‚Ü‚½CƒL
  48:.\asp\include/queue.h ****  *  ƒ…[‚Ìæ“ª‚ÌƒGƒ“ƒgƒŠ‚Ì‘OƒGƒ“ƒgƒŠ‚ÆCƒLƒ…[‚Ì––”ö‚ÌƒGƒ“ƒgƒŠ‚ÌŸƒGƒ“
  49:.\asp\include/queue.h ****  *  ƒgƒŠ‚ÍCƒLƒ…[ƒwƒbƒ_‚Æ‚·‚éD‹ó‚ÌƒLƒ…[‚ÍCŸƒGƒ“ƒgƒŠC‘OƒGƒ“ƒgƒŠ‚Æ
  50:.\asp\include/queue.h ****  *  ‚à©•ª©g‚ğw‚·ƒLƒ…[ƒwƒbƒ_‚Å‚ ‚ç‚í‚·D
ARM GAS  C:\TEMP\cc3QDC5c.s 			page 14


  51:.\asp\include/queue.h ****  */
  52:.\asp\include/queue.h **** 
  53:.\asp\include/queue.h **** #ifndef	TOPPERS_QUEUE_H
  54:.\asp\include/queue.h **** #define	TOPPERS_QUEUE_H
  55:.\asp\include/queue.h **** 
  56:.\asp\include/queue.h **** #ifdef __cplusplus
  57:.\asp\include/queue.h **** extern "C" {
  58:.\asp\include/queue.h **** #endif
  59:.\asp\include/queue.h **** 
  60:.\asp\include/queue.h **** /*
  61:.\asp\include/queue.h ****  *  ƒLƒ…[‚Ìƒf[ƒ^\‘¢‚Ì’è‹`
  62:.\asp\include/queue.h ****  */
  63:.\asp\include/queue.h **** typedef struct queue {
  64:.\asp\include/queue.h **** 	struct queue *p_next;		/* ŸƒGƒ“ƒgƒŠ‚Ö‚Ìƒ|ƒCƒ“ƒ^ */
  65:.\asp\include/queue.h **** 	struct queue *p_prev;		/* ‘OƒGƒ“ƒgƒŠ‚Ö‚Ìƒ|ƒCƒ“ƒ^ */
  66:.\asp\include/queue.h **** } QUEUE;
  67:.\asp\include/queue.h **** 
  68:.\asp\include/queue.h **** /*
  69:.\asp\include/queue.h ****  *  ƒLƒ…[‚Ì‰Šú‰»
  70:.\asp\include/queue.h ****  *
  71:.\asp\include/queue.h ****  *  p_queue‚É‚ÍƒLƒ…[ƒwƒbƒ_‚ğw’è‚·‚éD
  72:.\asp\include/queue.h ****  */
  73:.\asp\include/queue.h **** Inline void
  74:.\asp\include/queue.h **** queue_initialize(QUEUE *p_queue)
  75:.\asp\include/queue.h **** {
  76:.\asp\include/queue.h **** 	p_queue->p_prev = p_queue;
  77:.\asp\include/queue.h **** 	p_queue->p_next = p_queue;
 190              		.loc 4 77 0 discriminator 2
 191 0012 4250     		str	r2, [r0, r1]
 192              	.LBE41:
 193              	.LBE40:
 136:.\asp\kernel/semaphore.c **** 		queue_initialize(&(p_semcb->wait_queue));
 137:.\asp\kernel/semaphore.c **** 		p_semcb->p_seminib = &(seminib_table[i]);
 194              		.loc 3 137 0 discriminator 2
 195 0014 0749     		ldr	r1, .L14+8
 196 0016 0C20     		movs	r0, #12
 197 0018 00FB0311 		mla	r1, r0, r3, r1
 138:.\asp\kernel/semaphore.c **** 		p_semcb->semcnt = p_semcb->p_seminib->isemcnt;
 198              		.loc 3 138 0 discriminator 2
 199 001c 4868     		ldr	r0, [r1, #4]
 200              	.LBB43:
 201              	.LBB42:
  76:.\asp\include/queue.h **** 	p_queue->p_prev = p_queue;
 202              		.loc 4 76 0 discriminator 2
 203 001e 5260     		str	r2, [r2, #4]
 204              	.LBE42:
 205              	.LBE43:
 137:.\asp\kernel/semaphore.c **** 		p_semcb->p_seminib = &(seminib_table[i]);
 206              		.loc 3 137 0 discriminator 2
 207 0020 9160     		str	r1, [r2, #8]
 208              		.loc 3 138 0 discriminator 2
 209 0022 D060     		str	r0, [r2, #12]
 134:.\asp\kernel/semaphore.c **** 	for (i = 0; i < tnum_sem; i++) {
 210              		.loc 3 134 0 discriminator 2
 211 0024 0133     		adds	r3, r3, #1
 212              	.LVL10:
 213 0026 EFE7     		b	.L11
ARM GAS  C:\TEMP\cc3QDC5c.s 			page 15


 214              	.LVL11:
 215              	.L13:
 139:.\asp\kernel/semaphore.c **** 	}
 140:.\asp\kernel/semaphore.c **** }
 216              		.loc 3 140 0
 217 0028 10BD     		pop	{r4, pc}
 218              	.L15:
 219 002a 00BF     		.align	2
 220              	.L14:
 221 002c 00000000 		.word	_kernel_tmax_semid
 222 0030 00000000 		.word	_kernel_semcb_table
 223 0034 00000000 		.word	_kernel_seminib_table
 224              		.cfi_endproc
 225              	.LFE60:
 226              		.size	_kernel_initialize_semaphore, .-_kernel_initialize_semaphore
 227              		.section	.text.sig_sem,"ax",%progbits
 228              		.align	1
 229              		.global	sig_sem
 230              		.thumb
 231              		.thumb_func
 232              		.type	sig_sem, %function
 233              	sig_sem:
 234              	.LFB61:
 141:.\asp\kernel/semaphore.c **** 
 142:.\asp\kernel/semaphore.c **** #endif /* TOPPERS_semini */
 143:.\asp\kernel/semaphore.c **** 
 144:.\asp\kernel/semaphore.c **** /*
 145:.\asp\kernel/semaphore.c ****  *  ƒZƒ}ƒtƒH‘Œ¹‚Ì•Ô‹p
 146:.\asp\kernel/semaphore.c ****  */
 147:.\asp\kernel/semaphore.c **** #ifdef TOPPERS_sig_sem
 148:.\asp\kernel/semaphore.c **** 
 149:.\asp\kernel/semaphore.c **** ER
 150:.\asp\kernel/semaphore.c **** sig_sem(ID semid)
 151:.\asp\kernel/semaphore.c **** {
 235              		.loc 3 151 0
 236              		.cfi_startproc
 237              		@ args = 0, pretend = 0, frame = 0
 238              		@ frame_needed = 0, uses_anonymous_args = 0
 239              	.LVL12:
 240 0000 F8B5     		push	{r3, r4, r5, r6, r7, lr}
 241              	.LCFI1:
 242              		.cfi_def_cfa_offset 24
 243              		.cfi_offset 3, -24
 244              		.cfi_offset 4, -20
 245              		.cfi_offset 5, -16
 246              		.cfi_offset 6, -12
 247              		.cfi_offset 7, -8
 248              		.cfi_offset 14, -4
 249              		.loc 3 151 0
 250 0002 0546     		mov	r5, r0
 152:.\asp\kernel/semaphore.c **** 	SEMCB	*p_semcb;
 153:.\asp\kernel/semaphore.c **** 	TCB		*p_tcb;
 154:.\asp\kernel/semaphore.c **** 	ER		ercd;
 155:.\asp\kernel/semaphore.c ****     
 156:.\asp\kernel/semaphore.c **** 	LOG_SIG_SEM_ENTER(semid);
 157:.\asp\kernel/semaphore.c **** 	CHECK_TSKCTX_UNL();
 251              		.loc 3 157 0
ARM GAS  C:\TEMP\cc3QDC5c.s 			page 16


 252 0004 FFF7FEFF 		bl	sense_context
 253              	.LVL13:
 254 0008 90B9     		cbnz	r0, .L24
 255              	.LBB50:
 256              	.LBB51:
 236:.\asp\arch\arm_m_gcc\common/core_config.h **** }
 237:.\asp\arch\arm_m_gcc\common/core_config.h **** 
 238:.\asp\arch\arm_m_gcc\common/core_config.h **** #define t_unlock_cpu()    x_unlock_cpu()
 239:.\asp\arch\arm_m_gcc\common/core_config.h **** #define i_unlock_cpu()    x_unlock_cpu()
 240:.\asp\arch\arm_m_gcc\common/core_config.h **** 
 241:.\asp\arch\arm_m_gcc\common/core_config.h **** /*
 242:.\asp\arch\arm_m_gcc\common/core_config.h ****  *  CPUƒƒbƒNó‘Ô‚ÌQÆ
 243:.\asp\arch\arm_m_gcc\common/core_config.h ****  */
 244:.\asp\arch\arm_m_gcc\common/core_config.h **** Inline bool_t
 245:.\asp\arch\arm_m_gcc\common/core_config.h **** x_sense_lock(void)
 246:.\asp\arch\arm_m_gcc\common/core_config.h **** {
 247:.\asp\arch\arm_m_gcc\common/core_config.h **** 	return(lock_flag);
 257              		.loc 1 247 0
 258 000a 1A4B     		ldr	r3, .L32
 259 000c 1C68     		ldr	r4, [r3, #0]
 260              	.LBE51:
 261              	.LBE50:
 262              		.loc 3 157 0
 263 000e 7CB9     		cbnz	r4, .L24
 158:.\asp\kernel/semaphore.c **** 	CHECK_SEMID(semid);
 264              		.loc 3 158 0
 265 0010 002D     		cmp	r5, #0
 266 0012 10DD     		ble	.L26
 267              		.loc 3 158 0 is_stmt 0 discriminator 2
 268 0014 1848     		ldr	r0, .L32+4
 269 0016 0168     		ldr	r1, [r0, #0]
 270 0018 8D42     		cmp	r5, r1
 271 001a 0CDC     		bgt	.L26
 159:.\asp\kernel/semaphore.c **** 	p_semcb = get_semcb(semid);
 272              		.loc 3 159 0 is_stmt 1
 273 001c 013D     		subs	r5, r5, #1
 274              	.LVL14:
 275 001e 174E     		ldr	r6, .L32+8
 276 0020 2D01     		lsls	r5, r5, #4
 277              	.LVL15:
 160:.\asp\kernel/semaphore.c **** 
 161:.\asp\kernel/semaphore.c **** 	t_lock_cpu();
 278              		.loc 3 161 0
 279 0022 FFF7FEFF 		bl	x_lock_cpu
 280              	.LVL16:
 281              	.LBB52:
 282              	.LBB53:
  78:.\asp\include/queue.h **** }
  79:.\asp\include/queue.h **** 
  80:.\asp\include/queue.h **** /*
  81:.\asp\include/queue.h ****  *  ƒLƒ…[‚Ì‘OƒGƒ“ƒgƒŠ‚Ö‚Ì‘}“ü
  82:.\asp\include/queue.h ****  *
  83:.\asp\include/queue.h ****  *  p_queue‚Ì‘O‚Ép_entry‚ğ‘}“ü‚·‚éDp_queue‚ÉƒLƒ…[ƒwƒbƒ_‚ğw’è‚µ‚½ê
  84:.\asp\include/queue.h ****  *  ‡‚É‚ÍCƒLƒ…[‚Ì––”ö‚Ép_entry‚ğ‘}“ü‚·‚é‚±‚Æ‚É‚È‚éD
  85:.\asp\include/queue.h ****  */
  86:.\asp\include/queue.h **** Inline void
  87:.\asp\include/queue.h **** queue_insert_prev(QUEUE *p_queue, QUEUE *p_entry)
ARM GAS  C:\TEMP\cc3QDC5c.s 			page 17


  88:.\asp\include/queue.h **** {
  89:.\asp\include/queue.h **** 	p_entry->p_prev = p_queue->p_prev;
  90:.\asp\include/queue.h **** 	p_entry->p_next = p_queue;
  91:.\asp\include/queue.h **** 	p_queue->p_prev->p_next = p_entry;
  92:.\asp\include/queue.h **** 	p_queue->p_prev = p_entry;
  93:.\asp\include/queue.h **** }
  94:.\asp\include/queue.h **** 
  95:.\asp\include/queue.h **** /*
  96:.\asp\include/queue.h ****  *  ƒLƒ…[‚ÌŸƒGƒ“ƒgƒŠ‚Ö‚Ì‘}“ü
  97:.\asp\include/queue.h ****  *
  98:.\asp\include/queue.h ****  *  p_queue‚ÌŸ‚Ép_entry‚ğ‘}“ü‚·‚éDp_queue‚ÉƒLƒ…[ƒwƒbƒ_‚ğw’è‚µ‚½ê
  99:.\asp\include/queue.h ****  *  ‡‚É‚ÍCƒLƒ…[‚Ìæ“ª‚Ép_entry‚ğ‘}“ü‚·‚é‚±‚Æ‚É‚È‚éD
 100:.\asp\include/queue.h ****  */
 101:.\asp\include/queue.h **** Inline void
 102:.\asp\include/queue.h **** queue_insert_next(QUEUE *p_queue, QUEUE *p_entry)
 103:.\asp\include/queue.h **** {
 104:.\asp\include/queue.h **** 	p_entry->p_prev = p_queue;
 105:.\asp\include/queue.h **** 	p_entry->p_next = p_queue->p_next;
 106:.\asp\include/queue.h **** 	p_queue->p_next->p_prev = p_entry;
 107:.\asp\include/queue.h **** 	p_queue->p_next = p_entry;
 108:.\asp\include/queue.h **** }
 109:.\asp\include/queue.h **** 
 110:.\asp\include/queue.h **** /*
 111:.\asp\include/queue.h ****  *  ƒGƒ“ƒgƒŠ‚Ìíœ
 112:.\asp\include/queue.h ****  *
 113:.\asp\include/queue.h ****  *  p_entry‚ğƒLƒ…[‚©‚çíœ‚·‚éD
 114:.\asp\include/queue.h ****  */
 115:.\asp\include/queue.h **** Inline void
 116:.\asp\include/queue.h **** queue_delete(QUEUE *p_entry)
 117:.\asp\include/queue.h **** {
 118:.\asp\include/queue.h **** 	p_entry->p_prev->p_next = p_entry->p_next;
 119:.\asp\include/queue.h **** 	p_entry->p_next->p_prev = p_entry->p_prev;
 120:.\asp\include/queue.h **** }
 121:.\asp\include/queue.h **** 
 122:.\asp\include/queue.h **** /*
 123:.\asp\include/queue.h ****  *  ƒLƒ…[‚ÌŸƒGƒ“ƒgƒŠ‚Ìæo‚µ
 124:.\asp\include/queue.h ****  *
 125:.\asp\include/queue.h ****  *  p_queue‚ÌŸƒGƒ“ƒgƒŠ‚ğƒLƒ…[‚©‚çíœ‚µCíœ‚µ‚½ƒGƒ“ƒgƒŠ‚ğ•Ô‚·D
 126:.\asp\include/queue.h ****  *  p_queue‚ÉƒLƒ…[ƒwƒbƒ_‚ğw’è‚µ‚½ê‡‚É‚ÍCƒLƒ…[‚Ìæ“ª‚ÌƒGƒ“ƒgƒŠ‚ğ
 127:.\asp\include/queue.h ****  *  æ‚èo‚·‚±‚Æ‚É‚È‚éDp_queue‚É‹ó‚ÌƒLƒ…[‚ğw’è‚µ‚ÄŒÄ‚Ño‚µ‚Ä‚Í‚È‚ç
 128:.\asp\include/queue.h ****  *  ‚È‚¢D
 129:.\asp\include/queue.h ****  */
 130:.\asp\include/queue.h **** Inline QUEUE *
 131:.\asp\include/queue.h **** queue_delete_next(QUEUE *p_queue)
 132:.\asp\include/queue.h **** {
 133:.\asp\include/queue.h **** 	QUEUE	*p_entry;
 134:.\asp\include/queue.h **** 
 135:.\asp\include/queue.h **** 	assert(p_queue->p_next != p_queue);
 136:.\asp\include/queue.h **** 	p_entry = p_queue->p_next;
 137:.\asp\include/queue.h **** 	p_queue->p_next = p_entry->p_next;
 138:.\asp\include/queue.h **** 	p_entry->p_next->p_prev = p_queue;
 139:.\asp\include/queue.h **** 	return(p_entry);
 140:.\asp\include/queue.h **** }
 141:.\asp\include/queue.h **** 
 142:.\asp\include/queue.h **** /*
 143:.\asp\include/queue.h ****  *  ƒLƒ…[‚ª‹ó‚©‚Ç‚¤‚©‚Ìƒ`ƒFƒbƒN
 144:.\asp\include/queue.h ****  *
ARM GAS  C:\TEMP\cc3QDC5c.s 			page 18


 145:.\asp\include/queue.h ****  *  p_queue‚É‚ÍƒLƒ…[ƒwƒbƒ_‚ğw’è‚·‚éD
 146:.\asp\include/queue.h ****  */
 147:.\asp\include/queue.h **** Inline bool_t
 148:.\asp\include/queue.h **** queue_empty(QUEUE *p_queue)
 149:.\asp\include/queue.h **** {
 150:.\asp\include/queue.h **** 	if (p_queue->p_next == p_queue) {
 283              		.loc 4 150 0
 284 0026 A859     		ldr	r0, [r5, r6]
 285              	.LBE53:
 286              	.LBE52:
 159:.\asp\kernel/semaphore.c **** 	p_semcb = get_semcb(semid);
 287              		.loc 3 159 0
 288 0028 AF19     		adds	r7, r5, r6
 289              	.LVL17:
 290              	.LBB55:
 291              	.LBB54:
 292              		.loc 4 150 0
 293 002a B842     		cmp	r0, r7
 294 002c 06D1     		bne	.L27
 295 002e 0FE0     		b	.L29
 296              	.LVL18:
 297              	.L24:
 298              	.LBE54:
 299              	.LBE55:
 157:.\asp\kernel/semaphore.c **** 	CHECK_TSKCTX_UNL();
 300              		.loc 3 157 0
 301 0030 6FF01804 		mvn	r4, #24
 302 0034 1BE0     		b	.L28
 303              	.L26:
 304              	.L17:
 158:.\asp\kernel/semaphore.c **** 	CHECK_SEMID(semid);
 305              		.loc 3 158 0
 306 0036 6FF01104 		mvn	r4, #17
 307              	.LVL19:
 308 003a 18E0     		b	.L28
 309              	.LVL20:
 310              	.L27:
 311              	.LBB56:
 312              	.LBB57:
 137:.\asp\include/queue.h **** 	p_queue->p_next = p_entry->p_next;
 313              		.loc 4 137 0
 314 003c 0268     		ldr	r2, [r0, #0]
 315 003e AA51     		str	r2, [r5, r6]
 138:.\asp\include/queue.h **** 	p_entry->p_next->p_prev = p_queue;
 316              		.loc 4 138 0
 317 0040 0368     		ldr	r3, [r0, #0]
 318 0042 5F60     		str	r7, [r3, #4]
 319              	.LBE57:
 320              	.LBE56:
 162:.\asp\kernel/semaphore.c **** 	if (!queue_empty(&(p_semcb->wait_queue))) {
 163:.\asp\kernel/semaphore.c **** 		p_tcb = (TCB *) queue_delete_next(&(p_semcb->wait_queue));
 164:.\asp\kernel/semaphore.c **** 		if (wait_complete(p_tcb)) {
 321              		.loc 3 164 0
 322 0044 FFF7FEFF 		bl	_kernel_wait_complete
 323              	.LVL21:
 324 0048 60B1     		cbz	r0, .L30
 325              	.L21:
ARM GAS  C:\TEMP\cc3QDC5c.s 			page 19


 165:.\asp\kernel/semaphore.c **** 			dispatch();
 326              		.loc 3 165 0
 327 004a FFF7FEFF 		bl	_kernel_dispatch
 328              	.LVL22:
 329 004e 06E0     		b	.L20
 330              	.LVL23:
 331              	.L29:
 166:.\asp\kernel/semaphore.c **** 		}
 167:.\asp\kernel/semaphore.c **** 		ercd = E_OK;
 168:.\asp\kernel/semaphore.c **** 	}
 169:.\asp\kernel/semaphore.c **** 	else if (p_semcb->semcnt < p_semcb->p_seminib->maxsem) {
 332              		.loc 3 169 0
 333 0050 8268     		ldr	r2, [r0, #8]
 334 0052 C168     		ldr	r1, [r0, #12]
 335 0054 9368     		ldr	r3, [r2, #8]
 336 0056 9942     		cmp	r1, r3
 337 0058 06D2     		bcs	.L31
 338              	.L22:
 170:.\asp\kernel/semaphore.c **** 		p_semcb->semcnt += 1;
 339              		.loc 3 170 0
 340 005a 0131     		adds	r1, r1, #1
 341 005c C160     		str	r1, [r0, #12]
 342              	.LVL24:
 343              	.L20:
 171:.\asp\kernel/semaphore.c **** 		ercd = E_OK;
 172:.\asp\kernel/semaphore.c **** 	}
 173:.\asp\kernel/semaphore.c **** 	else {
 174:.\asp\kernel/semaphore.c **** 		ercd = E_QOVR;
 175:.\asp\kernel/semaphore.c **** 	}
 176:.\asp\kernel/semaphore.c **** 	t_unlock_cpu();
 344              		.loc 3 176 0
 345 005e FFF7FEFF 		bl	x_unlock_cpu
 346              	.LVL25:
 347 0062 04E0     		b	.L28
 348              	.LVL26:
 349              	.L30:
 167:.\asp\kernel/semaphore.c **** 		ercd = E_OK;
 350              		.loc 3 167 0
 351 0064 0446     		mov	r4, r0
 352 0066 FAE7     		b	.L20
 353              	.LVL27:
 354              	.L31:
 174:.\asp\kernel/semaphore.c **** 		ercd = E_QOVR;
 355              		.loc 3 174 0
 356 0068 6FF02A04 		mvn	r4, #42
 357 006c F7E7     		b	.L20
 358              	.LVL28:
 359              	.L28:
 177:.\asp\kernel/semaphore.c **** 
 178:.\asp\kernel/semaphore.c ****   error_exit:
 179:.\asp\kernel/semaphore.c **** 	LOG_SIG_SEM_LEAVE(ercd);
 180:.\asp\kernel/semaphore.c **** 	return(ercd);
 181:.\asp\kernel/semaphore.c **** }
 360              		.loc 3 181 0
 361 006e 2046     		mov	r0, r4
 362 0070 F8BD     		pop	{r3, r4, r5, r6, r7, pc}
 363              	.L33:
ARM GAS  C:\TEMP\cc3QDC5c.s 			page 20


 364 0072 00BF     		.align	2
 365              	.L32:
 366 0074 00000000 		.word	_kernel_lock_flag
 367 0078 00000000 		.word	_kernel_tmax_semid
 368 007c 00000000 		.word	_kernel_semcb_table
 369              		.cfi_endproc
 370              	.LFE61:
 371              		.size	sig_sem, .-sig_sem
 372              		.section	.text.isig_sem,"ax",%progbits
 373              		.align	1
 374              		.global	isig_sem
 375              		.thumb
 376              		.thumb_func
 377              		.type	isig_sem, %function
 378              	isig_sem:
 379              	.LFB62:
 182:.\asp\kernel/semaphore.c **** 
 183:.\asp\kernel/semaphore.c **** #endif /* TOPPERS_sig_sem */
 184:.\asp\kernel/semaphore.c **** 
 185:.\asp\kernel/semaphore.c **** /*
 186:.\asp\kernel/semaphore.c ****  *  ƒZƒ}ƒtƒH‘Œ¹‚Ì•Ô‹pi”ñƒ^ƒXƒNƒRƒ“ƒeƒLƒXƒg—pj
 187:.\asp\kernel/semaphore.c ****  */
 188:.\asp\kernel/semaphore.c **** #ifdef TOPPERS_isig_sem
 189:.\asp\kernel/semaphore.c **** 
 190:.\asp\kernel/semaphore.c **** ER
 191:.\asp\kernel/semaphore.c **** isig_sem(ID semid)
 192:.\asp\kernel/semaphore.c **** {
 380              		.loc 3 192 0
 381              		.cfi_startproc
 382              		@ args = 0, pretend = 0, frame = 0
 383              		@ frame_needed = 0, uses_anonymous_args = 0
 384              	.LVL29:
 385 0000 F8B5     		push	{r3, r4, r5, r6, r7, lr}
 386              	.LCFI2:
 387              		.cfi_def_cfa_offset 24
 388              		.cfi_offset 3, -24
 389              		.cfi_offset 4, -20
 390              		.cfi_offset 5, -16
 391              		.cfi_offset 6, -12
 392              		.cfi_offset 7, -8
 393              		.cfi_offset 14, -4
 394              		.loc 3 192 0
 395 0002 0546     		mov	r5, r0
 193:.\asp\kernel/semaphore.c **** 	SEMCB	*p_semcb;
 194:.\asp\kernel/semaphore.c **** 	TCB		*p_tcb;
 195:.\asp\kernel/semaphore.c **** 	ER		ercd;
 196:.\asp\kernel/semaphore.c ****     
 197:.\asp\kernel/semaphore.c **** 	LOG_ISIG_SEM_ENTER(semid);
 198:.\asp\kernel/semaphore.c **** 	CHECK_INTCTX_UNL();
 396              		.loc 3 198 0
 397 0004 FFF7FEFF 		bl	sense_context
 398              	.LVL30:
 399 0008 90B1     		cbz	r0, .L42
 400              	.LBB64:
 401              	.LBB65:
 402              		.loc 1 247 0
 403 000a 1A4B     		ldr	r3, .L50
ARM GAS  C:\TEMP\cc3QDC5c.s 			page 21


 404 000c 1C68     		ldr	r4, [r3, #0]
 405              	.LBE65:
 406              	.LBE64:
 407              		.loc 3 198 0
 408 000e 7CB9     		cbnz	r4, .L42
 199:.\asp\kernel/semaphore.c **** 	CHECK_SEMID(semid);
 409              		.loc 3 199 0
 410 0010 002D     		cmp	r5, #0
 411 0012 10DD     		ble	.L44
 412              		.loc 3 199 0 is_stmt 0 discriminator 2
 413 0014 1848     		ldr	r0, .L50+4
 414 0016 0168     		ldr	r1, [r0, #0]
 415 0018 8D42     		cmp	r5, r1
 416 001a 0CDC     		bgt	.L44
 200:.\asp\kernel/semaphore.c **** 	p_semcb = get_semcb(semid);
 417              		.loc 3 200 0 is_stmt 1
 418 001c 013D     		subs	r5, r5, #1
 419              	.LVL31:
 420 001e 174E     		ldr	r6, .L50+8
 421 0020 2D01     		lsls	r5, r5, #4
 422              	.LVL32:
 201:.\asp\kernel/semaphore.c **** 
 202:.\asp\kernel/semaphore.c **** 	i_lock_cpu();
 423              		.loc 3 202 0
 424 0022 FFF7FEFF 		bl	x_lock_cpu
 425              	.LVL33:
 426              	.LBB66:
 427              	.LBB67:
 428              		.loc 4 150 0
 429 0026 A859     		ldr	r0, [r5, r6]
 430              	.LBE67:
 431              	.LBE66:
 200:.\asp\kernel/semaphore.c **** 	p_semcb = get_semcb(semid);
 432              		.loc 3 200 0
 433 0028 AF19     		adds	r7, r5, r6
 434              	.LVL34:
 435              	.LBB69:
 436              	.LBB68:
 437              		.loc 4 150 0
 438 002a B842     		cmp	r0, r7
 439 002c 06D1     		bne	.L45
 440 002e 10E0     		b	.L47
 441              	.LVL35:
 442              	.L42:
 443              	.LBE68:
 444              	.LBE69:
 198:.\asp\kernel/semaphore.c **** 	CHECK_INTCTX_UNL();
 445              		.loc 3 198 0
 446 0030 6FF01804 		mvn	r4, #24
 447 0034 1CE0     		b	.L46
 448              	.L44:
 449              	.L35:
 199:.\asp\kernel/semaphore.c **** 	CHECK_SEMID(semid);
 450              		.loc 3 199 0
 451 0036 6FF01104 		mvn	r4, #17
 452              	.LVL36:
 453 003a 19E0     		b	.L46
ARM GAS  C:\TEMP\cc3QDC5c.s 			page 22


 454              	.LVL37:
 455              	.L45:
 456              	.LBB70:
 457              	.LBB71:
 137:.\asp\include/queue.h **** 	p_queue->p_next = p_entry->p_next;
 458              		.loc 4 137 0
 459 003c 0268     		ldr	r2, [r0, #0]
 460 003e AA51     		str	r2, [r5, r6]
 138:.\asp\include/queue.h **** 	p_entry->p_next->p_prev = p_queue;
 461              		.loc 4 138 0
 462 0040 0368     		ldr	r3, [r0, #0]
 463 0042 5F60     		str	r7, [r3, #4]
 464              	.LBE71:
 465              	.LBE70:
 203:.\asp\kernel/semaphore.c **** 	if (!queue_empty(&(p_semcb->wait_queue))) {
 204:.\asp\kernel/semaphore.c **** 		p_tcb = (TCB *) queue_delete_next(&(p_semcb->wait_queue));
 205:.\asp\kernel/semaphore.c **** 		if (wait_complete(p_tcb)) {
 466              		.loc 3 205 0
 467 0044 FFF7FEFF 		bl	_kernel_wait_complete
 468              	.LVL38:
 469 0048 68B1     		cbz	r0, .L48
 470              	.L39:
 206:.\asp\kernel/semaphore.c **** 			reqflg = true;
 471              		.loc 3 206 0
 472 004a 0D49     		ldr	r1, .L50+12
 473 004c 0120     		movs	r0, #1
 474 004e 0860     		str	r0, [r1, #0]
 475 0050 06E0     		b	.L38
 476              	.LVL39:
 477              	.L47:
 207:.\asp\kernel/semaphore.c **** 		}
 208:.\asp\kernel/semaphore.c **** 		ercd = E_OK;
 209:.\asp\kernel/semaphore.c **** 	}
 210:.\asp\kernel/semaphore.c **** 	else if (p_semcb->semcnt < p_semcb->p_seminib->maxsem) {
 478              		.loc 3 210 0
 479 0052 8268     		ldr	r2, [r0, #8]
 480 0054 C368     		ldr	r3, [r0, #12]
 481 0056 9168     		ldr	r1, [r2, #8]
 482 0058 8B42     		cmp	r3, r1
 483 005a 06D2     		bcs	.L49
 484              	.L40:
 211:.\asp\kernel/semaphore.c **** 		p_semcb->semcnt += 1;
 485              		.loc 3 211 0
 486 005c 0133     		adds	r3, r3, #1
 487 005e C360     		str	r3, [r0, #12]
 488              	.LVL40:
 489              	.L38:
 212:.\asp\kernel/semaphore.c **** 		ercd = E_OK;
 213:.\asp\kernel/semaphore.c **** 	}
 214:.\asp\kernel/semaphore.c **** 	else {
 215:.\asp\kernel/semaphore.c **** 		ercd = E_QOVR;
 216:.\asp\kernel/semaphore.c **** 	}
 217:.\asp\kernel/semaphore.c **** 	i_unlock_cpu();
 490              		.loc 3 217 0
 491 0060 FFF7FEFF 		bl	x_unlock_cpu
 492              	.LVL41:
 493 0064 04E0     		b	.L46
ARM GAS  C:\TEMP\cc3QDC5c.s 			page 23


 494              	.LVL42:
 495              	.L48:
 208:.\asp\kernel/semaphore.c **** 		ercd = E_OK;
 496              		.loc 3 208 0
 497 0066 0446     		mov	r4, r0
 498 0068 FAE7     		b	.L38
 499              	.LVL43:
 500              	.L49:
 215:.\asp\kernel/semaphore.c **** 		ercd = E_QOVR;
 501              		.loc 3 215 0
 502 006a 6FF02A04 		mvn	r4, #42
 503 006e F7E7     		b	.L38
 504              	.LVL44:
 505              	.L46:
 218:.\asp\kernel/semaphore.c **** 
 219:.\asp\kernel/semaphore.c ****   error_exit:
 220:.\asp\kernel/semaphore.c **** 	LOG_ISIG_SEM_LEAVE(ercd);
 221:.\asp\kernel/semaphore.c **** 	return(ercd);
 222:.\asp\kernel/semaphore.c **** }
 506              		.loc 3 222 0
 507 0070 2046     		mov	r0, r4
 508 0072 F8BD     		pop	{r3, r4, r5, r6, r7, pc}
 509              	.L51:
 510              		.align	2
 511              	.L50:
 512 0074 00000000 		.word	_kernel_lock_flag
 513 0078 00000000 		.word	_kernel_tmax_semid
 514 007c 00000000 		.word	_kernel_semcb_table
 515 0080 00000000 		.word	_kernel_reqflg
 516              		.cfi_endproc
 517              	.LFE62:
 518              		.size	isig_sem, .-isig_sem
 519              		.section	.text.wai_sem,"ax",%progbits
 520              		.align	1
 521              		.global	wai_sem
 522              		.thumb
 523              		.thumb_func
 524              		.type	wai_sem, %function
 525              	wai_sem:
 526              	.LFB63:
 223:.\asp\kernel/semaphore.c **** 
 224:.\asp\kernel/semaphore.c **** #endif /* TOPPERS_isig_sem */
 225:.\asp\kernel/semaphore.c **** 
 226:.\asp\kernel/semaphore.c **** /*
 227:.\asp\kernel/semaphore.c ****  *  ƒZƒ}ƒtƒH‘Œ¹‚ÌŠl“¾
 228:.\asp\kernel/semaphore.c ****  */
 229:.\asp\kernel/semaphore.c **** #ifdef TOPPERS_wai_sem
 230:.\asp\kernel/semaphore.c **** 
 231:.\asp\kernel/semaphore.c **** ER
 232:.\asp\kernel/semaphore.c **** wai_sem(ID semid)
 233:.\asp\kernel/semaphore.c **** {
 527              		.loc 3 233 0
 528              		.cfi_startproc
 529              		@ args = 0, pretend = 0, frame = 8
 530              		@ frame_needed = 0, uses_anonymous_args = 0
 531              	.LVL45:
 532 0000 37B5     		push	{r0, r1, r2, r4, r5, lr}
ARM GAS  C:\TEMP\cc3QDC5c.s 			page 24


 533              	.LCFI3:
 534              		.cfi_def_cfa_offset 24
 535              		.cfi_offset 0, -24
 536              		.cfi_offset 1, -20
 537              		.cfi_offset 2, -16
 538              		.cfi_offset 4, -12
 539              		.cfi_offset 5, -8
 540              		.cfi_offset 14, -4
 541              		.loc 3 233 0
 542 0002 0546     		mov	r5, r0
 234:.\asp\kernel/semaphore.c **** 	SEMCB	*p_semcb;
 235:.\asp\kernel/semaphore.c **** 	WINFO_SEM winfo_sem;
 236:.\asp\kernel/semaphore.c **** 	ER		ercd;
 237:.\asp\kernel/semaphore.c **** 
 238:.\asp\kernel/semaphore.c **** 	LOG_WAI_SEM_ENTER(semid);
 239:.\asp\kernel/semaphore.c **** 	CHECK_DISPATCH();
 543              		.loc 3 239 0
 544 0004 FFF7FEFF 		bl	sense_context
 545              	.LVL46:
 546 0008 20BB     		cbnz	r0, .L58
 547              	.LBB72:
 548              	.LBB73:
 549              		.loc 1 247 0
 550 000a 164B     		ldr	r3, .L61
 551 000c 1C68     		ldr	r4, [r3, #0]
 552              	.LBE73:
 553              	.LBE72:
 554              		.loc 3 239 0
 555 000e 0CBB     		cbnz	r4, .L58
 556              		.loc 3 239 0 is_stmt 0 discriminator 3
 557 0010 1548     		ldr	r0, .L61+4
 558 0012 0168     		ldr	r1, [r0, #0]
 559 0014 F1B1     		cbz	r1, .L58
 240:.\asp\kernel/semaphore.c **** 	CHECK_SEMID(semid);
 560              		.loc 3 240 0 is_stmt 1
 561 0016 002D     		cmp	r5, #0
 562 0018 1FDD     		ble	.L60
 563              		.loc 3 240 0 is_stmt 0 discriminator 2
 564 001a 144A     		ldr	r2, .L61+8
 565 001c 1368     		ldr	r3, [r2, #0]
 566 001e 9D42     		cmp	r5, r3
 567 0020 1BDC     		bgt	.L60
 241:.\asp\kernel/semaphore.c **** 	p_semcb = get_semcb(semid);
 568              		.loc 3 241 0 is_stmt 1
 569 0022 1348     		ldr	r0, .L61+12
 570 0024 013D     		subs	r5, r5, #1
 571              	.LVL47:
 572 0026 00EB0515 		add	r5, r0, r5, lsl #4
 573              	.LVL48:
 242:.\asp\kernel/semaphore.c **** 
 243:.\asp\kernel/semaphore.c **** 	t_lock_cpu();
 574              		.loc 3 243 0
 575 002a FFF7FEFF 		bl	x_lock_cpu
 576              	.LVL49:
 244:.\asp\kernel/semaphore.c **** 	if (p_semcb->semcnt >= 1) {
 577              		.loc 3 244 0
 578 002e E968     		ldr	r1, [r5, #12]
ARM GAS  C:\TEMP\cc3QDC5c.s 			page 25


 579 0030 11B1     		cbz	r1, .L54
 245:.\asp\kernel/semaphore.c **** 		p_semcb->semcnt -= 1;
 580              		.loc 3 245 0
 581 0032 481E     		subs	r0, r1, #1
 582 0034 E860     		str	r0, [r5, #12]
 583              	.LVL50:
 584 0036 0AE0     		b	.L55
 585              	.LVL51:
 586              	.L54:
 246:.\asp\kernel/semaphore.c **** 		ercd = E_OK;
 247:.\asp\kernel/semaphore.c **** 	}
 248:.\asp\kernel/semaphore.c **** 	else {
 249:.\asp\kernel/semaphore.c **** 		p_runtsk->tstat = (TS_WAITING | TS_WAIT_SEM);
 587              		.loc 3 249 0
 588 0038 0E4C     		ldr	r4, .L61+16
 589 003a 2222     		movs	r2, #34
 590 003c 2368     		ldr	r3, [r4, #0]
 250:.\asp\kernel/semaphore.c **** 		wobj_make_wait((WOBJCB *) p_semcb, (WINFO_WOBJ *) &winfo_sem);
 591              		.loc 3 250 0
 592 003e 2846     		mov	r0, r5
 249:.\asp\kernel/semaphore.c **** 		p_runtsk->tstat = (TS_WAITING | TS_WAIT_SEM);
 593              		.loc 3 249 0
 594 0040 1A73     		strb	r2, [r3, #12]
 595              		.loc 3 250 0
 596 0042 6946     		mov	r1, sp
 597 0044 FFF7FEFF 		bl	_kernel_wobj_make_wait
 598              	.LVL52:
 251:.\asp\kernel/semaphore.c **** 		dispatch();
 599              		.loc 3 251 0
 600 0048 FFF7FEFF 		bl	_kernel_dispatch
 601              	.LVL53:
 252:.\asp\kernel/semaphore.c **** 		ercd = winfo_sem.winfo.wercd;
 602              		.loc 3 252 0
 603 004c 009C     		ldr	r4, [sp, #0]
 604              	.LVL54:
 605              	.L55:
 253:.\asp\kernel/semaphore.c **** 	}
 254:.\asp\kernel/semaphore.c **** 	t_unlock_cpu();
 606              		.loc 3 254 0
 607 004e FFF7FEFF 		bl	x_unlock_cpu
 608              	.LVL55:
 609 0052 04E0     		b	.L53
 610              	.LVL56:
 611              	.L58:
 239:.\asp\kernel/semaphore.c **** 	CHECK_DISPATCH();
 612              		.loc 3 239 0
 613 0054 6FF01804 		mvn	r4, #24
 614 0058 01E0     		b	.L53
 615              	.L60:
 240:.\asp\kernel/semaphore.c **** 	CHECK_SEMID(semid);
 616              		.loc 3 240 0
 617 005a 6FF01104 		mvn	r4, #17
 618              	.LVL57:
 619              	.L53:
 255:.\asp\kernel/semaphore.c **** 
 256:.\asp\kernel/semaphore.c ****   error_exit:
 257:.\asp\kernel/semaphore.c **** 	LOG_WAI_SEM_LEAVE(ercd);
ARM GAS  C:\TEMP\cc3QDC5c.s 			page 26


 258:.\asp\kernel/semaphore.c **** 	return(ercd);
 259:.\asp\kernel/semaphore.c **** }
 620              		.loc 3 259 0
 621 005e 2046     		mov	r0, r4
 622 0060 3EBD     		pop	{r1, r2, r3, r4, r5, pc}
 623              	.L62:
 624 0062 00BF     		.align	2
 625              	.L61:
 626 0064 00000000 		.word	_kernel_lock_flag
 627 0068 00000000 		.word	_kernel_dspflg
 628 006c 00000000 		.word	_kernel_tmax_semid
 629 0070 00000000 		.word	_kernel_semcb_table
 630 0074 00000000 		.word	_kernel_p_runtsk
 631              		.cfi_endproc
 632              	.LFE63:
 633              		.size	wai_sem, .-wai_sem
 634              		.section	.text.pol_sem,"ax",%progbits
 635              		.align	1
 636              		.global	pol_sem
 637              		.thumb
 638              		.thumb_func
 639              		.type	pol_sem, %function
 640              	pol_sem:
 641              	.LFB64:
 260:.\asp\kernel/semaphore.c **** 
 261:.\asp\kernel/semaphore.c **** #endif /* TOPPERS_wai_sem */
 262:.\asp\kernel/semaphore.c **** 
 263:.\asp\kernel/semaphore.c **** /*
 264:.\asp\kernel/semaphore.c ****  *  ƒZƒ}ƒtƒH‘Œ¹‚ÌŠl“¾iƒ|[ƒŠƒ“ƒOj
 265:.\asp\kernel/semaphore.c ****  */
 266:.\asp\kernel/semaphore.c **** #ifdef TOPPERS_pol_sem
 267:.\asp\kernel/semaphore.c **** 
 268:.\asp\kernel/semaphore.c **** ER
 269:.\asp\kernel/semaphore.c **** pol_sem(ID semid)
 270:.\asp\kernel/semaphore.c **** {
 642              		.loc 3 270 0
 643              		.cfi_startproc
 644              		@ args = 0, pretend = 0, frame = 0
 645              		@ frame_needed = 0, uses_anonymous_args = 0
 646              	.LVL58:
 647 0000 38B5     		push	{r3, r4, r5, lr}
 648              	.LCFI4:
 649              		.cfi_def_cfa_offset 16
 650              		.cfi_offset 3, -16
 651              		.cfi_offset 4, -12
 652              		.cfi_offset 5, -8
 653              		.cfi_offset 14, -4
 654              		.loc 3 270 0
 655 0002 0546     		mov	r5, r0
 271:.\asp\kernel/semaphore.c **** 	SEMCB	*p_semcb;
 272:.\asp\kernel/semaphore.c **** 	ER		ercd;
 273:.\asp\kernel/semaphore.c **** 
 274:.\asp\kernel/semaphore.c **** 	LOG_POL_SEM_ENTER(semid);
 275:.\asp\kernel/semaphore.c **** 	CHECK_TSKCTX_UNL();
 656              		.loc 3 275 0
 657 0004 FFF7FEFF 		bl	sense_context
 658              	.LVL59:
ARM GAS  C:\TEMP\cc3QDC5c.s 			page 27


 659 0008 C0B9     		cbnz	r0, .L67
 660              	.LBB74:
 661              	.LBB75:
 662              		.loc 1 247 0
 663 000a 104B     		ldr	r3, .L71
 664 000c 1C68     		ldr	r4, [r3, #0]
 665              	.LBE75:
 666              	.LBE74:
 667              		.loc 3 275 0
 668 000e ACB9     		cbnz	r4, .L67
 276:.\asp\kernel/semaphore.c **** 	CHECK_SEMID(semid);
 669              		.loc 3 276 0
 670 0010 002D     		cmp	r5, #0
 671 0012 16DD     		ble	.L69
 672              		.loc 3 276 0 is_stmt 0 discriminator 2
 673 0014 0E48     		ldr	r0, .L71+4
 674 0016 0168     		ldr	r1, [r0, #0]
 675 0018 8D42     		cmp	r5, r1
 676 001a 12DC     		bgt	.L69
 277:.\asp\kernel/semaphore.c **** 	p_semcb = get_semcb(semid);
 677              		.loc 3 277 0 is_stmt 1
 678 001c 0D4A     		ldr	r2, .L71+8
 679 001e 013D     		subs	r5, r5, #1
 680              	.LVL60:
 681 0020 02EB0515 		add	r5, r2, r5, lsl #4
 682              	.LVL61:
 278:.\asp\kernel/semaphore.c **** 
 279:.\asp\kernel/semaphore.c **** 	t_lock_cpu();
 683              		.loc 3 279 0
 684 0024 FFF7FEFF 		bl	x_lock_cpu
 685              	.LVL62:
 280:.\asp\kernel/semaphore.c **** 	if (p_semcb->semcnt >= 1) {
 686              		.loc 3 280 0
 687 0028 EB68     		ldr	r3, [r5, #12]
 688 002a 13B1     		cbz	r3, .L70
 281:.\asp\kernel/semaphore.c **** 		p_semcb->semcnt -= 1;
 689              		.loc 3 281 0
 690 002c 581E     		subs	r0, r3, #1
 691 002e E860     		str	r0, [r5, #12]
 692              	.LVL63:
 693 0030 01E0     		b	.L65
 694              	.LVL64:
 695              	.L70:
 282:.\asp\kernel/semaphore.c **** 		ercd = E_OK;
 283:.\asp\kernel/semaphore.c **** 	}
 284:.\asp\kernel/semaphore.c **** 	else {
 285:.\asp\kernel/semaphore.c **** 		ercd = E_TMOUT;
 696              		.loc 3 285 0
 697 0032 6FF03104 		mvn	r4, #49
 698              	.L65:
 699              	.LVL65:
 286:.\asp\kernel/semaphore.c **** 	}
 287:.\asp\kernel/semaphore.c **** 	t_unlock_cpu();
 700              		.loc 3 287 0
 701 0036 FFF7FEFF 		bl	x_unlock_cpu
 702              	.LVL66:
 703 003a 04E0     		b	.L64
ARM GAS  C:\TEMP\cc3QDC5c.s 			page 28


 704              	.LVL67:
 705              	.L67:
 275:.\asp\kernel/semaphore.c **** 	CHECK_TSKCTX_UNL();
 706              		.loc 3 275 0
 707 003c 6FF01804 		mvn	r4, #24
 708 0040 01E0     		b	.L64
 709              	.L69:
 276:.\asp\kernel/semaphore.c **** 	CHECK_SEMID(semid);
 710              		.loc 3 276 0
 711 0042 6FF01104 		mvn	r4, #17
 712              	.LVL68:
 713              	.L64:
 288:.\asp\kernel/semaphore.c **** 
 289:.\asp\kernel/semaphore.c ****   error_exit:
 290:.\asp\kernel/semaphore.c **** 	LOG_POL_SEM_LEAVE(ercd);
 291:.\asp\kernel/semaphore.c **** 	return(ercd);
 292:.\asp\kernel/semaphore.c **** }
 714              		.loc 3 292 0
 715 0046 2046     		mov	r0, r4
 716 0048 38BD     		pop	{r3, r4, r5, pc}
 717              	.L72:
 718 004a 00BF     		.align	2
 719              	.L71:
 720 004c 00000000 		.word	_kernel_lock_flag
 721 0050 00000000 		.word	_kernel_tmax_semid
 722 0054 00000000 		.word	_kernel_semcb_table
 723              		.cfi_endproc
 724              	.LFE64:
 725              		.size	pol_sem, .-pol_sem
 726              		.section	.text.twai_sem,"ax",%progbits
 727              		.align	1
 728              		.global	twai_sem
 729              		.thumb
 730              		.thumb_func
 731              		.type	twai_sem, %function
 732              	twai_sem:
 733              	.LFB65:
 293:.\asp\kernel/semaphore.c **** 
 294:.\asp\kernel/semaphore.c **** #endif /* TOPPERS_pol_sem */
 295:.\asp\kernel/semaphore.c **** 
 296:.\asp\kernel/semaphore.c **** /*
 297:.\asp\kernel/semaphore.c ****  *  ƒZƒ}ƒtƒH‘Œ¹‚ÌŠl“¾iƒ^ƒCƒ€ƒAƒEƒg‚ ‚èj
 298:.\asp\kernel/semaphore.c ****  */
 299:.\asp\kernel/semaphore.c **** #ifdef TOPPERS_twai_sem
 300:.\asp\kernel/semaphore.c **** 
 301:.\asp\kernel/semaphore.c **** ER
 302:.\asp\kernel/semaphore.c **** twai_sem(ID semid, TMO tmout)
 303:.\asp\kernel/semaphore.c **** {
 734              		.loc 3 303 0
 735              		.cfi_startproc
 736              		@ args = 0, pretend = 0, frame = 24
 737              		@ frame_needed = 0, uses_anonymous_args = 0
 738              	.LVL69:
 739 0000 70B5     		push	{r4, r5, r6, lr}
 740              	.LCFI5:
 741              		.cfi_def_cfa_offset 16
 742              		.cfi_offset 4, -16
ARM GAS  C:\TEMP\cc3QDC5c.s 			page 29


 743              		.cfi_offset 5, -12
 744              		.cfi_offset 6, -8
 745              		.cfi_offset 14, -4
 746 0002 86B0     		sub	sp, sp, #24
 747              	.LCFI6:
 748              		.cfi_def_cfa_offset 40
 749              		.loc 3 303 0
 750 0004 0646     		mov	r6, r0
 751 0006 0D46     		mov	r5, r1
 304:.\asp\kernel/semaphore.c **** 	SEMCB	*p_semcb;
 305:.\asp\kernel/semaphore.c **** 	WINFO_SEM winfo_sem;
 306:.\asp\kernel/semaphore.c **** 	TMEVTB	tmevtb;
 307:.\asp\kernel/semaphore.c **** 	ER		ercd;
 308:.\asp\kernel/semaphore.c **** 
 309:.\asp\kernel/semaphore.c **** 	LOG_TWAI_SEM_ENTER(semid, tmout);
 310:.\asp\kernel/semaphore.c **** 	CHECK_DISPATCH();
 752              		.loc 3 310 0
 753 0008 FFF7FEFF 		bl	sense_context
 754              	.LVL70:
 755 000c 60BB     		cbnz	r0, .L79
 756              	.LBB76:
 757              	.LBB77:
 758              		.loc 1 247 0
 759 000e 1C4B     		ldr	r3, .L84
 760 0010 1C68     		ldr	r4, [r3, #0]
 761              	.LBE77:
 762              	.LBE76:
 763              		.loc 3 310 0
 764 0012 4CBB     		cbnz	r4, .L79
 765              		.loc 3 310 0 is_stmt 0 discriminator 3
 766 0014 1B48     		ldr	r0, .L84+4
 767 0016 0168     		ldr	r1, [r0, #0]
 768 0018 31B3     		cbz	r1, .L79
 311:.\asp\kernel/semaphore.c **** 	CHECK_SEMID(semid);
 769              		.loc 3 311 0 is_stmt 1
 770 001a 002E     		cmp	r6, #0
 771 001c 27DD     		ble	.L81
 772              		.loc 3 311 0 is_stmt 0 discriminator 2
 773 001e 1A4A     		ldr	r2, .L84+8
 774 0020 1368     		ldr	r3, [r2, #0]
 775 0022 9E42     		cmp	r6, r3
 776 0024 23DC     		bgt	.L81
 312:.\asp\kernel/semaphore.c **** 	CHECK_TMOUT(tmout);
 777              		.loc 3 312 0 is_stmt 1
 778 0026 6B1C     		adds	r3, r5, #1
 779 0028 24DB     		blt	.L82
 313:.\asp\kernel/semaphore.c **** 	p_semcb = get_semcb(semid);
 780              		.loc 3 313 0
 781 002a 1848     		ldr	r0, .L84+12
 782 002c 013E     		subs	r6, r6, #1
 783              	.LVL71:
 784 002e 00EB0616 		add	r6, r0, r6, lsl #4
 785              	.LVL72:
 314:.\asp\kernel/semaphore.c **** 
 315:.\asp\kernel/semaphore.c **** 	t_lock_cpu();
 786              		.loc 3 315 0
 787 0032 FFF7FEFF 		bl	x_lock_cpu
ARM GAS  C:\TEMP\cc3QDC5c.s 			page 30


 788              	.LVL73:
 316:.\asp\kernel/semaphore.c **** 	if (p_semcb->semcnt >= 1) {
 789              		.loc 3 316 0
 790 0036 F168     		ldr	r1, [r6, #12]
 791 0038 11B1     		cbz	r1, .L75
 317:.\asp\kernel/semaphore.c **** 		p_semcb->semcnt -= 1;
 792              		.loc 3 317 0
 793 003a 481E     		subs	r0, r1, #1
 794 003c F060     		str	r0, [r6, #12]
 795              	.LVL74:
 796 003e 10E0     		b	.L76
 797              	.LVL75:
 798              	.L75:
 318:.\asp\kernel/semaphore.c **** 		ercd = E_OK;
 319:.\asp\kernel/semaphore.c **** 	}
 320:.\asp\kernel/semaphore.c **** 	else if (tmout == TMO_POL) {
 799              		.loc 3 320 0
 800 0040 6DB1     		cbz	r5, .L83
 321:.\asp\kernel/semaphore.c **** 		ercd = E_TMOUT;
 322:.\asp\kernel/semaphore.c **** 	}
 323:.\asp\kernel/semaphore.c **** 	else {
 324:.\asp\kernel/semaphore.c **** 		p_runtsk->tstat = (TS_WAITING | TS_WAIT_SEM);
 801              		.loc 3 324 0
 802 0042 134C     		ldr	r4, .L84+16
 803 0044 2222     		movs	r2, #34
 804 0046 2368     		ldr	r3, [r4, #0]
 325:.\asp\kernel/semaphore.c **** 		wobj_make_wait_tmout((WOBJCB *) p_semcb, (WINFO_WOBJ *) &winfo_sem,
 805              		.loc 3 325 0
 806 0048 3046     		mov	r0, r6
 324:.\asp\kernel/semaphore.c **** 		p_runtsk->tstat = (TS_WAITING | TS_WAIT_SEM);
 807              		.loc 3 324 0
 808 004a 1A73     		strb	r2, [r3, #12]
 809              		.loc 3 325 0
 810 004c 01A9     		add	r1, sp, #4
 811 004e 03AA     		add	r2, sp, #12
 812 0050 2B46     		mov	r3, r5
 813 0052 FFF7FEFF 		bl	_kernel_wobj_make_wait_tmout
 814              	.LVL76:
 326:.\asp\kernel/semaphore.c **** 														&tmevtb, tmout);
 327:.\asp\kernel/semaphore.c **** 		dispatch();
 815              		.loc 3 327 0
 816 0056 FFF7FEFF 		bl	_kernel_dispatch
 817              	.LVL77:
 328:.\asp\kernel/semaphore.c **** 		ercd = winfo_sem.winfo.wercd;
 818              		.loc 3 328 0
 819 005a 019C     		ldr	r4, [sp, #4]
 820              	.LVL78:
 821 005c 01E0     		b	.L76
 822              	.LVL79:
 823              	.L83:
 321:.\asp\kernel/semaphore.c **** 		ercd = E_TMOUT;
 824              		.loc 3 321 0
 825 005e 6FF03104 		mvn	r4, #49
 826              	.L76:
 827              	.LVL80:
 329:.\asp\kernel/semaphore.c **** 	}
 330:.\asp\kernel/semaphore.c **** 	t_unlock_cpu();
ARM GAS  C:\TEMP\cc3QDC5c.s 			page 31


 828              		.loc 3 330 0
 829 0062 FFF7FEFF 		bl	x_unlock_cpu
 830              	.LVL81:
 831 0066 07E0     		b	.L74
 832              	.LVL82:
 833              	.L79:
 310:.\asp\kernel/semaphore.c **** 	CHECK_DISPATCH();
 834              		.loc 3 310 0
 835 0068 6FF01804 		mvn	r4, #24
 836 006c 04E0     		b	.L74
 837              	.L81:
 311:.\asp\kernel/semaphore.c **** 	CHECK_SEMID(semid);
 838              		.loc 3 311 0
 839 006e 6FF01104 		mvn	r4, #17
 840 0072 01E0     		b	.L74
 841              	.L82:
 312:.\asp\kernel/semaphore.c **** 	CHECK_TMOUT(tmout);
 842              		.loc 3 312 0
 843 0074 6FF01004 		mvn	r4, #16
 844              	.LVL83:
 845              	.L74:
 331:.\asp\kernel/semaphore.c **** 
 332:.\asp\kernel/semaphore.c ****   error_exit:
 333:.\asp\kernel/semaphore.c **** 	LOG_TWAI_SEM_LEAVE(ercd);
 334:.\asp\kernel/semaphore.c **** 	return(ercd);
 335:.\asp\kernel/semaphore.c **** }
 846              		.loc 3 335 0
 847 0078 2046     		mov	r0, r4
 848 007a 06B0     		add	sp, sp, #24
 849 007c 70BD     		pop	{r4, r5, r6, pc}
 850              	.L85:
 851 007e 00BF     		.align	2
 852              	.L84:
 853 0080 00000000 		.word	_kernel_lock_flag
 854 0084 00000000 		.word	_kernel_dspflg
 855 0088 00000000 		.word	_kernel_tmax_semid
 856 008c 00000000 		.word	_kernel_semcb_table
 857 0090 00000000 		.word	_kernel_p_runtsk
 858              		.cfi_endproc
 859              	.LFE65:
 860              		.size	twai_sem, .-twai_sem
 861              		.section	.text.ini_sem,"ax",%progbits
 862              		.align	1
 863              		.global	ini_sem
 864              		.thumb
 865              		.thumb_func
 866              		.type	ini_sem, %function
 867              	ini_sem:
 868              	.LFB66:
 336:.\asp\kernel/semaphore.c **** 
 337:.\asp\kernel/semaphore.c **** #endif /* TOPPERS_twai_sem */
 338:.\asp\kernel/semaphore.c **** 
 339:.\asp\kernel/semaphore.c **** /*
 340:.\asp\kernel/semaphore.c ****  *  ƒZƒ}ƒtƒH‚ÌÄ‰Šú‰»
 341:.\asp\kernel/semaphore.c ****  */
 342:.\asp\kernel/semaphore.c **** #ifdef TOPPERS_ini_sem
 343:.\asp\kernel/semaphore.c **** 
ARM GAS  C:\TEMP\cc3QDC5c.s 			page 32


 344:.\asp\kernel/semaphore.c **** ER
 345:.\asp\kernel/semaphore.c **** ini_sem(ID semid)
 346:.\asp\kernel/semaphore.c **** {
 869              		.loc 3 346 0
 870              		.cfi_startproc
 871              		@ args = 0, pretend = 0, frame = 0
 872              		@ frame_needed = 0, uses_anonymous_args = 0
 873              	.LVL84:
 874 0000 10B5     		push	{r4, lr}
 875              	.LCFI7:
 876              		.cfi_def_cfa_offset 8
 877              		.cfi_offset 4, -8
 878              		.cfi_offset 14, -4
 879              		.loc 3 346 0
 880 0002 0446     		mov	r4, r0
 347:.\asp\kernel/semaphore.c **** 	SEMCB	*p_semcb;
 348:.\asp\kernel/semaphore.c **** 	bool_t	dspreq;
 349:.\asp\kernel/semaphore.c **** 	ER		ercd;
 350:.\asp\kernel/semaphore.c ****     
 351:.\asp\kernel/semaphore.c **** 	LOG_INI_SEM_ENTER(semid);
 352:.\asp\kernel/semaphore.c **** 	CHECK_TSKCTX_UNL();
 881              		.loc 3 352 0
 882 0004 FFF7FEFF 		bl	sense_context
 883              	.LVL85:
 884 0008 D8B9     		cbnz	r0, .L90
 885              	.LBB78:
 886              	.LBB79:
 887              		.loc 1 247 0
 888 000a 114B     		ldr	r3, .L96
 889 000c 1868     		ldr	r0, [r3, #0]
 890              	.LBE79:
 891              	.LBE78:
 892              		.loc 3 352 0
 893 000e C0B9     		cbnz	r0, .L90
 353:.\asp\kernel/semaphore.c **** 	CHECK_SEMID(semid);
 894              		.loc 3 353 0
 895 0010 002C     		cmp	r4, #0
 896 0012 19DD     		ble	.L92
 897              		.loc 3 353 0 is_stmt 0 discriminator 2
 898 0014 0F49     		ldr	r1, .L96+4
 899 0016 0A68     		ldr	r2, [r1, #0]
 900 0018 9442     		cmp	r4, r2
 901 001a 15DC     		bgt	.L92
 354:.\asp\kernel/semaphore.c **** 	p_semcb = get_semcb(semid);
 902              		.loc 3 354 0 is_stmt 1
 903 001c 0E4B     		ldr	r3, .L96+8
 904 001e 013C     		subs	r4, r4, #1
 905              	.LVL86:
 906 0020 03EB0414 		add	r4, r3, r4, lsl #4
 907              	.LVL87:
 355:.\asp\kernel/semaphore.c **** 
 356:.\asp\kernel/semaphore.c **** 	t_lock_cpu();
 908              		.loc 3 356 0
 909 0024 FFF7FEFF 		bl	x_lock_cpu
 910              	.LVL88:
 357:.\asp\kernel/semaphore.c **** 	dspreq = init_wait_queue(&(p_semcb->wait_queue));
 911              		.loc 3 357 0
ARM GAS  C:\TEMP\cc3QDC5c.s 			page 33


 912 0028 2046     		mov	r0, r4
 913 002a FFF7FEFF 		bl	_kernel_init_wait_queue
 914              	.LVL89:
 358:.\asp\kernel/semaphore.c **** 	p_semcb->semcnt = p_semcb->p_seminib->isemcnt;
 915              		.loc 3 358 0
 916 002e A168     		ldr	r1, [r4, #8]
 917 0030 4A68     		ldr	r2, [r1, #4]
 918 0032 E260     		str	r2, [r4, #12]
 359:.\asp\kernel/semaphore.c **** 	if (dspreq) {
 919              		.loc 3 359 0
 920 0034 08B1     		cbz	r0, .L88
 360:.\asp\kernel/semaphore.c **** 		dispatch();
 921              		.loc 3 360 0
 922 0036 FFF7FEFF 		bl	_kernel_dispatch
 923              	.LVL90:
 924              	.L88:
 361:.\asp\kernel/semaphore.c **** 	}
 362:.\asp\kernel/semaphore.c **** 	ercd = E_OK;
 363:.\asp\kernel/semaphore.c **** 	t_unlock_cpu();
 925              		.loc 3 363 0
 926 003a FFF7FEFF 		bl	x_unlock_cpu
 927              	.LVL91:
 362:.\asp\kernel/semaphore.c **** 	ercd = E_OK;
 928              		.loc 3 362 0
 929 003e 0020     		movs	r0, #0
 930 0040 10BD     		pop	{r4, pc}
 931              	.LVL92:
 932              	.L90:
 352:.\asp\kernel/semaphore.c **** 	CHECK_TSKCTX_UNL();
 933              		.loc 3 352 0
 934 0042 6FF01800 		mvn	r0, #24
 935 0046 10BD     		pop	{r4, pc}
 936              	.L92:
 937              	.L87:
 353:.\asp\kernel/semaphore.c **** 	CHECK_SEMID(semid);
 938              		.loc 3 353 0
 939 0048 6FF01100 		mvn	r0, #17
 940              	.LVL93:
 364:.\asp\kernel/semaphore.c **** 
 365:.\asp\kernel/semaphore.c ****   error_exit:
 366:.\asp\kernel/semaphore.c **** 	LOG_INI_SEM_LEAVE(ercd);
 367:.\asp\kernel/semaphore.c **** 	return(ercd);
 368:.\asp\kernel/semaphore.c **** }
 941              		.loc 3 368 0
 942 004c 10BD     		pop	{r4, pc}
 943              	.L97:
 944 004e 00BF     		.align	2
 945              	.L96:
 946 0050 00000000 		.word	_kernel_lock_flag
 947 0054 00000000 		.word	_kernel_tmax_semid
 948 0058 00000000 		.word	_kernel_semcb_table
 949              		.cfi_endproc
 950              	.LFE66:
 951              		.size	ini_sem, .-ini_sem
 952              		.section	.text.ref_sem,"ax",%progbits
 953              		.align	1
 954              		.global	ref_sem
ARM GAS  C:\TEMP\cc3QDC5c.s 			page 34


 955              		.thumb
 956              		.thumb_func
 957              		.type	ref_sem, %function
 958              	ref_sem:
 959              	.LFB67:
 369:.\asp\kernel/semaphore.c **** 
 370:.\asp\kernel/semaphore.c **** #endif /* TOPPERS_ini_sem */
 371:.\asp\kernel/semaphore.c **** 
 372:.\asp\kernel/semaphore.c **** /*
 373:.\asp\kernel/semaphore.c ****  *  ƒZƒ}ƒtƒH‚Ìó‘ÔQÆ
 374:.\asp\kernel/semaphore.c ****  */
 375:.\asp\kernel/semaphore.c **** #ifdef TOPPERS_ref_sem
 376:.\asp\kernel/semaphore.c **** 
 377:.\asp\kernel/semaphore.c **** ER
 378:.\asp\kernel/semaphore.c **** ref_sem(ID semid, T_RSEM *pk_rsem)
 379:.\asp\kernel/semaphore.c **** {
 960              		.loc 3 379 0
 961              		.cfi_startproc
 962              		@ args = 0, pretend = 0, frame = 0
 963              		@ frame_needed = 0, uses_anonymous_args = 0
 964              	.LVL94:
 965 0000 2DE9F041 		push	{r4, r5, r6, r7, r8, lr}
 966              	.LCFI8:
 967              		.cfi_def_cfa_offset 24
 968              		.cfi_offset 4, -24
 969              		.cfi_offset 5, -20
 970              		.cfi_offset 6, -16
 971              		.cfi_offset 7, -12
 972              		.cfi_offset 8, -8
 973              		.cfi_offset 14, -4
 974              		.loc 3 379 0
 975 0004 0446     		mov	r4, r0
 976 0006 0D46     		mov	r5, r1
 380:.\asp\kernel/semaphore.c **** 	SEMCB	*p_semcb;
 381:.\asp\kernel/semaphore.c **** 	ER		ercd;
 382:.\asp\kernel/semaphore.c ****     
 383:.\asp\kernel/semaphore.c **** 	LOG_REF_SEM_ENTER(semid, pk_rsem);
 384:.\asp\kernel/semaphore.c **** 	CHECK_TSKCTX_UNL();
 977              		.loc 3 384 0
 978 0008 FFF7FEFF 		bl	sense_context
 979              	.LVL95:
 980 000c E0B9     		cbnz	r0, .L103
 981              	.LBB86:
 982              	.LBB87:
 983              		.loc 1 247 0
 984 000e 154B     		ldr	r3, .L107
 985 0010 1F68     		ldr	r7, [r3, #0]
 986              	.LBE87:
 987              	.LBE86:
 988              		.loc 3 384 0
 989 0012 CFB9     		cbnz	r7, .L103
 385:.\asp\kernel/semaphore.c **** 	CHECK_SEMID(semid);
 990              		.loc 3 385 0
 991 0014 002C     		cmp	r4, #0
 992 0016 1BDD     		ble	.L105
 993              		.loc 3 385 0 is_stmt 0 discriminator 2
 994 0018 1348     		ldr	r0, .L107+4
ARM GAS  C:\TEMP\cc3QDC5c.s 			page 35


 995 001a 0168     		ldr	r1, [r0, #0]
 996 001c 8C42     		cmp	r4, r1
 997 001e 17DC     		bgt	.L105
 386:.\asp\kernel/semaphore.c **** 	p_semcb = get_semcb(semid);
 998              		.loc 3 386 0 is_stmt 1
 999 0020 013C     		subs	r4, r4, #1
 1000              	.LVL96:
 1001 0022 4FEA0418 		lsl	r8, r4, #4
 1002 0026 114C     		ldr	r4, .L107+8
 1003              	.LVL97:
 387:.\asp\kernel/semaphore.c **** 
 388:.\asp\kernel/semaphore.c **** 	t_lock_cpu();
 1004              		.loc 3 388 0
 1005 0028 FFF7FEFF 		bl	x_lock_cpu
 1006              	.LVL98:
 1007              	.LBB88:
 1008              	.LBB89:
 1009              	.LBB90:
 1010              	.LBB91:
 1011              		.loc 4 150 0
 1012 002c 58F80420 		ldr	r2, [r8, r4]
 1013              	.LBE91:
 1014              	.LBE90:
 1015              	.LBE89:
 1016              	.LBE88:
 386:.\asp\kernel/semaphore.c **** 	p_semcb = get_semcb(semid);
 1017              		.loc 3 386 0
 1018 0030 08EB0406 		add	r6, r8, r4
 1019              	.LVL99:
 1020              	.LBB96:
 1021              	.LBB94:
 1022              	.LBB93:
 1023              	.LBB92:
 1024              		.loc 4 150 0
 1025 0034 B242     		cmp	r2, r6
 1026 0036 0FD1     		bne	.L100
 1027              	.L101:
 1028              	.LBE92:
 1029              	.LBE93:
 1030              	.LBE94:
 1031              	.LBE96:
 389:.\asp\kernel/semaphore.c **** 	pk_rsem->wtskid = wait_tskid(&(p_semcb->wait_queue));
 390:.\asp\kernel/semaphore.c **** 	pk_rsem->semcnt = p_semcb->semcnt;
 1032              		.loc 3 390 0
 1033 0038 F168     		ldr	r1, [r6, #12]
 389:.\asp\kernel/semaphore.c **** 	pk_rsem->wtskid = wait_tskid(&(p_semcb->wait_queue));
 1034              		.loc 3 389 0
 1035 003a 2F60     		str	r7, [r5, #0]
 1036              		.loc 3 390 0
 1037 003c 6960     		str	r1, [r5, #4]
 1038              	.LVL100:
 391:.\asp\kernel/semaphore.c **** 	ercd = E_OK;
 392:.\asp\kernel/semaphore.c **** 	t_unlock_cpu();
 1039              		.loc 3 392 0
 1040 003e FFF7FEFF 		bl	x_unlock_cpu
 1041              	.LVL101:
 391:.\asp\kernel/semaphore.c **** 	ercd = E_OK;
ARM GAS  C:\TEMP\cc3QDC5c.s 			page 36


 1042              		.loc 3 391 0
 1043 0042 0020     		movs	r0, #0
 1044 0044 BDE8F081 		pop	{r4, r5, r6, r7, r8, pc}
 1045              	.LVL102:
 1046              	.L103:
 384:.\asp\kernel/semaphore.c **** 	CHECK_TSKCTX_UNL();
 1047              		.loc 3 384 0
 1048 0048 6FF01800 		mvn	r0, #24
 1049 004c BDE8F081 		pop	{r4, r5, r6, r7, r8, pc}
 1050              	.L105:
 1051              	.L99:
 385:.\asp\kernel/semaphore.c **** 	CHECK_SEMID(semid);
 1052              		.loc 3 385 0
 1053 0050 6FF01100 		mvn	r0, #17
 1054              	.LVL103:
 1055 0054 BDE8F081 		pop	{r4, r5, r6, r7, r8, pc}
 1056              	.LVL104:
 1057              	.L100:
 1058              	.LBB97:
 1059              	.LBB95:
 1060              		.file 5 ".\\asp\\kernel\\wait.h"
   1:.\asp\kernel/wait.h **** /*
   2:.\asp\kernel/wait.h ****  *  TOPPERS/ASP Kernel
   3:.\asp\kernel/wait.h ****  *      Toyohashi Open Platform for Embedded Real-Time Systems/
   4:.\asp\kernel/wait.h ****  *      Advanced Standard Profile Kernel
   5:.\asp\kernel/wait.h ****  * 
   6:.\asp\kernel/wait.h ****  *  Copyright (C) 2000 by Embedded and Real-Time Systems Laboratory
   7:.\asp\kernel/wait.h ****  *                              Toyohashi Univ. of Technology, JAPAN
   8:.\asp\kernel/wait.h ****  *  Copyright (C) 2005-2011 by Embedded and Real-Time Systems Laboratory
   9:.\asp\kernel/wait.h ****  *              Graduate School of Information Science, Nagoya Univ., JAPAN
  10:.\asp\kernel/wait.h ****  * 
  11:.\asp\kernel/wait.h ****  *  ã‹L’˜ìŒ Ò‚ÍCˆÈ‰º‚Ì(1)`(4)‚ÌğŒ‚ğ–‚½‚·ê‡‚ÉŒÀ‚èC–{ƒ\ƒtƒgƒEƒF
  12:.\asp\kernel/wait.h ****  *  ƒAi–{ƒ\ƒtƒgƒEƒFƒA‚ğ‰ü•Ï‚µ‚½‚à‚Ì‚ğŠÜ‚ŞDˆÈ‰º“¯‚¶j‚ğg—pE•¡»E‰ü
  13:.\asp\kernel/wait.h ****  *  •ÏEÄ”z•ziˆÈ‰ºC—˜—p‚ÆŒÄ‚Ôj‚·‚é‚±‚Æ‚ğ–³‚Å‹–‘ø‚·‚éD
  14:.\asp\kernel/wait.h ****  *  (1) –{ƒ\ƒtƒgƒEƒFƒA‚ğƒ\[ƒXƒR[ƒh‚ÌŒ`‚Å—˜—p‚·‚éê‡‚É‚ÍCã‹L‚Ì’˜ì
  15:.\asp\kernel/wait.h ****  *      Œ •\¦C‚±‚Ì—˜—pğŒ‚¨‚æ‚Ñ‰º‹L‚Ì–³•ÛØ‹K’è‚ªC‚»‚Ì‚Ü‚Ü‚ÌŒ`‚Åƒ\[
  16:.\asp\kernel/wait.h ****  *      ƒXƒR[ƒh’†‚ÉŠÜ‚Ü‚ê‚Ä‚¢‚é‚±‚ÆD
  17:.\asp\kernel/wait.h ****  *  (2) –{ƒ\ƒtƒgƒEƒFƒA‚ğCƒ‰ƒCƒuƒ‰ƒŠŒ`®‚È‚ÇC‘¼‚Ìƒ\ƒtƒgƒEƒFƒAŠJ”­‚Ég
  18:.\asp\kernel/wait.h ****  *      —p‚Å‚«‚éŒ`‚ÅÄ”z•z‚·‚éê‡‚É‚ÍCÄ”z•z‚É”º‚¤ƒhƒLƒ…ƒƒ“ƒgi—˜—p
  19:.\asp\kernel/wait.h ****  *      Òƒ}ƒjƒ…ƒAƒ‹‚È‚Çj‚ÉCã‹L‚Ì’˜ìŒ •\¦C‚±‚Ì—˜—pğŒ‚¨‚æ‚Ñ‰º‹L
  20:.\asp\kernel/wait.h ****  *      ‚Ì–³•ÛØ‹K’è‚ğŒfÚ‚·‚é‚±‚ÆD
  21:.\asp\kernel/wait.h ****  *  (3) –{ƒ\ƒtƒgƒEƒFƒA‚ğC‹@Ší‚É‘g‚İ‚Ş‚È‚ÇC‘¼‚Ìƒ\ƒtƒgƒEƒFƒAŠJ”­‚Ég
  22:.\asp\kernel/wait.h ****  *      —p‚Å‚«‚È‚¢Œ`‚ÅÄ”z•z‚·‚éê‡‚É‚ÍCŸ‚Ì‚¢‚¸‚ê‚©‚ÌğŒ‚ğ–‚½‚·‚±
  23:.\asp\kernel/wait.h ****  *      ‚ÆD
  24:.\asp\kernel/wait.h ****  *    (a) Ä”z•z‚É”º‚¤ƒhƒLƒ…ƒƒ“ƒgi—˜—pÒƒ}ƒjƒ…ƒAƒ‹‚È‚Çj‚ÉCã‹L‚Ì’˜
  25:.\asp\kernel/wait.h ****  *        ìŒ •\¦C‚±‚Ì—˜—pğŒ‚¨‚æ‚Ñ‰º‹L‚Ì–³•ÛØ‹K’è‚ğŒfÚ‚·‚é‚±‚ÆD
  26:.\asp\kernel/wait.h ****  *    (b) Ä”z•z‚ÌŒ`‘Ô‚ğC•Ê‚É’è‚ß‚é•û–@‚É‚æ‚Á‚ÄCTOPPERSƒvƒƒWƒFƒNƒg‚É
  27:.\asp\kernel/wait.h ****  *        •ñ‚·‚é‚±‚ÆD
  28:.\asp\kernel/wait.h ****  *  (4) –{ƒ\ƒtƒgƒEƒFƒA‚Ì—˜—p‚É‚æ‚è’¼Ú“I‚Ü‚½‚ÍŠÔÚ“I‚É¶‚¶‚é‚¢‚©‚È‚é‘¹
  29:.\asp\kernel/wait.h ****  *      ŠQ‚©‚ç‚àCã‹L’˜ìŒ Ò‚¨‚æ‚ÑTOPPERSƒvƒƒWƒFƒNƒg‚ğ–ÆÓ‚·‚é‚±‚ÆD
  30:.\asp\kernel/wait.h ****  *      ‚Ü‚½C–{ƒ\ƒtƒgƒEƒFƒA‚Ìƒ†[ƒU‚Ü‚½‚ÍƒGƒ“ƒhƒ†[ƒU‚©‚ç‚Ì‚¢‚©‚È‚é—
  31:.\asp\kernel/wait.h ****  *      —R‚ÉŠî‚Ã‚­¿‹‚©‚ç‚àCã‹L’˜ìŒ Ò‚¨‚æ‚ÑTOPPERSƒvƒƒWƒFƒNƒg‚ğ
  32:.\asp\kernel/wait.h ****  *      –ÆÓ‚·‚é‚±‚ÆD
  33:.\asp\kernel/wait.h ****  * 
  34:.\asp\kernel/wait.h ****  *  –{ƒ\ƒtƒgƒEƒFƒA‚ÍC–³•ÛØ‚Å’ñ‹Ÿ‚³‚ê‚Ä‚¢‚é‚à‚Ì‚Å‚ ‚éDã‹L’˜ìŒ Ò‚¨
  35:.\asp\kernel/wait.h ****  *  ‚æ‚ÑTOPPERSƒvƒƒWƒFƒNƒg‚ÍC–{ƒ\ƒtƒgƒEƒFƒA‚ÉŠÖ‚µ‚ÄC“Á’è‚Ìg—p–Ú“I
  36:.\asp\kernel/wait.h ****  *  ‚É‘Î‚·‚é“K‡«‚àŠÜ‚ß‚ÄC‚¢‚©‚È‚é•ÛØ‚às‚í‚È‚¢D‚Ü‚½C–{ƒ\ƒtƒgƒEƒF
ARM GAS  C:\TEMP\cc3QDC5c.s 			page 37


  37:.\asp\kernel/wait.h ****  *  ƒA‚Ì—˜—p‚É‚æ‚è’¼Ú“I‚Ü‚½‚ÍŠÔÚ“I‚É¶‚¶‚½‚¢‚©‚È‚é‘¹ŠQ‚ÉŠÖ‚µ‚Ä‚àC‚»
  38:.\asp\kernel/wait.h ****  *  ‚ÌÓ”C‚ğ•‰‚í‚È‚¢D
  39:.\asp\kernel/wait.h ****  * 
  40:.\asp\kernel/wait.h ****  *  @(#) $Id: wait.h 2128 2011-06-26 01:21:05Z ertl-hiro $
  41:.\asp\kernel/wait.h ****  */
  42:.\asp\kernel/wait.h **** 
  43:.\asp\kernel/wait.h **** /*
  44:.\asp\kernel/wait.h ****  *		‘Ò‚¿ó‘ÔŠÇ—ƒ‚ƒWƒ…[ƒ‹
  45:.\asp\kernel/wait.h ****  */
  46:.\asp\kernel/wait.h **** 
  47:.\asp\kernel/wait.h **** #ifndef TOPPERS_WAIT_H
  48:.\asp\kernel/wait.h **** #define TOPPERS_WAIT_H
  49:.\asp\kernel/wait.h **** 
  50:.\asp\kernel/wait.h **** #include "task.h"
  51:.\asp\kernel/wait.h **** #include "time_event.h"
  52:.\asp\kernel/wait.h **** 
  53:.\asp\kernel/wait.h **** /*
  54:.\asp\kernel/wait.h ****  *  ƒ^ƒXƒN‚Ì—Dæ“x‡‚Ì‘Ò‚¿ƒLƒ…[‚Ö‚Ì‘}“ü
  55:.\asp\kernel/wait.h ****  *
  56:.\asp\kernel/wait.h ****  *  p_tcb‚Åw’è‚³‚ê‚éƒ^ƒXƒN‚ğCƒ^ƒXƒN—Dæ“x‡‚ÌƒLƒ…[p_queue‚É‘}“ü‚·‚éD
  57:.\asp\kernel/wait.h ****  *  ƒLƒ…[‚Ì’†‚É“¯‚¶—Dæ“x‚Ìƒ^ƒXƒN‚ª‚ ‚éê‡‚É‚ÍC‚»‚ÌÅŒã‚É‘}“ü‚·‚éD
  58:.\asp\kernel/wait.h ****  */
  59:.\asp\kernel/wait.h **** Inline void
  60:.\asp\kernel/wait.h **** queue_insert_tpri(QUEUE *p_queue, TCB *p_tcb)
  61:.\asp\kernel/wait.h **** {
  62:.\asp\kernel/wait.h **** 	QUEUE	*p_entry;
  63:.\asp\kernel/wait.h **** 	uint_t	pri = p_tcb->priority;
  64:.\asp\kernel/wait.h **** 
  65:.\asp\kernel/wait.h **** 	for (p_entry = p_queue->p_next; p_entry != p_queue;
  66:.\asp\kernel/wait.h **** 										p_entry = p_entry->p_next) {
  67:.\asp\kernel/wait.h **** 		if (pri < ((TCB *) p_entry)->priority) {
  68:.\asp\kernel/wait.h **** 			break;
  69:.\asp\kernel/wait.h **** 		}
  70:.\asp\kernel/wait.h **** 	}
  71:.\asp\kernel/wait.h **** 	queue_insert_prev(p_entry, &(p_tcb->task_queue));
  72:.\asp\kernel/wait.h **** }
  73:.\asp\kernel/wait.h **** 
  74:.\asp\kernel/wait.h **** /*
  75:.\asp\kernel/wait.h ****  *  ‘Ò‚¿ó‘Ô‚Ö‚Ì‘JˆÚ
  76:.\asp\kernel/wait.h ****  *
  77:.\asp\kernel/wait.h ****  *  Às’†‚Ìƒ^ƒXƒN‚ğ‘Ò‚¿ó‘Ô‚É‘JˆÚ‚³‚¹‚éD‹ï‘Ì“I‚É‚ÍCÀs’†‚Ìƒ^ƒXƒN‚ğ
  78:.\asp\kernel/wait.h ****  *  ƒŒƒfƒBƒLƒ…[‚©‚çíœ‚µCTCB‚Ìp_winfoƒtƒB[ƒ‹ƒhCWINFO‚Ìp_tmevtbƒtƒB[
  79:.\asp\kernel/wait.h ****  *  ƒ‹ƒh‚ğİ’è‚·‚éD
  80:.\asp\kernel/wait.h ****  */
  81:.\asp\kernel/wait.h **** Inline void
  82:.\asp\kernel/wait.h **** make_wait(WINFO *p_winfo)
  83:.\asp\kernel/wait.h **** {
  84:.\asp\kernel/wait.h **** 	(void) make_non_runnable(p_runtsk);
  85:.\asp\kernel/wait.h **** 	p_runtsk->p_winfo = p_winfo;
  86:.\asp\kernel/wait.h **** 	p_winfo->p_tmevtb = NULL;
  87:.\asp\kernel/wait.h **** }
  88:.\asp\kernel/wait.h **** 
  89:.\asp\kernel/wait.h **** /*
  90:.\asp\kernel/wait.h ****  *  ‘Ò‚¿ó‘Ô‚Ö‚Ì‘JˆÚiƒ^ƒCƒ€ƒAƒEƒgw’èj
  91:.\asp\kernel/wait.h ****  *
  92:.\asp\kernel/wait.h ****  *  Às’†‚Ìƒ^ƒXƒN‚ğCƒ^ƒCƒ€ƒAƒEƒgw’è•t‚«‚Å‘Ò‚¿ó‘Ô‚É‘JˆÚ‚³‚¹‚éD‹ï‘Ì
  93:.\asp\kernel/wait.h ****  *  “I‚É‚ÍCÀs’†‚Ìƒ^ƒXƒN‚ğƒŒƒfƒBƒLƒ…[‚©‚çíœ‚µCTCB‚Ìp_winfoƒtƒB[
ARM GAS  C:\TEMP\cc3QDC5c.s 			page 38


  94:.\asp\kernel/wait.h ****  *  ƒ‹ƒhCWINFO‚Ìp_tmevtbƒtƒB[ƒ‹ƒh‚ğİ’è‚·‚éD‚Ü‚½Cƒ^ƒCƒ€ƒCƒxƒ“ƒgƒu
  95:.\asp\kernel/wait.h ****  *  ƒƒbƒN‚ğ“o˜^‚·‚éD
  96:.\asp\kernel/wait.h ****  */
  97:.\asp\kernel/wait.h **** extern void	make_wait_tmout(WINFO *p_winfo, TMEVTB *p_tmevtb, TMO tmout);
  98:.\asp\kernel/wait.h **** 
  99:.\asp\kernel/wait.h **** /*
 100:.\asp\kernel/wait.h ****  *  ‘Ò‚¿‰ğœ‚Ì‚½‚ß‚Ìƒ^ƒXƒNó‘Ô‚ÌXV
 101:.\asp\kernel/wait.h ****  *
 102:.\asp\kernel/wait.h ****  *  p_tcb‚Åw’è‚³‚ê‚éƒ^ƒXƒN‚ğC‘Ò‚¿‰ğœ‚·‚é‚æ‚¤ƒ^ƒXƒNó‘Ô‚ğXV‚·‚éD
 103:.\asp\kernel/wait.h ****  *  ‘Ò‚¿‰ğœ‚·‚éƒ^ƒXƒN‚ªÀs‚Å‚«‚éó‘Ô‚É‚È‚éê‡‚ÍCƒŒƒfƒBƒLƒ…[‚É‚Â‚È
 104:.\asp\kernel/wait.h ****  *  ‚®D‚Ü‚½CƒfƒBƒXƒpƒbƒ`‚ª•K—v‚Èê‡‚É‚Ítrue‚ğ•Ô‚·D
 105:.\asp\kernel/wait.h ****  */
 106:.\asp\kernel/wait.h **** Inline bool_t
 107:.\asp\kernel/wait.h **** make_non_wait(TCB *p_tcb)
 108:.\asp\kernel/wait.h **** {
 109:.\asp\kernel/wait.h **** 	assert(TSTAT_WAITING(p_tcb->tstat));
 110:.\asp\kernel/wait.h **** 
 111:.\asp\kernel/wait.h **** 	if (!TSTAT_SUSPENDED(p_tcb->tstat)) {
 112:.\asp\kernel/wait.h **** 		/*
 113:.\asp\kernel/wait.h **** 		 *  ‘Ò‚¿ó‘Ô‚©‚çÀs‚Å‚«‚éó‘Ô‚Ö‚Ì‘JˆÚ
 114:.\asp\kernel/wait.h **** 		 */
 115:.\asp\kernel/wait.h **** 		p_tcb->tstat = TS_RUNNABLE;
 116:.\asp\kernel/wait.h **** 		LOG_TSKSTAT(p_tcb);
 117:.\asp\kernel/wait.h **** 		return(make_runnable(p_tcb));
 118:.\asp\kernel/wait.h **** 	}
 119:.\asp\kernel/wait.h **** 	else {
 120:.\asp\kernel/wait.h **** 		/*
 121:.\asp\kernel/wait.h **** 		 *  “ñd‘Ò‚¿ó‘Ô‚©‚ç‹­§‘Ò‚¿ó‘Ô‚Ö‚Ì‘JˆÚ
 122:.\asp\kernel/wait.h **** 		 */
 123:.\asp\kernel/wait.h **** 		p_tcb->tstat = TS_SUSPENDED;
 124:.\asp\kernel/wait.h **** 		LOG_TSKSTAT(p_tcb);
 125:.\asp\kernel/wait.h **** 		return(false);
 126:.\asp\kernel/wait.h **** 	}
 127:.\asp\kernel/wait.h **** }
 128:.\asp\kernel/wait.h **** 
 129:.\asp\kernel/wait.h **** /*
 130:.\asp\kernel/wait.h ****  *  ƒIƒuƒWƒFƒNƒg‘Ò‚¿ƒLƒ…[‚©‚ç‚Ìíœ
 131:.\asp\kernel/wait.h ****  *
 132:.\asp\kernel/wait.h ****  *  p_tcb‚Åw’è‚³‚ê‚éƒ^ƒXƒN‚ªC“¯ŠúE’ÊMƒIƒuƒWƒFƒNƒg‚Ì‘Ò‚¿ƒLƒ…[‚É‚Â
 133:.\asp\kernel/wait.h ****  *  ‚È‚ª‚ê‚Ä‚¢‚ê‚ÎC‘Ò‚¿ƒLƒ…[‚©‚çíœ‚·‚éD
 134:.\asp\kernel/wait.h ****  */
 135:.\asp\kernel/wait.h **** Inline void
 136:.\asp\kernel/wait.h **** wait_dequeue_wobj(TCB *p_tcb)
 137:.\asp\kernel/wait.h **** {
 138:.\asp\kernel/wait.h **** 	if (TSTAT_WAIT_WOBJ(p_tcb->tstat)) {
 139:.\asp\kernel/wait.h **** 		queue_delete(&(p_tcb->task_queue));
 140:.\asp\kernel/wait.h **** 	}
 141:.\asp\kernel/wait.h **** }
 142:.\asp\kernel/wait.h **** 
 143:.\asp\kernel/wait.h **** /*
 144:.\asp\kernel/wait.h ****  *  ŠÔ‘Ò‚¿‚Ì‚½‚ß‚Ìƒ^ƒCƒ€ƒCƒxƒ“ƒgƒuƒƒbƒN‚Ì“o˜^‰ğœ
 145:.\asp\kernel/wait.h ****  *
 146:.\asp\kernel/wait.h ****  *  p_tcb‚Åw’è‚³‚ê‚éƒ^ƒXƒN‚É‘Î‚µ‚ÄCŠÔ‘Ò‚¿‚Ì‚½‚ß‚Ìƒ^ƒCƒ€ƒCƒxƒ“ƒgƒu
 147:.\asp\kernel/wait.h ****  *  ƒƒbƒN‚ª“o˜^‚³‚ê‚Ä‚¢‚ê‚ÎC‚»‚ê‚ğ“o˜^‰ğœ‚·‚éD
 148:.\asp\kernel/wait.h ****  */
 149:.\asp\kernel/wait.h **** Inline void
 150:.\asp\kernel/wait.h **** wait_dequeue_tmevtb(TCB *p_tcb)
ARM GAS  C:\TEMP\cc3QDC5c.s 			page 39


 151:.\asp\kernel/wait.h **** {
 152:.\asp\kernel/wait.h **** 	if (p_tcb->p_winfo->p_tmevtb != NULL) {
 153:.\asp\kernel/wait.h **** 		tmevtb_dequeue(p_tcb->p_winfo->p_tmevtb);
 154:.\asp\kernel/wait.h **** 	}
 155:.\asp\kernel/wait.h **** }
 156:.\asp\kernel/wait.h **** 
 157:.\asp\kernel/wait.h **** /*
 158:.\asp\kernel/wait.h ****  *  ‘Ò‚¿‰ğœ
 159:.\asp\kernel/wait.h ****  *
 160:.\asp\kernel/wait.h ****  *  p_tcb‚Åw’è‚³‚ê‚éƒ^ƒXƒN‚Ì‘Ò‚¿ó‘Ô‚ğ‰ğœ‚·‚éD‹ï‘Ì“I‚É‚ÍCƒ^ƒCƒ€ƒC
 161:.\asp\kernel/wait.h ****  *  ƒxƒ“ƒgƒuƒƒbƒN‚ª“o˜^‚³‚ê‚Ä‚¢‚ê‚ÎC‚»‚ê‚ğ“o˜^‰ğœ‚·‚éD‚Ü‚½Cƒ^ƒXƒN
 162:.\asp\kernel/wait.h ****  *  ó‘Ô‚ğXV‚µC‘Ò‚¿‰ğœ‚µ‚½ƒ^ƒXƒN‚©‚ç‚Ì•Ô’l‚ğE_OK‚Æ‚·‚éD‘Ò‚¿ƒLƒ…[
 163:.\asp\kernel/wait.h ****  *  ‚©‚ç‚Ìíœ‚Ís‚í‚È‚¢D‘Ò‚¿‰ğœ‚µ‚½ƒ^ƒXƒN‚Ö‚ÌƒfƒBƒXƒpƒbƒ`‚ª•K—v‚Èê
 164:.\asp\kernel/wait.h ****  *  ‡‚É‚Ítrue‚ğ•Ô‚·D
 165:.\asp\kernel/wait.h ****  */
 166:.\asp\kernel/wait.h **** extern bool_t	wait_complete(TCB *p_tcb);
 167:.\asp\kernel/wait.h **** 
 168:.\asp\kernel/wait.h **** /*
 169:.\asp\kernel/wait.h ****  *  ƒ^ƒCƒ€ƒAƒEƒg‚É”º‚¤‘Ò‚¿‰ğœ
 170:.\asp\kernel/wait.h ****  *
 171:.\asp\kernel/wait.h ****  *  p_tcb‚Åw’è‚³‚ê‚éƒ^ƒXƒN‚ªC‘Ò‚¿ƒLƒ…[‚É‚Â‚È‚ª‚ê‚Ä‚¢‚ê‚Î‘Ò‚¿ƒLƒ…[
 172:.\asp\kernel/wait.h ****  *  ‚©‚çíœ‚µCƒ^ƒXƒNó‘Ô‚ğXV‚·‚éD‚Ü‚½C‘Ò‚¿‰ğœ‚µ‚½ƒ^ƒXƒN‚©‚ç‚Ì•Ô
 173:.\asp\kernel/wait.h ****  *  ’l‚ğCwait_tmout‚Å‚ÍE_TMOUTCwait_tmout_ok‚Å‚ÍE_OK‚Æ‚·‚éD‘Ò‚¿‰ğœ
 174:.\asp\kernel/wait.h ****  *  ‚µ‚½ƒ^ƒXƒN‚Ö‚ÌƒfƒBƒXƒpƒbƒ`‚ª•K—v‚È‚ÍCreqflg‚ğtrue‚É‚·‚éD
 175:.\asp\kernel/wait.h ****  *
 176:.\asp\kernel/wait.h ****  *  wait_tmout_ok‚ÍCdly_tsk‚Åg‚¤‚½‚ß‚Ì‚à‚Ì‚ÅC‘Ò‚¿ƒLƒ…[‚©‚çíœ‚·‚é
 177:.\asp\kernel/wait.h ****  *  ˆ—‚ğs‚í‚È‚¢D
 178:.\asp\kernel/wait.h ****  *
 179:.\asp\kernel/wait.h ****  *  ‚¢‚¸‚ê‚ÌŠÖ”‚àCƒ^ƒCƒ€ƒCƒxƒ“ƒg‚ÌƒR[ƒ‹ƒoƒbƒNŠÖ”‚Æ‚µ‚Ä—p‚¢‚é‚½‚ß‚Ì
 180:.\asp\kernel/wait.h ****  *  ‚à‚Ì‚ÅCŠ„‚İƒnƒ“ƒhƒ‰‚©‚çŒÄ‚Ño‚³‚ê‚é‚±‚Æ‚ğ‘z’è‚µ‚Ä‚¢‚éD
 181:.\asp\kernel/wait.h ****  */
 182:.\asp\kernel/wait.h **** extern void	wait_tmout(TCB *p_tcb);
 183:.\asp\kernel/wait.h **** extern void	wait_tmout_ok(TCB *p_tcb);
 184:.\asp\kernel/wait.h **** 
 185:.\asp\kernel/wait.h **** /*
 186:.\asp\kernel/wait.h ****  *  ‘Ò‚¿ó‘Ô‚Ì‹­§‰ğœ
 187:.\asp\kernel/wait.h ****  *
 188:.\asp\kernel/wait.h ****  *  p_tcb‚Åw’è‚³‚ê‚éƒ^ƒXƒN‚Ì‘Ò‚¿ó‘Ô‚ğ‹­§“I‚É‰ğœ‚·‚éD‹ï‘Ì“I‚É‚ÍC
 189:.\asp\kernel/wait.h ****  *  ƒ^ƒXƒN‚ª‘Ò‚¿ƒLƒ…[‚É‚Â‚È‚ª‚ê‚Ä‚¢‚ê‚Î‘Ò‚¿ƒLƒ…[‚©‚çíœ‚µCƒ^ƒCƒ€ƒC
 190:.\asp\kernel/wait.h ****  *  ƒxƒ“ƒgƒuƒƒbƒN‚ª“o˜^‚³‚ê‚Ä‚¢‚ê‚Î‚»‚ê‚ğ“o˜^‰ğœ‚·‚éD‚Ü‚½Cƒ^ƒXƒN‚Ì
 191:.\asp\kernel/wait.h ****  *  ó‘Ô‚ğXV‚µC‘Ò‚¿‰ğœ‚µ‚½ƒ^ƒXƒN‚©‚ç‚Ì•Ô’l‚ğE_RLWAI‚Æ‚·‚éD‚Ü‚½C
 192:.\asp\kernel/wait.h ****  *  ‘Ò‚¿‰ğœ‚µ‚½ƒ^ƒXƒN‚Ö‚ÌƒfƒBƒXƒpƒbƒ`‚ª•K—v‚Èê‡‚É‚Ítrue‚ğ•Ô‚·D
 193:.\asp\kernel/wait.h ****  */
 194:.\asp\kernel/wait.h **** extern bool_t	wait_release(TCB *p_tcb);
 195:.\asp\kernel/wait.h **** 
 196:.\asp\kernel/wait.h **** /*
 197:.\asp\kernel/wait.h ****  *  ‘Ò‚¿ƒLƒ…[‚Ìæ“ª‚Ìƒ^ƒXƒNID
 198:.\asp\kernel/wait.h ****  *
 199:.\asp\kernel/wait.h ****  *  p_wait_queue‚Åw’è‚µ‚½‘Ò‚¿ƒLƒ…[‚Ìæ“ª‚Ìƒ^ƒXƒNID‚ğ•Ô‚·D‘Ò‚¿ƒLƒ…[
 200:.\asp\kernel/wait.h ****  *  ‚ª‹ó‚Ìê‡‚É‚ÍCTSK_NONE‚ğ•Ô‚·D
 201:.\asp\kernel/wait.h ****  */
 202:.\asp\kernel/wait.h **** Inline ID
 203:.\asp\kernel/wait.h **** wait_tskid(QUEUE *p_wait_queue)
 204:.\asp\kernel/wait.h **** {
 205:.\asp\kernel/wait.h **** 	if (!queue_empty(p_wait_queue)) {
 206:.\asp\kernel/wait.h **** 		return(TSKID((TCB *) p_wait_queue->p_next));
 1061              		.loc 5 206 0
ARM GAS  C:\TEMP\cc3QDC5c.s 			page 40


 1062 0058 054F     		ldr	r7, .L107+12
 1063 005a D31B     		subs	r3, r2, r7
 1064 005c 5811     		asrs	r0, r3, #5
 1065 005e 471C     		adds	r7, r0, #1
 1066 0060 EAE7     		b	.L101
 1067              	.L108:
 1068 0062 00BF     		.align	2
 1069              	.L107:
 1070 0064 00000000 		.word	_kernel_lock_flag
 1071 0068 00000000 		.word	_kernel_tmax_semid
 1072 006c 00000000 		.word	_kernel_semcb_table
 1073 0070 00000000 		.word	_kernel_tcb_table
 1074              	.LBE95:
 1075              	.LBE97:
 1076              		.cfi_endproc
 1077              	.LFE67:
 1078              		.size	ref_sem, .-ref_sem
 1079              		.text
 1080              	.Letext0:
 1081              		.file 6 ".\\asp\\arch\\gcc/tool_stddef.h"
 1082              		.file 7 ".\\asp\\include/t_stddef.h"
 1083              		.file 8 ".\\asp\\include/kernel.h"
 1084              		.file 9 ".\\asp\\kernel\\time_event.h"
 1085              		.file 10 ".\\asp\\kernel\\task.h"
 1086              		.file 11 ".\\asp\\kernel\\semaphore.h"