ARM GAS  C:\TEMP\ccL5seZW.s 			page 1


   1              		.syntax unified
   2              		.cpu cortex-m3
   3              		.fpu softvfp
   4              		.eabi_attribute 20, 1
   5              		.eabi_attribute 21, 1
   6              		.eabi_attribute 23, 3
   7              		.eabi_attribute 24, 1
   8              		.eabi_attribute 25, 1
   9              		.eabi_attribute 26, 1
  10              		.eabi_attribute 30, 4
  11              		.eabi_attribute 34, 1
  12              		.eabi_attribute 18, 4
  13              		.thumb
  14              		.file	"serial.c"
  15              		.text
  16              	.Ltext0:
  17              		.cfi_sections	.debug_frame
  18              		.section	.text.gen_ercd_wait,"ax",%progbits
  19              		.align	1
  20              		.thumb
  21              		.thumb_func
  22              		.type	gen_ercd_wait, %function
  23              	gen_ercd_wait:
  24              	.LFB21:
  25              		.file 1 ".\\asp\\syssvc\\serial.c"
   1:.\asp\syssvc/serial.c **** /*
   2:.\asp\syssvc/serial.c ****  *  TOPPERS/ASP Kernel
   3:.\asp\syssvc/serial.c ****  *      Toyohashi Open Platform for Embedded Real-Time Systems/
   4:.\asp\syssvc/serial.c ****  *      Advanced Standard Profile Kernel
   5:.\asp\syssvc/serial.c ****  * 
   6:.\asp\syssvc/serial.c ****  *  Copyright (C) 2000-2003 by Embedded and Real-Time Systems Laboratory
   7:.\asp\syssvc/serial.c ****  *                              Toyohashi Univ. of Technology, JAPAN
   8:.\asp\syssvc/serial.c ****  *  Copyright (C) 2006-2013 by Embedded and Real-Time Systems Laboratory
   9:.\asp\syssvc/serial.c ****  *              Graduate School of Information Science, Nagoya Univ., JAPAN
  10:.\asp\syssvc/serial.c ****  * 
  11:.\asp\syssvc/serial.c ****  *  上記著作権者は，以下の(1)〜(4)の条件を満たす場合に限り，本ソフトウェ
  12:.\asp\syssvc/serial.c ****  *  ア（本ソフトウェアを改変したものを含む．以下同じ）を使用・複製・改
  13:.\asp\syssvc/serial.c ****  *  変・再配布（以下，利用と呼ぶ）することを無償で許諾する．
  14:.\asp\syssvc/serial.c ****  *  (1) 本ソフトウェアをソースコードの形で利用する場合には，上記の著作
  15:.\asp\syssvc/serial.c ****  *      権表示，この利用条件および下記の無保証規定が，そのままの形でソー
  16:.\asp\syssvc/serial.c ****  *      スコード中に含まれていること．
  17:.\asp\syssvc/serial.c ****  *  (2) 本ソフトウェアを，ライブラリ形式など，他のソフトウェア開発に使
  18:.\asp\syssvc/serial.c ****  *      用できる形で再配布する場合には，再配布に伴うドキュメント（利用
  19:.\asp\syssvc/serial.c ****  *      者マニュアルなど）に，上記の著作権表示，この利用条件および下記
  20:.\asp\syssvc/serial.c ****  *      の無保証規定を掲載すること．
  21:.\asp\syssvc/serial.c ****  *  (3) 本ソフトウェアを，機器に組み込むなど，他のソフトウェア開発に使
  22:.\asp\syssvc/serial.c ****  *      用できない形で再配布する場合には，次のいずれかの条件を満たすこ
  23:.\asp\syssvc/serial.c ****  *      と．
  24:.\asp\syssvc/serial.c ****  *    (a) 再配布に伴うドキュメント（利用者マニュアルなど）に，上記の著
  25:.\asp\syssvc/serial.c ****  *        作権表示，この利用条件および下記の無保証規定を掲載すること．
  26:.\asp\syssvc/serial.c ****  *    (b) 再配布の形態を，別に定める方法によって，TOPPERSプロジェクトに
  27:.\asp\syssvc/serial.c ****  *        報告すること．
  28:.\asp\syssvc/serial.c ****  *  (4) 本ソフトウェアの利用により直接的または間接的に生じるいかなる損
  29:.\asp\syssvc/serial.c ****  *      害からも，上記著作権者およびTOPPERSプロジェクトを免責すること．
  30:.\asp\syssvc/serial.c ****  *      また，本ソフトウェアのユーザまたはエンドユーザからのいかなる理
  31:.\asp\syssvc/serial.c ****  *      由に基づく請求からも，上記著作権者およびTOPPERSプロジェクトを
  32:.\asp\syssvc/serial.c ****  *      免責すること．
ARM GAS  C:\TEMP\ccL5seZW.s 			page 2


  33:.\asp\syssvc/serial.c ****  * 
  34:.\asp\syssvc/serial.c ****  *  本ソフトウェアは，無保証で提供されているものである．上記著作権者お
  35:.\asp\syssvc/serial.c ****  *  よびTOPPERSプロジェクトは，本ソフトウェアに関して，特定の使用目的
  36:.\asp\syssvc/serial.c ****  *  に対する適合性も含めて，いかなる保証も行わない．また，本ソフトウェ
  37:.\asp\syssvc/serial.c ****  *  アの利用により直接的または間接的に生じたいかなる損害に関しても，そ
  38:.\asp\syssvc/serial.c ****  *  の責任を負わない．
  39:.\asp\syssvc/serial.c ****  * 
  40:.\asp\syssvc/serial.c ****  *  @(#) $Id: serial.c 2524 2013-09-15 17:40:06Z ertl-hiro $
  41:.\asp\syssvc/serial.c ****  */
  42:.\asp\syssvc/serial.c **** 
  43:.\asp\syssvc/serial.c **** /*
  44:.\asp\syssvc/serial.c ****  *		シリアルインタフェースドライバ
  45:.\asp\syssvc/serial.c ****  */
  46:.\asp\syssvc/serial.c **** 
  47:.\asp\syssvc/serial.c **** #include <kernel.h>
  48:.\asp\syssvc/serial.c **** #include <t_syslog.h>
  49:.\asp\syssvc/serial.c **** #include "target_syssvc.h"
  50:.\asp\syssvc/serial.c **** #include "target_serial.h"
  51:.\asp\syssvc/serial.c **** #include "serial.h"
  52:.\asp\syssvc/serial.c **** #include "kernel_cfg.h"
  53:.\asp\syssvc/serial.c **** 
  54:.\asp\syssvc/serial.c **** /*
  55:.\asp\syssvc/serial.c ****  *  バッファサイズのデフォルト値とバッファの定義
  56:.\asp\syssvc/serial.c ****  */
  57:.\asp\syssvc/serial.c **** #ifndef SERIAL_RCV_BUFSZ1
  58:.\asp\syssvc/serial.c **** #define	SERIAL_RCV_BUFSZ1	256			/* ポート1の受信バッファサイズ */
  59:.\asp\syssvc/serial.c **** #endif /* SERIAL_RCV_BUFSZ1 */
  60:.\asp\syssvc/serial.c **** 
  61:.\asp\syssvc/serial.c **** #ifndef SERIAL_SND_BUFSZ1
  62:.\asp\syssvc/serial.c **** #define	SERIAL_SND_BUFSZ1	256			/* ポート1の送信バッファサイズ */
  63:.\asp\syssvc/serial.c **** #endif /* SERIAL_SND_BUFSZ1 */
  64:.\asp\syssvc/serial.c **** 
  65:.\asp\syssvc/serial.c **** static char	rcv_buffer1[SERIAL_RCV_BUFSZ1];
  66:.\asp\syssvc/serial.c **** static char	snd_buffer1[SERIAL_SND_BUFSZ1];
  67:.\asp\syssvc/serial.c **** 
  68:.\asp\syssvc/serial.c **** #if TNUM_PORT >= 2						/* ポート2に関する定義 */
  69:.\asp\syssvc/serial.c **** 
  70:.\asp\syssvc/serial.c **** #ifndef SERIAL_RCV_BUFSZ2
  71:.\asp\syssvc/serial.c **** #define	SERIAL_RCV_BUFSZ2	256			/* ポート2の受信バッファサイズ */
  72:.\asp\syssvc/serial.c **** #endif /* SERIAL_RCV_BUFSZ2 */
  73:.\asp\syssvc/serial.c **** 
  74:.\asp\syssvc/serial.c **** #ifndef SERIAL_SND_BUFSZ2
  75:.\asp\syssvc/serial.c **** #define	SERIAL_SND_BUFSZ2	256			/* ポート2の送信バッファサイズ */
  76:.\asp\syssvc/serial.c **** #endif /* SERIAL_SND_BUFSZ2 */
  77:.\asp\syssvc/serial.c **** 
  78:.\asp\syssvc/serial.c **** static char	rcv_buffer2[SERIAL_RCV_BUFSZ2];
  79:.\asp\syssvc/serial.c **** static char	snd_buffer2[SERIAL_SND_BUFSZ2];
  80:.\asp\syssvc/serial.c **** 
  81:.\asp\syssvc/serial.c **** #endif /* TNUM_PORT >= 2 */
  82:.\asp\syssvc/serial.c **** 
  83:.\asp\syssvc/serial.c **** #if TNUM_PORT >= 3						/* ポート3に関する定義 */
  84:.\asp\syssvc/serial.c **** 
  85:.\asp\syssvc/serial.c **** #ifndef SERIAL_RCV_BUFSZ3
  86:.\asp\syssvc/serial.c **** #define	SERIAL_RCV_BUFSZ3	256			/* ポート3の受信バッファサイズ */
  87:.\asp\syssvc/serial.c **** #endif /* SERIAL_RCV_BUFSZ3 */
  88:.\asp\syssvc/serial.c **** 
  89:.\asp\syssvc/serial.c **** #ifndef SERIAL_SND_BUFSZ3
ARM GAS  C:\TEMP\ccL5seZW.s 			page 3


  90:.\asp\syssvc/serial.c **** #define	SERIAL_SND_BUFSZ3	256			/* ポート3の送信バッファサイズ */
  91:.\asp\syssvc/serial.c **** #endif /* SERIAL_SND_BUFSZ3 */
  92:.\asp\syssvc/serial.c **** 
  93:.\asp\syssvc/serial.c **** static char	rcv_buffer3[SERIAL_RCV_BUFSZ3];
  94:.\asp\syssvc/serial.c **** static char	snd_buffer3[SERIAL_SND_BUFSZ3];
  95:.\asp\syssvc/serial.c **** 
  96:.\asp\syssvc/serial.c **** #endif /* TNUM_PORT >= 3 */
  97:.\asp\syssvc/serial.c **** 
  98:.\asp\syssvc/serial.c **** #if TNUM_PORT >= 4						/* ポート4に関する定義 */
  99:.\asp\syssvc/serial.c **** 
 100:.\asp\syssvc/serial.c **** #ifndef SERIAL_RCV_BUFSZ4
 101:.\asp\syssvc/serial.c **** #define	SERIAL_RCV_BUFSZ4	256			/* ポート4の受信バッファサイズ */
 102:.\asp\syssvc/serial.c **** #endif /* SERIAL_RCV_BUFSZ4 */
 103:.\asp\syssvc/serial.c **** 
 104:.\asp\syssvc/serial.c **** #ifndef SERIAL_SND_BUFSZ4
 105:.\asp\syssvc/serial.c **** #define	SERIAL_SND_BUFSZ4	256			/* ポート4の送信バッファサイズ */
 106:.\asp\syssvc/serial.c **** #endif /* SERIAL_SND_BUFSZ4 */
 107:.\asp\syssvc/serial.c **** 
 108:.\asp\syssvc/serial.c **** static char	rcv_buffer4[SERIAL_RCV_BUFSZ4];
 109:.\asp\syssvc/serial.c **** static char	snd_buffer4[SERIAL_SND_BUFSZ4];
 110:.\asp\syssvc/serial.c **** 
 111:.\asp\syssvc/serial.c **** #endif /* TNUM_PORT >= 4 */
 112:.\asp\syssvc/serial.c **** 
 113:.\asp\syssvc/serial.c **** #if TNUM_PORT >= 5
 114:.\asp\syssvc/serial.c **** #error Serial interface driver supports up to 4 ports.
 115:.\asp\syssvc/serial.c **** #endif /* TNUM_PORT >= 5 */
 116:.\asp\syssvc/serial.c **** 
 117:.\asp\syssvc/serial.c **** /*
 118:.\asp\syssvc/serial.c ****  *  フロー制御に関連する定数とマクロ
 119:.\asp\syssvc/serial.c ****  */
 120:.\asp\syssvc/serial.c **** #define	FC_STOP			'\023'		/* コントロール-S */
 121:.\asp\syssvc/serial.c **** #define	FC_START		'\021'		/* コントロール-Q */
 122:.\asp\syssvc/serial.c **** 
 123:.\asp\syssvc/serial.c **** #define BUFCNT_STOP(bufsz)		((bufsz) * 3 / 4)	/* STOPを送る基準文字数 */
 124:.\asp\syssvc/serial.c **** #define BUFCNT_START(bufsz)		((bufsz) / 2)		/* STARTを送る基準文字数 */
 125:.\asp\syssvc/serial.c **** 
 126:.\asp\syssvc/serial.c **** /*
 127:.\asp\syssvc/serial.c ****  *  シリアルポート初期化ブロック
 128:.\asp\syssvc/serial.c ****  */
 129:.\asp\syssvc/serial.c **** typedef struct serial_port_initialization_block {
 130:.\asp\syssvc/serial.c **** 	ID		rcv_semid;		/* 受信バッファ管理用セマフォのID */
 131:.\asp\syssvc/serial.c **** 	ID		snd_semid;		/* 送信バッファ管理用セマフォのID */
 132:.\asp\syssvc/serial.c **** 	uint_t	rcv_bufsz;		/* 受信バッファサイズ */
 133:.\asp\syssvc/serial.c **** 	char	*rcv_buffer;	/* 受信バッファ */
 134:.\asp\syssvc/serial.c **** 	uint_t	snd_bufsz;		/* 送信バッファサイズ */
 135:.\asp\syssvc/serial.c **** 	char	*snd_buffer;	/* 送信バッファ */
 136:.\asp\syssvc/serial.c **** } SPINIB;
 137:.\asp\syssvc/serial.c **** 
 138:.\asp\syssvc/serial.c **** static const SPINIB spinib_table[TNUM_PORT] = {
 139:.\asp\syssvc/serial.c **** 	{ SERIAL_RCV_SEM1, SERIAL_SND_SEM1,
 140:.\asp\syssvc/serial.c **** 	  SERIAL_RCV_BUFSZ1, rcv_buffer1,
 141:.\asp\syssvc/serial.c **** 	  SERIAL_SND_BUFSZ1, snd_buffer1 },
 142:.\asp\syssvc/serial.c **** #if TNUM_PORT >= 2
 143:.\asp\syssvc/serial.c **** 	{ SERIAL_RCV_SEM2, SERIAL_SND_SEM2,
 144:.\asp\syssvc/serial.c **** 	  SERIAL_RCV_BUFSZ2, rcv_buffer2,
 145:.\asp\syssvc/serial.c **** 	  SERIAL_SND_BUFSZ2, snd_buffer2 },
 146:.\asp\syssvc/serial.c **** #endif /* TNUM_PORT >= 2 */
ARM GAS  C:\TEMP\ccL5seZW.s 			page 4


 147:.\asp\syssvc/serial.c **** #if TNUM_PORT >= 3
 148:.\asp\syssvc/serial.c **** 	{ SERIAL_RCV_SEM3, SERIAL_SND_SEM3,
 149:.\asp\syssvc/serial.c **** 	  SERIAL_RCV_BUFSZ3, rcv_buffer3,
 150:.\asp\syssvc/serial.c **** 	  SERIAL_SND_BUFSZ3, snd_buffer3 },
 151:.\asp\syssvc/serial.c **** #endif /* TNUM_PORT >= 3 */
 152:.\asp\syssvc/serial.c **** #if TNUM_PORT >= 4
 153:.\asp\syssvc/serial.c **** 	{ SERIAL_RCV_SEM4, SERIAL_SND_SEM4,
 154:.\asp\syssvc/serial.c **** 	  SERIAL_RCV_BUFSZ4, rcv_buffer4,
 155:.\asp\syssvc/serial.c **** 	  SERIAL_SND_BUFSZ4, snd_buffer4 },
 156:.\asp\syssvc/serial.c **** #endif /* TNUM_PORT >= 4 */
 157:.\asp\syssvc/serial.c **** };
 158:.\asp\syssvc/serial.c **** 
 159:.\asp\syssvc/serial.c **** /*
 160:.\asp\syssvc/serial.c ****  *  シリアルポート管理ブロック
 161:.\asp\syssvc/serial.c ****  */
 162:.\asp\syssvc/serial.c **** typedef struct serial_port_control_block {
 163:.\asp\syssvc/serial.c **** 	const SPINIB *p_spinib;		/* シリアルポート初期化ブロック */
 164:.\asp\syssvc/serial.c **** 	SIOPCB	*p_siopcb;			/* シリアルI/Oポート管理ブロック */
 165:.\asp\syssvc/serial.c **** 	bool_t	openflag;			/* オープン済みフラグ */
 166:.\asp\syssvc/serial.c **** 	bool_t	errorflag;			/* エラーフラグ */
 167:.\asp\syssvc/serial.c **** 	uint_t	ioctl;				/* 動作制御の設定値 */
 168:.\asp\syssvc/serial.c **** 
 169:.\asp\syssvc/serial.c **** 	uint_t	rcv_read_ptr;		/* 受信バッファ読出しポインタ */
 170:.\asp\syssvc/serial.c **** 	uint_t	rcv_write_ptr;		/* 受信バッファ書込みポインタ */
 171:.\asp\syssvc/serial.c **** 	uint_t	rcv_count;			/* 受信バッファ中の文字数 */
 172:.\asp\syssvc/serial.c **** 	char	rcv_fc_chr;			/* 送るべきSTART/STOP */
 173:.\asp\syssvc/serial.c **** 	bool_t	rcv_stopped;		/* STOPを送った状態か？ */
 174:.\asp\syssvc/serial.c **** 
 175:.\asp\syssvc/serial.c **** 	uint_t	snd_read_ptr;		/* 送信バッファ読出しポインタ */
 176:.\asp\syssvc/serial.c **** 	uint_t	snd_write_ptr;		/* 送信バッファ書込みポインタ */
 177:.\asp\syssvc/serial.c **** 	uint_t	snd_count;			/* 送信バッファ中の文字数 */
 178:.\asp\syssvc/serial.c **** 	bool_t	snd_stopped;		/* STOPを受け取った状態か？ */
 179:.\asp\syssvc/serial.c **** } SPCB;
 180:.\asp\syssvc/serial.c **** 
 181:.\asp\syssvc/serial.c **** static SPCB	spcb_table[TNUM_PORT];
 182:.\asp\syssvc/serial.c **** 
 183:.\asp\syssvc/serial.c **** /*
 184:.\asp\syssvc/serial.c ****  *  シリアルポートIDからシリアルポート管理ブロックを取り出すためのマクロ
 185:.\asp\syssvc/serial.c ****  */
 186:.\asp\syssvc/serial.c **** #define INDEX_PORT(portid)	((uint_t)((portid) - 1))
 187:.\asp\syssvc/serial.c **** #define get_spcb(portid)	(&(spcb_table[INDEX_PORT(portid)]))
 188:.\asp\syssvc/serial.c **** 
 189:.\asp\syssvc/serial.c **** /*
 190:.\asp\syssvc/serial.c ****  *  ポインタのインクリメント
 191:.\asp\syssvc/serial.c ****  */
 192:.\asp\syssvc/serial.c **** #define INC_PTR(ptr, bufsz) do {	\
 193:.\asp\syssvc/serial.c **** 	if (++(ptr) == (bufsz)) {		\
 194:.\asp\syssvc/serial.c **** 		(ptr) = 0;					\
 195:.\asp\syssvc/serial.c **** 	 }								\
 196:.\asp\syssvc/serial.c **** } while (false)
 197:.\asp\syssvc/serial.c **** 
 198:.\asp\syssvc/serial.c **** /*
 199:.\asp\syssvc/serial.c ****  *  サービスコール呼出しマクロ
 200:.\asp\syssvc/serial.c ****  *
 201:.\asp\syssvc/serial.c ****  *  サービスコール呼出しを含む式expを評価し，返値がエラー（負の値）の場
 202:.\asp\syssvc/serial.c ****  *  合には，ercにercd_expを評価した値を代入し，error_exitにgotoする．
 203:.\asp\syssvc/serial.c ****  */
ARM GAS  C:\TEMP\ccL5seZW.s 			page 5


 204:.\asp\syssvc/serial.c **** #define SVC(exp, ercd_exp) do {		\
 205:.\asp\syssvc/serial.c **** 	if ((exp) < 0) {				\
 206:.\asp\syssvc/serial.c **** 		ercd = (ercd_exp);			\
 207:.\asp\syssvc/serial.c **** 		goto error_exit;			\
 208:.\asp\syssvc/serial.c **** 	}								\
 209:.\asp\syssvc/serial.c **** } while (false)
 210:.\asp\syssvc/serial.c **** 
 211:.\asp\syssvc/serial.c **** /*
 212:.\asp\syssvc/serial.c ****  *  E_SYSエラーの生成
 213:.\asp\syssvc/serial.c ****  */
 214:.\asp\syssvc/serial.c **** static ER
 215:.\asp\syssvc/serial.c **** gen_ercd_sys(SPCB *p_spcb)
 216:.\asp\syssvc/serial.c **** {
 217:.\asp\syssvc/serial.c **** 	p_spcb->errorflag = true;
 218:.\asp\syssvc/serial.c **** 	return(E_SYS);
 219:.\asp\syssvc/serial.c **** }
 220:.\asp\syssvc/serial.c **** 
 221:.\asp\syssvc/serial.c **** /*
 222:.\asp\syssvc/serial.c ****  *  待ちに入るサービスコールからのエラーの変換
 223:.\asp\syssvc/serial.c ****  */
 224:.\asp\syssvc/serial.c **** static ER
 225:.\asp\syssvc/serial.c **** gen_ercd_wait(ER rercd, SPCB *p_spcb)
 226:.\asp\syssvc/serial.c **** {
  26              		.loc 1 226 0
  27              		.cfi_startproc
  28              		@ args = 0, pretend = 0, frame = 0
  29              		@ frame_needed = 0, uses_anonymous_args = 0
  30              		@ link register save eliminated.
  31              	.LVL0:
 227:.\asp\syssvc/serial.c **** 	switch (MERCD(rercd)) {
  32              		.loc 1 227 0
  33 0000 43B2     		sxtb	r3, r0
  34 0002 13F1330F 		cmn	r3, #51
  35 0006 05D0     		beq	.L3
  36 0008 3133     		adds	r3, r3, #49
  37 000a 03D0     		beq	.L3
 228:.\asp\syssvc/serial.c **** 	case E_RLWAI:
 229:.\asp\syssvc/serial.c **** 	case E_DLT:
 230:.\asp\syssvc/serial.c **** 		return(rercd);
 231:.\asp\syssvc/serial.c **** 	default:
 232:.\asp\syssvc/serial.c **** 		p_spcb->errorflag = true;
  38              		.loc 1 232 0
  39 000c 0120     		movs	r0, #1
  40              	.LVL1:
  41 000e C860     		str	r0, [r1, #12]
 233:.\asp\syssvc/serial.c **** 		return(E_SYS);
  42              		.loc 1 233 0
  43 0010 6FF00400 		mvn	r0, #4
  44              	.L3:
 234:.\asp\syssvc/serial.c **** 	}
 235:.\asp\syssvc/serial.c **** }
  45              		.loc 1 235 0
  46 0014 7047     		bx	lr
  47              		.cfi_endproc
  48              	.LFE21:
  49              		.size	gen_ercd_wait, .-gen_ercd_wait
  50              		.section	.text.serial_snd_chr,"ax",%progbits
ARM GAS  C:\TEMP\ccL5seZW.s 			page 6


  51              		.align	1
  52              		.thumb
  53              		.thumb_func
  54              		.type	serial_snd_chr, %function
  55              	serial_snd_chr:
  56              	.LFB25:
 236:.\asp\syssvc/serial.c **** 
 237:.\asp\syssvc/serial.c **** /*
 238:.\asp\syssvc/serial.c ****  *  シリアルインタフェースドライバの初期化ルーチン
 239:.\asp\syssvc/serial.c ****  */
 240:.\asp\syssvc/serial.c **** void
 241:.\asp\syssvc/serial.c **** serial_initialize(intptr_t exinf)
 242:.\asp\syssvc/serial.c **** {
 243:.\asp\syssvc/serial.c **** 	uint_t	i;
 244:.\asp\syssvc/serial.c **** 	SPCB	*p_spcb;
 245:.\asp\syssvc/serial.c **** 
 246:.\asp\syssvc/serial.c **** 	for (i = 0; i < TNUM_PORT; i++) {
 247:.\asp\syssvc/serial.c **** 		p_spcb = &(spcb_table[i]);
 248:.\asp\syssvc/serial.c **** 		p_spcb->p_spinib = &(spinib_table[i]);
 249:.\asp\syssvc/serial.c **** 		p_spcb->openflag = false;
 250:.\asp\syssvc/serial.c **** 	}
 251:.\asp\syssvc/serial.c **** }
 252:.\asp\syssvc/serial.c **** 
 253:.\asp\syssvc/serial.c **** /*
 254:.\asp\syssvc/serial.c ****  *  シリアルポートのオープン（サービスコール）
 255:.\asp\syssvc/serial.c ****  */
 256:.\asp\syssvc/serial.c **** ER
 257:.\asp\syssvc/serial.c **** serial_opn_por(ID portid)
 258:.\asp\syssvc/serial.c **** {
 259:.\asp\syssvc/serial.c **** 	SPCB	*p_spcb;
 260:.\asp\syssvc/serial.c **** 	ER		ercd;
 261:.\asp\syssvc/serial.c **** 
 262:.\asp\syssvc/serial.c **** 	if (sns_dpn()) {				/* コンテキストのチェック */
 263:.\asp\syssvc/serial.c **** 		return(E_CTX);
 264:.\asp\syssvc/serial.c **** 	}
 265:.\asp\syssvc/serial.c **** 	if (!(1 <= portid && portid <= TNUM_PORT)) {
 266:.\asp\syssvc/serial.c **** 		return(E_ID);				/* ポート番号のチェック */
 267:.\asp\syssvc/serial.c **** 	}
 268:.\asp\syssvc/serial.c **** 	p_spcb = get_spcb(portid);
 269:.\asp\syssvc/serial.c **** 
 270:.\asp\syssvc/serial.c **** 	SVC(dis_dsp(), gen_ercd_sys(p_spcb));
 271:.\asp\syssvc/serial.c **** 	if (p_spcb->openflag) {			/* オープン済みかのチェック */
 272:.\asp\syssvc/serial.c **** 		ercd = E_OBJ;
 273:.\asp\syssvc/serial.c **** 	}
 274:.\asp\syssvc/serial.c **** 	else {
 275:.\asp\syssvc/serial.c **** 		/*
 276:.\asp\syssvc/serial.c **** 		 *  変数の初期化
 277:.\asp\syssvc/serial.c **** 		 */
 278:.\asp\syssvc/serial.c **** 		p_spcb->ioctl = (IOCTL_ECHO | IOCTL_CRLF | IOCTL_FCSND | IOCTL_FCRCV);
 279:.\asp\syssvc/serial.c **** 
 280:.\asp\syssvc/serial.c **** 		p_spcb->rcv_read_ptr = 0U;
 281:.\asp\syssvc/serial.c **** 		p_spcb->rcv_write_ptr = 0U;
 282:.\asp\syssvc/serial.c **** 		p_spcb->rcv_count = 0U;
 283:.\asp\syssvc/serial.c **** 		p_spcb->rcv_fc_chr = '\0';
 284:.\asp\syssvc/serial.c **** 		p_spcb->rcv_stopped = false;
 285:.\asp\syssvc/serial.c **** 
 286:.\asp\syssvc/serial.c **** 		p_spcb->snd_read_ptr = 0U;
ARM GAS  C:\TEMP\ccL5seZW.s 			page 7


 287:.\asp\syssvc/serial.c **** 		p_spcb->snd_write_ptr = 0U;
 288:.\asp\syssvc/serial.c **** 		p_spcb->snd_count = 0U;
 289:.\asp\syssvc/serial.c **** 		p_spcb->snd_stopped = false;
 290:.\asp\syssvc/serial.c **** 
 291:.\asp\syssvc/serial.c **** 		/*
 292:.\asp\syssvc/serial.c **** 		 *  これ以降，割込みを禁止する．
 293:.\asp\syssvc/serial.c **** 		 */
 294:.\asp\syssvc/serial.c **** 		if (loc_cpu() < 0) {
 295:.\asp\syssvc/serial.c **** 			ercd = E_SYS;
 296:.\asp\syssvc/serial.c **** 			goto error_exit_enadsp;
 297:.\asp\syssvc/serial.c **** 		}
 298:.\asp\syssvc/serial.c **** 
 299:.\asp\syssvc/serial.c **** 		/*
 300:.\asp\syssvc/serial.c **** 		 *  ハードウェア依存のオープン処理
 301:.\asp\syssvc/serial.c **** 		 */
 302:.\asp\syssvc/serial.c **** 		p_spcb->p_siopcb = sio_opn_por(portid, (intptr_t) p_spcb);
 303:.\asp\syssvc/serial.c **** 
 304:.\asp\syssvc/serial.c **** 		/*
 305:.\asp\syssvc/serial.c **** 		 *  受信通知コールバックを許可する．
 306:.\asp\syssvc/serial.c **** 		 */
 307:.\asp\syssvc/serial.c **** 		sio_ena_cbr(p_spcb->p_siopcb, SIO_RDY_RCV);
 308:.\asp\syssvc/serial.c **** 		p_spcb->openflag = true;
 309:.\asp\syssvc/serial.c **** 		p_spcb->errorflag = false;
 310:.\asp\syssvc/serial.c **** 
 311:.\asp\syssvc/serial.c **** 		if (unl_cpu() < 0) {
 312:.\asp\syssvc/serial.c **** 			p_spcb->errorflag = true;
 313:.\asp\syssvc/serial.c **** 			ercd = E_SYS;
 314:.\asp\syssvc/serial.c **** 			goto error_exit_enadsp;
 315:.\asp\syssvc/serial.c **** 		}
 316:.\asp\syssvc/serial.c **** 		ercd = E_OK;
 317:.\asp\syssvc/serial.c **** 	}
 318:.\asp\syssvc/serial.c **** 
 319:.\asp\syssvc/serial.c ****   error_exit_enadsp:
 320:.\asp\syssvc/serial.c **** 	SVC(ena_dsp(), gen_ercd_sys(p_spcb));
 321:.\asp\syssvc/serial.c **** 
 322:.\asp\syssvc/serial.c ****   error_exit:
 323:.\asp\syssvc/serial.c **** 	return(ercd);
 324:.\asp\syssvc/serial.c **** }
 325:.\asp\syssvc/serial.c **** 
 326:.\asp\syssvc/serial.c **** /*
 327:.\asp\syssvc/serial.c ****  *  シリアルポートのクローズ（サービスコール）
 328:.\asp\syssvc/serial.c ****  */
 329:.\asp\syssvc/serial.c **** ER
 330:.\asp\syssvc/serial.c **** serial_cls_por(ID portid)
 331:.\asp\syssvc/serial.c **** {
 332:.\asp\syssvc/serial.c **** 	SPCB	*p_spcb;
 333:.\asp\syssvc/serial.c **** 	ER		ercd;
 334:.\asp\syssvc/serial.c **** 	bool_t	eflag = false;
 335:.\asp\syssvc/serial.c **** 
 336:.\asp\syssvc/serial.c **** 	if (sns_dpn()) {				/* コンテキストのチェック */
 337:.\asp\syssvc/serial.c **** 		return(E_CTX);
 338:.\asp\syssvc/serial.c **** 	}
 339:.\asp\syssvc/serial.c **** 	if (!(1 <= portid && portid <= TNUM_PORT)) {
 340:.\asp\syssvc/serial.c **** 		return(E_ID);				/* ポート番号のチェック */
 341:.\asp\syssvc/serial.c **** 	}
 342:.\asp\syssvc/serial.c **** 	p_spcb = get_spcb(portid);
 343:.\asp\syssvc/serial.c **** 
ARM GAS  C:\TEMP\ccL5seZW.s 			page 8


 344:.\asp\syssvc/serial.c **** 	SVC(dis_dsp(), gen_ercd_sys(p_spcb));
 345:.\asp\syssvc/serial.c **** 	if (!(p_spcb->openflag)) {		/* オープン済みかのチェック */
 346:.\asp\syssvc/serial.c **** 		ercd = E_OBJ;
 347:.\asp\syssvc/serial.c **** 	}
 348:.\asp\syssvc/serial.c **** 	else {
 349:.\asp\syssvc/serial.c **** 		/*
 350:.\asp\syssvc/serial.c **** 		 *  ハードウェア依存のクローズ処理
 351:.\asp\syssvc/serial.c **** 		 */
 352:.\asp\syssvc/serial.c **** 		if (loc_cpu() < 0) {
 353:.\asp\syssvc/serial.c **** 			eflag = true;
 354:.\asp\syssvc/serial.c **** 		}
 355:.\asp\syssvc/serial.c **** 		sio_cls_por(p_spcb->p_siopcb);
 356:.\asp\syssvc/serial.c **** 		p_spcb->openflag = false;
 357:.\asp\syssvc/serial.c **** 		if (unl_cpu() < 0) {
 358:.\asp\syssvc/serial.c **** 			eflag = true;
 359:.\asp\syssvc/serial.c **** 		}
 360:.\asp\syssvc/serial.c **** 
 361:.\asp\syssvc/serial.c **** 		/*
 362:.\asp\syssvc/serial.c **** 		 *  セマフォの初期化
 363:.\asp\syssvc/serial.c **** 		 */
 364:.\asp\syssvc/serial.c **** 		if (ini_sem(p_spcb->p_spinib->snd_semid) < 0) {
 365:.\asp\syssvc/serial.c **** 			eflag = true;
 366:.\asp\syssvc/serial.c **** 		}
 367:.\asp\syssvc/serial.c **** 		if (ini_sem(p_spcb->p_spinib->rcv_semid) < 0) {
 368:.\asp\syssvc/serial.c **** 			eflag = true;
 369:.\asp\syssvc/serial.c **** 		}
 370:.\asp\syssvc/serial.c **** 
 371:.\asp\syssvc/serial.c **** 		/*
 372:.\asp\syssvc/serial.c **** 		 *  エラーコードの設定
 373:.\asp\syssvc/serial.c **** 		 */
 374:.\asp\syssvc/serial.c **** 		if (eflag) {
 375:.\asp\syssvc/serial.c **** 			ercd = gen_ercd_sys(p_spcb);
 376:.\asp\syssvc/serial.c **** 		}
 377:.\asp\syssvc/serial.c **** 		else {
 378:.\asp\syssvc/serial.c **** 			ercd = E_OK;
 379:.\asp\syssvc/serial.c **** 		}
 380:.\asp\syssvc/serial.c **** 	}
 381:.\asp\syssvc/serial.c **** 	SVC(ena_dsp(), gen_ercd_sys(p_spcb));
 382:.\asp\syssvc/serial.c **** 
 383:.\asp\syssvc/serial.c ****   error_exit:
 384:.\asp\syssvc/serial.c **** 	return(ercd);
 385:.\asp\syssvc/serial.c **** }
 386:.\asp\syssvc/serial.c **** 
 387:.\asp\syssvc/serial.c **** /*
 388:.\asp\syssvc/serial.c ****  *  シリアルポートへの文字送信
 389:.\asp\syssvc/serial.c ****  *
 390:.\asp\syssvc/serial.c ****  *  p_spcbで指定されるシリアルI/Oポートに対して，文字cを送信する．文字
 391:.\asp\syssvc/serial.c ****  *  を送信レジスタにいれた場合にはtrueを返す．そうでない場合には，送信
 392:.\asp\syssvc/serial.c ****  *  レジスタが空いたことを通知するコールバック関数を許可し，falseを返す．
 393:.\asp\syssvc/serial.c ****  *  この関数は，CPUロック状態で呼び出される．
 394:.\asp\syssvc/serial.c ****  */
 395:.\asp\syssvc/serial.c **** Inline bool_t
 396:.\asp\syssvc/serial.c **** serial_snd_chr(SPCB *p_spcb, char c)
 397:.\asp\syssvc/serial.c **** {
  57              		.loc 1 397 0
  58              		.cfi_startproc
  59              		@ args = 0, pretend = 0, frame = 0
ARM GAS  C:\TEMP\ccL5seZW.s 			page 9


  60              		@ frame_needed = 0, uses_anonymous_args = 0
  61              	.LVL2:
  62 0000 38B5     		push	{r3, r4, r5, lr}
  63              	.LCFI0:
  64              		.cfi_def_cfa_offset 16
  65              		.cfi_offset 3, -16
  66              		.cfi_offset 4, -12
  67              		.cfi_offset 5, -8
  68              		.cfi_offset 14, -4
  69              		.loc 1 397 0
  70 0002 0546     		mov	r5, r0
 398:.\asp\syssvc/serial.c **** 	if (sio_snd_chr(p_spcb->p_siopcb, c)) {
  71              		.loc 1 398 0
  72 0004 4068     		ldr	r0, [r0, #4]
  73              	.LVL3:
  74 0006 FFF7FEFF 		bl	sio_snd_chr
  75              	.LVL4:
  76 000a 0446     		mov	r4, r0
  77 000c 28B9     		cbnz	r0, .L13
  78              	.LVL5:
  79              	.LBB28:
  80              	.LBB29:
 399:.\asp\syssvc/serial.c **** 		return(true);
 400:.\asp\syssvc/serial.c **** 	}
 401:.\asp\syssvc/serial.c **** 	else {
 402:.\asp\syssvc/serial.c **** 		sio_ena_cbr(p_spcb->p_siopcb, SIO_RDY_SND);
  81              		.loc 1 402 0
  82 000e 6868     		ldr	r0, [r5, #4]
  83 0010 0121     		movs	r1, #1
  84 0012 FFF7FEFF 		bl	sio_ena_cbr
  85              	.LVL6:
  86 0016 2046     		mov	r0, r4
  87 0018 38BD     		pop	{r3, r4, r5, pc}
  88              	.LVL7:
  89              	.L13:
  90              	.LBE29:
  91              	.LBE28:
 399:.\asp\syssvc/serial.c **** 		return(true);
  92              		.loc 1 399 0
  93 001a 0120     		movs	r0, #1
 403:.\asp\syssvc/serial.c **** 		return(false);
 404:.\asp\syssvc/serial.c **** 	}
 405:.\asp\syssvc/serial.c **** }
  94              		.loc 1 405 0
  95 001c 38BD     		pop	{r3, r4, r5, pc}
  96              		.cfi_endproc
  97              	.LFE25:
  98              		.size	serial_snd_chr, .-serial_snd_chr
  99              		.section	.text.serial_wri_chr,"ax",%progbits
 100              		.align	1
 101              		.thumb
 102              		.thumb_func
 103              		.type	serial_wri_chr, %function
 104              	serial_wri_chr:
 105              	.LFB26:
 406:.\asp\syssvc/serial.c **** 
 407:.\asp\syssvc/serial.c **** /*
ARM GAS  C:\TEMP\ccL5seZW.s 			page 10


 408:.\asp\syssvc/serial.c ****  *  シリアルポートへの1文字送信
 409:.\asp\syssvc/serial.c ****  */
 410:.\asp\syssvc/serial.c **** static ER_BOOL
 411:.\asp\syssvc/serial.c **** serial_wri_chr(SPCB *p_spcb, char c)
 412:.\asp\syssvc/serial.c **** {
 106              		.loc 1 412 0
 107              		.cfi_startproc
 108              		@ args = 0, pretend = 0, frame = 0
 109              		@ frame_needed = 0, uses_anonymous_args = 0
 110              	.LVL8:
 413:.\asp\syssvc/serial.c **** 	bool_t	buffer_full;
 414:.\asp\syssvc/serial.c **** 	ER		ercd, rercd;
 415:.\asp\syssvc/serial.c **** 
 416:.\asp\syssvc/serial.c **** 	/*
 417:.\asp\syssvc/serial.c **** 	 *  LFの前にCRを送信する．
 418:.\asp\syssvc/serial.c **** 	 */
 419:.\asp\syssvc/serial.c **** 	if (c == '\n' && (p_spcb->ioctl & IOCTL_CRLF) != 0U) {
 111              		.loc 1 419 0
 112 0000 0A29     		cmp	r1, #10
 412:.\asp\syssvc/serial.c **** {
 113              		.loc 1 412 0
 114 0002 70B5     		push	{r4, r5, r6, lr}
 115              	.LCFI1:
 116              		.cfi_def_cfa_offset 16
 117              		.cfi_offset 4, -16
 118              		.cfi_offset 5, -12
 119              		.cfi_offset 6, -8
 120              		.cfi_offset 14, -4
 412:.\asp\syssvc/serial.c **** {
 121              		.loc 1 412 0
 122 0004 0446     		mov	r4, r0
 123 0006 0D46     		mov	r5, r1
 124              		.loc 1 419 0
 125 0008 13D1     		bne	.L15
 126              		.loc 1 419 0 is_stmt 0 discriminator 1
 127 000a 0369     		ldr	r3, [r0, #16]
 128 000c DA06     		lsls	r2, r3, #27
 129 000e 10D5     		bpl	.L15
 420:.\asp\syssvc/serial.c **** 		/*
 421:.\asp\syssvc/serial.c **** 		 *  以下のコードは再帰呼出しになっているが，引数cが'\n'の場合に
 422:.\asp\syssvc/serial.c **** 		 *  引数cを'\r'として呼び出すことから，この再帰呼出しは2回目の
 423:.\asp\syssvc/serial.c **** 		 *  呼び出しで必ず止まる．
 424:.\asp\syssvc/serial.c **** 		 */
 425:.\asp\syssvc/serial.c **** 		SVC(rercd = serial_wri_chr(p_spcb, '\r'), rercd);
 130              		.loc 1 425 0 is_stmt 1
 131 0010 0D21     		movs	r1, #13
 132              	.LVL9:
 133 0012 FFF7F5FF 		bl	serial_wri_chr
 134              	.LVL10:
 135 0016 0028     		cmp	r0, #0
 136 0018 3ADB     		blt	.L16
 426:.\asp\syssvc/serial.c **** 		if ((bool_t) rercd) {
 137              		.loc 1 426 0
 138 001a 0AD0     		beq	.L15
 427:.\asp\syssvc/serial.c **** 			SVC(rercd = wai_sem(p_spcb->p_spinib->snd_semid),
 139              		.loc 1 427 0
 140 001c 2068     		ldr	r0, [r4, #0]
ARM GAS  C:\TEMP\ccL5seZW.s 			page 11


 141              	.LVL11:
 142 001e 4068     		ldr	r0, [r0, #4]
 143 0020 FFF7FEFF 		bl	wai_sem
 144              	.LVL12:
 145 0024 0028     		cmp	r0, #0
 146 0026 04DA     		bge	.L15
 147              		.loc 1 427 0 is_stmt 0 discriminator 1
 148 0028 2146     		mov	r1, r4
 428:.\asp\syssvc/serial.c **** 										gen_ercd_wait(rercd, p_spcb));
 429:.\asp\syssvc/serial.c **** 		}
 430:.\asp\syssvc/serial.c **** 	}
 431:.\asp\syssvc/serial.c **** 
 432:.\asp\syssvc/serial.c **** 	SVC(loc_cpu(), gen_ercd_sys(p_spcb));
 433:.\asp\syssvc/serial.c **** 	if (p_spcb->snd_count == 0U && !(p_spcb->snd_stopped)
 434:.\asp\syssvc/serial.c **** 								&& serial_snd_chr(p_spcb, c)) {
 435:.\asp\syssvc/serial.c **** 		/*
 436:.\asp\syssvc/serial.c **** 		 *  シリアルI/Oデバイスの送信レジスタに文字を入れることに成功し
 437:.\asp\syssvc/serial.c **** 		 *  た場合．
 438:.\asp\syssvc/serial.c **** 		 */
 439:.\asp\syssvc/serial.c **** 		buffer_full = false;
 440:.\asp\syssvc/serial.c **** 	}
 441:.\asp\syssvc/serial.c **** 	else {
 442:.\asp\syssvc/serial.c **** 		/*
 443:.\asp\syssvc/serial.c **** 		 *  送信バッファに文字を入れる．
 444:.\asp\syssvc/serial.c **** 		 */
 445:.\asp\syssvc/serial.c **** 		p_spcb->p_spinib->snd_buffer[p_spcb->snd_write_ptr] = c;
 446:.\asp\syssvc/serial.c **** 		INC_PTR(p_spcb->snd_write_ptr, p_spcb->p_spinib->snd_bufsz);
 447:.\asp\syssvc/serial.c **** 		p_spcb->snd_count++;
 448:.\asp\syssvc/serial.c **** 		buffer_full = (p_spcb->snd_count == p_spcb->p_spinib->snd_bufsz);
 449:.\asp\syssvc/serial.c **** 	}
 450:.\asp\syssvc/serial.c **** 
 451:.\asp\syssvc/serial.c **** 	SVC(unl_cpu(), gen_ercd_sys(p_spcb));
 452:.\asp\syssvc/serial.c **** 	ercd = (ER_BOOL) buffer_full;
 453:.\asp\syssvc/serial.c **** 
 454:.\asp\syssvc/serial.c ****   error_exit:
 455:.\asp\syssvc/serial.c **** 	return(ercd);
 456:.\asp\syssvc/serial.c **** }
 149              		.loc 1 456 0 is_stmt 1 discriminator 1
 150 002a BDE87040 		pop	{r4, r5, r6, lr}
 427:.\asp\syssvc/serial.c **** 			SVC(rercd = wai_sem(p_spcb->p_spinib->snd_semid),
 151              		.loc 1 427 0 discriminator 1
 152 002e FFF7FEBF 		b	gen_ercd_wait
 153              	.LVL13:
 154              	.L15:
 432:.\asp\syssvc/serial.c **** 	SVC(loc_cpu(), gen_ercd_sys(p_spcb));
 155              		.loc 1 432 0
 156 0032 FFF7FEFF 		bl	loc_cpu
 157              	.LVL14:
 158 0036 0028     		cmp	r0, #0
 159 0038 25DB     		blt	.L29
 160              	.L17:
 433:.\asp\syssvc/serial.c **** 	if (p_spcb->snd_count == 0U && !(p_spcb->snd_stopped)
 161              		.loc 1 433 0
 162 003a 216B     		ldr	r1, [r4, #48]
 163 003c 69B1     		cbz	r1, .L18
 164              	.L21:
 445:.\asp\syssvc/serial.c **** 		p_spcb->p_spinib->snd_buffer[p_spcb->snd_write_ptr] = c;
ARM GAS  C:\TEMP\ccL5seZW.s 			page 12


 165              		.loc 1 445 0
 166 003e 2268     		ldr	r2, [r4, #0]
 167 0040 E36A     		ldr	r3, [r4, #44]
 168 0042 5669     		ldr	r6, [r2, #20]
 169 0044 F554     		strb	r5, [r6, r3]
 446:.\asp\syssvc/serial.c **** 		INC_PTR(p_spcb->snd_write_ptr, p_spcb->p_spinib->snd_bufsz);
 170              		.loc 1 446 0
 171 0046 2268     		ldr	r2, [r4, #0]
 172 0048 E06A     		ldr	r0, [r4, #44]
 173 004a 1369     		ldr	r3, [r2, #16]
 174 004c 411C     		adds	r1, r0, #1
 175 004e 9942     		cmp	r1, r3
 176 0050 E162     		str	r1, [r4, #44]
 177 0052 0BD1     		bne	.L20
 446:.\asp\syssvc/serial.c **** 		INC_PTR(p_spcb->snd_write_ptr, p_spcb->p_spinib->snd_bufsz);
 178              		.loc 1 446 0 is_stmt 0 discriminator 1
 179 0054 0026     		movs	r6, #0
 180 0056 E662     		str	r6, [r4, #44]
 181 0058 08E0     		b	.L20
 182              	.L18:
 433:.\asp\syssvc/serial.c **** 	if (p_spcb->snd_count == 0U && !(p_spcb->snd_stopped)
 183              		.loc 1 433 0 is_stmt 1 discriminator 1
 184 005a 666B     		ldr	r6, [r4, #52]
 185 005c 002E     		cmp	r6, #0
 186 005e EED1     		bne	.L21
 434:.\asp\syssvc/serial.c **** 								&& serial_snd_chr(p_spcb, c)) {
 187              		.loc 1 434 0
 188 0060 2046     		mov	r0, r4
 189 0062 2946     		mov	r1, r5
 190 0064 FFF7FEFF 		bl	serial_snd_chr
 191              	.LVL15:
 192 0068 38B9     		cbnz	r0, .L22
 193 006a E8E7     		b	.L21
 194              	.L20:
 447:.\asp\syssvc/serial.c **** 		p_spcb->snd_count++;
 195              		.loc 1 447 0
 196 006c 206B     		ldr	r0, [r4, #48]
 197 006e 411C     		adds	r1, r0, #1
 448:.\asp\syssvc/serial.c **** 		buffer_full = (p_spcb->snd_count == p_spcb->p_spinib->snd_bufsz);
 198              		.loc 1 448 0
 199 0070 CA1A     		subs	r2, r1, r3
 200 0072 5342     		rsbs	r3, r2, #0
 447:.\asp\syssvc/serial.c **** 		p_spcb->snd_count++;
 201              		.loc 1 447 0
 202 0074 2163     		str	r1, [r4, #48]
 448:.\asp\syssvc/serial.c **** 		buffer_full = (p_spcb->snd_count == p_spcb->p_spinib->snd_bufsz);
 203              		.loc 1 448 0
 204 0076 53EB0206 		adcs	r6, r3, r2
 205              	.LVL16:
 206              	.L22:
 451:.\asp\syssvc/serial.c **** 	SVC(unl_cpu(), gen_ercd_sys(p_spcb));
 207              		.loc 1 451 0
 208 007a FFF7FEFF 		bl	unl_cpu
 209              	.LVL17:
 210 007e 0028     		cmp	r0, #0
 452:.\asp\syssvc/serial.c **** 	ercd = (ER_BOOL) buffer_full;
 211              		.loc 1 452 0
ARM GAS  C:\TEMP\ccL5seZW.s 			page 13


 212 0080 A8BF     		it	ge
 213 0082 3046     		movge	r0, r6
 451:.\asp\syssvc/serial.c **** 	SVC(unl_cpu(), gen_ercd_sys(p_spcb));
 214              		.loc 1 451 0
 215 0084 04DA     		bge	.L16
 216              	.LVL18:
 217              	.L29:
 218              	.LBB30:
 219              	.LBB31:
 217:.\asp\syssvc/serial.c **** 	p_spcb->errorflag = true;
 220              		.loc 1 217 0
 221 0086 0120     		movs	r0, #1
 222 0088 E060     		str	r0, [r4, #12]
 223              	.LBE31:
 224              	.LBE30:
 451:.\asp\syssvc/serial.c **** 	SVC(unl_cpu(), gen_ercd_sys(p_spcb));
 225              		.loc 1 451 0
 226 008a 6FF00400 		mvn	r0, #4
 227 008e 70BD     		pop	{r4, r5, r6, pc}
 228              	.LVL19:
 229              	.L16:
 230              		.loc 1 456 0
 231 0090 70BD     		pop	{r4, r5, r6, pc}
 232              		.cfi_endproc
 233              	.LFE26:
 234              		.size	serial_wri_chr, .-serial_wri_chr
 235              		.section	.text.serial_initialize,"ax",%progbits
 236              		.align	1
 237              		.global	serial_initialize
 238              		.thumb
 239              		.thumb_func
 240              		.type	serial_initialize, %function
 241              	serial_initialize:
 242              	.LFB22:
 242:.\asp\syssvc/serial.c **** {
 243              		.loc 1 242 0
 244              		.cfi_startproc
 245              		@ args = 0, pretend = 0, frame = 0
 246              		@ frame_needed = 0, uses_anonymous_args = 0
 247              		@ link register save eliminated.
 248              	.LVL20:
 248:.\asp\syssvc/serial.c **** 		p_spcb->p_spinib = &(spinib_table[i]);
 249              		.loc 1 248 0
 250 0000 024B     		ldr	r3, .L31
 251 0002 034A     		ldr	r2, .L31+4
 249:.\asp\syssvc/serial.c **** 		p_spcb->openflag = false;
 252              		.loc 1 249 0
 253 0004 0020     		movs	r0, #0
 254              	.LVL21:
 248:.\asp\syssvc/serial.c **** 		p_spcb->p_spinib = &(spinib_table[i]);
 255              		.loc 1 248 0
 256 0006 1A60     		str	r2, [r3, #0]
 249:.\asp\syssvc/serial.c **** 		p_spcb->openflag = false;
 257              		.loc 1 249 0
 258 0008 9860     		str	r0, [r3, #8]
 259              	.LVL22:
 260 000a 7047     		bx	lr
ARM GAS  C:\TEMP\ccL5seZW.s 			page 14


 261              	.L32:
 262              		.align	2
 263              	.L31:
 264 000c 00000000 		.word	.LANCHOR0
 265 0010 00000000 		.word	.LANCHOR1
 266              		.cfi_endproc
 267              	.LFE22:
 268              		.size	serial_initialize, .-serial_initialize
 269              		.section	.text.serial_opn_por,"ax",%progbits
 270              		.align	1
 271              		.global	serial_opn_por
 272              		.thumb
 273              		.thumb_func
 274              		.type	serial_opn_por, %function
 275              	serial_opn_por:
 276              	.LFB23:
 258:.\asp\syssvc/serial.c **** {
 277              		.loc 1 258 0
 278              		.cfi_startproc
 279              		@ args = 0, pretend = 0, frame = 0
 280              		@ frame_needed = 0, uses_anonymous_args = 0
 281              	.LVL23:
 282 0000 70B5     		push	{r4, r5, r6, lr}
 283              	.LCFI2:
 284              		.cfi_def_cfa_offset 16
 285              		.cfi_offset 4, -16
 286              		.cfi_offset 5, -12
 287              		.cfi_offset 6, -8
 288              		.cfi_offset 14, -4
 258:.\asp\syssvc/serial.c **** {
 289              		.loc 1 258 0
 290 0002 0646     		mov	r6, r0
 262:.\asp\syssvc/serial.c **** 	if (sns_dpn()) {				/* コンテキストのチェック */
 291              		.loc 1 262 0
 292 0004 FFF7FEFF 		bl	sns_dpn
 293              	.LVL24:
 294 0008 0028     		cmp	r0, #0
 295 000a 3AD1     		bne	.L37
 265:.\asp\syssvc/serial.c **** 	if (!(1 <= portid && portid <= TNUM_PORT)) {
 296              		.loc 1 265 0
 297 000c 012E     		cmp	r6, #1
 298 000e 3BD1     		bne	.L38
 299              	.LVL25:
 270:.\asp\syssvc/serial.c **** 	SVC(dis_dsp(), gen_ercd_sys(p_spcb));
 300              		.loc 1 270 0
 301 0010 FFF7FEFF 		bl	dis_dsp
 302              	.LVL26:
 303 0014 0028     		cmp	r0, #0
 304 0016 1E4C     		ldr	r4, .L43
 305 0018 01DA     		bge	.L35
 306              	.LVL27:
 307              	.LBB32:
 308              	.LBB33:
 217:.\asp\syssvc/serial.c **** 	p_spcb->errorflag = true;
 309              		.loc 1 217 0
 310 001a E660     		str	r6, [r4, #12]
 311 001c 2EE0     		b	.L42
ARM GAS  C:\TEMP\ccL5seZW.s 			page 15


 312              	.LVL28:
 313              	.L35:
 314              	.LBE33:
 315              	.LBE32:
 271:.\asp\syssvc/serial.c **** 	if (p_spcb->openflag) {			/* オープン済みかのチェック */
 316              		.loc 1 271 0
 317 001e A568     		ldr	r5, [r4, #8]
 318 0020 05BB     		cbnz	r5, .L39
 278:.\asp\syssvc/serial.c **** 		p_spcb->ioctl = (IOCTL_ECHO | IOCTL_CRLF | IOCTL_FCSND | IOCTL_FCRCV);
 319              		.loc 1 278 0
 320 0022 40F21153 		movw	r3, #1297
 321 0026 2361     		str	r3, [r4, #16]
 280:.\asp\syssvc/serial.c **** 		p_spcb->rcv_read_ptr = 0U;
 322              		.loc 1 280 0
 323 0028 6561     		str	r5, [r4, #20]
 281:.\asp\syssvc/serial.c **** 		p_spcb->rcv_write_ptr = 0U;
 324              		.loc 1 281 0
 325 002a A561     		str	r5, [r4, #24]
 282:.\asp\syssvc/serial.c **** 		p_spcb->rcv_count = 0U;
 326              		.loc 1 282 0
 327 002c E561     		str	r5, [r4, #28]
 283:.\asp\syssvc/serial.c **** 		p_spcb->rcv_fc_chr = '\0';
 328              		.loc 1 283 0
 329 002e 84F82050 		strb	r5, [r4, #32]
 284:.\asp\syssvc/serial.c **** 		p_spcb->rcv_stopped = false;
 330              		.loc 1 284 0
 331 0032 6562     		str	r5, [r4, #36]
 286:.\asp\syssvc/serial.c **** 		p_spcb->snd_read_ptr = 0U;
 332              		.loc 1 286 0
 333 0034 A562     		str	r5, [r4, #40]
 287:.\asp\syssvc/serial.c **** 		p_spcb->snd_write_ptr = 0U;
 334              		.loc 1 287 0
 335 0036 E562     		str	r5, [r4, #44]
 288:.\asp\syssvc/serial.c **** 		p_spcb->snd_count = 0U;
 336              		.loc 1 288 0
 337 0038 2563     		str	r5, [r4, #48]
 289:.\asp\syssvc/serial.c **** 		p_spcb->snd_stopped = false;
 338              		.loc 1 289 0
 339 003a 6563     		str	r5, [r4, #52]
 294:.\asp\syssvc/serial.c **** 		if (loc_cpu() < 0) {
 340              		.loc 1 294 0
 341 003c FFF7FEFF 		bl	loc_cpu
 342              	.LVL29:
 343 0040 0028     		cmp	r0, #0
 344 0042 12DB     		blt	.L40
 302:.\asp\syssvc/serial.c **** 		p_spcb->p_siopcb = sio_opn_por(portid, (intptr_t) p_spcb);
 345              		.loc 1 302 0
 346 0044 2146     		mov	r1, r4
 347 0046 3046     		mov	r0, r6
 348 0048 FFF7FEFF 		bl	sio_opn_por
 349              	.LVL30:
 307:.\asp\syssvc/serial.c **** 		sio_ena_cbr(p_spcb->p_siopcb, SIO_RDY_RCV);
 350              		.loc 1 307 0
 351 004c 0221     		movs	r1, #2
 302:.\asp\syssvc/serial.c **** 		p_spcb->p_siopcb = sio_opn_por(portid, (intptr_t) p_spcb);
 352              		.loc 1 302 0
 353 004e 6060     		str	r0, [r4, #4]
ARM GAS  C:\TEMP\ccL5seZW.s 			page 16


 307:.\asp\syssvc/serial.c **** 		sio_ena_cbr(p_spcb->p_siopcb, SIO_RDY_RCV);
 354              		.loc 1 307 0
 355 0050 FFF7FEFF 		bl	sio_ena_cbr
 356              	.LVL31:
 308:.\asp\syssvc/serial.c **** 		p_spcb->openflag = true;
 357              		.loc 1 308 0
 358 0054 A660     		str	r6, [r4, #8]
 309:.\asp\syssvc/serial.c **** 		p_spcb->errorflag = false;
 359              		.loc 1 309 0
 360 0056 E560     		str	r5, [r4, #12]
 311:.\asp\syssvc/serial.c **** 		if (unl_cpu() < 0) {
 361              		.loc 1 311 0
 362 0058 FFF7FEFF 		bl	unl_cpu
 363              	.LVL32:
 364 005c 0028     		cmp	r0, #0
 365 005e 06DA     		bge	.L36
 312:.\asp\syssvc/serial.c **** 			p_spcb->errorflag = true;
 366              		.loc 1 312 0
 367 0060 E660     		str	r6, [r4, #12]
 368              	.LVL33:
 369 0062 02E0     		b	.L40
 370              	.LVL34:
 371              	.L39:
 272:.\asp\syssvc/serial.c **** 		ercd = E_OBJ;
 372              		.loc 1 272 0
 373 0064 6FF02805 		mvn	r5, #40
 374 0068 01E0     		b	.L36
 375              	.L40:
 295:.\asp\syssvc/serial.c **** 			ercd = E_SYS;
 376              		.loc 1 295 0
 377 006a 6FF00405 		mvn	r5, #4
 378              	.L36:
 379              	.LVL35:
 320:.\asp\syssvc/serial.c **** 	SVC(ena_dsp(), gen_ercd_sys(p_spcb));
 380              		.loc 1 320 0
 381 006e FFF7FEFF 		bl	ena_dsp
 382              	.LVL36:
 383 0072 0028     		cmp	r0, #0
 384 0074 0ADA     		bge	.L34
 385              	.LVL37:
 386              	.LBB34:
 387              	.LBB35:
 217:.\asp\syssvc/serial.c **** 	p_spcb->errorflag = true;
 388              		.loc 1 217 0
 389 0076 0648     		ldr	r0, .L43
 390 0078 0122     		movs	r2, #1
 391 007a C260     		str	r2, [r0, #12]
 392              	.LVL38:
 393              	.L42:
 394              	.LBE35:
 395              	.LBE34:
 320:.\asp\syssvc/serial.c **** 	SVC(ena_dsp(), gen_ercd_sys(p_spcb));
 396              		.loc 1 320 0
 397 007c 6FF00405 		mvn	r5, #4
 398 0080 04E0     		b	.L34
 399              	.LVL39:
 400              	.L37:
ARM GAS  C:\TEMP\ccL5seZW.s 			page 17


 263:.\asp\syssvc/serial.c **** 		return(E_CTX);
 401              		.loc 1 263 0
 402 0082 6FF01805 		mvn	r5, #24
 403 0086 01E0     		b	.L34
 404              	.L38:
 266:.\asp\syssvc/serial.c **** 		return(E_ID);				/* ポート番号のチェック */
 405              		.loc 1 266 0
 406 0088 6FF01105 		mvn	r5, #17
 407              	.L34:
 324:.\asp\syssvc/serial.c **** }
 408              		.loc 1 324 0
 409 008c 2846     		mov	r0, r5
 410 008e 70BD     		pop	{r4, r5, r6, pc}
 411              	.L44:
 412              		.align	2
 413              	.L43:
 414 0090 00000000 		.word	.LANCHOR0
 415              		.cfi_endproc
 416              	.LFE23:
 417              		.size	serial_opn_por, .-serial_opn_por
 418              		.section	.text.serial_cls_por,"ax",%progbits
 419              		.align	1
 420              		.global	serial_cls_por
 421              		.thumb
 422              		.thumb_func
 423              		.type	serial_cls_por, %function
 424              	serial_cls_por:
 425              	.LFB24:
 331:.\asp\syssvc/serial.c **** {
 426              		.loc 1 331 0
 427              		.cfi_startproc
 428              		@ args = 0, pretend = 0, frame = 0
 429              		@ frame_needed = 0, uses_anonymous_args = 0
 430              	.LVL40:
 431 0000 F8B5     		push	{r3, r4, r5, r6, r7, lr}
 432              	.LCFI3:
 433              		.cfi_def_cfa_offset 24
 434              		.cfi_offset 3, -24
 435              		.cfi_offset 4, -20
 436              		.cfi_offset 5, -16
 437              		.cfi_offset 6, -12
 438              		.cfi_offset 7, -8
 439              		.cfi_offset 14, -4
 331:.\asp\syssvc/serial.c **** {
 440              		.loc 1 331 0
 441 0002 0446     		mov	r4, r0
 336:.\asp\syssvc/serial.c **** 	if (sns_dpn()) {				/* コンテキストのチェック */
 442              		.loc 1 336 0
 443 0004 FFF7FEFF 		bl	sns_dpn
 444              	.LVL41:
 445 0008 0646     		mov	r6, r0
 446 000a 0028     		cmp	r0, #0
 447 000c 38D1     		bne	.L52
 339:.\asp\syssvc/serial.c **** 	if (!(1 <= portid && portid <= TNUM_PORT)) {
 448              		.loc 1 339 0
 449 000e 012C     		cmp	r4, #1
 450 0010 39D1     		bne	.L53
ARM GAS  C:\TEMP\ccL5seZW.s 			page 18


 451              	.LVL42:
 344:.\asp\syssvc/serial.c **** 	SVC(dis_dsp(), gen_ercd_sys(p_spcb));
 452              		.loc 1 344 0
 453 0012 FFF7FEFF 		bl	dis_dsp
 454              	.LVL43:
 455 0016 0028     		cmp	r0, #0
 456 0018 1D4D     		ldr	r5, .L59
 457 001a 01DA     		bge	.L47
 458              	.LVL44:
 459              	.LBB36:
 460              	.LBB37:
 217:.\asp\syssvc/serial.c **** 	p_spcb->errorflag = true;
 461              		.loc 1 217 0
 462 001c EC60     		str	r4, [r5, #12]
 463 001e 2CE0     		b	.L58
 464              	.LVL45:
 465              	.L47:
 466              	.LBE37:
 467              	.LBE36:
 345:.\asp\syssvc/serial.c **** 	if (!(p_spcb->openflag)) {		/* オープン済みかのチェック */
 468              		.loc 1 345 0
 469 0020 AB68     		ldr	r3, [r5, #8]
 470 0022 0BB3     		cbz	r3, .L54
 352:.\asp\syssvc/serial.c **** 		if (loc_cpu() < 0) {
 471              		.loc 1 352 0
 472 0024 FFF7FEFF 		bl	loc_cpu
 473              	.LVL46:
 474 0028 0746     		mov	r7, r0
 355:.\asp\syssvc/serial.c **** 		sio_cls_por(p_spcb->p_siopcb);
 475              		.loc 1 355 0
 476 002a 6868     		ldr	r0, [r5, #4]
 477 002c FFF7FEFF 		bl	sio_cls_por
 478              	.LVL47:
 356:.\asp\syssvc/serial.c **** 		p_spcb->openflag = false;
 479              		.loc 1 356 0
 480 0030 AE60     		str	r6, [r5, #8]
 357:.\asp\syssvc/serial.c **** 		if (unl_cpu() < 0) {
 481              		.loc 1 357 0
 482 0032 FFF7FEFF 		bl	unl_cpu
 483              	.LVL48:
 364:.\asp\syssvc/serial.c **** 		if (ini_sem(p_spcb->p_spinib->snd_semid) < 0) {
 484              		.loc 1 364 0
 485 0036 164D     		ldr	r5, .L59
 357:.\asp\syssvc/serial.c **** 		if (unl_cpu() < 0) {
 486              		.loc 1 357 0
 487 0038 0028     		cmp	r0, #0
 364:.\asp\syssvc/serial.c **** 		if (ini_sem(p_spcb->p_spinib->snd_semid) < 0) {
 488              		.loc 1 364 0
 489 003a 2868     		ldr	r0, [r5, #0]
 352:.\asp\syssvc/serial.c **** 		if (loc_cpu() < 0) {
 490              		.loc 1 352 0
 491 003c A8BF     		it	ge
 492 003e FC0F     		lsrge	r4, r7, #31
 493              	.LVL49:
 364:.\asp\syssvc/serial.c **** 		if (ini_sem(p_spcb->p_spinib->snd_semid) < 0) {
 494              		.loc 1 364 0
 495 0040 4068     		ldr	r0, [r0, #4]
ARM GAS  C:\TEMP\ccL5seZW.s 			page 19


 496 0042 FFF7FEFF 		bl	ini_sem
 497              	.LVL50:
 367:.\asp\syssvc/serial.c **** 		if (ini_sem(p_spcb->p_spinib->rcv_semid) < 0) {
 498              		.loc 1 367 0
 499 0046 2968     		ldr	r1, [r5, #0]
 365:.\asp\syssvc/serial.c **** 			eflag = true;
 500              		.loc 1 365 0
 501 0048 34EA2004 		bics	r4, r4, r0, asr #32
 502 004c 28BF     		it	cs
 503 004e 0124     		movcs	r4, #1
 504              	.LVL51:
 367:.\asp\syssvc/serial.c **** 		if (ini_sem(p_spcb->p_spinib->rcv_semid) < 0) {
 505              		.loc 1 367 0
 506 0050 0868     		ldr	r0, [r1, #0]
 507 0052 FFF7FEFF 		bl	ini_sem
 508              	.LVL52:
 509 0056 0028     		cmp	r0, #0
 510 0058 00DB     		blt	.L51
 374:.\asp\syssvc/serial.c **** 		if (eflag) {
 511              		.loc 1 374 0
 512 005a 3CB1     		cbz	r4, .L48
 513              	.L51:
 514              	.LVL53:
 515              	.LBB38:
 516              	.LBB39:
 217:.\asp\syssvc/serial.c **** 	p_spcb->errorflag = true;
 517              		.loc 1 217 0
 518 005c 0C4C     		ldr	r4, .L59
 519 005e 0122     		movs	r2, #1
 520 0060 E260     		str	r2, [r4, #12]
 375:.\asp\syssvc/serial.c **** 			ercd = gen_ercd_sys(p_spcb);
 521              		.loc 1 375 0
 522 0062 6FF00404 		mvn	r4, #4
 523 0066 01E0     		b	.L48
 524              	.LVL54:
 525              	.L54:
 526              	.LBE39:
 527              	.LBE38:
 346:.\asp\syssvc/serial.c **** 		ercd = E_OBJ;
 528              		.loc 1 346 0
 529 0068 6FF02804 		mvn	r4, #40
 530              	.LVL55:
 531              	.L48:
 381:.\asp\syssvc/serial.c **** 	SVC(ena_dsp(), gen_ercd_sys(p_spcb));
 532              		.loc 1 381 0
 533 006c FFF7FEFF 		bl	ena_dsp
 534              	.LVL56:
 535 0070 0028     		cmp	r0, #0
 536 0072 0ADA     		bge	.L46
 537              	.LVL57:
 538              	.LBB40:
 539              	.LBB41:
 217:.\asp\syssvc/serial.c **** 	p_spcb->errorflag = true;
 540              		.loc 1 217 0
 541 0074 064B     		ldr	r3, .L59
 542 0076 0120     		movs	r0, #1
 543 0078 D860     		str	r0, [r3, #12]
ARM GAS  C:\TEMP\ccL5seZW.s 			page 20


 544              	.LVL58:
 545              	.L58:
 546              	.LBE41:
 547              	.LBE40:
 381:.\asp\syssvc/serial.c **** 	SVC(ena_dsp(), gen_ercd_sys(p_spcb));
 548              		.loc 1 381 0
 549 007a 6FF00404 		mvn	r4, #4
 550 007e 04E0     		b	.L46
 551              	.LVL59:
 552              	.L52:
 337:.\asp\syssvc/serial.c **** 		return(E_CTX);
 553              		.loc 1 337 0
 554 0080 6FF01804 		mvn	r4, #24
 555              	.LVL60:
 556 0084 01E0     		b	.L46
 557              	.LVL61:
 558              	.L53:
 340:.\asp\syssvc/serial.c **** 		return(E_ID);				/* ポート番号のチェック */
 559              		.loc 1 340 0
 560 0086 6FF01104 		mvn	r4, #17
 561              	.LVL62:
 562              	.L46:
 385:.\asp\syssvc/serial.c **** }
 563              		.loc 1 385 0
 564 008a 2046     		mov	r0, r4
 565 008c F8BD     		pop	{r3, r4, r5, r6, r7, pc}
 566              	.L60:
 567 008e 00BF     		.align	2
 568              	.L59:
 569 0090 00000000 		.word	.LANCHOR0
 570              		.cfi_endproc
 571              	.LFE24:
 572              		.size	serial_cls_por, .-serial_cls_por
 573              		.section	.text.serial_wri_dat,"ax",%progbits
 574              		.align	1
 575              		.global	serial_wri_dat
 576              		.thumb
 577              		.thumb_func
 578              		.type	serial_wri_dat, %function
 579              	serial_wri_dat:
 580              	.LFB27:
 457:.\asp\syssvc/serial.c **** 
 458:.\asp\syssvc/serial.c **** /*
 459:.\asp\syssvc/serial.c ****  *  シリアルポートへの文字列送信（サービスコール）
 460:.\asp\syssvc/serial.c ****  */
 461:.\asp\syssvc/serial.c **** ER_UINT
 462:.\asp\syssvc/serial.c **** serial_wri_dat(ID portid, const char *buf, uint_t len)
 463:.\asp\syssvc/serial.c **** {
 581              		.loc 1 463 0
 582              		.cfi_startproc
 583              		@ args = 0, pretend = 0, frame = 0
 584              		@ frame_needed = 0, uses_anonymous_args = 0
 585              	.LVL63:
 586 0000 F8B5     		push	{r3, r4, r5, r6, r7, lr}
 587              	.LCFI4:
 588              		.cfi_def_cfa_offset 24
 589              		.cfi_offset 3, -24
ARM GAS  C:\TEMP\ccL5seZW.s 			page 21


 590              		.cfi_offset 4, -20
 591              		.cfi_offset 5, -16
 592              		.cfi_offset 6, -12
 593              		.cfi_offset 7, -8
 594              		.cfi_offset 14, -4
 595              		.loc 1 463 0
 596 0002 0546     		mov	r5, r0
 597 0004 0F46     		mov	r7, r1
 598 0006 1646     		mov	r6, r2
 464:.\asp\syssvc/serial.c **** 	SPCB	*p_spcb;
 465:.\asp\syssvc/serial.c **** 	bool_t	buffer_full;
 466:.\asp\syssvc/serial.c **** 	uint_t	wricnt = 0U;
 467:.\asp\syssvc/serial.c **** 	ER		ercd, rercd;
 468:.\asp\syssvc/serial.c **** 
 469:.\asp\syssvc/serial.c **** 	if (sns_dpn()) {				/* コンテキストのチェック */
 599              		.loc 1 469 0
 600 0008 FFF7FEFF 		bl	sns_dpn
 601              	.LVL64:
 602 000c 0028     		cmp	r0, #0
 603 000e 31D1     		bne	.L69
 470:.\asp\syssvc/serial.c **** 		return(E_CTX);
 471:.\asp\syssvc/serial.c **** 	}
 472:.\asp\syssvc/serial.c **** 	if (!(1 <= portid && portid <= TNUM_PORT)) {
 604              		.loc 1 472 0
 605 0010 012D     		cmp	r5, #1
 606 0012 32D1     		bne	.L70
 607              	.LVL65:
 473:.\asp\syssvc/serial.c **** 		return(E_ID);				/* ポート番号のチェック */
 474:.\asp\syssvc/serial.c **** 	}
 475:.\asp\syssvc/serial.c **** 
 476:.\asp\syssvc/serial.c **** 	p_spcb = get_spcb(portid);
 477:.\asp\syssvc/serial.c **** 	if (!(p_spcb->openflag)) {		/* オープン済みかのチェック */
 608              		.loc 1 477 0
 609 0014 1D4B     		ldr	r3, .L80
 610 0016 9A68     		ldr	r2, [r3, #8]
 611 0018 002A     		cmp	r2, #0
 612 001a 31D0     		beq	.L71
 478:.\asp\syssvc/serial.c **** 		return(E_OBJ);
 479:.\asp\syssvc/serial.c **** 	}
 480:.\asp\syssvc/serial.c **** 	if (p_spcb->errorflag) {		/* エラー状態かのチェック */
 613              		.loc 1 480 0
 614 001c DC68     		ldr	r4, [r3, #12]
 615 001e 002C     		cmp	r4, #0
 616 0020 31D1     		bne	.L72
 617 0022 2846     		mov	r0, r5
 618              	.LVL66:
 619              	.L63:
 481:.\asp\syssvc/serial.c **** 		return(E_SYS);
 482:.\asp\syssvc/serial.c **** 	}
 483:.\asp\syssvc/serial.c **** 
 484:.\asp\syssvc/serial.c **** 	buffer_full = true;				/* ループの1回めはwai_semする */
 485:.\asp\syssvc/serial.c **** 	while (wricnt < len) {
 620              		.loc 1 485 0 discriminator 1
 621 0024 B442     		cmp	r4, r6
 622 0026 13D0     		beq	.L79
 623              	.L66:
 486:.\asp\syssvc/serial.c **** 		if (buffer_full) {
ARM GAS  C:\TEMP\ccL5seZW.s 			page 22


 624              		.loc 1 486 0
 625 0028 50B1     		cbz	r0, .L64
 487:.\asp\syssvc/serial.c **** 			SVC(rercd = wai_sem(p_spcb->p_spinib->snd_semid),
 626              		.loc 1 487 0
 627 002a 184D     		ldr	r5, .L80
 628 002c 2B68     		ldr	r3, [r5, #0]
 629 002e 5868     		ldr	r0, [r3, #4]
 630              	.LVL67:
 631 0030 FFF7FEFF 		bl	wai_sem
 632              	.LVL68:
 633 0034 0028     		cmp	r0, #0
 634 0036 03DA     		bge	.L64
 635              		.loc 1 487 0 is_stmt 0 discriminator 1
 636 0038 2946     		mov	r1, r5
 637 003a FFF7FEFF 		bl	gen_ercd_wait
 638              	.LVL69:
 639 003e 15E0     		b	.L65
 640              	.LVL70:
 641              	.L64:
 488:.\asp\syssvc/serial.c **** 										gen_ercd_wait(rercd, p_spcb));
 489:.\asp\syssvc/serial.c **** 		}
 490:.\asp\syssvc/serial.c **** 		SVC(rercd = serial_wri_chr(p_spcb, *buf++), rercd);
 642              		.loc 1 490 0 is_stmt 1
 643 0040 1248     		ldr	r0, .L80
 644 0042 395D     		ldrb	r1, [r7, r4]	@ zero_extendqisi2
 645 0044 FFF7FEFF 		bl	serial_wri_chr
 646              	.LVL71:
 647 0048 0028     		cmp	r0, #0
 648 004a 0FDB     		blt	.L65
 491:.\asp\syssvc/serial.c **** 		wricnt++;
 649              		.loc 1 491 0
 650 004c 0134     		adds	r4, r4, #1
 651              	.LVL72:
 652 004e E9E7     		b	.L63
 653              	.LVL73:
 654              	.L79:
 492:.\asp\syssvc/serial.c **** 		buffer_full = (bool_t) rercd;
 493:.\asp\syssvc/serial.c **** 	}
 494:.\asp\syssvc/serial.c **** 	if (!buffer_full) {
 655              		.loc 1 494 0
 656 0050 08B1     		cbz	r0, .L67
 657              	.LVL74:
 658              	.L68:
 495:.\asp\syssvc/serial.c **** 		SVC(sig_sem(p_spcb->p_spinib->snd_semid), gen_ercd_sys(p_spcb));
 496:.\asp\syssvc/serial.c **** 	}
 497:.\asp\syssvc/serial.c **** 	ercd = E_OK;
 659              		.loc 1 497 0
 660 0052 0020     		movs	r0, #0
 661 0054 0AE0     		b	.L65
 662              	.LVL75:
 663              	.L67:
 495:.\asp\syssvc/serial.c **** 		SVC(sig_sem(p_spcb->p_spinib->snd_semid), gen_ercd_sys(p_spcb));
 664              		.loc 1 495 0
 665 0056 0D4D     		ldr	r5, .L80
 666 0058 2868     		ldr	r0, [r5, #0]
 667              	.LVL76:
 668 005a 4068     		ldr	r0, [r0, #4]
ARM GAS  C:\TEMP\ccL5seZW.s 			page 23


 669 005c FFF7FEFF 		bl	sig_sem
 670              	.LVL77:
 671 0060 0028     		cmp	r0, #0
 672 0062 F6DA     		bge	.L68
 673              	.LVL78:
 674              	.LBB42:
 675              	.LBB43:
 217:.\asp\syssvc/serial.c **** 	p_spcb->errorflag = true;
 676              		.loc 1 217 0
 677 0064 0121     		movs	r1, #1
 678 0066 E960     		str	r1, [r5, #12]
 679              	.LBE43:
 680              	.LBE42:
 495:.\asp\syssvc/serial.c **** 		SVC(sig_sem(p_spcb->p_spinib->snd_semid), gen_ercd_sys(p_spcb));
 681              		.loc 1 495 0
 682 0068 6FF00400 		mvn	r0, #4
 683              	.LVL79:
 684              	.L65:
 498:.\asp\syssvc/serial.c **** 
 499:.\asp\syssvc/serial.c ****   error_exit:
 500:.\asp\syssvc/serial.c **** 	return(wricnt > 0U ? (ER_UINT) wricnt : ercd);
 685              		.loc 1 500 0
 686 006c 002C     		cmp	r4, #0
 687 006e 18BF     		it	ne
 688 0070 2046     		movne	r0, r4
 689              	.LVL80:
 690 0072 F8BD     		pop	{r3, r4, r5, r6, r7, pc}
 691              	.LVL81:
 692              	.L69:
 470:.\asp\syssvc/serial.c **** 		return(E_CTX);
 693              		.loc 1 470 0
 694 0074 6FF01800 		mvn	r0, #24
 695 0078 F8BD     		pop	{r3, r4, r5, r6, r7, pc}
 696              	.L70:
 473:.\asp\syssvc/serial.c **** 		return(E_ID);				/* ポート番号のチェック */
 697              		.loc 1 473 0
 698 007a 6FF01100 		mvn	r0, #17
 699 007e F8BD     		pop	{r3, r4, r5, r6, r7, pc}
 700              	.LVL82:
 701              	.L71:
 478:.\asp\syssvc/serial.c **** 		return(E_OBJ);
 702              		.loc 1 478 0
 703 0080 6FF02800 		mvn	r0, #40
 704 0084 F8BD     		pop	{r3, r4, r5, r6, r7, pc}
 705              	.L72:
 481:.\asp\syssvc/serial.c **** 		return(E_SYS);
 706              		.loc 1 481 0
 707 0086 6FF00400 		mvn	r0, #4
 501:.\asp\syssvc/serial.c **** }
 708              		.loc 1 501 0
 709 008a F8BD     		pop	{r3, r4, r5, r6, r7, pc}
 710              	.L81:
 711              		.align	2
 712              	.L80:
 713 008c 00000000 		.word	.LANCHOR0
 714              		.cfi_endproc
 715              	.LFE27:
ARM GAS  C:\TEMP\ccL5seZW.s 			page 24


 716              		.size	serial_wri_dat, .-serial_wri_dat
 717              		.section	.text.serial_rea_dat,"ax",%progbits
 718              		.align	1
 719              		.global	serial_rea_dat
 720              		.thumb
 721              		.thumb_func
 722              		.type	serial_rea_dat, %function
 723              	serial_rea_dat:
 724              	.LFB29:
 502:.\asp\syssvc/serial.c **** 
 503:.\asp\syssvc/serial.c **** /*
 504:.\asp\syssvc/serial.c ****  *  シリアルポートからの1文字受信
 505:.\asp\syssvc/serial.c ****  */
 506:.\asp\syssvc/serial.c **** static bool_t
 507:.\asp\syssvc/serial.c **** serial_rea_chr(SPCB *p_spcb, char *p_c)
 508:.\asp\syssvc/serial.c **** {
 509:.\asp\syssvc/serial.c **** 	bool_t	buffer_empty;
 510:.\asp\syssvc/serial.c **** 	ER		ercd;
 511:.\asp\syssvc/serial.c **** 
 512:.\asp\syssvc/serial.c **** 	SVC(loc_cpu(), gen_ercd_sys(p_spcb));
 513:.\asp\syssvc/serial.c **** 
 514:.\asp\syssvc/serial.c **** 	/*
 515:.\asp\syssvc/serial.c **** 	 *  受信バッファから文字を取り出す．
 516:.\asp\syssvc/serial.c **** 	 */
 517:.\asp\syssvc/serial.c **** 	*p_c = p_spcb->p_spinib->rcv_buffer[p_spcb->rcv_read_ptr];
 518:.\asp\syssvc/serial.c **** 	INC_PTR(p_spcb->rcv_read_ptr, p_spcb->p_spinib->rcv_bufsz);
 519:.\asp\syssvc/serial.c **** 	p_spcb->rcv_count--;
 520:.\asp\syssvc/serial.c **** 	buffer_empty = (p_spcb->rcv_count == 0U);
 521:.\asp\syssvc/serial.c **** 
 522:.\asp\syssvc/serial.c **** 	/*
 523:.\asp\syssvc/serial.c **** 	 *  STARTを送信する．
 524:.\asp\syssvc/serial.c **** 	 */
 525:.\asp\syssvc/serial.c **** 	if (p_spcb->rcv_stopped && p_spcb->rcv_count
 526:.\asp\syssvc/serial.c **** 								<= BUFCNT_START(p_spcb->p_spinib->rcv_bufsz)) {
 527:.\asp\syssvc/serial.c **** 		if (!serial_snd_chr(p_spcb, FC_START)) {
 528:.\asp\syssvc/serial.c **** 			p_spcb->rcv_fc_chr = FC_START;
 529:.\asp\syssvc/serial.c **** 		}
 530:.\asp\syssvc/serial.c **** 		p_spcb->rcv_stopped = false;
 531:.\asp\syssvc/serial.c **** 	}
 532:.\asp\syssvc/serial.c **** 
 533:.\asp\syssvc/serial.c **** 	SVC(unl_cpu(), gen_ercd_sys(p_spcb));
 534:.\asp\syssvc/serial.c **** 	ercd = (ER_BOOL) buffer_empty;
 535:.\asp\syssvc/serial.c **** 
 536:.\asp\syssvc/serial.c ****   error_exit:
 537:.\asp\syssvc/serial.c **** 	return(ercd);
 538:.\asp\syssvc/serial.c **** }
 539:.\asp\syssvc/serial.c **** 
 540:.\asp\syssvc/serial.c **** /*
 541:.\asp\syssvc/serial.c ****  *  シリアルポートからの文字列受信（サービスコール）
 542:.\asp\syssvc/serial.c ****  */
 543:.\asp\syssvc/serial.c **** ER_UINT
 544:.\asp\syssvc/serial.c **** serial_rea_dat(ID portid, char *buf, uint_t len)
 545:.\asp\syssvc/serial.c **** {
 725              		.loc 1 545 0
 726              		.cfi_startproc
 727              		@ args = 0, pretend = 0, frame = 0
 728              		@ frame_needed = 0, uses_anonymous_args = 0
ARM GAS  C:\TEMP\ccL5seZW.s 			page 25


 729              	.LVL83:
 730 0000 2DE9F843 		push	{r3, r4, r5, r6, r7, r8, r9, lr}
 731              	.LCFI5:
 732              		.cfi_def_cfa_offset 32
 733              		.cfi_offset 3, -32
 734              		.cfi_offset 4, -28
 735              		.cfi_offset 5, -24
 736              		.cfi_offset 6, -20
 737              		.cfi_offset 7, -16
 738              		.cfi_offset 8, -12
 739              		.cfi_offset 9, -8
 740              		.cfi_offset 14, -4
 741              		.loc 1 545 0
 742 0004 0446     		mov	r4, r0
 743 0006 0F46     		mov	r7, r1
 744 0008 1646     		mov	r6, r2
 546:.\asp\syssvc/serial.c **** 	SPCB	*p_spcb;
 547:.\asp\syssvc/serial.c **** 	bool_t	buffer_empty;
 548:.\asp\syssvc/serial.c **** 	uint_t	reacnt = 0U;
 549:.\asp\syssvc/serial.c **** 	char	c = '\0';		/* コンパイラの警告を抑止するために初期化する */
 550:.\asp\syssvc/serial.c **** 	ER		ercd, rercd;
 551:.\asp\syssvc/serial.c **** 
 552:.\asp\syssvc/serial.c **** 	if (sns_dpn()) {				/* コンテキストのチェック */
 745              		.loc 1 552 0
 746 000a FFF7FEFF 		bl	sns_dpn
 747              	.LVL84:
 748 000e 0028     		cmp	r0, #0
 749 0010 7AD1     		bne	.L96
 553:.\asp\syssvc/serial.c **** 		return(E_CTX);
 554:.\asp\syssvc/serial.c **** 	}
 555:.\asp\syssvc/serial.c **** 	if (!(1 <= portid && portid <= TNUM_PORT)) {
 750              		.loc 1 555 0
 751 0012 012C     		cmp	r4, #1
 752 0014 7CD1     		bne	.L97
 753              	.LVL85:
 556:.\asp\syssvc/serial.c **** 		return(E_ID);				/* ポート番号のチェック */
 557:.\asp\syssvc/serial.c **** 	}
 558:.\asp\syssvc/serial.c **** 
 559:.\asp\syssvc/serial.c **** 	p_spcb = get_spcb(portid);
 560:.\asp\syssvc/serial.c **** 	if (!(p_spcb->openflag)) {		/* オープン済みかのチェック */
 754              		.loc 1 560 0
 755 0016 464B     		ldr	r3, .L118
 756 0018 9A68     		ldr	r2, [r3, #8]
 757 001a 002A     		cmp	r2, #0
 758 001c 7CD0     		beq	.L98
 561:.\asp\syssvc/serial.c **** 		return(E_OBJ);
 562:.\asp\syssvc/serial.c **** 	}
 563:.\asp\syssvc/serial.c **** 	if (p_spcb->errorflag) {		/* エラー状態かのチェック */
 759              		.loc 1 563 0
 760 001e DD68     		ldr	r5, [r3, #12]
 761 0020 002D     		cmp	r5, #0
 762 0022 7DD1     		bne	.L99
 763              	.LVL86:
 764              	.L84:
 564:.\asp\syssvc/serial.c **** 		return(E_SYS);
 565:.\asp\syssvc/serial.c **** 	}
 566:.\asp\syssvc/serial.c **** 
ARM GAS  C:\TEMP\ccL5seZW.s 			page 26


 567:.\asp\syssvc/serial.c **** 	buffer_empty = true;			/* ループの1回めはwai_semする */
 568:.\asp\syssvc/serial.c **** 	while (reacnt < len) {
 765              		.loc 1 568 0 discriminator 1
 766 0024 B542     		cmp	r5, r6
 767 0026 5CD0     		beq	.L117
 768              	.L95:
 569:.\asp\syssvc/serial.c **** 		if (buffer_empty) {
 769              		.loc 1 569 0
 770 0028 34B1     		cbz	r4, .L85
 570:.\asp\syssvc/serial.c **** 			SVC(rercd = wai_sem(p_spcb->p_spinib->rcv_semid),
 771              		.loc 1 570 0
 772 002a 414C     		ldr	r4, .L118
 773              	.LVL87:
 774 002c 2368     		ldr	r3, [r4, #0]
 775 002e 1868     		ldr	r0, [r3, #0]
 776 0030 FFF7FEFF 		bl	wai_sem
 777              	.LVL88:
 778 0034 0028     		cmp	r0, #0
 779 0036 3EDB     		blt	.L115
 780              	.LVL89:
 781              	.L85:
 782              	.LBB54:
 783              	.LBB55:
 512:.\asp\syssvc/serial.c **** 	SVC(loc_cpu(), gen_ercd_sys(p_spcb));
 784              		.loc 1 512 0
 785 0038 FFF7FEFF 		bl	loc_cpu
 786              	.LVL90:
 787 003c 0028     		cmp	r0, #0
 788 003e 3C4B     		ldr	r3, .L118
 789 0040 02DA     		bge	.L87
 790              	.LVL91:
 791              	.LBB56:
 792              	.LBB57:
 217:.\asp\syssvc/serial.c **** 	p_spcb->errorflag = true;
 793              		.loc 1 217 0
 794 0042 0121     		movs	r1, #1
 795 0044 D960     		str	r1, [r3, #12]
 796 0046 6FE0     		b	.L88
 797              	.LVL92:
 798              	.L87:
 799              	.LBE57:
 800              	.LBE56:
 517:.\asp\syssvc/serial.c **** 	*p_c = p_spcb->p_spinib->rcv_buffer[p_spcb->rcv_read_ptr];
 801              		.loc 1 517 0
 802 0048 1A68     		ldr	r2, [r3, #0]
 803 004a 5C69     		ldr	r4, [r3, #20]
 804 004c D068     		ldr	r0, [r2, #12]
 518:.\asp\syssvc/serial.c **** 	INC_PTR(p_spcb->rcv_read_ptr, p_spcb->p_spinib->rcv_bufsz);
 805              		.loc 1 518 0
 806 004e 611C     		adds	r1, r4, #1
 517:.\asp\syssvc/serial.c **** 	*p_c = p_spcb->p_spinib->rcv_buffer[p_spcb->rcv_read_ptr];
 807              		.loc 1 517 0
 808 0050 10F80480 		ldrb	r8, [r0, r4]	@ zero_extendqisi2
 809              	.LVL93:
 518:.\asp\syssvc/serial.c **** 	INC_PTR(p_spcb->rcv_read_ptr, p_spcb->p_spinib->rcv_bufsz);
 810              		.loc 1 518 0
 811 0054 5961     		str	r1, [r3, #20]
ARM GAS  C:\TEMP\ccL5seZW.s 			page 27


 812 0056 9468     		ldr	r4, [r2, #8]
 813              	.LVL94:
 814 0058 A142     		cmp	r1, r4
 815 005a 01D1     		bne	.L89
 816 005c 0020     		movs	r0, #0
 817              	.LVL95:
 818 005e 5861     		str	r0, [r3, #20]
 819              	.L89:
 519:.\asp\syssvc/serial.c **** 	p_spcb->rcv_count--;
 820              		.loc 1 519 0
 821 0060 334C     		ldr	r4, .L118
 822 0062 E369     		ldr	r3, [r4, #28]
 525:.\asp\syssvc/serial.c **** 	if (p_spcb->rcv_stopped && p_spcb->rcv_count
 823              		.loc 1 525 0
 824 0064 616A     		ldr	r1, [r4, #36]
 519:.\asp\syssvc/serial.c **** 	p_spcb->rcv_count--;
 825              		.loc 1 519 0
 826 0066 581E     		subs	r0, r3, #1
 520:.\asp\syssvc/serial.c **** 	buffer_empty = (p_spcb->rcv_count == 0U);
 827              		.loc 1 520 0
 828 0068 D0F10109 		rsbs	r9, r0, #1
 519:.\asp\syssvc/serial.c **** 	p_spcb->rcv_count--;
 829              		.loc 1 519 0
 830 006c E061     		str	r0, [r4, #28]
 520:.\asp\syssvc/serial.c **** 	buffer_empty = (p_spcb->rcv_count == 0U);
 831              		.loc 1 520 0
 832 006e 38BF     		it	cc
 833 0070 4FF00009 		movcc	r9, #0
 834              	.LVL96:
 525:.\asp\syssvc/serial.c **** 	if (p_spcb->rcv_stopped && p_spcb->rcv_count
 835              		.loc 1 525 0
 836 0074 71B1     		cbz	r1, .L90
 526:.\asp\syssvc/serial.c **** 								<= BUFCNT_START(p_spcb->p_spinib->rcv_bufsz)) {
 837              		.loc 1 526 0
 838 0076 9268     		ldr	r2, [r2, #8]
 839              	.LVL97:
 525:.\asp\syssvc/serial.c **** 	if (p_spcb->rcv_stopped && p_spcb->rcv_count
 840              		.loc 1 525 0
 841 0078 B0EB520F 		cmp	r0, r2, lsr #1
 842 007c 0AD8     		bhi	.L90
 527:.\asp\syssvc/serial.c **** 		if (!serial_snd_chr(p_spcb, FC_START)) {
 843              		.loc 1 527 0
 844 007e 2046     		mov	r0, r4
 845 0080 1121     		movs	r1, #17
 846 0082 FFF7FEFF 		bl	serial_snd_chr
 847              	.LVL98:
 848 0086 10B9     		cbnz	r0, .L91
 528:.\asp\syssvc/serial.c **** 			p_spcb->rcv_fc_chr = FC_START;
 849              		.loc 1 528 0
 850 0088 1123     		movs	r3, #17
 851 008a 84F82030 		strb	r3, [r4, #32]
 852              	.L91:
 530:.\asp\syssvc/serial.c **** 		p_spcb->rcv_stopped = false;
 853              		.loc 1 530 0
 854 008e 2848     		ldr	r0, .L118
 855 0090 0024     		movs	r4, #0
 856 0092 4462     		str	r4, [r0, #36]
ARM GAS  C:\TEMP\ccL5seZW.s 			page 28


 857              	.L90:
 533:.\asp\syssvc/serial.c **** 	SVC(unl_cpu(), gen_ercd_sys(p_spcb));
 858              		.loc 1 533 0
 859 0094 FFF7FEFF 		bl	unl_cpu
 860              	.LVL99:
 861 0098 0028     		cmp	r0, #0
 862 009a 254C     		ldr	r4, .L118
 863 009c 1CDB     		blt	.L116
 864              	.L92:
 865              	.LVL100:
 866              	.LBE55:
 867              	.LBE54:
 571:.\asp\syssvc/serial.c **** 										gen_ercd_wait(rercd, p_spcb));
 572:.\asp\syssvc/serial.c **** 		}
 573:.\asp\syssvc/serial.c **** 		SVC(rercd = serial_rea_chr(p_spcb, &c), rercd);
 574:.\asp\syssvc/serial.c **** 		*buf++ = c;
 868              		.loc 1 574 0
 869 009e 07F80580 		strb	r8, [r7, r5]
 575:.\asp\syssvc/serial.c **** 		reacnt++;
 576:.\asp\syssvc/serial.c **** 		buffer_empty = (bool_t) rercd;
 577:.\asp\syssvc/serial.c **** 
 578:.\asp\syssvc/serial.c **** 		/*
 579:.\asp\syssvc/serial.c **** 		 *  エコーバック処理．
 580:.\asp\syssvc/serial.c **** 		 */
 581:.\asp\syssvc/serial.c **** 		if ((p_spcb->ioctl & IOCTL_ECHO) != 0U) {
 870              		.loc 1 581 0
 871 00a2 2169     		ldr	r1, [r4, #16]
 575:.\asp\syssvc/serial.c **** 		reacnt++;
 872              		.loc 1 575 0
 873 00a4 0135     		adds	r5, r5, #1
 874              	.LVL101:
 875              		.loc 1 581 0
 876 00a6 C907     		lsls	r1, r1, #31
 877 00a8 19D5     		bpl	.L93
 582:.\asp\syssvc/serial.c **** 			SVC(rercd = wai_sem(p_spcb->p_spinib->snd_semid),
 878              		.loc 1 582 0
 879 00aa 2268     		ldr	r2, [r4, #0]
 880 00ac 5068     		ldr	r0, [r2, #4]
 881 00ae FFF7FEFF 		bl	wai_sem
 882              	.LVL102:
 883 00b2 0028     		cmp	r0, #0
 884 00b4 03DA     		bge	.L94
 885              	.LVL103:
 886              	.L115:
 887              		.loc 1 582 0 is_stmt 0 discriminator 1
 888 00b6 2146     		mov	r1, r4
 889 00b8 FFF7FEFF 		bl	gen_ercd_wait
 890              	.LVL104:
 891 00bc 1FE0     		b	.L86
 892              	.LVL105:
 893              	.L94:
 583:.\asp\syssvc/serial.c **** 										gen_ercd_wait(rercd, p_spcb));
 584:.\asp\syssvc/serial.c **** 			SVC(rercd = serial_wri_chr(p_spcb, c), rercd);
 894              		.loc 1 584 0 is_stmt 1
 895 00be 2046     		mov	r0, r4
 896              	.LVL106:
 897 00c0 4146     		mov	r1, r8
ARM GAS  C:\TEMP\ccL5seZW.s 			page 29


 898 00c2 FFF7FEFF 		bl	serial_wri_chr
 899              	.LVL107:
 900 00c6 0028     		cmp	r0, #0
 901 00c8 19DB     		blt	.L86
 585:.\asp\syssvc/serial.c **** 			if (!((bool_t) rercd)) {
 902              		.loc 1 585 0
 903 00ca 08D1     		bne	.L93
 586:.\asp\syssvc/serial.c **** 				SVC(sig_sem(p_spcb->p_spinib->snd_semid),
 904              		.loc 1 586 0
 905 00cc 2368     		ldr	r3, [r4, #0]
 906 00ce 5868     		ldr	r0, [r3, #4]
 907              	.LVL108:
 908 00d0 FFF7FEFF 		bl	sig_sem
 909              	.LVL109:
 910 00d4 0028     		cmp	r0, #0
 911 00d6 02DA     		bge	.L93
 912              	.LVL110:
 913              	.L116:
 914              	.LBB58:
 915              	.LBB59:
 217:.\asp\syssvc/serial.c **** 	p_spcb->errorflag = true;
 916              		.loc 1 217 0
 917 00d8 0120     		movs	r0, #1
 918 00da E060     		str	r0, [r4, #12]
 919 00dc 24E0     		b	.L88
 920              	.LVL111:
 921              	.L93:
 922              	.LBE59:
 923              	.LBE58:
 520:.\asp\syssvc/serial.c **** 	buffer_empty = (p_spcb->rcv_count == 0U);
 924              		.loc 1 520 0
 925 00de 4C46     		mov	r4, r9
 926 00e0 A0E7     		b	.L84
 927              	.LVL112:
 928              	.L117:
 587:.\asp\syssvc/serial.c **** 										gen_ercd_sys(p_spcb));
 588:.\asp\syssvc/serial.c **** 			}
 589:.\asp\syssvc/serial.c **** 		}
 590:.\asp\syssvc/serial.c **** 	}
 591:.\asp\syssvc/serial.c **** 	if (!buffer_empty) {
 929              		.loc 1 591 0
 930 00e2 4CB9     		cbnz	r4, .L101
 592:.\asp\syssvc/serial.c **** 		SVC(sig_sem(p_spcb->p_spinib->rcv_semid), gen_ercd_sys(p_spcb));
 931              		.loc 1 592 0
 932 00e4 124E     		ldr	r6, .L118
 933              	.LVL113:
 934 00e6 3068     		ldr	r0, [r6, #0]
 935 00e8 0068     		ldr	r0, [r0, #0]
 936 00ea FFF7FEFF 		bl	sig_sem
 937              	.LVL114:
 938 00ee 0028     		cmp	r0, #0
 939 00f0 04DA     		bge	.L102
 940              	.LVL115:
 941              	.LBB60:
 942              	.LBB61:
 217:.\asp\syssvc/serial.c **** 	p_spcb->errorflag = true;
 943              		.loc 1 217 0
ARM GAS  C:\TEMP\ccL5seZW.s 			page 30


 944 00f2 0121     		movs	r1, #1
 945 00f4 F160     		str	r1, [r6, #12]
 946 00f6 17E0     		b	.L88
 947              	.LVL116:
 948              	.L101:
 949              	.LBE61:
 950              	.LBE60:
 593:.\asp\syssvc/serial.c **** 	}
 594:.\asp\syssvc/serial.c **** 	ercd = E_OK;
 951              		.loc 1 594 0
 952 00f8 0020     		movs	r0, #0
 953 00fa 00E0     		b	.L86
 954              	.LVL117:
 955              	.L102:
 956 00fc 2046     		mov	r0, r4
 957              	.LVL118:
 958              	.L86:
 595:.\asp\syssvc/serial.c **** 
 596:.\asp\syssvc/serial.c ****   error_exit:
 597:.\asp\syssvc/serial.c **** 	return(reacnt > 0U ? (ER_UINT) reacnt : ercd);
 959              		.loc 1 597 0
 960 00fe 002D     		cmp	r5, #0
 961 0100 18BF     		it	ne
 962 0102 2846     		movne	r0, r5
 963              	.LVL119:
 964 0104 BDE8F883 		pop	{r3, r4, r5, r6, r7, r8, r9, pc}
 965              	.LVL120:
 966              	.L96:
 553:.\asp\syssvc/serial.c **** 		return(E_CTX);
 967              		.loc 1 553 0
 968 0108 6FF01800 		mvn	r0, #24
 969 010c BDE8F883 		pop	{r3, r4, r5, r6, r7, r8, r9, pc}
 970              	.L97:
 556:.\asp\syssvc/serial.c **** 		return(E_ID);				/* ポート番号のチェック */
 971              		.loc 1 556 0
 972 0110 6FF01100 		mvn	r0, #17
 973 0114 BDE8F883 		pop	{r3, r4, r5, r6, r7, r8, r9, pc}
 974              	.LVL121:
 975              	.L98:
 561:.\asp\syssvc/serial.c **** 		return(E_OBJ);
 976              		.loc 1 561 0
 977 0118 6FF02800 		mvn	r0, #40
 978 011c BDE8F883 		pop	{r3, r4, r5, r6, r7, r8, r9, pc}
 979              	.L99:
 564:.\asp\syssvc/serial.c **** 		return(E_SYS);
 980              		.loc 1 564 0
 981 0120 6FF00400 		mvn	r0, #4
 982 0124 BDE8F883 		pop	{r3, r4, r5, r6, r7, r8, r9, pc}
 983              	.LVL122:
 984              	.L88:
 563:.\asp\syssvc/serial.c **** 	if (p_spcb->errorflag) {		/* エラー状態かのチェック */
 985              		.loc 1 563 0
 986 0128 6FF00400 		mvn	r0, #4
 987 012c E7E7     		b	.L86
 988              	.L119:
 989 012e 00BF     		.align	2
 990              	.L118:
ARM GAS  C:\TEMP\ccL5seZW.s 			page 31


 991 0130 00000000 		.word	.LANCHOR0
 992              		.cfi_endproc
 993              	.LFE29:
 994              		.size	serial_rea_dat, .-serial_rea_dat
 995              		.section	.text.serial_ctl_por,"ax",%progbits
 996              		.align	1
 997              		.global	serial_ctl_por
 998              		.thumb
 999              		.thumb_func
 1000              		.type	serial_ctl_por, %function
 1001              	serial_ctl_por:
 1002              	.LFB30:
 598:.\asp\syssvc/serial.c **** }
 599:.\asp\syssvc/serial.c **** 
 600:.\asp\syssvc/serial.c **** /*
 601:.\asp\syssvc/serial.c ****  *  シリアルポートの制御（サービスコール）
 602:.\asp\syssvc/serial.c ****  */
 603:.\asp\syssvc/serial.c **** ER
 604:.\asp\syssvc/serial.c **** serial_ctl_por(ID portid, uint_t ioctl)
 605:.\asp\syssvc/serial.c **** {
 1003              		.loc 1 605 0
 1004              		.cfi_startproc
 1005              		@ args = 0, pretend = 0, frame = 0
 1006              		@ frame_needed = 0, uses_anonymous_args = 0
 1007              	.LVL123:
 1008 0000 38B5     		push	{r3, r4, r5, lr}
 1009              	.LCFI6:
 1010              		.cfi_def_cfa_offset 16
 1011              		.cfi_offset 3, -16
 1012              		.cfi_offset 4, -12
 1013              		.cfi_offset 5, -8
 1014              		.cfi_offset 14, -4
 1015              		.loc 1 605 0
 1016 0002 0546     		mov	r5, r0
 1017 0004 0C46     		mov	r4, r1
 606:.\asp\syssvc/serial.c **** 	SPCB	*p_spcb;
 607:.\asp\syssvc/serial.c **** 
 608:.\asp\syssvc/serial.c **** 	if (sns_dpn()) {				/* コンテキストのチェック */
 1018              		.loc 1 608 0
 1019 0006 FFF7FEFF 		bl	sns_dpn
 1020              	.LVL124:
 1021 000a 40B9     		cbnz	r0, .L122
 609:.\asp\syssvc/serial.c **** 		return(E_CTX);
 610:.\asp\syssvc/serial.c **** 	}
 611:.\asp\syssvc/serial.c **** 	if (!(1 <= portid && portid <= TNUM_PORT)) {
 1022              		.loc 1 611 0
 1023 000c 012D     		cmp	r5, #1
 1024 000e 09D1     		bne	.L123
 1025              	.LVL125:
 612:.\asp\syssvc/serial.c **** 		return(E_ID);				/* ポート番号のチェック */
 613:.\asp\syssvc/serial.c **** 	}
 614:.\asp\syssvc/serial.c **** 
 615:.\asp\syssvc/serial.c **** 	p_spcb = get_spcb(portid);
 616:.\asp\syssvc/serial.c **** 	if (!(p_spcb->openflag)) {		/* オープン済みかのチェック */
 1026              		.loc 1 616 0
 1027 0010 094B     		ldr	r3, .L126
 1028 0012 9A68     		ldr	r2, [r3, #8]
ARM GAS  C:\TEMP\ccL5seZW.s 			page 32


 1029 0014 4AB1     		cbz	r2, .L124
 617:.\asp\syssvc/serial.c **** 		return(E_OBJ);
 618:.\asp\syssvc/serial.c **** 	}
 619:.\asp\syssvc/serial.c **** 	if (p_spcb->errorflag) {		/* エラー状態かのチェック */
 1030              		.loc 1 619 0
 1031 0016 D868     		ldr	r0, [r3, #12]
 1032 0018 50B9     		cbnz	r0, .L125
 620:.\asp\syssvc/serial.c **** 		return(E_SYS);
 621:.\asp\syssvc/serial.c **** 	}
 622:.\asp\syssvc/serial.c **** 
 623:.\asp\syssvc/serial.c **** 	p_spcb->ioctl = ioctl;
 1033              		.loc 1 623 0
 1034 001a 1C61     		str	r4, [r3, #16]
 624:.\asp\syssvc/serial.c **** 	return(E_OK);
 1035              		.loc 1 624 0
 1036 001c 38BD     		pop	{r3, r4, r5, pc}
 1037              	.LVL126:
 1038              	.L122:
 609:.\asp\syssvc/serial.c **** 		return(E_CTX);
 1039              		.loc 1 609 0
 1040 001e 6FF01800 		mvn	r0, #24
 1041 0022 38BD     		pop	{r3, r4, r5, pc}
 1042              	.L123:
 612:.\asp\syssvc/serial.c **** 		return(E_ID);				/* ポート番号のチェック */
 1043              		.loc 1 612 0
 1044 0024 6FF01100 		mvn	r0, #17
 1045 0028 38BD     		pop	{r3, r4, r5, pc}
 1046              	.LVL127:
 1047              	.L124:
 617:.\asp\syssvc/serial.c **** 		return(E_OBJ);
 1048              		.loc 1 617 0
 1049 002a 6FF02800 		mvn	r0, #40
 1050 002e 38BD     		pop	{r3, r4, r5, pc}
 1051              	.L125:
 620:.\asp\syssvc/serial.c **** 		return(E_SYS);
 1052              		.loc 1 620 0
 1053 0030 6FF00400 		mvn	r0, #4
 625:.\asp\syssvc/serial.c **** }
 1054              		.loc 1 625 0
 1055 0034 38BD     		pop	{r3, r4, r5, pc}
 1056              	.L127:
 1057 0036 00BF     		.align	2
 1058              	.L126:
 1059 0038 00000000 		.word	.LANCHOR0
 1060              		.cfi_endproc
 1061              	.LFE30:
 1062              		.size	serial_ctl_por, .-serial_ctl_por
 1063              		.section	.text.serial_ref_por,"ax",%progbits
 1064              		.align	1
 1065              		.global	serial_ref_por
 1066              		.thumb
 1067              		.thumb_func
 1068              		.type	serial_ref_por, %function
 1069              	serial_ref_por:
 1070              	.LFB31:
 626:.\asp\syssvc/serial.c **** 
 627:.\asp\syssvc/serial.c **** /*
ARM GAS  C:\TEMP\ccL5seZW.s 			page 33


 628:.\asp\syssvc/serial.c ****  *  シリアルポート状態の参照（サービスコール）
 629:.\asp\syssvc/serial.c ****  */
 630:.\asp\syssvc/serial.c **** ER
 631:.\asp\syssvc/serial.c **** serial_ref_por(ID portid, T_SERIAL_RPOR *pk_rpor)
 632:.\asp\syssvc/serial.c **** {
 1071              		.loc 1 632 0
 1072              		.cfi_startproc
 1073              		@ args = 0, pretend = 0, frame = 0
 1074              		@ frame_needed = 0, uses_anonymous_args = 0
 1075              	.LVL128:
 1076 0000 38B5     		push	{r3, r4, r5, lr}
 1077              	.LCFI7:
 1078              		.cfi_def_cfa_offset 16
 1079              		.cfi_offset 3, -16
 1080              		.cfi_offset 4, -12
 1081              		.cfi_offset 5, -8
 1082              		.cfi_offset 14, -4
 1083              		.loc 1 632 0
 1084 0002 0546     		mov	r5, r0
 1085 0004 0C46     		mov	r4, r1
 633:.\asp\syssvc/serial.c **** 	SPCB	*p_spcb;
 634:.\asp\syssvc/serial.c **** 
 635:.\asp\syssvc/serial.c **** 	if (sns_dpn()) {				/* コンテキストのチェック */
 1086              		.loc 1 635 0
 1087 0006 FFF7FEFF 		bl	sns_dpn
 1088              	.LVL129:
 1089 000a 58B9     		cbnz	r0, .L130
 636:.\asp\syssvc/serial.c **** 		return(E_CTX);
 637:.\asp\syssvc/serial.c **** 	}
 638:.\asp\syssvc/serial.c **** 	if (!(1 <= portid && portid <= TNUM_PORT)) {
 1090              		.loc 1 638 0
 1091 000c 012D     		cmp	r5, #1
 1092 000e 0CD1     		bne	.L131
 1093              	.LVL130:
 639:.\asp\syssvc/serial.c **** 		return(E_ID);				/* ポート番号のチェック */
 640:.\asp\syssvc/serial.c **** 	}
 641:.\asp\syssvc/serial.c **** 
 642:.\asp\syssvc/serial.c **** 	p_spcb = get_spcb(portid);
 643:.\asp\syssvc/serial.c **** 	if (!(p_spcb->openflag)) {		/* オープン済みかのチェック */
 1094              		.loc 1 643 0
 1095 0010 0A4B     		ldr	r3, .L134
 1096 0012 9A68     		ldr	r2, [r3, #8]
 1097 0014 62B1     		cbz	r2, .L132
 644:.\asp\syssvc/serial.c **** 		return(E_OBJ);
 645:.\asp\syssvc/serial.c **** 	}
 646:.\asp\syssvc/serial.c **** 	if (p_spcb->errorflag) {		/* エラー状態かのチェック */
 1098              		.loc 1 646 0
 1099 0016 D868     		ldr	r0, [r3, #12]
 1100 0018 68B9     		cbnz	r0, .L133
 647:.\asp\syssvc/serial.c **** 		return(E_SYS);
 648:.\asp\syssvc/serial.c **** 	}
 649:.\asp\syssvc/serial.c **** 
 650:.\asp\syssvc/serial.c **** 	pk_rpor->reacnt = p_spcb->rcv_count;
 1101              		.loc 1 650 0
 1102 001a D969     		ldr	r1, [r3, #28]
 1103 001c 2160     		str	r1, [r4, #0]
 651:.\asp\syssvc/serial.c **** 	pk_rpor->wricnt = p_spcb->snd_count;
ARM GAS  C:\TEMP\ccL5seZW.s 			page 34


 1104              		.loc 1 651 0
 1105 001e 1B6B     		ldr	r3, [r3, #48]
 1106 0020 6360     		str	r3, [r4, #4]
 652:.\asp\syssvc/serial.c **** 	return(E_OK);
 1107              		.loc 1 652 0
 1108 0022 38BD     		pop	{r3, r4, r5, pc}
 1109              	.LVL131:
 1110              	.L130:
 636:.\asp\syssvc/serial.c **** 		return(E_CTX);
 1111              		.loc 1 636 0
 1112 0024 6FF01800 		mvn	r0, #24
 1113 0028 38BD     		pop	{r3, r4, r5, pc}
 1114              	.L131:
 639:.\asp\syssvc/serial.c **** 		return(E_ID);				/* ポート番号のチェック */
 1115              		.loc 1 639 0
 1116 002a 6FF01100 		mvn	r0, #17
 1117 002e 38BD     		pop	{r3, r4, r5, pc}
 1118              	.LVL132:
 1119              	.L132:
 644:.\asp\syssvc/serial.c **** 		return(E_OBJ);
 1120              		.loc 1 644 0
 1121 0030 6FF02800 		mvn	r0, #40
 1122 0034 38BD     		pop	{r3, r4, r5, pc}
 1123              	.L133:
 647:.\asp\syssvc/serial.c **** 		return(E_SYS);
 1124              		.loc 1 647 0
 1125 0036 6FF00400 		mvn	r0, #4
 653:.\asp\syssvc/serial.c **** }
 1126              		.loc 1 653 0
 1127 003a 38BD     		pop	{r3, r4, r5, pc}
 1128              	.L135:
 1129              		.align	2
 1130              	.L134:
 1131 003c 00000000 		.word	.LANCHOR0
 1132              		.cfi_endproc
 1133              	.LFE31:
 1134              		.size	serial_ref_por, .-serial_ref_por
 1135              		.section	.text.sio_irdy_snd,"ax",%progbits
 1136              		.align	1
 1137              		.global	sio_irdy_snd
 1138              		.thumb
 1139              		.thumb_func
 1140              		.type	sio_irdy_snd, %function
 1141              	sio_irdy_snd:
 1142              	.LFB32:
 654:.\asp\syssvc/serial.c **** 
 655:.\asp\syssvc/serial.c **** /*
 656:.\asp\syssvc/serial.c ****  *  シリアルポートからの送信可能コールバック
 657:.\asp\syssvc/serial.c ****  */
 658:.\asp\syssvc/serial.c **** void
 659:.\asp\syssvc/serial.c **** sio_irdy_snd(intptr_t exinf)
 660:.\asp\syssvc/serial.c **** {
 1143              		.loc 1 660 0
 1144              		.cfi_startproc
 1145              		@ args = 0, pretend = 0, frame = 0
 1146              		@ frame_needed = 0, uses_anonymous_args = 0
 1147              	.LVL133:
ARM GAS  C:\TEMP\ccL5seZW.s 			page 35


 1148 0000 38B5     		push	{r3, r4, r5, lr}
 1149              	.LCFI8:
 1150              		.cfi_def_cfa_offset 16
 1151              		.cfi_offset 3, -16
 1152              		.cfi_offset 4, -12
 1153              		.cfi_offset 5, -8
 1154              		.cfi_offset 14, -4
 661:.\asp\syssvc/serial.c **** 	SPCB	*p_spcb;
 662:.\asp\syssvc/serial.c **** 
 663:.\asp\syssvc/serial.c **** 	p_spcb = (SPCB *) exinf;
 664:.\asp\syssvc/serial.c **** 	if (p_spcb->rcv_fc_chr != '\0') {
 1155              		.loc 1 664 0
 1156 0002 90F82010 		ldrb	r1, [r0, #32]	@ zero_extendqisi2
 660:.\asp\syssvc/serial.c **** {
 1157              		.loc 1 660 0
 1158 0006 0446     		mov	r4, r0
 1159              		.loc 1 664 0
 1160 0008 31B1     		cbz	r1, .L137
 665:.\asp\syssvc/serial.c **** 		/*
 666:.\asp\syssvc/serial.c **** 		 *  START/STOP を送信する．
 667:.\asp\syssvc/serial.c **** 		 */
 668:.\asp\syssvc/serial.c **** 		(void) sio_snd_chr(p_spcb->p_siopcb, p_spcb->rcv_fc_chr);
 1161              		.loc 1 668 0
 1162 000a 4068     		ldr	r0, [r0, #4]
 1163              	.LVL134:
 1164 000c FFF7FEFF 		bl	sio_snd_chr
 1165              	.LVL135:
 669:.\asp\syssvc/serial.c **** 		p_spcb->rcv_fc_chr = '\0';
 1166              		.loc 1 669 0
 1167 0010 0021     		movs	r1, #0
 1168 0012 84F82010 		strb	r1, [r4, #32]
 1169 0016 38BD     		pop	{r3, r4, r5, pc}
 1170              	.LVL136:
 1171              	.L137:
 670:.\asp\syssvc/serial.c **** 	}
 671:.\asp\syssvc/serial.c **** 	else if (!(p_spcb->snd_stopped) && p_spcb->snd_count > 0U) {
 1172              		.loc 1 671 0
 1173 0018 456B     		ldr	r5, [r0, #52]
 1174 001a F5B9     		cbnz	r5, .L139
 1175              		.loc 1 671 0 is_stmt 0 discriminator 1
 1176 001c 036B     		ldr	r3, [r0, #48]
 1177 001e E3B1     		cbz	r3, .L139
 672:.\asp\syssvc/serial.c **** 		/*
 673:.\asp\syssvc/serial.c **** 		 *  送信バッファ中から文字を取り出して送信する．
 674:.\asp\syssvc/serial.c **** 		 */
 675:.\asp\syssvc/serial.c **** 		(void) sio_snd_chr(p_spcb->p_siopcb,
 676:.\asp\syssvc/serial.c **** 					p_spcb->p_spinib->snd_buffer[p_spcb->snd_read_ptr]);
 1178              		.loc 1 676 0 is_stmt 1
 1179 0020 0068     		ldr	r0, [r0, #0]
 1180              	.LVL137:
 675:.\asp\syssvc/serial.c **** 		(void) sio_snd_chr(p_spcb->p_siopcb,
 1181              		.loc 1 675 0
 1182 0022 A16A     		ldr	r1, [r4, #40]
 1183 0024 4269     		ldr	r2, [r0, #20]
 1184 0026 6068     		ldr	r0, [r4, #4]
 1185 0028 515C     		ldrb	r1, [r2, r1]	@ zero_extendqisi2
 1186 002a FFF7FEFF 		bl	sio_snd_chr
ARM GAS  C:\TEMP\ccL5seZW.s 			page 36


 1187              	.LVL138:
 677:.\asp\syssvc/serial.c **** 		INC_PTR(p_spcb->snd_read_ptr, p_spcb->p_spinib->snd_bufsz);
 1188              		.loc 1 677 0
 1189 002e A36A     		ldr	r3, [r4, #40]
 678:.\asp\syssvc/serial.c **** 		if (p_spcb->snd_count == p_spcb->p_spinib->snd_bufsz) {
 1190              		.loc 1 678 0
 1191 0030 216B     		ldr	r1, [r4, #48]
 677:.\asp\syssvc/serial.c **** 		INC_PTR(p_spcb->snd_read_ptr, p_spcb->p_spinib->snd_bufsz);
 1192              		.loc 1 677 0
 1193 0032 581C     		adds	r0, r3, #1
 1194 0034 2368     		ldr	r3, [r4, #0]
 1195 0036 A062     		str	r0, [r4, #40]
 1196 0038 1A69     		ldr	r2, [r3, #16]
 1197 003a 9042     		cmp	r0, r2
 1198 003c 08BF     		it	eq
 1199 003e A562     		streq	r5, [r4, #40]
 1200              		.loc 1 678 0
 1201 0040 9142     		cmp	r1, r2
 1202 0042 06D1     		bne	.L142
 679:.\asp\syssvc/serial.c **** 			if (isig_sem(p_spcb->p_spinib->snd_semid) < 0) {
 1203              		.loc 1 679 0
 1204 0044 5868     		ldr	r0, [r3, #4]
 1205 0046 FFF7FEFF 		bl	isig_sem
 1206              	.LVL139:
 1207 004a 0028     		cmp	r0, #0
 1208 004c 01DA     		bge	.L142
 680:.\asp\syssvc/serial.c **** 				p_spcb->errorflag = true;
 1209              		.loc 1 680 0
 1210 004e 0120     		movs	r0, #1
 1211 0050 E060     		str	r0, [r4, #12]
 1212              	.L142:
 681:.\asp\syssvc/serial.c **** 			}
 682:.\asp\syssvc/serial.c **** 		}
 683:.\asp\syssvc/serial.c **** 		p_spcb->snd_count--;
 1213              		.loc 1 683 0
 1214 0052 236B     		ldr	r3, [r4, #48]
 1215 0054 5A1E     		subs	r2, r3, #1
 1216 0056 2263     		str	r2, [r4, #48]
 1217 0058 38BD     		pop	{r3, r4, r5, pc}
 1218              	.LVL140:
 1219              	.L139:
 684:.\asp\syssvc/serial.c **** 	}
 685:.\asp\syssvc/serial.c **** 	else {
 686:.\asp\syssvc/serial.c **** 		/*
 687:.\asp\syssvc/serial.c **** 		 *  送信すべき文字がない場合は，送信可能コールバックを禁止する．
 688:.\asp\syssvc/serial.c **** 		 */
 689:.\asp\syssvc/serial.c **** 		sio_dis_cbr(p_spcb->p_siopcb, SIO_RDY_SND);
 1220              		.loc 1 689 0
 1221 005a 6068     		ldr	r0, [r4, #4]
 1222              	.LVL141:
 1223 005c 0121     		movs	r1, #1
 690:.\asp\syssvc/serial.c **** 	}
 691:.\asp\syssvc/serial.c **** }
 1224              		.loc 1 691 0
 1225 005e BDE83840 		pop	{r3, r4, r5, lr}
 689:.\asp\syssvc/serial.c **** 		sio_dis_cbr(p_spcb->p_siopcb, SIO_RDY_SND);
 1226              		.loc 1 689 0
ARM GAS  C:\TEMP\ccL5seZW.s 			page 37


 1227 0062 FFF7FEBF 		b	sio_dis_cbr
 1228              	.LVL142:
 1229              		.cfi_endproc
 1230              	.LFE32:
 1231              		.size	sio_irdy_snd, .-sio_irdy_snd
 1232              		.section	.text.sio_irdy_rcv,"ax",%progbits
 1233              		.align	1
 1234              		.global	sio_irdy_rcv
 1235              		.thumb
 1236              		.thumb_func
 1237              		.type	sio_irdy_rcv, %function
 1238              	sio_irdy_rcv:
 1239              	.LFB33:
 692:.\asp\syssvc/serial.c **** 
 693:.\asp\syssvc/serial.c **** /*
 694:.\asp\syssvc/serial.c ****  *  シリアルポートからの受信通知コールバック
 695:.\asp\syssvc/serial.c ****  */
 696:.\asp\syssvc/serial.c **** void
 697:.\asp\syssvc/serial.c **** sio_irdy_rcv(intptr_t exinf)
 698:.\asp\syssvc/serial.c **** {
 1240              		.loc 1 698 0
 1241              		.cfi_startproc
 1242              		@ args = 0, pretend = 0, frame = 0
 1243              		@ frame_needed = 0, uses_anonymous_args = 0
 1244              	.LVL143:
 1245 0000 38B5     		push	{r3, r4, r5, lr}
 1246              	.LCFI9:
 1247              		.cfi_def_cfa_offset 16
 1248              		.cfi_offset 3, -16
 1249              		.cfi_offset 4, -12
 1250              		.cfi_offset 5, -8
 1251              		.cfi_offset 14, -4
 1252              		.loc 1 698 0
 1253 0002 0446     		mov	r4, r0
 699:.\asp\syssvc/serial.c **** 	SPCB	*p_spcb;
 700:.\asp\syssvc/serial.c **** 	char	c;
 701:.\asp\syssvc/serial.c **** 
 702:.\asp\syssvc/serial.c **** 	p_spcb = (SPCB *) exinf;
 703:.\asp\syssvc/serial.c **** 	c = (char) sio_rcv_chr(p_spcb->p_siopcb);
 1254              		.loc 1 703 0
 1255 0004 4068     		ldr	r0, [r0, #4]
 1256              	.LVL144:
 1257 0006 FFF7FEFF 		bl	sio_rcv_chr
 1258              	.LVL145:
 704:.\asp\syssvc/serial.c **** 	if ((p_spcb->ioctl & IOCTL_FCSND) != 0U && c == FC_STOP) {
 1259              		.loc 1 704 0
 1260 000a 2369     		ldr	r3, [r4, #16]
 703:.\asp\syssvc/serial.c **** 	c = (char) sio_rcv_chr(p_spcb->p_siopcb);
 1261              		.loc 1 703 0
 1262 000c C0B2     		uxtb	r0, r0
 1263              	.LVL146:
 1264              		.loc 1 704 0
 1265 000e 13F48071 		ands	r1, r3, #256
 1266 0012 04D0     		beq	.L148
 1267              		.loc 1 704 0 is_stmt 0 discriminator 1
 1268 0014 1328     		cmp	r0, #19
 1269 0016 02D1     		bne	.L148
ARM GAS  C:\TEMP\ccL5seZW.s 			page 38


 705:.\asp\syssvc/serial.c **** 		/*
 706:.\asp\syssvc/serial.c **** 		 *  送信を一時停止する．送信中の文字はそのまま送信する．
 707:.\asp\syssvc/serial.c **** 		 */
 708:.\asp\syssvc/serial.c **** 		p_spcb->snd_stopped = true;
 1270              		.loc 1 708 0 is_stmt 1
 1271 0018 0120     		movs	r0, #1
 1272              	.LVL147:
 1273 001a 6063     		str	r0, [r4, #52]
 1274 001c 38BD     		pop	{r3, r4, r5, pc}
 1275              	.LVL148:
 1276              	.L148:
 709:.\asp\syssvc/serial.c **** 	}
 710:.\asp\syssvc/serial.c **** 	else if (p_spcb->snd_stopped && (c == FC_START
 1277              		.loc 1 710 0
 1278 001e 626B     		ldr	r2, [r4, #52]
 1279 0020 002A     		cmp	r2, #0
 1280 0022 27D0     		beq	.L150
 1281              		.loc 1 710 0 is_stmt 0 discriminator 1
 1282 0024 1128     		cmp	r0, #17
 1283 0026 01D0     		beq	.L151
 711:.\asp\syssvc/serial.c **** 				|| (p_spcb->ioctl & IOCTL_FCANY) != 0U)) {
 1284              		.loc 1 711 0 is_stmt 1
 1285 0028 9B05     		lsls	r3, r3, #22
 1286 002a 26D5     		bpl	.L152
 1287              	.L151:
 712:.\asp\syssvc/serial.c **** 		/*
 713:.\asp\syssvc/serial.c **** 		 *  送信を再開する．
 714:.\asp\syssvc/serial.c **** 		 */
 715:.\asp\syssvc/serial.c **** 		p_spcb->snd_stopped = false;
 716:.\asp\syssvc/serial.c **** 		if (p_spcb->snd_count > 0U) {
 1288              		.loc 1 716 0
 1289 002c 206B     		ldr	r0, [r4, #48]
 1290              	.LVL149:
 715:.\asp\syssvc/serial.c **** 		p_spcb->snd_stopped = false;
 1291              		.loc 1 715 0
 1292 002e 0025     		movs	r5, #0
 1293 0030 6563     		str	r5, [r4, #52]
 1294              		.loc 1 716 0
 1295 0032 0028     		cmp	r0, #0
 1296 0034 54D0     		beq	.L147
 1297              	.LVL150:
 717:.\asp\syssvc/serial.c **** 			c = p_spcb->p_spinib->snd_buffer[p_spcb->snd_read_ptr];
 1298              		.loc 1 717 0
 1299 0036 2268     		ldr	r2, [r4, #0]
 1300 0038 A36A     		ldr	r3, [r4, #40]
 1301 003a 5169     		ldr	r1, [r2, #20]
 718:.\asp\syssvc/serial.c **** 			if (serial_snd_chr(p_spcb, c)) {
 1302              		.loc 1 718 0
 1303 003c 2046     		mov	r0, r4
 1304 003e C95C     		ldrb	r1, [r1, r3]	@ zero_extendqisi2
 1305 0040 FFF7FEFF 		bl	serial_snd_chr
 1306              	.LVL151:
 1307 0044 0028     		cmp	r0, #0
 1308 0046 4BD0     		beq	.L147
 719:.\asp\syssvc/serial.c **** 				INC_PTR(p_spcb->snd_read_ptr, p_spcb->p_spinib->snd_bufsz);
 1309              		.loc 1 719 0
 1310 0048 2368     		ldr	r3, [r4, #0]
ARM GAS  C:\TEMP\ccL5seZW.s 			page 39


 1311 004a A06A     		ldr	r0, [r4, #40]
 1312 004c 1A69     		ldr	r2, [r3, #16]
 1313 004e 411C     		adds	r1, r0, #1
 720:.\asp\syssvc/serial.c **** 				if (p_spcb->snd_count == p_spcb->p_spinib->snd_bufsz) {
 1314              		.loc 1 720 0
 1315 0050 206B     		ldr	r0, [r4, #48]
 719:.\asp\syssvc/serial.c **** 				INC_PTR(p_spcb->snd_read_ptr, p_spcb->p_spinib->snd_bufsz);
 1316              		.loc 1 719 0
 1317 0052 9142     		cmp	r1, r2
 1318 0054 A162     		str	r1, [r4, #40]
 1319 0056 08BF     		it	eq
 1320 0058 A562     		streq	r5, [r4, #40]
 1321              		.loc 1 720 0
 1322 005a 9042     		cmp	r0, r2
 1323 005c 06D1     		bne	.L157
 721:.\asp\syssvc/serial.c **** 					if (isig_sem(p_spcb->p_spinib->snd_semid) < 0) {
 1324              		.loc 1 721 0
 1325 005e 5868     		ldr	r0, [r3, #4]
 1326 0060 FFF7FEFF 		bl	isig_sem
 1327              	.LVL152:
 1328 0064 0028     		cmp	r0, #0
 1329 0066 01DA     		bge	.L157
 722:.\asp\syssvc/serial.c **** 						p_spcb->errorflag = true;
 1330              		.loc 1 722 0
 1331 0068 0121     		movs	r1, #1
 1332 006a E160     		str	r1, [r4, #12]
 1333              	.L157:
 723:.\asp\syssvc/serial.c **** 					}
 724:.\asp\syssvc/serial.c **** 				}
 725:.\asp\syssvc/serial.c **** 				p_spcb->snd_count--;
 1334              		.loc 1 725 0
 1335 006c 236B     		ldr	r3, [r4, #48]
 1336 006e 5A1E     		subs	r2, r3, #1
 1337 0070 2263     		str	r2, [r4, #48]
 1338 0072 38BD     		pop	{r3, r4, r5, pc}
 1339              	.LVL153:
 1340              	.L150:
 726:.\asp\syssvc/serial.c **** 			}
 727:.\asp\syssvc/serial.c **** 		}
 728:.\asp\syssvc/serial.c **** 	}
 729:.\asp\syssvc/serial.c **** 	else if ((p_spcb->ioctl & IOCTL_FCSND) != 0U && c == FC_START) {
 1341              		.loc 1 729 0
 1342 0074 09B1     		cbz	r1, .L152
 1343              		.loc 1 729 0 is_stmt 0 discriminator 1
 1344 0076 1128     		cmp	r0, #17
 1345 0078 32D0     		beq	.L147
 1346              	.L152:
 730:.\asp\syssvc/serial.c **** 		/*
 731:.\asp\syssvc/serial.c **** 		 *  送信に対してフロー制御している場合，START は捨てる．
 732:.\asp\syssvc/serial.c **** 		 */
 733:.\asp\syssvc/serial.c **** 	}
 734:.\asp\syssvc/serial.c **** 	else if (p_spcb->rcv_count == p_spcb->p_spinib->rcv_bufsz) {
 1347              		.loc 1 734 0 is_stmt 1
 1348 007a 2368     		ldr	r3, [r4, #0]
 1349 007c E169     		ldr	r1, [r4, #28]
 1350 007e 9A68     		ldr	r2, [r3, #8]
 1351 0080 9142     		cmp	r1, r2
ARM GAS  C:\TEMP\ccL5seZW.s 			page 40


 1352 0082 2DD0     		beq	.L147
 735:.\asp\syssvc/serial.c **** 		/*
 736:.\asp\syssvc/serial.c **** 		 *  バッファフルの場合，受信した文字を捨てる．
 737:.\asp\syssvc/serial.c **** 		 */
 738:.\asp\syssvc/serial.c **** 	}
 739:.\asp\syssvc/serial.c **** 	else {
 740:.\asp\syssvc/serial.c **** 		/*
 741:.\asp\syssvc/serial.c **** 		 *  受信した文字を受信バッファに入れる．
 742:.\asp\syssvc/serial.c **** 		 */
 743:.\asp\syssvc/serial.c **** 		p_spcb->p_spinib->rcv_buffer[p_spcb->rcv_write_ptr] = c;
 1353              		.loc 1 743 0
 1354 0084 D968     		ldr	r1, [r3, #12]
 1355 0086 A369     		ldr	r3, [r4, #24]
 1356 0088 C854     		strb	r0, [r1, r3]
 744:.\asp\syssvc/serial.c **** 		INC_PTR(p_spcb->rcv_write_ptr, p_spcb->p_spinib->rcv_bufsz);
 1357              		.loc 1 744 0
 1358 008a 2368     		ldr	r3, [r4, #0]
 1359 008c A069     		ldr	r0, [r4, #24]
 1360              	.LVL154:
 1361 008e 9968     		ldr	r1, [r3, #8]
 1362 0090 421C     		adds	r2, r0, #1
 1363 0092 8A42     		cmp	r2, r1
 1364 0094 A261     		str	r2, [r4, #24]
 1365 0096 01D1     		bne	.L159
 1366              		.loc 1 744 0 is_stmt 0 discriminator 1
 1367 0098 0020     		movs	r0, #0
 1368 009a A061     		str	r0, [r4, #24]
 1369              	.L159:
 745:.\asp\syssvc/serial.c **** 		if (p_spcb->rcv_count == 0U) {
 1370              		.loc 1 745 0 is_stmt 1
 1371 009c E269     		ldr	r2, [r4, #28]
 1372 009e 32B9     		cbnz	r2, .L161
 746:.\asp\syssvc/serial.c **** 			if (isig_sem(p_spcb->p_spinib->rcv_semid) < 0) {
 1373              		.loc 1 746 0
 1374 00a0 1868     		ldr	r0, [r3, #0]
 1375 00a2 FFF7FEFF 		bl	isig_sem
 1376              	.LVL155:
 1377 00a6 0028     		cmp	r0, #0
 1378 00a8 01DA     		bge	.L161
 747:.\asp\syssvc/serial.c **** 				p_spcb->errorflag = true;
 1379              		.loc 1 747 0
 1380 00aa 0123     		movs	r3, #1
 1381 00ac E360     		str	r3, [r4, #12]
 1382              	.L161:
 748:.\asp\syssvc/serial.c **** 			}
 749:.\asp\syssvc/serial.c **** 		}
 750:.\asp\syssvc/serial.c **** 		p_spcb->rcv_count++;
 1383              		.loc 1 750 0
 1384 00ae E169     		ldr	r1, [r4, #28]
 751:.\asp\syssvc/serial.c **** 
 752:.\asp\syssvc/serial.c **** 		/*
 753:.\asp\syssvc/serial.c **** 		 *  STOPを送信する．
 754:.\asp\syssvc/serial.c **** 		 */
 755:.\asp\syssvc/serial.c **** 		if ((p_spcb->ioctl & IOCTL_FCRCV) != 0U && !(p_spcb->rcv_stopped)
 1385              		.loc 1 755 0
 1386 00b0 2069     		ldr	r0, [r4, #16]
 750:.\asp\syssvc/serial.c **** 		p_spcb->rcv_count++;
ARM GAS  C:\TEMP\ccL5seZW.s 			page 41


 1387              		.loc 1 750 0
 1388 00b2 4B1C     		adds	r3, r1, #1
 1389              		.loc 1 755 0
 1390 00b4 4005     		lsls	r0, r0, #21
 750:.\asp\syssvc/serial.c **** 		p_spcb->rcv_count++;
 1391              		.loc 1 750 0
 1392 00b6 E361     		str	r3, [r4, #28]
 1393              		.loc 1 755 0
 1394 00b8 12D5     		bpl	.L147
 1395              		.loc 1 755 0 is_stmt 0 discriminator 1
 1396 00ba 626A     		ldr	r2, [r4, #36]
 1397 00bc 82B9     		cbnz	r2, .L147
 756:.\asp\syssvc/serial.c **** 						&& p_spcb->rcv_count
 757:.\asp\syssvc/serial.c **** 							>= BUFCNT_STOP(p_spcb->p_spinib->rcv_bufsz)) {
 1398              		.loc 1 757 0 is_stmt 1
 1399 00be 2168     		ldr	r1, [r4, #0]
 1400 00c0 0322     		movs	r2, #3
 1401 00c2 8868     		ldr	r0, [r1, #8]
 1402 00c4 5043     		muls	r0, r2, r0
 756:.\asp\syssvc/serial.c **** 						&& p_spcb->rcv_count
 1403              		.loc 1 756 0
 1404 00c6 B3EB900F 		cmp	r3, r0, lsr #2
 1405 00ca 09D3     		bcc	.L147
 758:.\asp\syssvc/serial.c **** 			if (!serial_snd_chr(p_spcb, FC_STOP)) {
 1406              		.loc 1 758 0
 1407 00cc 2046     		mov	r0, r4
 1408 00ce 1321     		movs	r1, #19
 1409 00d0 FFF7FEFF 		bl	serial_snd_chr
 1410              	.LVL156:
 1411 00d4 10B9     		cbnz	r0, .L163
 759:.\asp\syssvc/serial.c **** 				p_spcb->rcv_fc_chr = FC_STOP;
 1412              		.loc 1 759 0
 1413 00d6 1323     		movs	r3, #19
 1414 00d8 84F82030 		strb	r3, [r4, #32]
 1415              	.L163:
 760:.\asp\syssvc/serial.c **** 			}
 761:.\asp\syssvc/serial.c **** 			p_spcb->rcv_stopped = true;
 1416              		.loc 1 761 0
 1417 00dc 0121     		movs	r1, #1
 1418 00de 6162     		str	r1, [r4, #36]
 1419              	.L147:
 1420 00e0 38BD     		pop	{r3, r4, r5, pc}
 1421              		.cfi_endproc
 1422              	.LFE33:
 1423              		.size	sio_irdy_rcv, .-sio_irdy_rcv
 1424              		.section	.text.serial_get_chr,"ax",%progbits
 1425              		.align	1
 1426              		.global	serial_get_chr
 1427              		.thumb
 1428              		.thumb_func
 1429              		.type	serial_get_chr, %function
 1430              	serial_get_chr:
 1431              	.LFB34:
 762:.\asp\syssvc/serial.c **** 		}
 763:.\asp\syssvc/serial.c **** 	}
 764:.\asp\syssvc/serial.c **** }
 765:.\asp\syssvc/serial.c **** 
ARM GAS  C:\TEMP\ccL5seZW.s 			page 42


 766:.\asp\syssvc/serial.c **** /*
 767:.\asp\syssvc/serial.c ****  *  シリアルインタフェースドライバからの未送信文字の取出し
 768:.\asp\syssvc/serial.c ****  */
 769:.\asp\syssvc/serial.c **** bool_t
 770:.\asp\syssvc/serial.c **** serial_get_chr(ID portid, char *p_c)
 771:.\asp\syssvc/serial.c **** {
 1432              		.loc 1 771 0
 1433              		.cfi_startproc
 1434              		@ args = 0, pretend = 0, frame = 0
 1435              		@ frame_needed = 0, uses_anonymous_args = 0
 1436              		@ link register save eliminated.
 1437              	.LVL157:
 772:.\asp\syssvc/serial.c **** 	SPCB	*p_spcb;
 773:.\asp\syssvc/serial.c **** 
 774:.\asp\syssvc/serial.c **** 	if (1 <= portid && portid <= TNUM_PORT) {	/* ポート番号のチェック */
 1438              		.loc 1 774 0
 1439 0000 0128     		cmp	r0, #1
 1440 0002 18D1     		bne	.L188
 1441              	.LVL158:
 775:.\asp\syssvc/serial.c **** 		p_spcb = get_spcb(portid);
 776:.\asp\syssvc/serial.c **** 		if (p_spcb->openflag) {					/* オープン済みかのチェック */
 1442              		.loc 1 776 0
 1443 0004 0D4B     		ldr	r3, .L191
 1444 0006 9868     		ldr	r0, [r3, #8]
 1445              	.LVL159:
 1446 0008 B0B1     		cbz	r0, .L186
 777:.\asp\syssvc/serial.c **** 			if (p_spcb->snd_count > 0U) {
 1447              		.loc 1 777 0
 1448 000a 186B     		ldr	r0, [r3, #48]
 1449 000c A0B1     		cbz	r0, .L186
 778:.\asp\syssvc/serial.c **** 				*p_c = p_spcb->p_spinib->snd_buffer[p_spcb->snd_read_ptr];
 1450              		.loc 1 778 0
 1451 000e 1A68     		ldr	r2, [r3, #0]
 1452 0010 5069     		ldr	r0, [r2, #20]
 1453 0012 9A6A     		ldr	r2, [r3, #40]
 1454 0014 805C     		ldrb	r0, [r0, r2]	@ zero_extendqisi2
 1455 0016 0870     		strb	r0, [r1, #0]
 779:.\asp\syssvc/serial.c **** 				INC_PTR(p_spcb->snd_read_ptr, p_spcb->p_spinib->snd_bufsz);
 1456              		.loc 1 779 0
 1457 0018 996A     		ldr	r1, [r3, #40]
 1458              	.LVL160:
 1459 001a 1868     		ldr	r0, [r3, #0]
 1460 001c 4A1C     		adds	r2, r1, #1
 1461 001e 9A62     		str	r2, [r3, #40]
 1462 0020 0169     		ldr	r1, [r0, #16]
 1463 0022 8A42     		cmp	r2, r1
 1464 0024 01D1     		bne	.L187
 1465              		.loc 1 779 0 is_stmt 0 discriminator 1
 1466 0026 0022     		movs	r2, #0
 1467 0028 9A62     		str	r2, [r3, #40]
 1468              	.L187:
 780:.\asp\syssvc/serial.c **** 				p_spcb->snd_count--;
 1469              		.loc 1 780 0 is_stmt 1
 1470 002a 044B     		ldr	r3, .L191
 1471 002c 186B     		ldr	r0, [r3, #48]
 1472 002e 411E     		subs	r1, r0, #1
 1473 0030 1963     		str	r1, [r3, #48]
ARM GAS  C:\TEMP\ccL5seZW.s 			page 43


 781:.\asp\syssvc/serial.c **** 				return(true);
 1474              		.loc 1 781 0
 1475 0032 0120     		movs	r0, #1
 1476 0034 7047     		bx	lr
 1477              	.LVL161:
 1478              	.L188:
 782:.\asp\syssvc/serial.c **** 			}
 783:.\asp\syssvc/serial.c **** 		}
 784:.\asp\syssvc/serial.c **** 	}
 785:.\asp\syssvc/serial.c **** 	return(false);
 1479              		.loc 1 785 0
 1480 0036 0020     		movs	r0, #0
 1481              	.LVL162:
 1482              	.L186:
 786:.\asp\syssvc/serial.c **** }
 1483              		.loc 1 786 0
 1484 0038 7047     		bx	lr
 1485              	.L192:
 1486 003a 00BF     		.align	2
 1487              	.L191:
 1488 003c 00000000 		.word	.LANCHOR0
 1489              		.cfi_endproc
 1490              	.LFE34:
 1491              		.size	serial_get_chr, .-serial_get_chr
 1492              		.section	.rodata
 1493              		.align	2
 1494              		.set	.LANCHOR1,. + 0
 1495              		.type	spinib_table, %object
 1496              		.size	spinib_table, 24
 1497              	spinib_table:
 1498 0000 01000000 		.word	1
 1499 0004 02000000 		.word	2
 1500 0008 00010000 		.word	256
 1501 000c 38000000 		.word	rcv_buffer1
 1502 0010 00010000 		.word	256
 1503 0014 38010000 		.word	snd_buffer1
 1504              		.bss
 1505              		.align	2
 1506              		.set	.LANCHOR0,. + 0
 1507              		.type	spcb_table, %object
 1508              		.size	spcb_table, 56
 1509              	spcb_table:
 1510 0000 00000000 		.space	56
 1510      00000000 
 1510      00000000 
 1510      00000000 
 1510      00000000 
 1511              		.type	rcv_buffer1, %object
 1512              		.size	rcv_buffer1, 256
 1513              	rcv_buffer1:
 1514 0038 00000000 		.space	256
 1514      00000000 
 1514      00000000 
 1514      00000000 
 1514      00000000 
 1515              		.type	snd_buffer1, %object
 1516              		.size	snd_buffer1, 256
ARM GAS  C:\TEMP\ccL5seZW.s 			page 44


 1517              	snd_buffer1:
 1518 0138 00000000 		.space	256
 1518      00000000 
 1518      00000000 
 1518      00000000 
 1518      00000000 
 1519              		.text
 1520              	.Letext0:
 1521              		.file 2 ".\\asp\\arch\\gcc/tool_stddef.h"
 1522              		.file 3 ".\\asp\\include/t_stddef.h"
 1523              		.file 4 ".\\asp\\target\\cy8ckit050_gcc/target_serial.h"
 1524              		.file 5 ".\\asp\\syssvc\\serial.h"
 1525              		.file 6 ".\\asp\\include/kernel.h"