ARM GAS  C:\TEMP\ccU7Oorc.s 			page 1


   1              		.syntax unified
   2              		.cpu cortex-m3
   3              		.fpu softvfp
   4              		.eabi_attribute 20, 1
   5              		.eabi_attribute 21, 1
   6              		.eabi_attribute 23, 3
   7              		.eabi_attribute 24, 1
   8              		.eabi_attribute 25, 1
   9              		.eabi_attribute 26, 1
  10              		.eabi_attribute 30, 4
  11              		.eabi_attribute 34, 1
  12              		.eabi_attribute 18, 4
  13              		.thumb
  14              		.file	"startup.c"
  15              		.text
  16              	.Ltext0:
  17              		.cfi_sections	.debug_frame
  18              		.section	.text.sta_ker,"ax",%progbits
  19              		.align	1
  20              		.global	sta_ker
  21              		.thumb
  22              		.thumb_func
  23              		.type	sta_ker, %function
  24              	sta_ker:
  25              	.LFB47:
  26              		.file 1 ".\\asp\\kernel\\startup.c"
   1:.\asp\kernel/startup.c **** /*
   2:.\asp\kernel/startup.c ****  *  TOPPERS/ASP Kernel
   3:.\asp\kernel/startup.c ****  *      Toyohashi Open Platform for Embedded Real-Time Systems/
   4:.\asp\kernel/startup.c ****  *      Advanced Standard Profile Kernel
   5:.\asp\kernel/startup.c ****  * 
   6:.\asp\kernel/startup.c ****  *  Copyright (C) 2000-2003 by Embedded and Real-Time Systems Laboratory
   7:.\asp\kernel/startup.c ****  *                              Toyohashi Univ. of Technology, JAPAN
   8:.\asp\kernel/startup.c ****  *  Copyright (C) 2005-2009 by Embedded and Real-Time Systems Laboratory
   9:.\asp\kernel/startup.c ****  *              Graduate School of Information Science, Nagoya Univ., JAPAN
  10:.\asp\kernel/startup.c ****  * 
  11:.\asp\kernel/startup.c ****  *  上記著作権者は，以下の(1)〜(4)の条件を満たす場合に限り，本ソフトウェ
  12:.\asp\kernel/startup.c ****  *  ア（本ソフトウェアを改変したものを含む．以下同じ）を使用・複製・改
  13:.\asp\kernel/startup.c ****  *  変・再配布（以下，利用と呼ぶ）することを無償で許諾する．
  14:.\asp\kernel/startup.c ****  *  (1) 本ソフトウェアをソースコードの形で利用する場合には，上記の著作
  15:.\asp\kernel/startup.c ****  *      権表示，この利用条件および下記の無保証規定が，そのままの形でソー
  16:.\asp\kernel/startup.c ****  *      スコード中に含まれていること．
  17:.\asp\kernel/startup.c ****  *  (2) 本ソフトウェアを，ライブラリ形式など，他のソフトウェア開発に使
  18:.\asp\kernel/startup.c ****  *      用できる形で再配布する場合には，再配布に伴うドキュメント（利用
  19:.\asp\kernel/startup.c ****  *      者マニュアルなど）に，上記の著作権表示，この利用条件および下記
  20:.\asp\kernel/startup.c ****  *      の無保証規定を掲載すること．
  21:.\asp\kernel/startup.c ****  *  (3) 本ソフトウェアを，機器に組み込むなど，他のソフトウェア開発に使
  22:.\asp\kernel/startup.c ****  *      用できない形で再配布する場合には，次のいずれかの条件を満たすこ
  23:.\asp\kernel/startup.c ****  *      と．
  24:.\asp\kernel/startup.c ****  *    (a) 再配布に伴うドキュメント（利用者マニュアルなど）に，上記の著
  25:.\asp\kernel/startup.c ****  *        作権表示，この利用条件および下記の無保証規定を掲載すること．
  26:.\asp\kernel/startup.c ****  *    (b) 再配布の形態を，別に定める方法によって，TOPPERSプロジェクトに
  27:.\asp\kernel/startup.c ****  *        報告すること．
  28:.\asp\kernel/startup.c ****  *  (4) 本ソフトウェアの利用により直接的または間接的に生じるいかなる損
  29:.\asp\kernel/startup.c ****  *      害からも，上記著作権者およびTOPPERSプロジェクトを免責すること．
  30:.\asp\kernel/startup.c ****  *      また，本ソフトウェアのユーザまたはエンドユーザからのいかなる理
  31:.\asp\kernel/startup.c ****  *      由に基づく請求からも，上記著作権者およびTOPPERSプロジェクトを
ARM GAS  C:\TEMP\ccU7Oorc.s 			page 2


  32:.\asp\kernel/startup.c ****  *      免責すること．
  33:.\asp\kernel/startup.c ****  * 
  34:.\asp\kernel/startup.c ****  *  本ソフトウェアは，無保証で提供されているものである．上記著作権者お
  35:.\asp\kernel/startup.c ****  *  よびTOPPERSプロジェクトは，本ソフトウェアに関して，特定の使用目的
  36:.\asp\kernel/startup.c ****  *  に対する適合性も含めて，いかなる保証も行わない．また，本ソフトウェ
  37:.\asp\kernel/startup.c ****  *  アの利用により直接的または間接的に生じたいかなる損害に関しても，そ
  38:.\asp\kernel/startup.c ****  *  の責任を負わない．
  39:.\asp\kernel/startup.c ****  * 
  40:.\asp\kernel/startup.c ****  *  @(#) $Id: startup.c 2067 2011-05-05 00:46:29Z ertl-hiro $
  41:.\asp\kernel/startup.c ****  */
  42:.\asp\kernel/startup.c **** 
  43:.\asp\kernel/startup.c **** /*
  44:.\asp\kernel/startup.c ****  *		カーネルの初期化と終了処理
  45:.\asp\kernel/startup.c ****  */
  46:.\asp\kernel/startup.c **** 
  47:.\asp\kernel/startup.c **** #include "kernel_impl.h"
  48:.\asp\kernel/startup.c **** #include "time_event.h"
  49:.\asp\kernel/startup.c **** #include <sil.h>
  50:.\asp\kernel/startup.c **** 
  51:.\asp\kernel/startup.c **** /*
  52:.\asp\kernel/startup.c ****  *  トレースログマクロのデフォルト定義
  53:.\asp\kernel/startup.c ****  */
  54:.\asp\kernel/startup.c **** #ifndef LOG_KER_ENTER
  55:.\asp\kernel/startup.c **** #define LOG_KER_ENTER()
  56:.\asp\kernel/startup.c **** #endif /* LOG_KER_ENTER */
  57:.\asp\kernel/startup.c **** 
  58:.\asp\kernel/startup.c **** #ifndef LOG_KER_LEAVE
  59:.\asp\kernel/startup.c **** #define LOG_KER_LEAVE()
  60:.\asp\kernel/startup.c **** #endif /* LOG_KER_LEAVE */
  61:.\asp\kernel/startup.c **** 
  62:.\asp\kernel/startup.c **** #ifndef LOG_EXT_KER_ENTER
  63:.\asp\kernel/startup.c **** #define LOG_EXT_KER_ENTER()
  64:.\asp\kernel/startup.c **** #endif /* LOG_EXT_KER_ENTER */
  65:.\asp\kernel/startup.c **** 
  66:.\asp\kernel/startup.c **** #ifndef LOG_EXT_KER_LEAVE
  67:.\asp\kernel/startup.c **** #define LOG_EXT_KER_LEAVE(ercd)
  68:.\asp\kernel/startup.c **** #endif /* LOG_EXT_KER_LEAVE */
  69:.\asp\kernel/startup.c **** 
  70:.\asp\kernel/startup.c **** #ifdef TOPPERS_sta_ker
  71:.\asp\kernel/startup.c **** 
  72:.\asp\kernel/startup.c **** /*
  73:.\asp\kernel/startup.c ****  *  カーネル動作状態フラグ
  74:.\asp\kernel/startup.c ****  *
  75:.\asp\kernel/startup.c ****  *  スタートアップルーチンで，false（＝0）に初期化されることを期待して
  76:.\asp\kernel/startup.c ****  *  いる．
  77:.\asp\kernel/startup.c ****  */
  78:.\asp\kernel/startup.c **** bool_t	kerflg = false;
  79:.\asp\kernel/startup.c **** 
  80:.\asp\kernel/startup.c **** /*
  81:.\asp\kernel/startup.c ****  *  カーネルの起動
  82:.\asp\kernel/startup.c ****  */
  83:.\asp\kernel/startup.c **** void
  84:.\asp\kernel/startup.c **** sta_ker(void)
  85:.\asp\kernel/startup.c **** {
  27              		.loc 1 85 0
  28              		.cfi_startproc
  29              		@ Volatile: function does not return.
ARM GAS  C:\TEMP\ccU7Oorc.s 			page 3


  30              		@ args = 0, pretend = 0, frame = 0
  31              		@ frame_needed = 0, uses_anonymous_args = 0
  32 0000 08B5     		push	{r3, lr}
  33              	.LCFI0:
  34              		.cfi_def_cfa_offset 8
  35              		.cfi_offset 3, -8
  36              		.cfi_offset 14, -4
  86:.\asp\kernel/startup.c **** 	/*
  87:.\asp\kernel/startup.c **** 	 *  ターゲット依存の初期化
  88:.\asp\kernel/startup.c **** 	 */
  89:.\asp\kernel/startup.c **** 	target_initialize();
  37              		.loc 1 89 0
  38 0002 FFF7FEFF 		bl	_kernel_target_initialize
  39              	.LVL0:
  90:.\asp\kernel/startup.c **** 
  91:.\asp\kernel/startup.c **** 	/*
  92:.\asp\kernel/startup.c **** 	 *  各モジュールの初期化
  93:.\asp\kernel/startup.c **** 	 *
  94:.\asp\kernel/startup.c **** 	 *  タイムイベント管理モジュールは他のモジュールより先に初期化
  95:.\asp\kernel/startup.c **** 	 *  する必要がある．
  96:.\asp\kernel/startup.c **** 	 */
  97:.\asp\kernel/startup.c **** 	initialize_tmevt();
  40              		.loc 1 97 0
  41 0006 FFF7FEFF 		bl	_kernel_initialize_tmevt
  42              	.LVL1:
  98:.\asp\kernel/startup.c **** 	initialize_object();
  43              		.loc 1 98 0
  44 000a FFF7FEFF 		bl	_kernel_initialize_object
  45              	.LVL2:
  99:.\asp\kernel/startup.c **** 
 100:.\asp\kernel/startup.c **** 	/*
 101:.\asp\kernel/startup.c **** 	 *  初期化ルーチンの実行
 102:.\asp\kernel/startup.c **** 	 */ 
 103:.\asp\kernel/startup.c **** 	call_inirtn();
  46              		.loc 1 103 0
  47 000e FFF7FEFF 		bl	_kernel_call_inirtn
  48              	.LVL3:
 104:.\asp\kernel/startup.c **** 
 105:.\asp\kernel/startup.c **** 	/*
 106:.\asp\kernel/startup.c **** 	 *  カーネル動作の開始
 107:.\asp\kernel/startup.c **** 	 */
 108:.\asp\kernel/startup.c **** 	kerflg = true;
  49              		.loc 1 108 0
  50 0012 024B     		ldr	r3, .L2
  51 0014 0122     		movs	r2, #1
  52 0016 1A60     		str	r2, [r3, #0]
 109:.\asp\kernel/startup.c **** 	LOG_KER_ENTER();
 110:.\asp\kernel/startup.c **** 	start_dispatch();
  53              		.loc 1 110 0
  54 0018 FFF7FEFF 		bl	_kernel_start_dispatch
  55              	.LVL4:
  56              	.L3:
  57              		.align	2
  58              	.L2:
  59 001c 00000000 		.word	.LANCHOR0
  60              		.cfi_endproc
  61              	.LFE47:
ARM GAS  C:\TEMP\ccU7Oorc.s 			page 4


  62              		.size	sta_ker, .-sta_ker
  63              		.section	.text.ext_ker,"ax",%progbits
  64              		.align	1
  65              		.global	ext_ker
  66              		.thumb
  67              		.thumb_func
  68              		.type	ext_ker, %function
  69              	ext_ker:
  70              	.LFB48:
 111:.\asp\kernel/startup.c **** 	assert(0);
 112:.\asp\kernel/startup.c **** }
 113:.\asp\kernel/startup.c **** 
 114:.\asp\kernel/startup.c **** #endif /* TOPPERS_sta_ker */
 115:.\asp\kernel/startup.c **** 
 116:.\asp\kernel/startup.c **** /*
 117:.\asp\kernel/startup.c ****  *  カーネルの終了
 118:.\asp\kernel/startup.c ****  */
 119:.\asp\kernel/startup.c **** #ifdef TOPPERS_ext_ker
 120:.\asp\kernel/startup.c **** 
 121:.\asp\kernel/startup.c **** ER
 122:.\asp\kernel/startup.c **** ext_ker(void)
 123:.\asp\kernel/startup.c **** {
  71              		.loc 1 123 0
  72              		.cfi_startproc
  73              		@ args = 0, pretend = 0, frame = 0
  74              		@ frame_needed = 0, uses_anonymous_args = 0
  75 0000 08B5     		push	{r3, lr}
  76              	.LCFI1:
  77              		.cfi_def_cfa_offset 8
  78              		.cfi_offset 3, -8
  79              		.cfi_offset 14, -4
  80              	.LBB4:
  81              	.LBB5:
  82              		.file 2 ".\\asp\\arch\\arm_m_gcc\\common/core_sil.h"
   1:.\asp\arch\arm_m_gcc\common/core_sil.h **** /*
   2:.\asp\arch\arm_m_gcc\common/core_sil.h ****  *  TOPPERS Software
   3:.\asp\arch\arm_m_gcc\common/core_sil.h ****  *      Toyohashi Open Platform for Embedded Real-Time Systems
   4:.\asp\arch\arm_m_gcc\common/core_sil.h ****  * 
   5:.\asp\arch\arm_m_gcc\common/core_sil.h ****  *  Copyright (C) 2008-2011 by Embedded and Real-Time Systems Laboratory
   6:.\asp\arch\arm_m_gcc\common/core_sil.h ****  *              Graduate School of Information Science, Nagoya Univ., JAPAN
   7:.\asp\arch\arm_m_gcc\common/core_sil.h ****  * 
   8:.\asp\arch\arm_m_gcc\common/core_sil.h ****  *  上記著作権者は，以下の(1)〜(4)の条件を満たす場合に限り，本ソフトウェ
   9:.\asp\arch\arm_m_gcc\common/core_sil.h ****  *  ア（本ソフトウェアを改変したものを含む．以下同じ）を使用・複製・改
  10:.\asp\arch\arm_m_gcc\common/core_sil.h ****  *  変・再配布（以下，利用と呼ぶ）することを無償で許諾する．
  11:.\asp\arch\arm_m_gcc\common/core_sil.h ****  *  (1) 本ソフトウェアをソースコードの形で利用する場合には，上記の著作
  12:.\asp\arch\arm_m_gcc\common/core_sil.h ****  *      権表示，この利用条件および下記の無保証規定が，そのままの形でソー
  13:.\asp\arch\arm_m_gcc\common/core_sil.h ****  *      スコード中に含まれていること．
  14:.\asp\arch\arm_m_gcc\common/core_sil.h ****  *  (2) 本ソフトウェアを，ライブラリ形式など，他のソフトウェア開発に使
  15:.\asp\arch\arm_m_gcc\common/core_sil.h ****  *      用できる形で再配布する場合には，再配布に伴うドキュメント（利用
  16:.\asp\arch\arm_m_gcc\common/core_sil.h ****  *      者マニュアルなど）に，上記の著作権表示，この利用条件および下記
  17:.\asp\arch\arm_m_gcc\common/core_sil.h ****  *      の無保証規定を掲載すること．
  18:.\asp\arch\arm_m_gcc\common/core_sil.h ****  *  (3) 本ソフトウェアを，機器に組み込むなど，他のソフトウェア開発に使
  19:.\asp\arch\arm_m_gcc\common/core_sil.h ****  *      用できない形で再配布する場合には，次のいずれかの条件を満たすこ
  20:.\asp\arch\arm_m_gcc\common/core_sil.h ****  *      と．
  21:.\asp\arch\arm_m_gcc\common/core_sil.h ****  *    (a) 再配布に伴うドキュメント（利用者マニュアルなど）に，上記の著
  22:.\asp\arch\arm_m_gcc\common/core_sil.h ****  *        作権表示，この利用条件および下記の無保証規定を掲載すること．
  23:.\asp\arch\arm_m_gcc\common/core_sil.h ****  *    (b) 再配布の形態を，別に定める方法によって，TOPPERSプロジェクトに
ARM GAS  C:\TEMP\ccU7Oorc.s 			page 5


  24:.\asp\arch\arm_m_gcc\common/core_sil.h ****  *        報告すること．
  25:.\asp\arch\arm_m_gcc\common/core_sil.h ****  *  (4) 本ソフトウェアの利用により直接的または間接的に生じるいかなる損
  26:.\asp\arch\arm_m_gcc\common/core_sil.h ****  *      害からも，上記著作権者およびTOPPERSプロジェクトを免責すること．
  27:.\asp\arch\arm_m_gcc\common/core_sil.h ****  *      また，本ソフトウェアのユーザまたはエンドユーザからのいかなる理
  28:.\asp\arch\arm_m_gcc\common/core_sil.h ****  *      由に基づく請求からも，上記著作権者およびTOPPERSプロジェクトを
  29:.\asp\arch\arm_m_gcc\common/core_sil.h ****  *      免責すること．
  30:.\asp\arch\arm_m_gcc\common/core_sil.h ****  * 
  31:.\asp\arch\arm_m_gcc\common/core_sil.h ****  *  本ソフトウェアは，無保証で提供されているものである．上記著作権者お
  32:.\asp\arch\arm_m_gcc\common/core_sil.h ****  *  よびTOPPERSプロジェクトは，本ソフトウェアに関して，特定の使用目的
  33:.\asp\arch\arm_m_gcc\common/core_sil.h ****  *  に対する適合性も含めて，いかなる保証も行わない．また，本ソフトウェ
  34:.\asp\arch\arm_m_gcc\common/core_sil.h ****  *  アの利用により直接的または間接的に生じたいかなる損害に関しても，そ
  35:.\asp\arch\arm_m_gcc\common/core_sil.h ****  *  の責任を負わない．
  36:.\asp\arch\arm_m_gcc\common/core_sil.h ****  * 
  37:.\asp\arch\arm_m_gcc\common/core_sil.h ****  *  @(#) $Id: core_sil.h 2183 2011-07-23 10:29:36Z ertl-honda $
  38:.\asp\arch\arm_m_gcc\common/core_sil.h ****  */
  39:.\asp\arch\arm_m_gcc\common/core_sil.h **** 
  40:.\asp\arch\arm_m_gcc\common/core_sil.h **** /*
  41:.\asp\arch\arm_m_gcc\common/core_sil.h ****  *   sil.hのコア依存部（ARM-M用）
  42:.\asp\arch\arm_m_gcc\common/core_sil.h ****  */
  43:.\asp\arch\arm_m_gcc\common/core_sil.h **** 
  44:.\asp\arch\arm_m_gcc\common/core_sil.h **** #ifndef TOPPERS_CORE_SIL_H
  45:.\asp\arch\arm_m_gcc\common/core_sil.h **** #define TOPPERS_CORE_SIL_H
  46:.\asp\arch\arm_m_gcc\common/core_sil.h **** 
  47:.\asp\arch\arm_m_gcc\common/core_sil.h **** #ifndef TOPPERS_MACRO_ONLY
  48:.\asp\arch\arm_m_gcc\common/core_sil.h **** 
  49:.\asp\arch\arm_m_gcc\common/core_sil.h **** /*
  50:.\asp\arch\arm_m_gcc\common/core_sil.h ****  *  NMIを除くすべての割込みの禁止
  51:.\asp\arch\arm_m_gcc\common/core_sil.h ****  */
  52:.\asp\arch\arm_m_gcc\common/core_sil.h **** Inline bool_t
  53:.\asp\arch\arm_m_gcc\common/core_sil.h **** TOPPERS_disint(void)
  54:.\asp\arch\arm_m_gcc\common/core_sil.h **** {
  55:.\asp\arch\arm_m_gcc\common/core_sil.h **** 	uint32_t val;
  56:.\asp\arch\arm_m_gcc\common/core_sil.h **** 
  57:.\asp\arch\arm_m_gcc\common/core_sil.h **** 	Asm("mrs  %0, FAULTMASK" : "=r"(val));
  83              		.loc 2 57 0
  84              	@ 57 ".\asp\arch\arm_m_gcc\common/core_sil.h" 1
  85 0002 EFF31383 		mrs  r3, FAULTMASK
  86              	@ 0 "" 2
  87              	.LVL5:
  58:.\asp\arch\arm_m_gcc\common/core_sil.h **** 	Asm("cpsid f":::"memory");
  88              		.loc 2 58 0
  89              	@ 58 ".\asp\arch\arm_m_gcc\common/core_sil.h" 1
  90 0006 71B6     		cpsid f
  91              	@ 0 "" 2
  92              		.thumb
  93              	.LBE5:
  94              	.LBE4:
 124:.\asp\kernel/startup.c **** 	SIL_PRE_LOC;
 125:.\asp\kernel/startup.c **** 
 126:.\asp\kernel/startup.c **** 	LOG_EXT_KER_ENTER();
 127:.\asp\kernel/startup.c **** 
 128:.\asp\kernel/startup.c **** 	/*
 129:.\asp\kernel/startup.c **** 	 *  割込みロック状態に移行
 130:.\asp\kernel/startup.c **** 	 */
 131:.\asp\kernel/startup.c **** 	SIL_LOC_INT();
 132:.\asp\kernel/startup.c **** 
 133:.\asp\kernel/startup.c **** 	/*
ARM GAS  C:\TEMP\ccU7Oorc.s 			page 6


 134:.\asp\kernel/startup.c **** 	 *  カーネル動作の終了
 135:.\asp\kernel/startup.c **** 	 */
 136:.\asp\kernel/startup.c **** 	LOG_KER_LEAVE();
 137:.\asp\kernel/startup.c **** 	kerflg = false;
  95              		.loc 1 137 0
  96 0008 024B     		ldr	r3, .L5
  97 000a 0022     		movs	r2, #0
  98 000c 1A60     		str	r2, [r3, #0]
 138:.\asp\kernel/startup.c **** 
 139:.\asp\kernel/startup.c **** 	/*
 140:.\asp\kernel/startup.c **** 	 *  カーネルの終了処理の呼出し
 141:.\asp\kernel/startup.c **** 	 *
 142:.\asp\kernel/startup.c **** 	 *  非タスクコンテキストに切り換えて，exit_kernelを呼び出す．
 143:.\asp\kernel/startup.c **** 	 */
 144:.\asp\kernel/startup.c **** 	call_exit_kernel();
  99              		.loc 1 144 0
 100 000e FFF7FEFF 		bl	_kernel_call_exit_kernel
 101              	.LVL6:
 102              	.L6:
 103 0012 00BF     		.align	2
 104              	.L5:
 105 0014 00000000 		.word	.LANCHOR0
 106              		.cfi_endproc
 107              	.LFE48:
 108              		.size	ext_ker, .-ext_ker
 109              		.section	.text._kernel_exit_kernel,"ax",%progbits
 110              		.align	1
 111              		.global	_kernel_exit_kernel
 112              		.thumb
 113              		.thumb_func
 114              		.type	_kernel_exit_kernel, %function
 115              	_kernel_exit_kernel:
 116              	.LFB49:
 145:.\asp\kernel/startup.c **** 
 146:.\asp\kernel/startup.c **** 	/*
 147:.\asp\kernel/startup.c **** 	 *  コンパイラの警告対策（ここへ来ることはないはず）
 148:.\asp\kernel/startup.c **** 	 */
 149:.\asp\kernel/startup.c **** 	SIL_UNL_INT();
 150:.\asp\kernel/startup.c **** 	LOG_EXT_KER_LEAVE(E_SYS);
 151:.\asp\kernel/startup.c **** 	return(E_SYS);
 152:.\asp\kernel/startup.c **** }
 153:.\asp\kernel/startup.c **** 
 154:.\asp\kernel/startup.c **** /*
 155:.\asp\kernel/startup.c ****  *  カーネルの終了処理
 156:.\asp\kernel/startup.c ****  */
 157:.\asp\kernel/startup.c **** void
 158:.\asp\kernel/startup.c **** exit_kernel(void)
 159:.\asp\kernel/startup.c **** {
 117              		.loc 1 159 0
 118              		.cfi_startproc
 119              		@ Volatile: function does not return.
 120              		@ args = 0, pretend = 0, frame = 0
 121              		@ frame_needed = 0, uses_anonymous_args = 0
 122 0000 08B5     		push	{r3, lr}
 123              	.LCFI2:
 124              		.cfi_def_cfa_offset 8
 125              		.cfi_offset 3, -8
ARM GAS  C:\TEMP\ccU7Oorc.s 			page 7


 126              		.cfi_offset 14, -4
 160:.\asp\kernel/startup.c **** 	/*
 161:.\asp\kernel/startup.c **** 	 *  終了処理ルーチンの実行
 162:.\asp\kernel/startup.c **** 	 */
 163:.\asp\kernel/startup.c **** 	call_terrtn();
 127              		.loc 1 163 0
 128 0002 FFF7FEFF 		bl	_kernel_call_terrtn
 129              	.LVL7:
 164:.\asp\kernel/startup.c **** 
 165:.\asp\kernel/startup.c **** 	/*
 166:.\asp\kernel/startup.c **** 	 *  ターゲット依存の終了処理
 167:.\asp\kernel/startup.c **** 	 */
 168:.\asp\kernel/startup.c **** 	target_exit();
 130              		.loc 1 168 0
 131 0006 FFF7FEFF 		bl	_kernel_target_exit
 132              	.LVL8:
 133              		.cfi_endproc
 134              	.LFE49:
 135              		.size	_kernel_exit_kernel, .-_kernel_exit_kernel
 136              		.global	_kernel_kerflg
 137              		.bss
 138              		.align	2
 139              		.set	.LANCHOR0,. + 0
 140              		.type	_kernel_kerflg, %object
 141              		.size	_kernel_kerflg, 4
 142              	_kernel_kerflg:
 143 0000 00000000 		.space	4
 144              		.text
 145              	.Letext0:
 146              		.file 3 ".\\asp\\arch\\gcc/tool_stddef.h"
 147              		.file 4 ".\\asp\\include/t_stddef.h"
 148              		.file 5 ".\\asp\\kernel\\time_event.h"
 149              		.file 6 ".\\asp\\arch\\arm_m_gcc\\common/core_config.h"
 150              		.file 7 ".\\asp\\target\\cy8ckit050_gcc/target_config.h"
 151              		.file 8 ".\\asp\\kernel\\kernel_impl.h"