ARM GAS  C:\TEMP\cc9X65Vt.s 			page 1


   1              		.syntax unified
   2              		.cpu cortex-m3
   3              		.fpu softvfp
   4              		.eabi_attribute 20, 1
   5              		.eabi_attribute 21, 1
   6              		.eabi_attribute 23, 3
   7              		.eabi_attribute 24, 1
   8              		.eabi_attribute 25, 1
   9              		.eabi_attribute 26, 1
  10              		.eabi_attribute 30, 4
  11              		.eabi_attribute 34, 1
  12              		.eabi_attribute 18, 4
  13              		.thumb
  14              		.file	"syslog.c"
  15              		.text
  16              	.Ltext0:
  17              		.cfi_sections	.debug_frame
  18              		.section	.text.syslog_initialize,"ax",%progbits
  19              		.align	1
  20              		.global	syslog_initialize
  21              		.thumb
  22              		.thumb_func
  23              		.type	syslog_initialize, %function
  24              	syslog_initialize:
  25              	.LFB20:
  26              		.file 1 ".\\asp\\syssvc\\syslog.c"
   1:.\asp\syssvc/syslog.c **** /*
   2:.\asp\syssvc/syslog.c ****  *  TOPPERS/ASP Kernel
   3:.\asp\syssvc/syslog.c ****  *      Toyohashi Open Platform for Embedded Real-Time Systems/
   4:.\asp\syssvc/syslog.c ****  *      Advanced Standard Profile Kernel
   5:.\asp\syssvc/syslog.c ****  * 
   6:.\asp\syssvc/syslog.c ****  *  Copyright (C) 2000-2003 by Embedded and Real-Time Systems Laboratory
   7:.\asp\syssvc/syslog.c ****  *                              Toyohashi Univ. of Technology, JAPAN
   8:.\asp\syssvc/syslog.c ****  *  Copyright (C) 2005-2010 by Embedded and Real-Time Systems Laboratory
   9:.\asp\syssvc/syslog.c ****  *              Graduate School of Information Science, Nagoya Univ., JAPAN
  10:.\asp\syssvc/syslog.c ****  * 
  11:.\asp\syssvc/syslog.c ****  *  上記著作権者は，以下の(1)〜(4)の条件を満たす場合に限り，本ソフトウェ
  12:.\asp\syssvc/syslog.c ****  *  ア（本ソフトウェアを改変したものを含む．以下同じ）を使用・複製・改
  13:.\asp\syssvc/syslog.c ****  *  変・再配布（以下，利用と呼ぶ）することを無償で許諾する．
  14:.\asp\syssvc/syslog.c ****  *  (1) 本ソフトウェアをソースコードの形で利用する場合には，上記の著作
  15:.\asp\syssvc/syslog.c ****  *      権表示，この利用条件および下記の無保証規定が，そのままの形でソー
  16:.\asp\syssvc/syslog.c ****  *      スコード中に含まれていること．
  17:.\asp\syssvc/syslog.c ****  *  (2) 本ソフトウェアを，ライブラリ形式など，他のソフトウェア開発に使
  18:.\asp\syssvc/syslog.c ****  *      用できる形で再配布する場合には，再配布に伴うドキュメント（利用
  19:.\asp\syssvc/syslog.c ****  *      者マニュアルなど）に，上記の著作権表示，この利用条件および下記
  20:.\asp\syssvc/syslog.c ****  *      の無保証規定を掲載すること．
  21:.\asp\syssvc/syslog.c ****  *  (3) 本ソフトウェアを，機器に組み込むなど，他のソフトウェア開発に使
  22:.\asp\syssvc/syslog.c ****  *      用できない形で再配布する場合には，次のいずれかの条件を満たすこ
  23:.\asp\syssvc/syslog.c ****  *      と．
  24:.\asp\syssvc/syslog.c ****  *    (a) 再配布に伴うドキュメント（利用者マニュアルなど）に，上記の著
  25:.\asp\syssvc/syslog.c ****  *        作権表示，この利用条件および下記の無保証規定を掲載すること．
  26:.\asp\syssvc/syslog.c ****  *    (b) 再配布の形態を，別に定める方法によって，TOPPERSプロジェクトに
  27:.\asp\syssvc/syslog.c ****  *        報告すること．
  28:.\asp\syssvc/syslog.c ****  *  (4) 本ソフトウェアの利用により直接的または間接的に生じるいかなる損
  29:.\asp\syssvc/syslog.c ****  *      害からも，上記著作権者およびTOPPERSプロジェクトを免責すること．
  30:.\asp\syssvc/syslog.c ****  *      また，本ソフトウェアのユーザまたはエンドユーザからのいかなる理
  31:.\asp\syssvc/syslog.c ****  *      由に基づく請求からも，上記著作権者およびTOPPERSプロジェクトを
ARM GAS  C:\TEMP\cc9X65Vt.s 			page 2


  32:.\asp\syssvc/syslog.c ****  *      免責すること．
  33:.\asp\syssvc/syslog.c ****  * 
  34:.\asp\syssvc/syslog.c ****  *  本ソフトウェアは，無保証で提供されているものである．上記著作権者お
  35:.\asp\syssvc/syslog.c ****  *  よびTOPPERSプロジェクトは，本ソフトウェアに関して，特定の使用目的
  36:.\asp\syssvc/syslog.c ****  *  に対する適合性も含めて，いかなる保証も行わない．また，本ソフトウェ
  37:.\asp\syssvc/syslog.c ****  *  アの利用により直接的または間接的に生じたいかなる損害に関しても，そ
  38:.\asp\syssvc/syslog.c ****  *  の責任を負わない．
  39:.\asp\syssvc/syslog.c ****  * 
  40:.\asp\syssvc/syslog.c ****  *  $Id: syslog.c 2247 2011-08-26 22:59:55Z ertl-hiro $
  41:.\asp\syssvc/syslog.c ****  */
  42:.\asp\syssvc/syslog.c **** 
  43:.\asp\syssvc/syslog.c **** /*
  44:.\asp\syssvc/syslog.c ****  *		システムログ機能
  45:.\asp\syssvc/syslog.c ****  */
  46:.\asp\syssvc/syslog.c **** 
  47:.\asp\syssvc/syslog.c **** #include <sil.h>
  48:.\asp\syssvc/syslog.c **** #undef TOPPERS_OMIT_SYSLOG
  49:.\asp\syssvc/syslog.c **** #include <t_syslog.h>
  50:.\asp\syssvc/syslog.c **** #include <log_output.h>
  51:.\asp\syssvc/syslog.c **** #include "target_syssvc.h"
  52:.\asp\syssvc/syslog.c **** #include "syslog.h"
  53:.\asp\syssvc/syslog.c **** 
  54:.\asp\syssvc/syslog.c **** /*
  55:.\asp\syssvc/syslog.c ****  *  トレースログマクロのデフォルト定義
  56:.\asp\syssvc/syslog.c ****  */
  57:.\asp\syssvc/syslog.c **** #ifndef LOG_SYSLOG_WRI_LOG_ENTER
  58:.\asp\syssvc/syslog.c **** #define LOG_SYSLOG_WRI_LOG_ENTER(prio, p_syslog)
  59:.\asp\syssvc/syslog.c **** #endif /* LOG_SYSLOG_WRI_LOG_ENTER */
  60:.\asp\syssvc/syslog.c **** 
  61:.\asp\syssvc/syslog.c **** #ifndef LOG_SYSLOG_WRI_LOG_LEAVE
  62:.\asp\syssvc/syslog.c **** #define LOG_SYSLOG_WRI_LOG_LEAVE(ercd)
  63:.\asp\syssvc/syslog.c **** #endif /* LOG_SYSLOG_WRI_LOG_LEAVE */
  64:.\asp\syssvc/syslog.c **** 
  65:.\asp\syssvc/syslog.c **** #ifndef LOG_SYSLOG_REA_LOG_ENTER
  66:.\asp\syssvc/syslog.c **** #define LOG_SYSLOG_REA_LOG_ENTER(p_syslog)
  67:.\asp\syssvc/syslog.c **** #endif /* LOG_SYSLOG_REA_LOG_ENTER */
  68:.\asp\syssvc/syslog.c **** 
  69:.\asp\syssvc/syslog.c **** #ifndef LOG_SYSLOG_REA_LOG_LEAVE
  70:.\asp\syssvc/syslog.c **** #define LOG_SYSLOG_REA_LOG_LEAVE(ercd, p_syslog)
  71:.\asp\syssvc/syslog.c **** #endif /* LOG_SYSLOG_REA_LOG_LEAVE */
  72:.\asp\syssvc/syslog.c **** 
  73:.\asp\syssvc/syslog.c **** #ifndef LOG_SYSLOG_MSK_LOG_ENTER
  74:.\asp\syssvc/syslog.c **** #define LOG_SYSLOG_MSK_LOG_ENTER(logmask, lowmask)
  75:.\asp\syssvc/syslog.c **** #endif /* LOG_SYSLOG_MSK_LOG_ENTER */
  76:.\asp\syssvc/syslog.c **** 
  77:.\asp\syssvc/syslog.c **** #ifndef LOG_SYSLOG_MSK_LOG_LEAVE
  78:.\asp\syssvc/syslog.c **** #define LOG_SYSLOG_MSK_LOG_LEAVE(ercd)
  79:.\asp\syssvc/syslog.c **** #endif /* LOG_SYSLOG_MSK_LOG_LEAVE */
  80:.\asp\syssvc/syslog.c **** 
  81:.\asp\syssvc/syslog.c **** #ifndef LOG_SYSLOG_REF_LOG_ENTER
  82:.\asp\syssvc/syslog.c **** #define LOG_SYSLOG_REF_LOG_ENTER(pk_rlog)
  83:.\asp\syssvc/syslog.c **** #endif /* LOG_SYSLOG_REF_LOG_ENTER */
  84:.\asp\syssvc/syslog.c **** 
  85:.\asp\syssvc/syslog.c **** #ifndef LOG_SYSLOG_REF_LOG_LEAVE
  86:.\asp\syssvc/syslog.c **** #define LOG_SYSLOG_REF_LOG_LEAVE(pk_rlog)
  87:.\asp\syssvc/syslog.c **** #endif /* LOG_SYSLOG_REF_LOG_LEAVE */
  88:.\asp\syssvc/syslog.c **** 
ARM GAS  C:\TEMP\cc9X65Vt.s 			page 3


  89:.\asp\syssvc/syslog.c **** /*
  90:.\asp\syssvc/syslog.c ****  *  現在のシステム時刻
  91:.\asp\syssvc/syslog.c ****  *
  92:.\asp\syssvc/syslog.c ****  *  ログ時刻を取り出すために，やむなく，カーネルの内部変数を参照してい
  93:.\asp\syssvc/syslog.c ****  *  る．
  94:.\asp\syssvc/syslog.c ****  */
  95:.\asp\syssvc/syslog.c **** extern ulong_t	_kernel_current_time;
  96:.\asp\syssvc/syslog.c **** 
  97:.\asp\syssvc/syslog.c **** /*
  98:.\asp\syssvc/syslog.c ****  *  ログバッファとそれにアクセスするためのポインタ
  99:.\asp\syssvc/syslog.c ****  */
 100:.\asp\syssvc/syslog.c **** static SYSLOG	syslog_buffer[TCNT_SYSLOG_BUFFER];	/* ログバッファ */
 101:.\asp\syssvc/syslog.c **** static uint_t	syslog_count;			/* ログバッファ中のログの数 */
 102:.\asp\syssvc/syslog.c **** static uint_t	syslog_head;			/* 先頭のログの格納位置 */
 103:.\asp\syssvc/syslog.c **** static uint_t	syslog_tail;			/* 次のログの格納位置 */
 104:.\asp\syssvc/syslog.c **** static uint_t	syslog_lost;			/* 失われたログの数 */
 105:.\asp\syssvc/syslog.c **** 
 106:.\asp\syssvc/syslog.c **** /*
 107:.\asp\syssvc/syslog.c ****  *  出力すべきログ情報の重要度（ビットマップ）
 108:.\asp\syssvc/syslog.c ****  */
 109:.\asp\syssvc/syslog.c **** static uint_t	syslog_logmask;			/* ログバッファに記録すべき重要度 */
 110:.\asp\syssvc/syslog.c **** static uint_t	syslog_lowmask_not;		/* 低レベル出力すべき重要度（反転）*/
 111:.\asp\syssvc/syslog.c **** 
 112:.\asp\syssvc/syslog.c **** /*
 113:.\asp\syssvc/syslog.c ****  *  システムログ機能の初期化
 114:.\asp\syssvc/syslog.c ****  */
 115:.\asp\syssvc/syslog.c **** void
 116:.\asp\syssvc/syslog.c **** syslog_initialize(intptr_t exinf)
 117:.\asp\syssvc/syslog.c **** {
  27              		.loc 1 117 0
  28              		.cfi_startproc
  29              		@ args = 0, pretend = 0, frame = 0
  30              		@ frame_needed = 0, uses_anonymous_args = 0
  31              		@ link register save eliminated.
  32              	.LVL0:
 118:.\asp\syssvc/syslog.c **** 	syslog_count = 0U;
  33              		.loc 1 118 0
  34 0000 044B     		ldr	r3, .L2
  35 0002 0022     		movs	r2, #0
  36 0004 1A60     		str	r2, [r3, #0]
 119:.\asp\syssvc/syslog.c **** 	syslog_head = 0U;
  37              		.loc 1 119 0
  38 0006 5A60     		str	r2, [r3, #4]
 120:.\asp\syssvc/syslog.c **** 	syslog_tail = 0U;
  39              		.loc 1 120 0
  40 0008 9A60     		str	r2, [r3, #8]
 121:.\asp\syssvc/syslog.c **** 	syslog_lost = 0U;
  41              		.loc 1 121 0
  42 000a DA60     		str	r2, [r3, #12]
 122:.\asp\syssvc/syslog.c **** 	syslog_logmask = 0U;
  43              		.loc 1 122 0
  44 000c 1A61     		str	r2, [r3, #16]
 123:.\asp\syssvc/syslog.c **** 	syslog_lowmask_not = 0U;
  45              		.loc 1 123 0
  46 000e 5A61     		str	r2, [r3, #20]
  47 0010 7047     		bx	lr
  48              	.L3:
ARM GAS  C:\TEMP\cc9X65Vt.s 			page 4


  49 0012 00BF     		.align	2
  50              	.L2:
  51 0014 00000000 		.word	.LANCHOR0
  52              		.cfi_endproc
  53              	.LFE20:
  54              		.size	syslog_initialize, .-syslog_initialize
  55              		.section	.text.syslog_wri_log,"ax",%progbits
  56              		.align	1
  57              		.global	syslog_wri_log
  58              		.thumb
  59              		.thumb_func
  60              		.type	syslog_wri_log, %function
  61              	syslog_wri_log:
  62              	.LFB21:
 124:.\asp\syssvc/syslog.c **** }     
 125:.\asp\syssvc/syslog.c **** 
 126:.\asp\syssvc/syslog.c **** /* 
 127:.\asp\syssvc/syslog.c ****  *  ログ情報の出力
 128:.\asp\syssvc/syslog.c ****  *
 129:.\asp\syssvc/syslog.c ****  *  CPUロック状態や実行コンテキストによらず動作できるように実装してある．
 130:.\asp\syssvc/syslog.c ****  */
 131:.\asp\syssvc/syslog.c **** ER
 132:.\asp\syssvc/syslog.c **** syslog_wri_log(uint_t prio, const SYSLOG *p_syslog)
 133:.\asp\syssvc/syslog.c **** {
  63              		.loc 1 133 0
  64              		.cfi_startproc
  65              		@ args = 0, pretend = 0, frame = 0
  66              		@ frame_needed = 0, uses_anonymous_args = 0
  67              	.LVL1:
  68 0000 2DE9F843 		push	{r3, r4, r5, r6, r7, r8, r9, lr}
  69              	.LCFI0:
  70              		.cfi_def_cfa_offset 32
  71              		.cfi_offset 3, -32
  72              		.cfi_offset 4, -28
  73              		.cfi_offset 5, -24
  74              		.cfi_offset 6, -20
  75              		.cfi_offset 7, -16
  76              		.cfi_offset 8, -12
  77              		.cfi_offset 9, -8
  78              		.cfi_offset 14, -4
  79              		.loc 1 133 0
  80 0004 0F46     		mov	r7, r1
  81              	.LBB6:
  82              	.LBB7:
  83              		.file 2 ".\\asp\\arch\\arm_m_gcc\\common/core_sil.h"
   1:.\asp\arch\arm_m_gcc\common/core_sil.h **** /*
   2:.\asp\arch\arm_m_gcc\common/core_sil.h ****  *  TOPPERS Software
   3:.\asp\arch\arm_m_gcc\common/core_sil.h ****  *      Toyohashi Open Platform for Embedded Real-Time Systems
   4:.\asp\arch\arm_m_gcc\common/core_sil.h ****  * 
   5:.\asp\arch\arm_m_gcc\common/core_sil.h ****  *  Copyright (C) 2008-2011 by Embedded and Real-Time Systems Laboratory
   6:.\asp\arch\arm_m_gcc\common/core_sil.h ****  *              Graduate School of Information Science, Nagoya Univ., JAPAN
   7:.\asp\arch\arm_m_gcc\common/core_sil.h ****  * 
   8:.\asp\arch\arm_m_gcc\common/core_sil.h ****  *  上記著作権者は，以下の(1)〜(4)の条件を満たす場合に限り，本ソフトウェ
   9:.\asp\arch\arm_m_gcc\common/core_sil.h ****  *  ア（本ソフトウェアを改変したものを含む．以下同じ）を使用・複製・改
  10:.\asp\arch\arm_m_gcc\common/core_sil.h ****  *  変・再配布（以下，利用と呼ぶ）することを無償で許諾する．
  11:.\asp\arch\arm_m_gcc\common/core_sil.h ****  *  (1) 本ソフトウェアをソースコードの形で利用する場合には，上記の著作
  12:.\asp\arch\arm_m_gcc\common/core_sil.h ****  *      権表示，この利用条件および下記の無保証規定が，そのままの形でソー
ARM GAS  C:\TEMP\cc9X65Vt.s 			page 5


  13:.\asp\arch\arm_m_gcc\common/core_sil.h ****  *      スコード中に含まれていること．
  14:.\asp\arch\arm_m_gcc\common/core_sil.h ****  *  (2) 本ソフトウェアを，ライブラリ形式など，他のソフトウェア開発に使
  15:.\asp\arch\arm_m_gcc\common/core_sil.h ****  *      用できる形で再配布する場合には，再配布に伴うドキュメント（利用
  16:.\asp\arch\arm_m_gcc\common/core_sil.h ****  *      者マニュアルなど）に，上記の著作権表示，この利用条件および下記
  17:.\asp\arch\arm_m_gcc\common/core_sil.h ****  *      の無保証規定を掲載すること．
  18:.\asp\arch\arm_m_gcc\common/core_sil.h ****  *  (3) 本ソフトウェアを，機器に組み込むなど，他のソフトウェア開発に使
  19:.\asp\arch\arm_m_gcc\common/core_sil.h ****  *      用できない形で再配布する場合には，次のいずれかの条件を満たすこ
  20:.\asp\arch\arm_m_gcc\common/core_sil.h ****  *      と．
  21:.\asp\arch\arm_m_gcc\common/core_sil.h ****  *    (a) 再配布に伴うドキュメント（利用者マニュアルなど）に，上記の著
  22:.\asp\arch\arm_m_gcc\common/core_sil.h ****  *        作権表示，この利用条件および下記の無保証規定を掲載すること．
  23:.\asp\arch\arm_m_gcc\common/core_sil.h ****  *    (b) 再配布の形態を，別に定める方法によって，TOPPERSプロジェクトに
  24:.\asp\arch\arm_m_gcc\common/core_sil.h ****  *        報告すること．
  25:.\asp\arch\arm_m_gcc\common/core_sil.h ****  *  (4) 本ソフトウェアの利用により直接的または間接的に生じるいかなる損
  26:.\asp\arch\arm_m_gcc\common/core_sil.h ****  *      害からも，上記著作権者およびTOPPERSプロジェクトを免責すること．
  27:.\asp\arch\arm_m_gcc\common/core_sil.h ****  *      また，本ソフトウェアのユーザまたはエンドユーザからのいかなる理
  28:.\asp\arch\arm_m_gcc\common/core_sil.h ****  *      由に基づく請求からも，上記著作権者およびTOPPERSプロジェクトを
  29:.\asp\arch\arm_m_gcc\common/core_sil.h ****  *      免責すること．
  30:.\asp\arch\arm_m_gcc\common/core_sil.h ****  * 
  31:.\asp\arch\arm_m_gcc\common/core_sil.h ****  *  本ソフトウェアは，無保証で提供されているものである．上記著作権者お
  32:.\asp\arch\arm_m_gcc\common/core_sil.h ****  *  よびTOPPERSプロジェクトは，本ソフトウェアに関して，特定の使用目的
  33:.\asp\arch\arm_m_gcc\common/core_sil.h ****  *  に対する適合性も含めて，いかなる保証も行わない．また，本ソフトウェ
  34:.\asp\arch\arm_m_gcc\common/core_sil.h ****  *  アの利用により直接的または間接的に生じたいかなる損害に関しても，そ
  35:.\asp\arch\arm_m_gcc\common/core_sil.h ****  *  の責任を負わない．
  36:.\asp\arch\arm_m_gcc\common/core_sil.h ****  * 
  37:.\asp\arch\arm_m_gcc\common/core_sil.h ****  *  @(#) $Id: core_sil.h 2183 2011-07-23 10:29:36Z ertl-honda $
  38:.\asp\arch\arm_m_gcc\common/core_sil.h ****  */
  39:.\asp\arch\arm_m_gcc\common/core_sil.h **** 
  40:.\asp\arch\arm_m_gcc\common/core_sil.h **** /*
  41:.\asp\arch\arm_m_gcc\common/core_sil.h ****  *   sil.hのコア依存部（ARM-M用）
  42:.\asp\arch\arm_m_gcc\common/core_sil.h ****  */
  43:.\asp\arch\arm_m_gcc\common/core_sil.h **** 
  44:.\asp\arch\arm_m_gcc\common/core_sil.h **** #ifndef TOPPERS_CORE_SIL_H
  45:.\asp\arch\arm_m_gcc\common/core_sil.h **** #define TOPPERS_CORE_SIL_H
  46:.\asp\arch\arm_m_gcc\common/core_sil.h **** 
  47:.\asp\arch\arm_m_gcc\common/core_sil.h **** #ifndef TOPPERS_MACRO_ONLY
  48:.\asp\arch\arm_m_gcc\common/core_sil.h **** 
  49:.\asp\arch\arm_m_gcc\common/core_sil.h **** /*
  50:.\asp\arch\arm_m_gcc\common/core_sil.h ****  *  NMIを除くすべての割込みの禁止
  51:.\asp\arch\arm_m_gcc\common/core_sil.h ****  */
  52:.\asp\arch\arm_m_gcc\common/core_sil.h **** Inline bool_t
  53:.\asp\arch\arm_m_gcc\common/core_sil.h **** TOPPERS_disint(void)
  54:.\asp\arch\arm_m_gcc\common/core_sil.h **** {
  55:.\asp\arch\arm_m_gcc\common/core_sil.h **** 	uint32_t val;
  56:.\asp\arch\arm_m_gcc\common/core_sil.h **** 
  57:.\asp\arch\arm_m_gcc\common/core_sil.h **** 	Asm("mrs  %0, FAULTMASK" : "=r"(val));
  84              		.loc 2 57 0
  85              	@ 57 ".\asp\arch\arm_m_gcc\common/core_sil.h" 1
  86 0006 EFF31389 		mrs  r9, FAULTMASK
  87              	@ 0 "" 2
  88              	.LVL2:
  58:.\asp\arch\arm_m_gcc\common/core_sil.h **** 	Asm("cpsid f":::"memory");
  89              		.loc 2 58 0
  90              	@ 58 ".\asp\arch\arm_m_gcc\common/core_sil.h" 1
  91 000a 71B6     		cpsid f
  92              	@ 0 "" 2
  93              		.thumb
  94              	.LBE7:
ARM GAS  C:\TEMP\cc9X65Vt.s 			page 6


  95              	.LBE6:
 134:.\asp\syssvc/syslog.c **** 	SIL_PRE_LOC;
 135:.\asp\syssvc/syslog.c **** 
 136:.\asp\syssvc/syslog.c **** 	LOG_SYSLOG_WRI_LOG_ENTER(prio, p_syslog);
 137:.\asp\syssvc/syslog.c **** 	SIL_LOC_INT();
 138:.\asp\syssvc/syslog.c **** 
 139:.\asp\syssvc/syslog.c **** 	/*
 140:.\asp\syssvc/syslog.c **** 	 *  ログ時刻の設定
 141:.\asp\syssvc/syslog.c **** 	 */
 142:.\asp\syssvc/syslog.c **** 	((SYSLOG *) p_syslog)->logtim = _kernel_current_time;
 143:.\asp\syssvc/syslog.c **** 
 144:.\asp\syssvc/syslog.c **** 	/*
 145:.\asp\syssvc/syslog.c **** 	 *  ログバッファに記録
 146:.\asp\syssvc/syslog.c **** 	 */
 147:.\asp\syssvc/syslog.c **** 	if ((syslog_logmask & LOG_MASK(prio)) != 0U) {
  96              		.loc 1 147 0
  97 000c 4FF0010C 		mov	ip, #1
  98 0010 0CFA00FC 		lsl	ip, ip, r0
  99 0014 1C4E     		ldr	r6, .L22
 142:.\asp\syssvc/syslog.c **** 	((SYSLOG *) p_syslog)->logtim = _kernel_current_time;
 100              		.loc 1 142 0
 101 0016 1D4B     		ldr	r3, .L22+4
 102              		.loc 1 147 0
 103 0018 3069     		ldr	r0, [r6, #16]
 104              	.LVL3:
 142:.\asp\syssvc/syslog.c **** 	((SYSLOG *) p_syslog)->logtim = _kernel_current_time;
 105              		.loc 1 142 0
 106 001a 1968     		ldr	r1, [r3, #0]
 107              	.LVL4:
 108              		.loc 1 147 0
 109 001c 1CEA000F 		tst	ip, r0
 142:.\asp\syssvc/syslog.c **** 	((SYSLOG *) p_syslog)->logtim = _kernel_current_time;
 110              		.loc 1 142 0
 111 0020 7960     		str	r1, [r7, #4]
 112              		.loc 1 147 0
 113 0022 1DD0     		beq	.L5
 148:.\asp\syssvc/syslog.c **** 		syslog_buffer[syslog_tail] = *p_syslog;
 114              		.loc 1 148 0
 115 0024 D6F80880 		ldr	r8, [r6, #8]
 116 0028 3D46     		mov	r5, r7
 117 002a 06EB4814 		add	r4, r6, r8, lsl #5
 118 002e 1834     		adds	r4, r4, #24
 119 0030 0FCD     		ldmia	r5!, {r0, r1, r2, r3}
 120 0032 0FC4     		stmia	r4!, {r0, r1, r2, r3}
 121 0034 95E80F00 		ldmia	r5, {r0, r1, r2, r3}
 122 0038 84E80F00 		stmia	r4, {r0, r1, r2, r3}
 149:.\asp\syssvc/syslog.c **** 		syslog_tail++;
 150:.\asp\syssvc/syslog.c **** 		if (syslog_tail >= TCNT_SYSLOG_BUFFER) {
 151:.\asp\syssvc/syslog.c **** 			syslog_tail = 0U;
 152:.\asp\syssvc/syslog.c **** 		}
 153:.\asp\syssvc/syslog.c **** 		if (syslog_count < TCNT_SYSLOG_BUFFER) {
 123              		.loc 1 153 0
 124 003c 124B     		ldr	r3, .L22
 149:.\asp\syssvc/syslog.c **** 		syslog_tail++;
 125              		.loc 1 149 0
 126 003e 08F10102 		add	r2, r8, #1
 127              		.loc 1 153 0
ARM GAS  C:\TEMP\cc9X65Vt.s 			page 7


 128 0042 1968     		ldr	r1, [r3, #0]
 150:.\asp\syssvc/syslog.c **** 		if (syslog_tail >= TCNT_SYSLOG_BUFFER) {
 129              		.loc 1 150 0
 130 0044 1F2A     		cmp	r2, #31
 151:.\asp\syssvc/syslog.c **** 			syslog_tail = 0U;
 131              		.loc 1 151 0
 132 0046 88BF     		it	hi
 133 0048 0022     		movhi	r2, #0
 134              		.loc 1 153 0
 135 004a 1F29     		cmp	r1, #31
 151:.\asp\syssvc/syslog.c **** 			syslog_tail = 0U;
 136              		.loc 1 151 0
 137 004c B260     		str	r2, [r6, #8]
 138              		.loc 1 153 0
 139 004e 02D8     		bhi	.L8
 154:.\asp\syssvc/syslog.c **** 			syslog_count++;
 140              		.loc 1 154 0
 141 0050 481C     		adds	r0, r1, #1
 142 0052 1860     		str	r0, [r3, #0]
 143 0054 04E0     		b	.L5
 144              	.L8:
 155:.\asp\syssvc/syslog.c **** 		}
 156:.\asp\syssvc/syslog.c **** 		else {
 157:.\asp\syssvc/syslog.c **** 			syslog_head = syslog_tail;
 158:.\asp\syssvc/syslog.c **** 			syslog_lost++;
 145              		.loc 1 158 0
 146 0056 DA68     		ldr	r2, [r3, #12]
 157:.\asp\syssvc/syslog.c **** 			syslog_head = syslog_tail;
 147              		.loc 1 157 0
 148 0058 9868     		ldr	r0, [r3, #8]
 149              		.loc 1 158 0
 150 005a 511C     		adds	r1, r2, #1
 157:.\asp\syssvc/syslog.c **** 			syslog_head = syslog_tail;
 151              		.loc 1 157 0
 152 005c 5860     		str	r0, [r3, #4]
 153              		.loc 1 158 0
 154 005e D960     		str	r1, [r3, #12]
 155              	.L5:
 159:.\asp\syssvc/syslog.c **** 		}
 160:.\asp\syssvc/syslog.c **** 	}
 161:.\asp\syssvc/syslog.c **** 
 162:.\asp\syssvc/syslog.c **** 	/*
 163:.\asp\syssvc/syslog.c **** 	 *  低レベル出力
 164:.\asp\syssvc/syslog.c **** 	 */
 165:.\asp\syssvc/syslog.c **** 	if (((~syslog_lowmask_not) & LOG_MASK(prio)) != 0U) {
 156              		.loc 1 165 0
 157 0060 094B     		ldr	r3, .L22
 158 0062 5A69     		ldr	r2, [r3, #20]
 159 0064 3CEA0203 		bics	r3, ip, r2
 160 0068 06D0     		beq	.L9
 166:.\asp\syssvc/syslog.c **** 		syslog_print(p_syslog, target_fput_log);
 161              		.loc 1 166 0
 162 006a 3846     		mov	r0, r7
 163 006c 0849     		ldr	r1, .L22+8
 164 006e FFF7FEFF 		bl	syslog_print
 165              	.LVL5:
 167:.\asp\syssvc/syslog.c **** 		target_fput_log('\n');
ARM GAS  C:\TEMP\cc9X65Vt.s 			page 8


 166              		.loc 1 167 0
 167 0072 0A20     		movs	r0, #10
 168 0074 FFF7FEFF 		bl	target_fput_log
 169              	.LVL6:
 170              	.L9:
 171              	.LBB8:
 172              	.LBB9:
  59:.\asp\arch\arm_m_gcc\common/core_sil.h **** 
  60:.\asp\arch\arm_m_gcc\common/core_sil.h **** 	if (val == 1) {
  61:.\asp\arch\arm_m_gcc\common/core_sil.h **** 		return (true);
  62:.\asp\arch\arm_m_gcc\common/core_sil.h **** 	}
  63:.\asp\arch\arm_m_gcc\common/core_sil.h **** 	else {
  64:.\asp\arch\arm_m_gcc\common/core_sil.h **** 		return (false);
  65:.\asp\arch\arm_m_gcc\common/core_sil.h **** 	}
  66:.\asp\arch\arm_m_gcc\common/core_sil.h **** }
  67:.\asp\arch\arm_m_gcc\common/core_sil.h **** 
  68:.\asp\arch\arm_m_gcc\common/core_sil.h **** Inline void
  69:.\asp\arch\arm_m_gcc\common/core_sil.h **** TOPPERS_enaint(bool_t locked)
  70:.\asp\arch\arm_m_gcc\common/core_sil.h **** {
  71:.\asp\arch\arm_m_gcc\common/core_sil.h **** 	if (!locked) {
 173              		.loc 2 71 0
 174 0078 B9F1010F 		cmp	r9, #1
 175 007c 00D0     		beq	.L10
  72:.\asp\arch\arm_m_gcc\common/core_sil.h **** 	  Asm("cpsie f":::"memory");
 176              		.loc 2 72 0
 177              	@ 72 ".\asp\arch\arm_m_gcc\common/core_sil.h" 1
 178 007e 61B6     		cpsie f
 179              	@ 0 "" 2
 180              		.thumb
 181              	.L10:
 182              	.LBE9:
 183              	.LBE8:
 168:.\asp\syssvc/syslog.c **** 	}
 169:.\asp\syssvc/syslog.c **** 
 170:.\asp\syssvc/syslog.c **** 	SIL_UNL_INT();
 171:.\asp\syssvc/syslog.c **** 	LOG_SYSLOG_WRI_LOG_LEAVE(E_OK);
 172:.\asp\syssvc/syslog.c **** 	return(E_OK);
 173:.\asp\syssvc/syslog.c **** }
 184              		.loc 1 173 0
 185 0080 0020     		movs	r0, #0
 186 0082 BDE8F883 		pop	{r3, r4, r5, r6, r7, r8, r9, pc}
 187              	.L23:
 188 0086 00BF     		.align	2
 189              	.L22:
 190 0088 00000000 		.word	.LANCHOR0
 191 008c 00000000 		.word	_kernel_current_time
 192 0090 00000000 		.word	target_fput_log
 193              		.cfi_endproc
 194              	.LFE21:
 195              		.size	syslog_wri_log, .-syslog_wri_log
 196              		.section	.text.syslog_rea_log,"ax",%progbits
 197              		.align	1
 198              		.global	syslog_rea_log
 199              		.thumb
 200              		.thumb_func
 201              		.type	syslog_rea_log, %function
 202              	syslog_rea_log:
ARM GAS  C:\TEMP\cc9X65Vt.s 			page 9


 203              	.LFB22:
 174:.\asp\syssvc/syslog.c **** 
 175:.\asp\syssvc/syslog.c **** /*
 176:.\asp\syssvc/syslog.c ****  *  ログバッファからの読出し
 177:.\asp\syssvc/syslog.c ****  *
 178:.\asp\syssvc/syslog.c ****  *  CPUロック状態や実行コンテキストによらず動作できるように実装してある．
 179:.\asp\syssvc/syslog.c ****  */
 180:.\asp\syssvc/syslog.c **** ER_UINT
 181:.\asp\syssvc/syslog.c **** syslog_rea_log(SYSLOG *p_syslog)
 182:.\asp\syssvc/syslog.c **** {
 204              		.loc 1 182 0
 205              		.cfi_startproc
 206              		@ args = 0, pretend = 0, frame = 0
 207              		@ frame_needed = 0, uses_anonymous_args = 0
 208              	.LVL7:
 209 0000 2DE9F041 		push	{r4, r5, r6, r7, r8, lr}
 210              	.LCFI1:
 211              		.cfi_def_cfa_offset 24
 212              		.cfi_offset 4, -24
 213              		.cfi_offset 5, -20
 214              		.cfi_offset 6, -16
 215              		.cfi_offset 7, -12
 216              		.cfi_offset 8, -8
 217              		.cfi_offset 14, -4
 218              	.LBB14:
 219              	.LBB15:
  57:.\asp\arch\arm_m_gcc\common/core_sil.h **** 	Asm("mrs  %0, FAULTMASK" : "=r"(val));
 220              		.loc 2 57 0
 221              	@ 57 ".\asp\arch\arm_m_gcc\common/core_sil.h" 1
 222 0004 EFF31388 		mrs  r8, FAULTMASK
 223              	@ 0 "" 2
 224              	.LVL8:
  58:.\asp\arch\arm_m_gcc\common/core_sil.h **** 	Asm("cpsid f":::"memory");
 225              		.loc 2 58 0
 226              	@ 58 ".\asp\arch\arm_m_gcc\common/core_sil.h" 1
 227 0008 71B6     		cpsid f
 228              	@ 0 "" 2
 229              		.thumb
 230              	.LBE15:
 231              	.LBE14:
 183:.\asp\syssvc/syslog.c **** 	ER_UINT	ercd;
 184:.\asp\syssvc/syslog.c **** 	SIL_PRE_LOC;
 185:.\asp\syssvc/syslog.c **** 
 186:.\asp\syssvc/syslog.c **** 	LOG_SYSLOG_REA_LOG_ENTER(p_syslog);
 187:.\asp\syssvc/syslog.c **** 	SIL_LOC_INT();
 188:.\asp\syssvc/syslog.c **** 
 189:.\asp\syssvc/syslog.c **** 	/*
 190:.\asp\syssvc/syslog.c **** 	 *  ログバッファからの取出し
 191:.\asp\syssvc/syslog.c **** 	 */
 192:.\asp\syssvc/syslog.c **** 	if (syslog_count > 0U) {
 232              		.loc 1 192 0
 233 000a 144E     		ldr	r6, .L33
 234 000c D6F800C0 		ldr	ip, [r6, #0]
 235 0010 BCF1000F 		cmp	ip, #0
 236 0014 19D0     		beq	.L29
 193:.\asp\syssvc/syslog.c **** 		*p_syslog = syslog_buffer[syslog_head];
 237              		.loc 1 193 0
ARM GAS  C:\TEMP\cc9X65Vt.s 			page 10


 238 0016 7768     		ldr	r7, [r6, #4]
 239 0018 0446     		mov	r4, r0
 240 001a 06EB4715 		add	r5, r6, r7, lsl #5
 241 001e 1835     		adds	r5, r5, #24
 242 0020 0FCD     		ldmia	r5!, {r0, r1, r2, r3}
 243              	.LVL9:
 244 0022 0FC4     		stmia	r4!, {r0, r1, r2, r3}
 245              	.LVL10:
 246 0024 95E80F00 		ldmia	r5, {r0, r1, r2, r3}
 194:.\asp\syssvc/syslog.c **** 		syslog_count--;
 195:.\asp\syssvc/syslog.c **** 		syslog_head++;
 247              		.loc 1 195 0
 248 0028 0137     		adds	r7, r7, #1
 193:.\asp\syssvc/syslog.c **** 		*p_syslog = syslog_buffer[syslog_head];
 249              		.loc 1 193 0
 250 002a 84E80F00 		stmia	r4, {r0, r1, r2, r3}
 196:.\asp\syssvc/syslog.c **** 		if (syslog_head >= TCNT_SYSLOG_BUFFER) {
 251              		.loc 1 196 0
 252 002e 1F2F     		cmp	r7, #31
 194:.\asp\syssvc/syslog.c **** 		syslog_count--;
 253              		.loc 1 194 0
 254 0030 0CF1FF33 		add	r3, ip, #-1
 255 0034 3360     		str	r3, [r6, #0]
 256              		.loc 1 196 0
 257 0036 01D8     		bhi	.L26
 195:.\asp\syssvc/syslog.c **** 		syslog_head++;
 258              		.loc 1 195 0
 259 0038 7760     		str	r7, [r6, #4]
 260 003a 01E0     		b	.L27
 261              	.L26:
 197:.\asp\syssvc/syslog.c **** 			syslog_head = 0U;
 262              		.loc 1 197 0
 263 003c 0020     		movs	r0, #0
 264 003e 7060     		str	r0, [r6, #4]
 265              	.L27:
 198:.\asp\syssvc/syslog.c **** 		}
 199:.\asp\syssvc/syslog.c **** 		ercd = (ER_UINT) syslog_lost;
 266              		.loc 1 199 0
 267 0040 0649     		ldr	r1, .L33
 200:.\asp\syssvc/syslog.c **** 		syslog_lost = 0U;
 268              		.loc 1 200 0
 269 0042 0022     		movs	r2, #0
 199:.\asp\syssvc/syslog.c **** 		ercd = (ER_UINT) syslog_lost;
 270              		.loc 1 199 0
 271 0044 C868     		ldr	r0, [r1, #12]
 272              	.LVL11:
 273              		.loc 1 200 0
 274 0046 CA60     		str	r2, [r1, #12]
 275 0048 01E0     		b	.L25
 276              	.LVL12:
 277              	.L29:
 201:.\asp\syssvc/syslog.c **** 	}
 202:.\asp\syssvc/syslog.c **** 	else {
 203:.\asp\syssvc/syslog.c **** 		ercd = E_OBJ;
 278              		.loc 1 203 0
 279 004a 6FF02800 		mvn	r0, #40
 280              	.LVL13:
ARM GAS  C:\TEMP\cc9X65Vt.s 			page 11


 281              	.L25:
 282              	.LBB16:
 283              	.LBB17:
  71:.\asp\arch\arm_m_gcc\common/core_sil.h **** 	if (!locked) {
 284              		.loc 2 71 0
 285 004e B8F1010F 		cmp	r8, #1
 286 0052 00D0     		beq	.L28
 287              		.loc 2 72 0
 288              	@ 72 ".\asp\arch\arm_m_gcc\common/core_sil.h" 1
 289 0054 61B6     		cpsie f
 290              	@ 0 "" 2
 291              		.thumb
 292              	.L28:
 293              	.LBE17:
 294              	.LBE16:
 204:.\asp\syssvc/syslog.c **** 	}
 205:.\asp\syssvc/syslog.c **** 
 206:.\asp\syssvc/syslog.c **** 	SIL_UNL_INT();
 207:.\asp\syssvc/syslog.c **** 	LOG_SYSLOG_REA_LOG_LEAVE(ercd, p_syslog);
 208:.\asp\syssvc/syslog.c **** 	return(ercd);
 209:.\asp\syssvc/syslog.c **** }
 295              		.loc 1 209 0
 296 0056 BDE8F081 		pop	{r4, r5, r6, r7, r8, pc}
 297              	.L34:
 298 005a 00BF     		.align	2
 299              	.L33:
 300 005c 00000000 		.word	.LANCHOR0
 301              		.cfi_endproc
 302              	.LFE22:
 303              		.size	syslog_rea_log, .-syslog_rea_log
 304              		.section	.text.syslog_msk_log,"ax",%progbits
 305              		.align	1
 306              		.global	syslog_msk_log
 307              		.thumb
 308              		.thumb_func
 309              		.type	syslog_msk_log, %function
 310              	syslog_msk_log:
 311              	.LFB23:
 210:.\asp\syssvc/syslog.c **** 
 211:.\asp\syssvc/syslog.c **** /* 
 212:.\asp\syssvc/syslog.c ****  *  出力すべきログ情報の重要度の設定
 213:.\asp\syssvc/syslog.c ****  */
 214:.\asp\syssvc/syslog.c **** ER
 215:.\asp\syssvc/syslog.c **** syslog_msk_log(uint_t logmask, uint_t lowmask)
 216:.\asp\syssvc/syslog.c **** {
 312              		.loc 1 216 0
 313              		.cfi_startproc
 314              		@ args = 0, pretend = 0, frame = 0
 315              		@ frame_needed = 0, uses_anonymous_args = 0
 316              		@ link register save eliminated.
 317              	.LVL14:
 217:.\asp\syssvc/syslog.c **** 	LOG_SYSLOG_MSK_LOG_ENTER(logmask, lowmask);
 218:.\asp\syssvc/syslog.c **** 	syslog_logmask = logmask;
 318              		.loc 1 218 0
 319 0000 024B     		ldr	r3, .L36
 219:.\asp\syssvc/syslog.c **** 	syslog_lowmask_not = ~lowmask;
 320              		.loc 1 219 0
ARM GAS  C:\TEMP\cc9X65Vt.s 			page 12


 321 0002 C943     		mvns	r1, r1
 322              	.LVL15:
 218:.\asp\syssvc/syslog.c **** 	syslog_logmask = logmask;
 323              		.loc 1 218 0
 324 0004 1861     		str	r0, [r3, #16]
 325              		.loc 1 219 0
 326 0006 5961     		str	r1, [r3, #20]
 220:.\asp\syssvc/syslog.c **** 	LOG_SYSLOG_MSK_LOG_LEAVE(E_OK);
 221:.\asp\syssvc/syslog.c **** 	return(E_OK);
 222:.\asp\syssvc/syslog.c **** }
 327              		.loc 1 222 0
 328 0008 0020     		movs	r0, #0
 329              	.LVL16:
 330 000a 7047     		bx	lr
 331              	.L37:
 332              		.align	2
 333              	.L36:
 334 000c 00000000 		.word	.LANCHOR0
 335              		.cfi_endproc
 336              	.LFE23:
 337              		.size	syslog_msk_log, .-syslog_msk_log
 338              		.section	.text.syslog_ref_log,"ax",%progbits
 339              		.align	1
 340              		.global	syslog_ref_log
 341              		.thumb
 342              		.thumb_func
 343              		.type	syslog_ref_log, %function
 344              	syslog_ref_log:
 345              	.LFB24:
 223:.\asp\syssvc/syslog.c **** 
 224:.\asp\syssvc/syslog.c **** /*
 225:.\asp\syssvc/syslog.c ****  *  ログバッファの状態参照
 226:.\asp\syssvc/syslog.c ****  */
 227:.\asp\syssvc/syslog.c **** ER
 228:.\asp\syssvc/syslog.c **** syslog_ref_log(T_SYSLOG_RLOG *pk_rlog)
 229:.\asp\syssvc/syslog.c **** {
 346              		.loc 1 229 0
 347              		.cfi_startproc
 348              		@ args = 0, pretend = 0, frame = 0
 349              		@ frame_needed = 0, uses_anonymous_args = 0
 350              		@ link register save eliminated.
 351              	.LVL17:
 352              	.LBB22:
 353              	.LBB23:
  57:.\asp\arch\arm_m_gcc\common/core_sil.h **** 	Asm("mrs  %0, FAULTMASK" : "=r"(val));
 354              		.loc 2 57 0
 355              	@ 57 ".\asp\arch\arm_m_gcc\common/core_sil.h" 1
 356 0000 EFF31381 		mrs  r1, FAULTMASK
 357              	@ 0 "" 2
 358              	.LVL18:
  58:.\asp\arch\arm_m_gcc\common/core_sil.h **** 	Asm("cpsid f":::"memory");
 359              		.loc 2 58 0
 360              	@ 58 ".\asp\arch\arm_m_gcc\common/core_sil.h" 1
 361 0004 71B6     		cpsid f
 362              	@ 0 "" 2
 363              		.thumb
 364              	.LBE23:
ARM GAS  C:\TEMP\cc9X65Vt.s 			page 13


 365              	.LBE22:
 230:.\asp\syssvc/syslog.c **** 	SIL_PRE_LOC;
 231:.\asp\syssvc/syslog.c **** 
 232:.\asp\syssvc/syslog.c **** 	LOG_SYSLOG_REF_LOG_ENTER(pk_rlog);
 233:.\asp\syssvc/syslog.c **** 	SIL_LOC_INT();
 234:.\asp\syssvc/syslog.c **** 
 235:.\asp\syssvc/syslog.c **** 	pk_rlog->count = syslog_count;
 366              		.loc 1 235 0
 367 0006 074B     		ldr	r3, .L43
 368 0008 1A68     		ldr	r2, [r3, #0]
 369 000a 0260     		str	r2, [r0, #0]
 236:.\asp\syssvc/syslog.c **** 	pk_rlog->lost = syslog_lost;
 370              		.loc 1 236 0
 371 000c DA68     		ldr	r2, [r3, #12]
 372 000e 4260     		str	r2, [r0, #4]
 237:.\asp\syssvc/syslog.c **** 	pk_rlog->logmask = syslog_logmask;
 373              		.loc 1 237 0
 374 0010 1A69     		ldr	r2, [r3, #16]
 238:.\asp\syssvc/syslog.c **** 	pk_rlog->lowmask = ~syslog_lowmask_not;
 375              		.loc 1 238 0
 376 0012 5B69     		ldr	r3, [r3, #20]
 237:.\asp\syssvc/syslog.c **** 	pk_rlog->logmask = syslog_logmask;
 377              		.loc 1 237 0
 378 0014 8260     		str	r2, [r0, #8]
 379              		.loc 1 238 0
 380 0016 DA43     		mvns	r2, r3
 381              	.LBB24:
 382              	.LBB25:
  71:.\asp\arch\arm_m_gcc\common/core_sil.h **** 	if (!locked) {
 383              		.loc 2 71 0
 384 0018 0129     		cmp	r1, #1
 385              	.LBE25:
 386              	.LBE24:
 387              		.loc 1 238 0
 388 001a C260     		str	r2, [r0, #12]
 389              	.LVL19:
 390              	.LBB27:
 391              	.LBB26:
  71:.\asp\arch\arm_m_gcc\common/core_sil.h **** 	if (!locked) {
 392              		.loc 2 71 0
 393 001c 00D0     		beq	.L39
 394              		.loc 2 72 0
 395              	@ 72 ".\asp\arch\arm_m_gcc\common/core_sil.h" 1
 396 001e 61B6     		cpsie f
 397              	@ 0 "" 2
 398              		.thumb
 399              	.L39:
 400              	.LBE26:
 401              	.LBE27:
 239:.\asp\syssvc/syslog.c **** 
 240:.\asp\syssvc/syslog.c **** 	SIL_UNL_INT();
 241:.\asp\syssvc/syslog.c **** 	LOG_SYSLOG_REF_LOG_LEAVE(pk_rlog);
 242:.\asp\syssvc/syslog.c **** 	return(E_OK);
 243:.\asp\syssvc/syslog.c **** }
 402              		.loc 1 243 0
 403 0020 0020     		movs	r0, #0
 404              	.LVL20:
ARM GAS  C:\TEMP\cc9X65Vt.s 			page 14


 405 0022 7047     		bx	lr
 406              	.L44:
 407              		.align	2
 408              	.L43:
 409 0024 00000000 		.word	.LANCHOR0
 410              		.cfi_endproc
 411              	.LFE24:
 412              		.size	syslog_ref_log, .-syslog_ref_log
 413              		.bss
 414              		.align	2
 415              		.set	.LANCHOR0,. + 0
 416              		.type	syslog_count, %object
 417              		.size	syslog_count, 4
 418              	syslog_count:
 419 0000 00000000 		.space	4
 420              		.type	syslog_head, %object
 421              		.size	syslog_head, 4
 422              	syslog_head:
 423 0004 00000000 		.space	4
 424              		.type	syslog_tail, %object
 425              		.size	syslog_tail, 4
 426              	syslog_tail:
 427 0008 00000000 		.space	4
 428              		.type	syslog_lost, %object
 429              		.size	syslog_lost, 4
 430              	syslog_lost:
 431 000c 00000000 		.space	4
 432              		.type	syslog_logmask, %object
 433              		.size	syslog_logmask, 4
 434              	syslog_logmask:
 435 0010 00000000 		.space	4
 436              		.type	syslog_lowmask_not, %object
 437              		.size	syslog_lowmask_not, 4
 438              	syslog_lowmask_not:
 439 0014 00000000 		.space	4
 440              		.type	syslog_buffer, %object
 441              		.size	syslog_buffer, 1024
 442              	syslog_buffer:
 443 0018 00000000 		.space	1024
 443      00000000 
 443      00000000 
 443      00000000 
 443      00000000 
 444              		.text
 445              	.Letext0:
 446              		.file 3 ".\\asp\\arch\\gcc/tool_stddef.h"
 447              		.file 4 ".\\asp\\include/t_stddef.h"
 448              		.file 5 ".\\asp\\include/t_syslog.h"
 449              		.file 6 ".\\asp\\include/log_output.h"
 450              		.file 7 ".\\asp\\target\\cy8ckit050_gcc/target_syssvc.h"