ARM GAS  C:\TEMP\cc3vroWL.s 			page 1


   1              		.syntax unified
   2              		.cpu cortex-m3
   3              		.fpu softvfp
   4              		.eabi_attribute 20, 1
   5              		.eabi_attribute 21, 1
   6              		.eabi_attribute 23, 3
   7              		.eabi_attribute 24, 1
   8              		.eabi_attribute 25, 1
   9              		.eabi_attribute 26, 1
  10              		.eabi_attribute 30, 4
  11              		.eabi_attribute 34, 1
  12              		.eabi_attribute 18, 4
  13              		.thumb
  14              		.file	"t_perror.c"
  15              		.text
  16              	.Ltext0:
  17              		.cfi_sections	.debug_frame
  18              		.section	.text.t_perror,"ax",%progbits
  19              		.align	1
  20              		.global	t_perror
  21              		.thumb
  22              		.thumb_func
  23              		.type	t_perror, %function
  24              	t_perror:
  25              	.LFB8:
  26              		.file 1 ".\\asp\\library\\t_perror.c"
   1:.\asp\library/t_perror.c **** /*
   2:.\asp\library/t_perror.c ****  *  TOPPERS Software
   3:.\asp\library/t_perror.c ****  *      Toyohashi Open Platform for Embedded Real-Time Systems
   4:.\asp\library/t_perror.c ****  * 
   5:.\asp\library/t_perror.c ****  *  Copyright (C) 2000-2003 by Embedded and Real-Time Systems Laboratory
   6:.\asp\library/t_perror.c ****  *                              Toyohashi Univ. of Technology, JAPAN
   7:.\asp\library/t_perror.c ****  *  Copyright (C) 2004-2006 by Embedded and Real-Time Systems Laboratory
   8:.\asp\library/t_perror.c ****  *              Graduate School of Information Science, Nagoya Univ., JAPAN
   9:.\asp\library/t_perror.c ****  * 
  10:.\asp\library/t_perror.c ****  *  上記著作権者は，以下の(1)〜(4)の条件を満たす場合に限り，本ソフトウェ
  11:.\asp\library/t_perror.c ****  *  ア（本ソフトウェアを改変したものを含む．以下同じ）を使用・複製・改
  12:.\asp\library/t_perror.c ****  *  変・再配布（以下，利用と呼ぶ）することを無償で許諾する．
  13:.\asp\library/t_perror.c ****  *  (1) 本ソフトウェアをソースコードの形で利用する場合には，上記の著作
  14:.\asp\library/t_perror.c ****  *      権表示，この利用条件および下記の無保証規定が，そのままの形でソー
  15:.\asp\library/t_perror.c ****  *      スコード中に含まれていること．
  16:.\asp\library/t_perror.c ****  *  (2) 本ソフトウェアを，ライブラリ形式など，他のソフトウェア開発に使
  17:.\asp\library/t_perror.c ****  *      用できる形で再配布する場合には，再配布に伴うドキュメント（利用
  18:.\asp\library/t_perror.c ****  *      者マニュアルなど）に，上記の著作権表示，この利用条件および下記
  19:.\asp\library/t_perror.c ****  *      の無保証規定を掲載すること．
  20:.\asp\library/t_perror.c ****  *  (3) 本ソフトウェアを，機器に組み込むなど，他のソフトウェア開発に使
  21:.\asp\library/t_perror.c ****  *      用できない形で再配布する場合には，次のいずれかの条件を満たすこ
  22:.\asp\library/t_perror.c ****  *      と．
  23:.\asp\library/t_perror.c ****  *    (a) 再配布に伴うドキュメント（利用者マニュアルなど）に，上記の著
  24:.\asp\library/t_perror.c ****  *        作権表示，この利用条件および下記の無保証規定を掲載すること．
  25:.\asp\library/t_perror.c ****  *    (b) 再配布の形態を，別に定める方法によって，TOPPERSプロジェクトに
  26:.\asp\library/t_perror.c ****  *        報告すること．
  27:.\asp\library/t_perror.c ****  *  (4) 本ソフトウェアの利用により直接的または間接的に生じるいかなる損
  28:.\asp\library/t_perror.c ****  *      害からも，上記著作権者およびTOPPERSプロジェクトを免責すること．
  29:.\asp\library/t_perror.c ****  *      また，本ソフトウェアのユーザまたはエンドユーザからのいかなる理
  30:.\asp\library/t_perror.c ****  *      由に基づく請求からも，上記著作権者およびTOPPERSプロジェクトを
  31:.\asp\library/t_perror.c ****  *      免責すること．
ARM GAS  C:\TEMP\cc3vroWL.s 			page 2


  32:.\asp\library/t_perror.c ****  * 
  33:.\asp\library/t_perror.c ****  *  本ソフトウェアは，無保証で提供されているものである．上記著作権者お
  34:.\asp\library/t_perror.c ****  *  よびTOPPERSプロジェクトは，本ソフトウェアに関して，特定の使用目的
  35:.\asp\library/t_perror.c ****  *  に対する適合性も含めて，いかなる保証も行わない．また，本ソフトウェ
  36:.\asp\library/t_perror.c ****  *  アの利用により直接的または間接的に生じたいかなる損害に関しても，そ
  37:.\asp\library/t_perror.c ****  *  の責任を負わない．
  38:.\asp\library/t_perror.c ****  * 
  39:.\asp\library/t_perror.c ****  *  @(#) $Id: t_perror.c 264 2007-07-12 08:23:10Z hiro $
  40:.\asp\library/t_perror.c ****  */
  41:.\asp\library/t_perror.c **** 
  42:.\asp\library/t_perror.c **** /*
  43:.\asp\library/t_perror.c ****  *		エラーメッセージの出力
  44:.\asp\library/t_perror.c ****  */
  45:.\asp\library/t_perror.c **** 
  46:.\asp\library/t_perror.c **** #include <t_stddef.h>
  47:.\asp\library/t_perror.c **** #include <t_syslog.h>
  48:.\asp\library/t_perror.c **** #include <t_stdlib.h>
  49:.\asp\library/t_perror.c **** 
  50:.\asp\library/t_perror.c **** void
  51:.\asp\library/t_perror.c **** t_perror(uint_t prio, const char *file, int_t line, const char *expr, ER ercd)
  52:.\asp\library/t_perror.c **** {
  27              		.loc 1 52 0
  28              		.cfi_startproc
  29              		@ args = 4, pretend = 0, frame = 32
  30              		@ frame_needed = 0, uses_anonymous_args = 0
  31              	.LVL0:
  32 0000 2DE9F041 		push	{r4, r5, r6, r7, r8, lr}
  33              	.LCFI0:
  34              		.cfi_def_cfa_offset 24
  35              		.cfi_offset 4, -24
  36              		.cfi_offset 5, -20
  37              		.cfi_offset 6, -16
  38              		.cfi_offset 7, -12
  39              		.cfi_offset 8, -8
  40              		.cfi_offset 14, -4
  41 0004 88B0     		sub	sp, sp, #32
  42              	.LCFI1:
  43              		.cfi_def_cfa_offset 56
  44              		.loc 1 52 0
  45 0006 0E9C     		ldr	r4, [sp, #56]
  46 0008 0546     		mov	r5, r0
  53:.\asp\library/t_perror.c **** 	syslog_5(prio, "%s (%d) reported by `%s' in line %d of `%s'.",
  47              		.loc 1 53 0
  48 000a 2046     		mov	r0, r4
  49              	.LVL1:
  52:.\asp\library/t_perror.c **** {
  50              		.loc 1 52 0
  51 000c 0E46     		mov	r6, r1
  52 000e 9846     		mov	r8, r3
  53 0010 1746     		mov	r7, r2
  54              		.loc 1 53 0
  55 0012 FFF7FEFF 		bl	itron_strerror
  56              	.LVL2:
  57              	.LBB4:
  58              	.LBB5:
  59              		.file 2 ".\\asp\\include/t_syslog.h"
   1:.\asp\include/t_syslog.h **** /*
ARM GAS  C:\TEMP\cc3vroWL.s 			page 3


   2:.\asp\include/t_syslog.h ****  *  TOPPERS/ASP Kernel
   3:.\asp\include/t_syslog.h ****  *      Toyohashi Open Platform for Embedded Real-Time Systems/
   4:.\asp\include/t_syslog.h ****  *      Advanced Standard Profile Kernel
   5:.\asp\include/t_syslog.h ****  * 
   6:.\asp\include/t_syslog.h ****  *  Copyright (C) 2000-2003 by Embedded and Real-Time Systems Laboratory
   7:.\asp\include/t_syslog.h ****  *                              Toyohashi Univ. of Technology, JAPAN
   8:.\asp\include/t_syslog.h ****  *  Copyright (C) 2004-2011 by Embedded and Real-Time Systems Laboratory
   9:.\asp\include/t_syslog.h ****  *              Graduate School of Information Science, Nagoya Univ., JAPAN
  10:.\asp\include/t_syslog.h ****  * 
  11:.\asp\include/t_syslog.h ****  *  上記著作権者は，以下の(1)〜(4)の条件を満たす場合に限り，本ソフトウェ
  12:.\asp\include/t_syslog.h ****  *  ア（本ソフトウェアを改変したものを含む．以下同じ）を使用・複製・改
  13:.\asp\include/t_syslog.h ****  *  変・再配布（以下，利用と呼ぶ）することを無償で許諾する．
  14:.\asp\include/t_syslog.h ****  *  (1) 本ソフトウェアをソースコードの形で利用する場合には，上記の著作
  15:.\asp\include/t_syslog.h ****  *      権表示，この利用条件および下記の無保証規定が，そのままの形でソー
  16:.\asp\include/t_syslog.h ****  *      スコード中に含まれていること．
  17:.\asp\include/t_syslog.h ****  *  (2) 本ソフトウェアを，ライブラリ形式など，他のソフトウェア開発に使
  18:.\asp\include/t_syslog.h ****  *      用できる形で再配布する場合には，再配布に伴うドキュメント（利用
  19:.\asp\include/t_syslog.h ****  *      者マニュアルなど）に，上記の著作権表示，この利用条件および下記
  20:.\asp\include/t_syslog.h ****  *      の無保証規定を掲載すること．
  21:.\asp\include/t_syslog.h ****  *  (3) 本ソフトウェアを，機器に組み込むなど，他のソフトウェア開発に使
  22:.\asp\include/t_syslog.h ****  *      用できない形で再配布する場合には，次のいずれかの条件を満たすこ
  23:.\asp\include/t_syslog.h ****  *      と．
  24:.\asp\include/t_syslog.h ****  *    (a) 再配布に伴うドキュメント（利用者マニュアルなど）に，上記の著
  25:.\asp\include/t_syslog.h ****  *        作権表示，この利用条件および下記の無保証規定を掲載すること．
  26:.\asp\include/t_syslog.h ****  *    (b) 再配布の形態を，別に定める方法によって，TOPPERSプロジェクトに
  27:.\asp\include/t_syslog.h ****  *        報告すること．
  28:.\asp\include/t_syslog.h ****  *  (4) 本ソフトウェアの利用により直接的または間接的に生じるいかなる損
  29:.\asp\include/t_syslog.h ****  *      害からも，上記著作権者およびTOPPERSプロジェクトを免責すること．
  30:.\asp\include/t_syslog.h ****  *      また，本ソフトウェアのユーザまたはエンドユーザからのいかなる理
  31:.\asp\include/t_syslog.h ****  *      由に基づく請求からも，上記著作権者およびTOPPERSプロジェクトを
  32:.\asp\include/t_syslog.h ****  *      免責すること．
  33:.\asp\include/t_syslog.h ****  * 
  34:.\asp\include/t_syslog.h ****  *  本ソフトウェアは，無保証で提供されているものである．上記著作権者お
  35:.\asp\include/t_syslog.h ****  *  よびTOPPERSプロジェクトは，本ソフトウェアに関して，特定の使用目的
  36:.\asp\include/t_syslog.h ****  *  に対する適合性も含めて，いかなる保証も行わない．また，本ソフトウェ
  37:.\asp\include/t_syslog.h ****  *  アの利用により直接的または間接的に生じたいかなる損害に関しても，そ
  38:.\asp\include/t_syslog.h ****  *  の責任を負わない．
  39:.\asp\include/t_syslog.h ****  * 
  40:.\asp\include/t_syslog.h ****  *  @(#) $Id: t_syslog.h 2126 2011-06-26 01:07:35Z ertl-hiro $
  41:.\asp\include/t_syslog.h ****  */
  42:.\asp\include/t_syslog.h **** 
  43:.\asp\include/t_syslog.h **** /*
  44:.\asp\include/t_syslog.h ****  *		システムログ出力を行うための定義
  45:.\asp\include/t_syslog.h ****  *
  46:.\asp\include/t_syslog.h ****  *  システムログサービスは，システムのログ情報を出力するためのサービス
  47:.\asp\include/t_syslog.h ****  *  である．カーネルからのログ情報の出力にも用いるため，内部で待ち状態
  48:.\asp\include/t_syslog.h ****  *  にはいることはない．
  49:.\asp\include/t_syslog.h ****  *
  50:.\asp\include/t_syslog.h ****  *  ログ情報は，カーネル内のログバッファに書き込むか，低レベルの文字出
  51:.\asp\include/t_syslog.h ****  *  力関数を用いて出力する．どちらを使うかは，拡張サービスコールで切り
  52:.\asp\include/t_syslog.h ****  *  換えることができる．
  53:.\asp\include/t_syslog.h ****  *
  54:.\asp\include/t_syslog.h ****  *  ログバッファ領域がオーバフローした場合には，古いログ情報を消して上
  55:.\asp\include/t_syslog.h ****  *  書きする．
  56:.\asp\include/t_syslog.h ****  *
  57:.\asp\include/t_syslog.h ****  *  アセンブリ言語のソースファイルからこのファイルをインクルードする時
  58:.\asp\include/t_syslog.h ****  *  は，TOPPERS_MACRO_ONLYを定義しておくことで，マクロ定義以外の記述を
ARM GAS  C:\TEMP\cc3vroWL.s 			page 4


  59:.\asp\include/t_syslog.h ****  *  除くことができる．
  60:.\asp\include/t_syslog.h ****  *
  61:.\asp\include/t_syslog.h ****  *  このファイルをインクルードする前に，t_stddef.hをインクルードしてお
  62:.\asp\include/t_syslog.h ****  *  くことが必要である．
  63:.\asp\include/t_syslog.h ****  */
  64:.\asp\include/t_syslog.h **** 
  65:.\asp\include/t_syslog.h **** #ifndef TOPPERS_T_SYSLOG_H
  66:.\asp\include/t_syslog.h **** #define TOPPERS_T_SYSLOG_H
  67:.\asp\include/t_syslog.h **** 
  68:.\asp\include/t_syslog.h **** #ifdef __cplusplus
  69:.\asp\include/t_syslog.h **** extern "C" {
  70:.\asp\include/t_syslog.h **** #endif
  71:.\asp\include/t_syslog.h **** 
  72:.\asp\include/t_syslog.h **** /*
  73:.\asp\include/t_syslog.h ****  *  ログ情報の種別の定義
  74:.\asp\include/t_syslog.h ****  */
  75:.\asp\include/t_syslog.h **** #define LOG_TYPE_COMMENT	UINT_C(0x01)	/* コメント */
  76:.\asp\include/t_syslog.h **** #define LOG_TYPE_ASSERT		UINT_C(0x02)	/* アサーションの失敗 */
  77:.\asp\include/t_syslog.h **** 
  78:.\asp\include/t_syslog.h **** #define LOG_TYPE_INH		UINT_C(0x11)	/* 割込みハンドラ */
  79:.\asp\include/t_syslog.h **** #define LOG_TYPE_ISR		UINT_C(0x12)	/* 割込みサービスルーチン */
  80:.\asp\include/t_syslog.h **** #define LOG_TYPE_CYC		UINT_C(0x13)	/* 周期ハンドラ */
  81:.\asp\include/t_syslog.h **** #define LOG_TYPE_ALM		UINT_C(0x14)	/* アラームハンドラ */
  82:.\asp\include/t_syslog.h **** #define LOG_TYPE_OVR		UINT_C(0x15)	/* オーバランハンドラ */
  83:.\asp\include/t_syslog.h **** #define LOG_TYPE_EXC		UINT_C(0x16)	/* CPU例外ハンドラ */
  84:.\asp\include/t_syslog.h **** #define LOG_TYPE_TEX		UINT_C(0x17)	/* タスク例外処理ルーチン */
  85:.\asp\include/t_syslog.h **** #define LOG_TYPE_TSKSTAT	UINT_C(0x18)	/* タスク状態変化 */
  86:.\asp\include/t_syslog.h **** #define LOG_TYPE_DSP		UINT_C(0x19)	/* ディスパッチャ */
  87:.\asp\include/t_syslog.h **** #define LOG_TYPE_SVC		UINT_C(0x1a)	/* サービスコール */
  88:.\asp\include/t_syslog.h **** 
  89:.\asp\include/t_syslog.h **** #define LOG_ENTER			UINT_C(0x00)	/* 入口／開始 */
  90:.\asp\include/t_syslog.h **** #define LOG_LEAVE			UINT_C(0x80)	/* 出口／終了 */
  91:.\asp\include/t_syslog.h **** 
  92:.\asp\include/t_syslog.h **** /*
  93:.\asp\include/t_syslog.h ****  *  ログ情報の重要度の定義
  94:.\asp\include/t_syslog.h ****  */
  95:.\asp\include/t_syslog.h **** #define LOG_EMERG			UINT_C(0)		/* シャットダウンに値するエラー */
  96:.\asp\include/t_syslog.h **** #define LOG_ALERT			UINT_C(1)
  97:.\asp\include/t_syslog.h **** #define LOG_CRIT			UINT_C(2)
  98:.\asp\include/t_syslog.h **** #define LOG_ERROR			UINT_C(3)		/* システムエラー */
  99:.\asp\include/t_syslog.h **** #define LOG_WARNING			UINT_C(4)		/* 警告メッセージ */
 100:.\asp\include/t_syslog.h **** #define LOG_NOTICE			UINT_C(5)
 101:.\asp\include/t_syslog.h **** #define LOG_INFO			UINT_C(6)
 102:.\asp\include/t_syslog.h **** #define LOG_DEBUG			UINT_C(7)		/* デバッグ用メッセージ */
 103:.\asp\include/t_syslog.h **** 
 104:.\asp\include/t_syslog.h **** #ifndef TOPPERS_MACRO_ONLY
 105:.\asp\include/t_syslog.h **** 
 106:.\asp\include/t_syslog.h **** /*
 107:.\asp\include/t_syslog.h ****  *  ログ情報のデータ構造
 108:.\asp\include/t_syslog.h ****  */
 109:.\asp\include/t_syslog.h **** 
 110:.\asp\include/t_syslog.h **** #define TMAX_LOGINFO	6
 111:.\asp\include/t_syslog.h **** 
 112:.\asp\include/t_syslog.h **** typedef struct {
 113:.\asp\include/t_syslog.h **** 	uint_t		logtype;				/* ログ情報の種別 */
 114:.\asp\include/t_syslog.h **** 	SYSTIM		logtim;					/* ログ時刻 */
 115:.\asp\include/t_syslog.h **** 	intptr_t	loginfo[TMAX_LOGINFO];	/* その他のログ情報 */
ARM GAS  C:\TEMP\cc3vroWL.s 			page 5


 116:.\asp\include/t_syslog.h **** } SYSLOG;
 117:.\asp\include/t_syslog.h **** 
 118:.\asp\include/t_syslog.h **** /*
 119:.\asp\include/t_syslog.h ****  *  ログ情報の重要度のビットマップを作るためのマクロ
 120:.\asp\include/t_syslog.h ****  */
 121:.\asp\include/t_syslog.h **** #define LOG_MASK(prio)		(1U << (prio))
 122:.\asp\include/t_syslog.h **** #define LOG_UPTO(prio)		((1U << ((prio) + 1)) - 1)
 123:.\asp\include/t_syslog.h **** 
 124:.\asp\include/t_syslog.h **** /*
 125:.\asp\include/t_syslog.h ****  *  パケット形式の定義
 126:.\asp\include/t_syslog.h ****  */
 127:.\asp\include/t_syslog.h **** typedef struct t_syslog_rlog {
 128:.\asp\include/t_syslog.h **** 	uint_t	count;		/* ログバッファ中のログの数 */
 129:.\asp\include/t_syslog.h **** 	uint_t	lost;		/* 失われたログの数 */
 130:.\asp\include/t_syslog.h **** 	uint_t	logmask;	/* ログバッファに記録すべき重要度 */
 131:.\asp\include/t_syslog.h **** 	uint_t	lowmask;	/* 低レベル出力すべき重要度 */
 132:.\asp\include/t_syslog.h **** } T_SYSLOG_RLOG;
 133:.\asp\include/t_syslog.h **** 
 134:.\asp\include/t_syslog.h **** /*
 135:.\asp\include/t_syslog.h ****  *  ログ情報を出力するためのライブラリ関数
 136:.\asp\include/t_syslog.h ****  */
 137:.\asp\include/t_syslog.h **** 
 138:.\asp\include/t_syslog.h **** #ifndef TOPPERS_OMIT_SYSLOG
 139:.\asp\include/t_syslog.h **** 
 140:.\asp\include/t_syslog.h **** extern ER	syslog_wri_log(uint_t prio, const SYSLOG *p_syslog) throw();
 141:.\asp\include/t_syslog.h **** 
 142:.\asp\include/t_syslog.h **** Inline void
 143:.\asp\include/t_syslog.h **** _syslog_0(uint_t prio, uint_t type)
 144:.\asp\include/t_syslog.h **** {
 145:.\asp\include/t_syslog.h **** 	SYSLOG	logbuf;
 146:.\asp\include/t_syslog.h **** 
 147:.\asp\include/t_syslog.h **** 	logbuf.logtype = type;
 148:.\asp\include/t_syslog.h **** 	(void) syslog_wri_log(prio, &logbuf);
 149:.\asp\include/t_syslog.h **** }
 150:.\asp\include/t_syslog.h **** 
 151:.\asp\include/t_syslog.h **** Inline void
 152:.\asp\include/t_syslog.h **** _syslog_1(uint_t prio, uint_t type, intptr_t arg1)
 153:.\asp\include/t_syslog.h **** {
 154:.\asp\include/t_syslog.h **** 	SYSLOG	logbuf;
 155:.\asp\include/t_syslog.h **** 
 156:.\asp\include/t_syslog.h **** 	logbuf.logtype = type;
 157:.\asp\include/t_syslog.h **** 	logbuf.loginfo[0] = arg1;
 158:.\asp\include/t_syslog.h **** 	(void) syslog_wri_log(prio, &logbuf);
 159:.\asp\include/t_syslog.h **** }
 160:.\asp\include/t_syslog.h **** 
 161:.\asp\include/t_syslog.h **** Inline void
 162:.\asp\include/t_syslog.h **** _syslog_2(uint_t prio, uint_t type, intptr_t arg1, intptr_t arg2)
 163:.\asp\include/t_syslog.h **** {
 164:.\asp\include/t_syslog.h **** 	SYSLOG	logbuf;
 165:.\asp\include/t_syslog.h **** 
 166:.\asp\include/t_syslog.h **** 	logbuf.logtype = type;
 167:.\asp\include/t_syslog.h **** 	logbuf.loginfo[0] = arg1;
 168:.\asp\include/t_syslog.h **** 	logbuf.loginfo[1] = arg2;
 169:.\asp\include/t_syslog.h **** 	(void) syslog_wri_log(prio, &logbuf);
 170:.\asp\include/t_syslog.h **** }
 171:.\asp\include/t_syslog.h **** 
 172:.\asp\include/t_syslog.h **** Inline void
ARM GAS  C:\TEMP\cc3vroWL.s 			page 6


 173:.\asp\include/t_syslog.h **** _syslog_3(uint_t prio, uint_t type, intptr_t arg1, intptr_t arg2,
 174:.\asp\include/t_syslog.h **** 														intptr_t arg3)
 175:.\asp\include/t_syslog.h **** {
 176:.\asp\include/t_syslog.h **** 	SYSLOG	logbuf;
 177:.\asp\include/t_syslog.h **** 
 178:.\asp\include/t_syslog.h **** 	logbuf.logtype = type;
 179:.\asp\include/t_syslog.h **** 	logbuf.loginfo[0] = arg1;
 180:.\asp\include/t_syslog.h **** 	logbuf.loginfo[1] = arg2;
 181:.\asp\include/t_syslog.h **** 	logbuf.loginfo[2] = arg3;
 182:.\asp\include/t_syslog.h **** 	(void) syslog_wri_log(prio, &logbuf);
 183:.\asp\include/t_syslog.h **** }
 184:.\asp\include/t_syslog.h **** 
 185:.\asp\include/t_syslog.h **** Inline void
 186:.\asp\include/t_syslog.h **** _syslog_4(uint_t prio, uint_t type, intptr_t arg1, intptr_t arg2,
 187:.\asp\include/t_syslog.h **** 										intptr_t arg3, intptr_t arg4)
 188:.\asp\include/t_syslog.h **** {
 189:.\asp\include/t_syslog.h **** 	SYSLOG	logbuf;
 190:.\asp\include/t_syslog.h **** 
 191:.\asp\include/t_syslog.h **** 	logbuf.logtype = type;
 192:.\asp\include/t_syslog.h **** 	logbuf.loginfo[0] = arg1;
 193:.\asp\include/t_syslog.h **** 	logbuf.loginfo[1] = arg2;
 194:.\asp\include/t_syslog.h **** 	logbuf.loginfo[2] = arg3;
 195:.\asp\include/t_syslog.h **** 	logbuf.loginfo[3] = arg4;
 196:.\asp\include/t_syslog.h **** 	(void) syslog_wri_log(prio, &logbuf);
 197:.\asp\include/t_syslog.h **** }
 198:.\asp\include/t_syslog.h **** 
 199:.\asp\include/t_syslog.h **** Inline void
 200:.\asp\include/t_syslog.h **** _syslog_5(uint_t prio, uint_t type, intptr_t arg1, intptr_t arg2,
 201:.\asp\include/t_syslog.h **** 							intptr_t arg3, intptr_t arg4, intptr_t arg5)
 202:.\asp\include/t_syslog.h **** {
 203:.\asp\include/t_syslog.h **** 	SYSLOG	logbuf;
 204:.\asp\include/t_syslog.h **** 
 205:.\asp\include/t_syslog.h **** 	logbuf.logtype = type;
 206:.\asp\include/t_syslog.h **** 	logbuf.loginfo[0] = arg1;
 207:.\asp\include/t_syslog.h **** 	logbuf.loginfo[1] = arg2;
 208:.\asp\include/t_syslog.h **** 	logbuf.loginfo[2] = arg3;
 209:.\asp\include/t_syslog.h **** 	logbuf.loginfo[3] = arg4;
 210:.\asp\include/t_syslog.h **** 	logbuf.loginfo[4] = arg5;
 211:.\asp\include/t_syslog.h **** 	(void) syslog_wri_log(prio, &logbuf);
 212:.\asp\include/t_syslog.h **** }
 213:.\asp\include/t_syslog.h **** 
 214:.\asp\include/t_syslog.h **** Inline void
 215:.\asp\include/t_syslog.h **** _syslog_6(uint_t prio, uint_t type, intptr_t arg1, intptr_t arg2,
 216:.\asp\include/t_syslog.h **** 				intptr_t arg3, intptr_t arg4, intptr_t arg5, intptr_t arg6)
 217:.\asp\include/t_syslog.h **** {
 218:.\asp\include/t_syslog.h **** 	SYSLOG	logbuf;
 219:.\asp\include/t_syslog.h **** 
 220:.\asp\include/t_syslog.h **** 	logbuf.logtype = type;
 221:.\asp\include/t_syslog.h **** 	logbuf.loginfo[0] = arg1;
  60              		.loc 2 221 0
  61 0016 0949     		ldr	r1, .L2
 220:.\asp\include/t_syslog.h **** 	logbuf.logtype = type;
  62              		.loc 2 220 0
  63 0018 0123     		movs	r3, #1
  64              		.loc 2 221 0
  65 001a 0291     		str	r1, [sp, #8]
 222:.\asp\include/t_syslog.h **** 	logbuf.loginfo[1] = arg2;
ARM GAS  C:\TEMP\cc3vroWL.s 			page 7


  66              		.loc 2 222 0
  67 001c 0390     		str	r0, [sp, #12]
  68              	.LBE5:
  69              	.LBE4:
  70              		.loc 1 53 0
  71 001e 2412     		asrs	r4, r4, #8
  72              	.LVL3:
  73              	.LBB7:
  74              	.LBB6:
 223:.\asp\include/t_syslog.h **** 	logbuf.loginfo[2] = arg3;
 224:.\asp\include/t_syslog.h **** 	logbuf.loginfo[3] = arg4;
 225:.\asp\include/t_syslog.h **** 	logbuf.loginfo[4] = arg5;
 226:.\asp\include/t_syslog.h **** 	logbuf.loginfo[5] = arg6;
 227:.\asp\include/t_syslog.h **** 	(void) syslog_wri_log(prio, &logbuf);
  75              		.loc 2 227 0
  76 0020 2846     		mov	r0, r5
  77              	.LVL4:
  78 0022 6946     		mov	r1, sp
 220:.\asp\include/t_syslog.h **** 	logbuf.logtype = type;
  79              		.loc 2 220 0
  80 0024 0093     		str	r3, [sp, #0]
 223:.\asp\include/t_syslog.h **** 	logbuf.loginfo[2] = arg3;
  81              		.loc 2 223 0
  82 0026 0494     		str	r4, [sp, #16]
 224:.\asp\include/t_syslog.h **** 	logbuf.loginfo[3] = arg4;
  83              		.loc 2 224 0
  84 0028 CDF81480 		str	r8, [sp, #20]
 225:.\asp\include/t_syslog.h **** 	logbuf.loginfo[4] = arg5;
  85              		.loc 2 225 0
  86 002c 0697     		str	r7, [sp, #24]
 226:.\asp\include/t_syslog.h **** 	logbuf.loginfo[5] = arg6;
  87              		.loc 2 226 0
  88 002e 0796     		str	r6, [sp, #28]
  89              		.loc 2 227 0
  90 0030 FFF7FEFF 		bl	syslog_wri_log
  91              	.LVL5:
  92              	.LBE6:
  93              	.LBE7:
  54:.\asp\library/t_perror.c **** 						itron_strerror(ercd), SERCD(ercd), expr, line, file);
  55:.\asp\library/t_perror.c **** 
  56:.\asp\library/t_perror.c **** }
  94              		.loc 1 56 0
  95 0034 08B0     		add	sp, sp, #32
  96 0036 BDE8F081 		pop	{r4, r5, r6, r7, r8, pc}
  97              	.L3:
  98 003a 00BF     		.align	2
  99              	.L2:
 100 003c 00000000 		.word	.LC0
 101              		.cfi_endproc
 102              	.LFE8:
 103              		.size	t_perror, .-t_perror
 104              		.section	.rodata.str1.1,"aMS",%progbits,1
 105              	.LC0:
 106 0000 25732028 		.ascii	"%s (%d) reported by `%s' in line %d of `%s'.\000"
 106      25642920 
 106      7265706F 
 106      72746564 
ARM GAS  C:\TEMP\cc3vroWL.s 			page 8


 106      20627920 
 107              		.text
 108              	.Letext0:
 109              		.file 3 ".\\asp\\arch\\gcc/tool_stddef.h"
 110              		.file 4 ".\\asp\\include/t_stddef.h"
 111              		.file 5 ".\\asp\\include/t_stdlib.h"