ARM GAS  C:\TEMP\ccJ2l2ua.s 			page 1


   1              		.syntax unified
   2              		.cpu cortex-m3
   3              		.fpu softvfp
   4              		.eabi_attribute 20, 1
   5              		.eabi_attribute 21, 1
   6              		.eabi_attribute 23, 3
   7              		.eabi_attribute 24, 1
   8              		.eabi_attribute 25, 1
   9              		.eabi_attribute 26, 1
  10              		.eabi_attribute 30, 4
  11              		.eabi_attribute 34, 1
  12              		.eabi_attribute 18, 4
  13              		.thumb
  14              		.file	"target_serial.c"
  15              		.text
  16              	.Ltext0:
  17              		.cfi_sections	.debug_frame
  18              		.section	.text.target_usart_init,"ax",%progbits
  19              		.align	1
  20              		.global	target_usart_init
  21              		.thumb
  22              		.thumb_func
  23              		.type	target_usart_init, %function
  24              	target_usart_init:
  25              	.LFB29:
  26              		.file 1 ".\\asp\\target\\cy8ckit050_gcc\\target_serial.c"
   1:.\asp\target\cy8ckit050_gcc/target_serial.c **** /*
   2:.\asp\target\cy8ckit050_gcc/target_serial.c ****  *  TOPPERS/ASP Kernel
   3:.\asp\target\cy8ckit050_gcc/target_serial.c ****  *      Toyohashi Open Platform for Embedded Real-Time Systems/
   4:.\asp\target\cy8ckit050_gcc/target_serial.c ****  *      Advanced Standard Profile Kernel
   5:.\asp\target\cy8ckit050_gcc/target_serial.c ****  * 
   6:.\asp\target\cy8ckit050_gcc/target_serial.c ****  *  Copyright (C) 2008-2011 by Embedded and Real-Time Systems Laboratory
   7:.\asp\target\cy8ckit050_gcc/target_serial.c ****  *              Graduate School of Information Science, Nagoya Univ., JAPAN
   8:.\asp\target\cy8ckit050_gcc/target_serial.c ****  * 
   9:.\asp\target\cy8ckit050_gcc/target_serial.c ****  *  上記著作権者は，以下の(1)〜(4)の条件を満たす場合に限り，本ソフトウェ
  10:.\asp\target\cy8ckit050_gcc/target_serial.c ****  *  ア（本ソフトウェアを改変したものを含む．以下同じ）を使用・複製・改
  11:.\asp\target\cy8ckit050_gcc/target_serial.c ****  *  変・再配布（以下，利用と呼ぶ）することを無償で許諾する．
  12:.\asp\target\cy8ckit050_gcc/target_serial.c ****  *  (1) 本ソフトウェアをソースコードの形で利用する場合には，上記の著作
  13:.\asp\target\cy8ckit050_gcc/target_serial.c ****  *      権表示，この利用条件および下記の無保証規定が，そのままの形でソー
  14:.\asp\target\cy8ckit050_gcc/target_serial.c ****  *      スコード中に含まれていること．
  15:.\asp\target\cy8ckit050_gcc/target_serial.c ****  *  (2) 本ソフトウェアを，ライブラリ形式など，他のソフトウェア開発に使
  16:.\asp\target\cy8ckit050_gcc/target_serial.c ****  *      用できる形で再配布する場合には，再配布に伴うドキュメント（利用
  17:.\asp\target\cy8ckit050_gcc/target_serial.c ****  *      者マニュアルなど）に，上記の著作権表示，この利用条件および下記
  18:.\asp\target\cy8ckit050_gcc/target_serial.c ****  *      の無保証規定を掲載すること．
  19:.\asp\target\cy8ckit050_gcc/target_serial.c ****  *  (3) 本ソフトウェアを，機器に組み込むなど，他のソフトウェア開発に使
  20:.\asp\target\cy8ckit050_gcc/target_serial.c ****  *      用できない形で再配布する場合には，次のいずれかの条件を満たすこ
  21:.\asp\target\cy8ckit050_gcc/target_serial.c ****  *      と．
  22:.\asp\target\cy8ckit050_gcc/target_serial.c ****  *    (a) 再配布に伴うドキュメント（利用者マニュアルなど）に，上記の著
  23:.\asp\target\cy8ckit050_gcc/target_serial.c ****  *        作権表示，この利用条件および下記の無保証規定を掲載すること．
  24:.\asp\target\cy8ckit050_gcc/target_serial.c ****  *    (b) 再配布の形態を，別に定める方法によって，TOPPERSプロジェクトに
  25:.\asp\target\cy8ckit050_gcc/target_serial.c ****  *        報告すること．
  26:.\asp\target\cy8ckit050_gcc/target_serial.c ****  *  (4) 本ソフトウェアの利用により直接的または間接的に生じるいかなる損
  27:.\asp\target\cy8ckit050_gcc/target_serial.c ****  *      害からも，上記著作権者およびTOPPERSプロジェクトを免責すること．
  28:.\asp\target\cy8ckit050_gcc/target_serial.c ****  *      また，本ソフトウェアのユーザまたはエンドユーザからのいかなる理
  29:.\asp\target\cy8ckit050_gcc/target_serial.c ****  *      由に基づく請求からも，上記著作権者およびTOPPERSプロジェクトを
  30:.\asp\target\cy8ckit050_gcc/target_serial.c ****  *      免責すること．
  31:.\asp\target\cy8ckit050_gcc/target_serial.c ****  * 
ARM GAS  C:\TEMP\ccJ2l2ua.s 			page 2


  32:.\asp\target\cy8ckit050_gcc/target_serial.c ****  *  本ソフトウェアは，無保証で提供されているものである．上記著作権者お
  33:.\asp\target\cy8ckit050_gcc/target_serial.c ****  *  よびTOPPERSプロジェクトは，本ソフトウェアに関して，特定の使用目的
  34:.\asp\target\cy8ckit050_gcc/target_serial.c ****  *  に対する適合性も含めて，いかなる保証も行わない．また，本ソフトウェ
  35:.\asp\target\cy8ckit050_gcc/target_serial.c ****  *  アの利用により直接的または間接的に生じたいかなる損害に関しても，そ
  36:.\asp\target\cy8ckit050_gcc/target_serial.c ****  *  の責任を負わない．
  37:.\asp\target\cy8ckit050_gcc/target_serial.c ****  * 
  38:.\asp\target\cy8ckit050_gcc/target_serial.c ****  *  @(#) $Id: target_serial.c 2202 2011-07-26 13:27:11Z ertl-honda $
  39:.\asp\target\cy8ckit050_gcc/target_serial.c ****  */
  40:.\asp\target\cy8ckit050_gcc/target_serial.c **** 
  41:.\asp\target\cy8ckit050_gcc/target_serial.c **** /*
  42:.\asp\target\cy8ckit050_gcc/target_serial.c ****  *  シリアルI/Oデバイス（SIO）ドライバ（CY8C5XLP用）
  43:.\asp\target\cy8ckit050_gcc/target_serial.c ****  */
  44:.\asp\target\cy8ckit050_gcc/target_serial.c **** 
  45:.\asp\target\cy8ckit050_gcc/target_serial.c **** #include <kernel.h>
  46:.\asp\target\cy8ckit050_gcc/target_serial.c **** #include <t_syslog.h>
  47:.\asp\target\cy8ckit050_gcc/target_serial.c **** #include "target_serial.h"
  48:.\asp\target\cy8ckit050_gcc/target_serial.c **** #include "core_insn.h"
  49:.\asp\target\cy8ckit050_gcc/target_serial.c **** #include "cyfitter.h"
  50:.\asp\target\cy8ckit050_gcc/target_serial.c **** #include "UART_1.h"
  51:.\asp\target\cy8ckit050_gcc/target_serial.c **** #if (TNUM_SIOP >= 2)
  52:.\asp\target\cy8ckit050_gcc/target_serial.c **** 	#include "UART_2.h"
  53:.\asp\target\cy8ckit050_gcc/target_serial.c **** #endif /* TNUM_SIOP >= 2 */
  54:.\asp\target\cy8ckit050_gcc/target_serial.c **** #if(UART_1_INTERNAL_CLOCK_USED)
  55:.\asp\target\cy8ckit050_gcc/target_serial.c ****     #include "UART_1_IntClock.h"
  56:.\asp\target\cy8ckit050_gcc/target_serial.c **** #endif /* End UART_1_INTERNAL_CLOCK_USED */
  57:.\asp\target\cy8ckit050_gcc/target_serial.c **** 
  58:.\asp\target\cy8ckit050_gcc/target_serial.c **** /*
  59:.\asp\target\cy8ckit050_gcc/target_serial.c ****  *  シリアルI/Oポート初期化ブロックの定義
  60:.\asp\target\cy8ckit050_gcc/target_serial.c ****  */
  61:.\asp\target\cy8ckit050_gcc/target_serial.c **** typedef struct sio_port_initialization_block {
  62:.\asp\target\cy8ckit050_gcc/target_serial.c **** 	ID       port;   /* SIOのポートID(論理番号) */
  63:.\asp\target\cy8ckit050_gcc/target_serial.c **** 	INTNO    intno;  /* 割込み番号 */
  64:.\asp\target\cy8ckit050_gcc/target_serial.c **** } SIOPINIB;
  65:.\asp\target\cy8ckit050_gcc/target_serial.c **** 
  66:.\asp\target\cy8ckit050_gcc/target_serial.c **** /*
  67:.\asp\target\cy8ckit050_gcc/target_serial.c ****  *  シリアルI/Oポート管理ブロックの定義
  68:.\asp\target\cy8ckit050_gcc/target_serial.c ****  */
  69:.\asp\target\cy8ckit050_gcc/target_serial.c **** struct sio_port_control_block {
  70:.\asp\target\cy8ckit050_gcc/target_serial.c **** 	const SIOPINIB  *p_siopinib;  /* シリアルI/Oポート初期化ブロック */
  71:.\asp\target\cy8ckit050_gcc/target_serial.c **** 	intptr_t        exinf;        /* 拡張情報 */
  72:.\asp\target\cy8ckit050_gcc/target_serial.c **** 	bool_t          opnflg;       /* オープン済みフラグ */
  73:.\asp\target\cy8ckit050_gcc/target_serial.c **** };
  74:.\asp\target\cy8ckit050_gcc/target_serial.c **** 
  75:.\asp\target\cy8ckit050_gcc/target_serial.c **** /*
  76:.\asp\target\cy8ckit050_gcc/target_serial.c ****  * シリアルI/Oポート初期化ブロック
  77:.\asp\target\cy8ckit050_gcc/target_serial.c ****  */
  78:.\asp\target\cy8ckit050_gcc/target_serial.c **** const SIOPINIB siopinib_table[TNUM_SIOP] = {
  79:.\asp\target\cy8ckit050_gcc/target_serial.c **** 	{(ID)0, (INTNO)INTNO_SIO},
  80:.\asp\target\cy8ckit050_gcc/target_serial.c **** #if (TNUM_SIOP >= 2)
  81:.\asp\target\cy8ckit050_gcc/target_serial.c **** 	{(ID)1, (INTNO)INTNO_SIO},
  82:.\asp\target\cy8ckit050_gcc/target_serial.c **** #endif /* TNUM_SIOP >= 2 */
  83:.\asp\target\cy8ckit050_gcc/target_serial.c **** };
  84:.\asp\target\cy8ckit050_gcc/target_serial.c **** 
  85:.\asp\target\cy8ckit050_gcc/target_serial.c **** /*
  86:.\asp\target\cy8ckit050_gcc/target_serial.c ****  *  シリアルI/Oポート管理ブロックのエリア
  87:.\asp\target\cy8ckit050_gcc/target_serial.c ****  */
  88:.\asp\target\cy8ckit050_gcc/target_serial.c **** SIOPCB	siopcb_table[TNUM_SIOP];
ARM GAS  C:\TEMP\ccJ2l2ua.s 			page 3


  89:.\asp\target\cy8ckit050_gcc/target_serial.c **** 
  90:.\asp\target\cy8ckit050_gcc/target_serial.c **** /*
  91:.\asp\target\cy8ckit050_gcc/target_serial.c ****  *  シリアルI/OポートIDから管理ブロックを取り出すためのマクロ
  92:.\asp\target\cy8ckit050_gcc/target_serial.c ****  */
  93:.\asp\target\cy8ckit050_gcc/target_serial.c **** #define INDEX_SIOP(siopid)	((uint_t)((siopid) - 1))
  94:.\asp\target\cy8ckit050_gcc/target_serial.c **** #define get_siopcb(siopid)	(&(siopcb_table[INDEX_SIOP(siopid)]))
  95:.\asp\target\cy8ckit050_gcc/target_serial.c **** 
  96:.\asp\target\cy8ckit050_gcc/target_serial.c **** /*
  97:.\asp\target\cy8ckit050_gcc/target_serial.c ****  *  ターゲットのシリアル初期化
  98:.\asp\target\cy8ckit050_gcc/target_serial.c ****  *
  99:.\asp\target\cy8ckit050_gcc/target_serial.c ****  * PSoC Creatorが生成するUARTドライバを参考に作成
 100:.\asp\target\cy8ckit050_gcc/target_serial.c ****  *
 101:.\asp\target\cy8ckit050_gcc/target_serial.c ****  * ・UART_*_TXCLKGENDPシンボルの定義が不明のためそのまま引用
 102:.\asp\target\cy8ckit050_gcc/target_serial.c ****  * ・UART_1_INTERNAL_CLOCK_USEDシンボルはユーザ選択可能とした
 103:.\asp\target\cy8ckit050_gcc/target_serial.c ****  */
 104:.\asp\target\cy8ckit050_gcc/target_serial.c **** void target_usart_init(ID siopid)
 105:.\asp\target\cy8ckit050_gcc/target_serial.c **** {
  27              		.loc 1 105 0
  28              		.cfi_startproc
  29              		@ args = 0, pretend = 0, frame = 0
  30              		@ frame_needed = 0, uses_anonymous_args = 0
  31              		@ link register save eliminated.
  32              	.LVL0:
 106:.\asp\target\cy8ckit050_gcc/target_serial.c **** 	switch(siopid) {
  33              		.loc 1 106 0
  34 0000 B8B9     		cbnz	r0, .L1
 107:.\asp\target\cy8ckit050_gcc/target_serial.c **** 	case 0:	/* シリアルポートID:0 */
 108:.\asp\target\cy8ckit050_gcc/target_serial.c **** 		if((UART_1_RXBITCTR_CONTROL_REG && UART_1_CNTR_ENABLE) == 0) {
  35              		.loc 1 108 0
  36 0002 0C4B     		ldr	r3, .L5
  37 0004 1A78     		ldrb	r2, [r3, #0]	@ zero_extendqisi2
  38 0006 A2B9     		cbnz	r2, .L1
 109:.\asp\target\cy8ckit050_gcc/target_serial.c **** 	        /* Init Count7 period */
 110:.\asp\target\cy8ckit050_gcc/target_serial.c **** 	        UART_1_RXBITCTR_PERIOD_REG = UART_1_RXBITCTR_INIT;
  39              		.loc 1 110 0
  40 0008 0B48     		ldr	r0, .L5+4
  41              	.LVL1:
  42 000a 7221     		movs	r1, #114
  43 000c 0170     		strb	r1, [r0, #0]
 111:.\asp\target\cy8ckit050_gcc/target_serial.c **** 	        /* Configure the Initial RX interrupt mask */
 112:.\asp\target\cy8ckit050_gcc/target_serial.c **** 	        UART_1_RXSTATUS_MASK_REG  = UART_1_INIT_RX_INTERRUPTS_MASK;
  44              		.loc 1 112 0
  45 000e 3C22     		movs	r2, #60
 113:.\asp\target\cy8ckit050_gcc/target_serial.c **** 	
 114:.\asp\target\cy8ckit050_gcc/target_serial.c **** 	        /* Write Counter Value for TX Bit Clk Generator*/
 115:.\asp\target\cy8ckit050_gcc/target_serial.c **** 	        #if(UART_1_TXCLKGEN_DP)
 116:.\asp\target\cy8ckit050_gcc/target_serial.c **** 	            UART_1_TXBITCLKGEN_CTR_REG = UART_1_BIT_CENTER;
  46              		.loc 1 116 0
  47 0010 0721     		movs	r1, #7
 112:.\asp\target\cy8ckit050_gcc/target_serial.c **** 	        UART_1_RXSTATUS_MASK_REG  = UART_1_INIT_RX_INTERRUPTS_MASK;
  48              		.loc 1 112 0
  49 0012 80F8FD20 		strb	r2, [r0, #253]
  50              		.loc 1 116 0
  51 0016 80F89E10 		strb	r1, [r0, #158]
 117:.\asp\target\cy8ckit050_gcc/target_serial.c **** 	            UART_1_TXBITCLKTX_COMPLETE_REG = (UART_1_NUMBER_OF_DATA_BITS +
  52              		.loc 1 117 0
  53 001a 4822     		movs	r2, #72
ARM GAS  C:\TEMP\ccJ2l2ua.s 			page 4


 118:.\asp\target\cy8ckit050_gcc/target_serial.c **** 	                        UART_1_NUMBER_OF_START_BIT) * UART_1_OVER_SAMPLE_COUNT;
 119:.\asp\target\cy8ckit050_gcc/target_serial.c **** 	        #else
 120:.\asp\target\cy8ckit050_gcc/target_serial.c **** 	            UART_1_TXBITCTR_PERIOD_REG = ((UART_1_NUMBER_OF_DATA_BITS +
 121:.\asp\target\cy8ckit050_gcc/target_serial.c **** 	                        UART_1_NUMBER_OF_START_BIT) * UART_1_OVER_SAMPLE_8) - 1u;
 122:.\asp\target\cy8ckit050_gcc/target_serial.c **** 	        #endif /* End UART_1_TXCLKGEN_DP */
 123:.\asp\target\cy8ckit050_gcc/target_serial.c **** 
 124:.\asp\target\cy8ckit050_gcc/target_serial.c **** 	        /* Configure the Initial TX interrupt mask */
 125:.\asp\target\cy8ckit050_gcc/target_serial.c **** 	        #if(UART_1_TX_INTERRUPT_ENABLED && (UART_1_TXBUFFERSIZE > UART_1_FIFO_LENGTH))
 126:.\asp\target\cy8ckit050_gcc/target_serial.c **** 	            UART_1_TXSTATUS_MASK_REG = UART_1_TX_STS_FIFO_EMPTY;
 127:.\asp\target\cy8ckit050_gcc/target_serial.c **** 	        #else
 128:.\asp\target\cy8ckit050_gcc/target_serial.c **** 	            UART_1_TXSTATUS_MASK_REG = UART_1_INIT_TX_INTERRUPTS_MASK;
  54              		.loc 1 128 0
  55 001c 0821     		movs	r1, #8
 117:.\asp\target\cy8ckit050_gcc/target_serial.c **** 	            UART_1_TXBITCLKTX_COMPLETE_REG = (UART_1_NUMBER_OF_DATA_BITS +
  56              		.loc 1 117 0
  57 001e 80F8AE20 		strb	r2, [r0, #174]
  58              		.loc 1 128 0
  59 0022 80F8FF10 		strb	r1, [r0, #255]
 129:.\asp\target\cy8ckit050_gcc/target_serial.c **** 	        #endif /*End UART_1_TX_INTERRUPT_ENABLED*/
 130:.\asp\target\cy8ckit050_gcc/target_serial.c **** 
 131:.\asp\target\cy8ckit050_gcc/target_serial.c **** 	        /*RX Counter (Count7) Enable */
 132:.\asp\target\cy8ckit050_gcc/target_serial.c **** 	        UART_1_RXBITCTR_CONTROL_REG |= UART_1_CNTR_ENABLE;
  60              		.loc 1 132 0
  61 0026 1878     		ldrb	r0, [r3, #0]	@ zero_extendqisi2
  62 0028 40F02002 		orr	r2, r0, #32
  63 002c 1A70     		strb	r2, [r3, #0]
 133:.\asp\target\cy8ckit050_gcc/target_serial.c **** 	        /* Enable the RX Interrupt. */
 134:.\asp\target\cy8ckit050_gcc/target_serial.c **** /*	        UART_1_RXSTATUS_ACTL_REG  |= UART_1_INT_ENABLE;*/
 135:.\asp\target\cy8ckit050_gcc/target_serial.c **** 
 136:.\asp\target\cy8ckit050_gcc/target_serial.c **** 	        /*TX Counter (DP/Count7) Enable */
 137:.\asp\target\cy8ckit050_gcc/target_serial.c **** 	        #if(!UART_1_TXCLKGEN_DP)
 138:.\asp\target\cy8ckit050_gcc/target_serial.c **** 	            UART_1_TXBITCTR_CONTROL_REG |= UART_1_CNTR_ENABLE;
 139:.\asp\target\cy8ckit050_gcc/target_serial.c **** 	        #endif /* End UART_1_TXCLKGEN_DP */
 140:.\asp\target\cy8ckit050_gcc/target_serial.c **** 	        /* Enable the TX Interrupt. */
 141:.\asp\target\cy8ckit050_gcc/target_serial.c **** /*	        UART_1_TXSTATUS_ACTL_REG |= UART_1_INT_ENABLE;*/
 142:.\asp\target\cy8ckit050_gcc/target_serial.c **** 
 143:.\asp\target\cy8ckit050_gcc/target_serial.c **** 		    #if(UART_1_INTERNAL_CLOCK_USED)
 144:.\asp\target\cy8ckit050_gcc/target_serial.c **** 	    	   /* Enable the clock. */
 145:.\asp\target\cy8ckit050_gcc/target_serial.c **** 		        UART_1_IntClock_Start();
 146:.\asp\target\cy8ckit050_gcc/target_serial.c **** 		    #endif /* End UART_1_INTERNAL_CLOCK_USED */
 147:.\asp\target\cy8ckit050_gcc/target_serial.c **** 		}
 148:.\asp\target\cy8ckit050_gcc/target_serial.c **** 		break;
 149:.\asp\target\cy8ckit050_gcc/target_serial.c **** 	default: /* 未定義ポート */
 150:.\asp\target\cy8ckit050_gcc/target_serial.c **** 		break;
 151:.\asp\target\cy8ckit050_gcc/target_serial.c **** 	};
 152:.\asp\target\cy8ckit050_gcc/target_serial.c **** }
  64              		.loc 1 152 0
 145:.\asp\target\cy8ckit050_gcc/target_serial.c **** 		        UART_1_IntClock_Start();
  65              		.loc 1 145 0
  66 002e FFF7FEBF 		b	UART_1_IntClock_Start
  67              	.LVL2:
  68              	.L1:
  69 0032 7047     		bx	lr
  70              	.L6:
  71              		.align	2
  72              	.L5:
  73 0034 97640040 		.word	1073767575
ARM GAS  C:\TEMP\ccJ2l2ua.s 			page 5


  74 0038 87640040 		.word	1073767559
  75              		.cfi_endproc
  76              	.LFE29:
  77              		.size	target_usart_init, .-target_usart_init
  78              		.section	.text.sio_initialize,"ax",%progbits
  79              		.align	1
  80              		.global	sio_initialize
  81              		.thumb
  82              		.thumb_func
  83              		.type	sio_initialize, %function
  84              	sio_initialize:
  85              	.LFB30:
 153:.\asp\target\cy8ckit050_gcc/target_serial.c **** 
 154:.\asp\target\cy8ckit050_gcc/target_serial.c **** /*
 155:.\asp\target\cy8ckit050_gcc/target_serial.c ****  *  SIOドライバの初期化
 156:.\asp\target\cy8ckit050_gcc/target_serial.c ****  */
 157:.\asp\target\cy8ckit050_gcc/target_serial.c **** void
 158:.\asp\target\cy8ckit050_gcc/target_serial.c **** sio_initialize(intptr_t exinf)
 159:.\asp\target\cy8ckit050_gcc/target_serial.c **** {
  86              		.loc 1 159 0
  87              		.cfi_startproc
  88              		@ args = 0, pretend = 0, frame = 0
  89              		@ frame_needed = 0, uses_anonymous_args = 0
  90              		@ link register save eliminated.
  91              	.LVL3:
 160:.\asp\target\cy8ckit050_gcc/target_serial.c **** 	SIOPCB	*p_siopcb;
 161:.\asp\target\cy8ckit050_gcc/target_serial.c **** 	uint_t	i;
 162:.\asp\target\cy8ckit050_gcc/target_serial.c **** 
 163:.\asp\target\cy8ckit050_gcc/target_serial.c **** 	/*
 164:.\asp\target\cy8ckit050_gcc/target_serial.c **** 	 *  シリアルI/Oポート管理ブロックの初期化
 165:.\asp\target\cy8ckit050_gcc/target_serial.c **** 	 */
 166:.\asp\target\cy8ckit050_gcc/target_serial.c **** 	for (p_siopcb = siopcb_table, i = 0; i < TNUM_SIOP; p_siopcb++, i++) {
 167:.\asp\target\cy8ckit050_gcc/target_serial.c **** 		p_siopcb->p_siopinib = &(siopinib_table[i]);
  92              		.loc 1 167 0
  93 0000 024B     		ldr	r3, .L8
  94 0002 034A     		ldr	r2, .L8+4
 168:.\asp\target\cy8ckit050_gcc/target_serial.c **** 		p_siopcb->opnflg = false;
  95              		.loc 1 168 0
  96 0004 0020     		movs	r0, #0
  97              	.LVL4:
 167:.\asp\target\cy8ckit050_gcc/target_serial.c **** 		p_siopcb->p_siopinib = &(siopinib_table[i]);
  98              		.loc 1 167 0
  99 0006 1A60     		str	r2, [r3, #0]
 100              		.loc 1 168 0
 101 0008 9860     		str	r0, [r3, #8]
 102              	.LVL5:
 103 000a 7047     		bx	lr
 104              	.L9:
 105              		.align	2
 106              	.L8:
 107 000c 00000000 		.word	siopcb_table
 108 0010 00000000 		.word	.LANCHOR0
 109              		.cfi_endproc
 110              	.LFE30:
 111              		.size	sio_initialize, .-sio_initialize
 112              		.section	.text.sio_opn_por,"ax",%progbits
 113              		.align	1
ARM GAS  C:\TEMP\ccJ2l2ua.s 			page 6


 114              		.global	sio_opn_por
 115              		.thumb
 116              		.thumb_func
 117              		.type	sio_opn_por, %function
 118              	sio_opn_por:
 119              	.LFB31:
 169:.\asp\target\cy8ckit050_gcc/target_serial.c **** 	}
 170:.\asp\target\cy8ckit050_gcc/target_serial.c **** }
 171:.\asp\target\cy8ckit050_gcc/target_serial.c **** 
 172:.\asp\target\cy8ckit050_gcc/target_serial.c **** 
 173:.\asp\target\cy8ckit050_gcc/target_serial.c **** /*
 174:.\asp\target\cy8ckit050_gcc/target_serial.c ****  *  シリアルI/Oポートのオープン
 175:.\asp\target\cy8ckit050_gcc/target_serial.c ****  */
 176:.\asp\target\cy8ckit050_gcc/target_serial.c **** SIOPCB *
 177:.\asp\target\cy8ckit050_gcc/target_serial.c **** sio_opn_por(ID siopid, intptr_t exinf)
 178:.\asp\target\cy8ckit050_gcc/target_serial.c **** {
 120              		.loc 1 178 0
 121              		.cfi_startproc
 122              		@ args = 0, pretend = 0, frame = 0
 123              		@ frame_needed = 0, uses_anonymous_args = 0
 124              	.LVL6:
 179:.\asp\target\cy8ckit050_gcc/target_serial.c **** 	SIOPCB          *p_siopcb;
 180:.\asp\target\cy8ckit050_gcc/target_serial.c **** 	const SIOPINIB  *p_siopinib;
 181:.\asp\target\cy8ckit050_gcc/target_serial.c **** 	bool_t  opnflg;
 182:.\asp\target\cy8ckit050_gcc/target_serial.c **** 	ER      ercd;
 183:.\asp\target\cy8ckit050_gcc/target_serial.c **** 
 184:.\asp\target\cy8ckit050_gcc/target_serial.c **** 	p_siopcb = get_siopcb(siopid);
 125              		.loc 1 184 0
 126 0000 431E     		subs	r3, r0, #1
 127 0002 0C22     		movs	r2, #12
 128 0004 5A43     		muls	r2, r3, r2
 178:.\asp\target\cy8ckit050_gcc/target_serial.c **** {
 129              		.loc 1 178 0
 130 0006 70B5     		push	{r4, r5, r6, lr}
 131              	.LCFI0:
 132              		.cfi_def_cfa_offset 16
 133              		.cfi_offset 4, -16
 134              		.cfi_offset 5, -12
 135              		.cfi_offset 6, -8
 136              		.cfi_offset 14, -4
 137              		.loc 1 184 0
 138 0008 064D     		ldr	r5, .L12
 139 000a 5419     		adds	r4, r2, r5
 140              	.LVL7:
 185:.\asp\target\cy8ckit050_gcc/target_serial.c **** 	p_siopinib = p_siopcb->p_siopinib;
 186:.\asp\target\cy8ckit050_gcc/target_serial.c **** 
 187:.\asp\target\cy8ckit050_gcc/target_serial.c **** 	/*
 188:.\asp\target\cy8ckit050_gcc/target_serial.c **** 	 *  オープンしたポートがあるかをopnflgに読んでおく．
 189:.\asp\target\cy8ckit050_gcc/target_serial.c **** 	 */
 190:.\asp\target\cy8ckit050_gcc/target_serial.c **** 	opnflg = p_siopcb->opnflg;
 141              		.loc 1 190 0
 142 000c A668     		ldr	r6, [r4, #8]
 191:.\asp\target\cy8ckit050_gcc/target_serial.c **** 
 192:.\asp\target\cy8ckit050_gcc/target_serial.c **** 	p_siopcb->exinf = exinf;
 143              		.loc 1 192 0
 144 000e 6160     		str	r1, [r4, #4]
 185:.\asp\target\cy8ckit050_gcc/target_serial.c **** 	p_siopinib = p_siopcb->p_siopinib;
ARM GAS  C:\TEMP\ccJ2l2ua.s 			page 7


 145              		.loc 1 185 0
 146 0010 5559     		ldr	r5, [r2, r5]
 147              	.LVL8:
 193:.\asp\target\cy8ckit050_gcc/target_serial.c **** 
 194:.\asp\target\cy8ckit050_gcc/target_serial.c **** 	/*
 195:.\asp\target\cy8ckit050_gcc/target_serial.c **** 	 *  ハードウェアの初期化
 196:.\asp\target\cy8ckit050_gcc/target_serial.c **** 	 */
 197:.\asp\target\cy8ckit050_gcc/target_serial.c **** 	target_usart_init(siopid);
 148              		.loc 1 197 0
 149 0012 FFF7FEFF 		bl	target_usart_init
 150              	.LVL9:
 198:.\asp\target\cy8ckit050_gcc/target_serial.c **** 
 199:.\asp\target\cy8ckit050_gcc/target_serial.c **** 	/*
 200:.\asp\target\cy8ckit050_gcc/target_serial.c **** 	 *  シリアルI/O割込みのマスクを解除する．
 201:.\asp\target\cy8ckit050_gcc/target_serial.c **** 	 */
 202:.\asp\target\cy8ckit050_gcc/target_serial.c **** 	if (!opnflg) {
 151              		.loc 1 202 0
 152 0016 16B9     		cbnz	r6, .L11
 203:.\asp\target\cy8ckit050_gcc/target_serial.c **** 		ercd = ena_int(p_siopinib->intno);
 153              		.loc 1 203 0
 154 0018 6868     		ldr	r0, [r5, #4]
 155 001a FFF7FEFF 		bl	ena_int
 156              	.LVL10:
 157              	.L11:
 204:.\asp\target\cy8ckit050_gcc/target_serial.c **** 		assert(ercd == E_OK);
 205:.\asp\target\cy8ckit050_gcc/target_serial.c **** 	}
 206:.\asp\target\cy8ckit050_gcc/target_serial.c **** 
 207:.\asp\target\cy8ckit050_gcc/target_serial.c **** 	return(p_siopcb);
 208:.\asp\target\cy8ckit050_gcc/target_serial.c **** }
 158              		.loc 1 208 0
 159 001e 2046     		mov	r0, r4
 160 0020 70BD     		pop	{r4, r5, r6, pc}
 161              	.L13:
 162 0022 00BF     		.align	2
 163              	.L12:
 164 0024 00000000 		.word	siopcb_table
 165              		.cfi_endproc
 166              	.LFE31:
 167              		.size	sio_opn_por, .-sio_opn_por
 168              		.section	.text.sio_cls_por,"ax",%progbits
 169              		.align	1
 170              		.global	sio_cls_por
 171              		.thumb
 172              		.thumb_func
 173              		.type	sio_cls_por, %function
 174              	sio_cls_por:
 175              	.LFB32:
 209:.\asp\target\cy8ckit050_gcc/target_serial.c **** 
 210:.\asp\target\cy8ckit050_gcc/target_serial.c **** /*
 211:.\asp\target\cy8ckit050_gcc/target_serial.c ****  *  シリアルI/Oポートのクローズ
 212:.\asp\target\cy8ckit050_gcc/target_serial.c ****  */
 213:.\asp\target\cy8ckit050_gcc/target_serial.c **** void
 214:.\asp\target\cy8ckit050_gcc/target_serial.c **** sio_cls_por(SIOPCB *p_siopcb)
 215:.\asp\target\cy8ckit050_gcc/target_serial.c **** {
 176              		.loc 1 215 0
 177              		.cfi_startproc
 178              		@ args = 0, pretend = 0, frame = 0
ARM GAS  C:\TEMP\ccJ2l2ua.s 			page 8


 179              		@ frame_needed = 0, uses_anonymous_args = 0
 180              		@ link register save eliminated.
 181              	.LVL11:
 216:.\asp\target\cy8ckit050_gcc/target_serial.c **** 	/*
 217:.\asp\target\cy8ckit050_gcc/target_serial.c **** 	 *  シリアルI/O割込みをマスクする．
 218:.\asp\target\cy8ckit050_gcc/target_serial.c **** 	 */
 219:.\asp\target\cy8ckit050_gcc/target_serial.c **** 	if (!(p_siopcb->opnflg)) {
 182              		.loc 1 219 0
 183 0000 8368     		ldr	r3, [r0, #8]
 184 0002 1BB9     		cbnz	r3, .L14
 220:.\asp\target\cy8ckit050_gcc/target_serial.c **** 		dis_int(p_siopcb->p_siopinib->intno);
 185              		.loc 1 220 0
 186 0004 0068     		ldr	r0, [r0, #0]
 187              	.LVL12:
 188 0006 4068     		ldr	r0, [r0, #4]
 221:.\asp\target\cy8ckit050_gcc/target_serial.c **** 	}
 222:.\asp\target\cy8ckit050_gcc/target_serial.c **** }
 189              		.loc 1 222 0
 220:.\asp\target\cy8ckit050_gcc/target_serial.c **** 		dis_int(p_siopcb->p_siopinib->intno);
 190              		.loc 1 220 0
 191 0008 FFF7FEBF 		b	dis_int
 192              	.LVL13:
 193              	.L14:
 194 000c 7047     		bx	lr
 195              		.cfi_endproc
 196              	.LFE32:
 197              		.size	sio_cls_por, .-sio_cls_por
 198              		.section	.text.sio_isr,"ax",%progbits
 199              		.align	1
 200              		.global	sio_isr
 201              		.thumb
 202              		.thumb_func
 203              		.type	sio_isr, %function
 204              	sio_isr:
 205              	.LFB33:
 223:.\asp\target\cy8ckit050_gcc/target_serial.c **** 
 224:.\asp\target\cy8ckit050_gcc/target_serial.c **** /*
 225:.\asp\target\cy8ckit050_gcc/target_serial.c ****  *  SIOの割込みサービスルーチン
 226:.\asp\target\cy8ckit050_gcc/target_serial.c ****  */
 227:.\asp\target\cy8ckit050_gcc/target_serial.c **** void
 228:.\asp\target\cy8ckit050_gcc/target_serial.c **** sio_isr(intptr_t exinf)
 229:.\asp\target\cy8ckit050_gcc/target_serial.c **** {
 206              		.loc 1 229 0
 207              		.cfi_startproc
 208              		@ args = 0, pretend = 0, frame = 0
 209              		@ frame_needed = 0, uses_anonymous_args = 0
 210              	.LVL14:
 230:.\asp\target\cy8ckit050_gcc/target_serial.c **** 	SIOPCB          *p_siopcb;
 231:.\asp\target\cy8ckit050_gcc/target_serial.c **** 
 232:.\asp\target\cy8ckit050_gcc/target_serial.c **** 	p_siopcb = get_siopcb(exinf);
 211              		.loc 1 232 0
 212 0000 0D4B     		ldr	r3, .L22
 229:.\asp\target\cy8ckit050_gcc/target_serial.c **** {
 213              		.loc 1 229 0
 214 0002 10B5     		push	{r4, lr}
 215              	.LCFI1:
 216              		.cfi_def_cfa_offset 8
ARM GAS  C:\TEMP\ccJ2l2ua.s 			page 9


 217              		.cfi_offset 4, -8
 218              		.cfi_offset 14, -4
 219              		.loc 1 232 0
 220 0004 0138     		subs	r0, r0, #1
 221              	.LVL15:
 222 0006 0C24     		movs	r4, #12
 223 0008 04FB0034 		mla	r4, r4, r0, r3
 224              	.LVL16:
 233:.\asp\target\cy8ckit050_gcc/target_serial.c **** 
 234:.\asp\target\cy8ckit050_gcc/target_serial.c **** 	/*
 235:.\asp\target\cy8ckit050_gcc/target_serial.c **** 	 *  割込みのクリア
 236:.\asp\target\cy8ckit050_gcc/target_serial.c **** 	 */
 237:.\asp\target\cy8ckit050_gcc/target_serial.c **** /* PSoC UARTでも必要か要確認 */
 238:.\asp\target\cy8ckit050_gcc/target_serial.c **** 
 239:.\asp\target\cy8ckit050_gcc/target_serial.c **** /* シリアルポートを切り替える場合は，p_siopcb->p_siopinib->ID で判別する*/
 240:.\asp\target\cy8ckit050_gcc/target_serial.c **** 
 241:.\asp\target\cy8ckit050_gcc/target_serial.c **** 	if ((UART_1_ReadRxStatus() & UART_1_RX_STS_FIFO_NOTEMPTY) != 0u) {
 225              		.loc 1 241 0
 226 000c FFF7FEFF 		bl	UART_1_ReadRxStatus
 227              	.LVL17:
 228 0010 00F02001 		and	r1, r0, #32
 229 0014 CAB2     		uxtb	r2, r1
 230 0016 12B1     		cbz	r2, .L17
 242:.\asp\target\cy8ckit050_gcc/target_serial.c **** 		/*
 243:.\asp\target\cy8ckit050_gcc/target_serial.c **** 		 *  受信通知コールバックルーチンを呼び出す．
 244:.\asp\target\cy8ckit050_gcc/target_serial.c **** 		 */
 245:.\asp\target\cy8ckit050_gcc/target_serial.c **** 		sio_irdy_rcv(p_siopcb->exinf);
 231              		.loc 1 245 0
 232 0018 6068     		ldr	r0, [r4, #4]
 233 001a FFF7FEFF 		bl	sio_irdy_rcv
 234              	.LVL18:
 235              	.L17:
 246:.\asp\target\cy8ckit050_gcc/target_serial.c **** 	}
 247:.\asp\target\cy8ckit050_gcc/target_serial.c **** 	if ((UART_1_ReadTxStatus() & UART_1_TX_STS_FIFO_FULL) == 0u) {
 236              		.loc 1 247 0
 237 001e FFF7FEFF 		bl	UART_1_ReadTxStatus
 238              	.LVL19:
 239 0022 00F00400 		and	r0, r0, #4
 240 0026 C3B2     		uxtb	r3, r0
 241 0028 23B9     		cbnz	r3, .L16
 248:.\asp\target\cy8ckit050_gcc/target_serial.c **** 		/*
 249:.\asp\target\cy8ckit050_gcc/target_serial.c **** 		 *  送信可能コールバックルーチンを呼び出す．
 250:.\asp\target\cy8ckit050_gcc/target_serial.c **** 		 */
 251:.\asp\target\cy8ckit050_gcc/target_serial.c **** 		sio_irdy_snd(p_siopcb->exinf);
 242              		.loc 1 251 0
 243 002a 6068     		ldr	r0, [r4, #4]
 252:.\asp\target\cy8ckit050_gcc/target_serial.c **** 	}
 253:.\asp\target\cy8ckit050_gcc/target_serial.c **** }
 244              		.loc 1 253 0
 245 002c BDE81040 		pop	{r4, lr}
 251:.\asp\target\cy8ckit050_gcc/target_serial.c **** 		sio_irdy_snd(p_siopcb->exinf);
 246              		.loc 1 251 0
 247 0030 FFF7FEBF 		b	sio_irdy_snd
 248              	.LVL20:
 249              	.L16:
 250 0034 10BD     		pop	{r4, pc}
 251              	.L23:
ARM GAS  C:\TEMP\ccJ2l2ua.s 			page 10


 252 0036 00BF     		.align	2
 253              	.L22:
 254 0038 00000000 		.word	siopcb_table
 255              		.cfi_endproc
 256              	.LFE33:
 257              		.size	sio_isr, .-sio_isr
 258              		.section	.text.sio_snd_chr,"ax",%progbits
 259              		.align	1
 260              		.global	sio_snd_chr
 261              		.thumb
 262              		.thumb_func
 263              		.type	sio_snd_chr, %function
 264              	sio_snd_chr:
 265              	.LFB34:
 254:.\asp\target\cy8ckit050_gcc/target_serial.c **** 
 255:.\asp\target\cy8ckit050_gcc/target_serial.c **** /*
 256:.\asp\target\cy8ckit050_gcc/target_serial.c ****  *  シリアルI/Oポートへの文字送信
 257:.\asp\target\cy8ckit050_gcc/target_serial.c ****  */
 258:.\asp\target\cy8ckit050_gcc/target_serial.c **** bool_t
 259:.\asp\target\cy8ckit050_gcc/target_serial.c **** sio_snd_chr(SIOPCB *p_siopcb, char c)
 260:.\asp\target\cy8ckit050_gcc/target_serial.c **** {
 266              		.loc 1 260 0
 267              		.cfi_startproc
 268              		@ args = 0, pretend = 0, frame = 0
 269              		@ frame_needed = 0, uses_anonymous_args = 0
 270              	.LVL21:
 271 0000 10B5     		push	{r4, lr}
 272              	.LCFI2:
 273              		.cfi_def_cfa_offset 8
 274              		.cfi_offset 4, -8
 275              		.cfi_offset 14, -4
 276              		.loc 1 260 0
 277 0002 0C46     		mov	r4, r1
 261:.\asp\target\cy8ckit050_gcc/target_serial.c **** /* シリアルポートを切り替える場合は，p_siopcb->p_siopinib->ID で判別する*/
 262:.\asp\target\cy8ckit050_gcc/target_serial.c **** 	if((UART_1_ReadTxStatus() & UART_1_TX_STS_FIFO_FULL) == 0u){
 278              		.loc 1 262 0
 279 0004 FFF7FEFF 		bl	UART_1_ReadTxStatus
 280              	.LVL22:
 281 0008 00F00400 		and	r0, r0, #4
 282 000c C1B2     		uxtb	r1, r0
 283 000e 19B9     		cbnz	r1, .L26
 263:.\asp\target\cy8ckit050_gcc/target_serial.c ****         UART_1_TXDATA_REG = (uint8)c;
 284              		.loc 1 263 0
 285 0010 024B     		ldr	r3, .L27
 264:.\asp\target\cy8ckit050_gcc/target_serial.c **** 		return(true);
 286              		.loc 1 264 0
 287 0012 0120     		movs	r0, #1
 263:.\asp\target\cy8ckit050_gcc/target_serial.c ****         UART_1_TXDATA_REG = (uint8)c;
 288              		.loc 1 263 0
 289 0014 1C70     		strb	r4, [r3, #0]
 290              		.loc 1 264 0
 291 0016 10BD     		pop	{r4, pc}
 292              	.L26:
 265:.\asp\target\cy8ckit050_gcc/target_serial.c **** 	}
 266:.\asp\target\cy8ckit050_gcc/target_serial.c **** 	return(false);
 293              		.loc 1 266 0
 294 0018 0020     		movs	r0, #0
ARM GAS  C:\TEMP\ccJ2l2ua.s 			page 11


 267:.\asp\target\cy8ckit050_gcc/target_serial.c **** }
 295              		.loc 1 267 0
 296 001a 10BD     		pop	{r4, pc}
 297              	.L28:
 298              		.align	2
 299              	.L27:
 300 001c 46650040 		.word	1073767750
 301              		.cfi_endproc
 302              	.LFE34:
 303              		.size	sio_snd_chr, .-sio_snd_chr
 304              		.section	.text.sio_rcv_chr,"ax",%progbits
 305              		.align	1
 306              		.global	sio_rcv_chr
 307              		.thumb
 308              		.thumb_func
 309              		.type	sio_rcv_chr, %function
 310              	sio_rcv_chr:
 311              	.LFB35:
 268:.\asp\target\cy8ckit050_gcc/target_serial.c **** 
 269:.\asp\target\cy8ckit050_gcc/target_serial.c **** /*
 270:.\asp\target\cy8ckit050_gcc/target_serial.c ****  *  シリアルI/Oポートからの文字受信
 271:.\asp\target\cy8ckit050_gcc/target_serial.c ****  */
 272:.\asp\target\cy8ckit050_gcc/target_serial.c **** int_t
 273:.\asp\target\cy8ckit050_gcc/target_serial.c **** sio_rcv_chr(SIOPCB *p_siopcb)
 274:.\asp\target\cy8ckit050_gcc/target_serial.c **** {
 312              		.loc 1 274 0
 313              		.cfi_startproc
 314              		@ args = 0, pretend = 0, frame = 0
 315              		@ frame_needed = 0, uses_anonymous_args = 0
 316              	.LVL23:
 317 0000 08B5     		push	{r3, lr}
 318              	.LCFI3:
 319              		.cfi_def_cfa_offset 8
 320              		.cfi_offset 3, -8
 321              		.cfi_offset 14, -4
 275:.\asp\target\cy8ckit050_gcc/target_serial.c **** /* シリアルポートを切り替える場合は，p_siopcb->p_siopinib->ID で判別する*/
 276:.\asp\target\cy8ckit050_gcc/target_serial.c **** 	if((UART_1_ReadRxStatus() & UART_1_RX_STS_FIFO_NOTEMPTY) != 0u){
 322              		.loc 1 276 0
 323 0002 FFF7FEFF 		bl	UART_1_ReadRxStatus
 324              	.LVL24:
 325 0006 00F02000 		and	r0, r0, #32
 326 000a C1B2     		uxtb	r1, r0
 327 000c 11B1     		cbz	r1, .L31
 277:.\asp\target\cy8ckit050_gcc/target_serial.c **** 		return((int_t) UART_1_GetChar());
 328              		.loc 1 277 0
 329 000e FFF7FEFF 		bl	UART_1_GetChar
 330              	.LVL25:
 331 0012 08BD     		pop	{r3, pc}
 332              	.L31:
 278:.\asp\target\cy8ckit050_gcc/target_serial.c **** 	}
 279:.\asp\target\cy8ckit050_gcc/target_serial.c **** 	return(-1);
 333              		.loc 1 279 0
 334 0014 4FF0FF30 		mov	r0, #-1
 280:.\asp\target\cy8ckit050_gcc/target_serial.c **** }
 335              		.loc 1 280 0
 336 0018 08BD     		pop	{r3, pc}
 337              		.cfi_endproc
ARM GAS  C:\TEMP\ccJ2l2ua.s 			page 12


 338              	.LFE35:
 339              		.size	sio_rcv_chr, .-sio_rcv_chr
 340              		.section	.text.sio_ena_cbr,"ax",%progbits
 341              		.align	1
 342              		.global	sio_ena_cbr
 343              		.thumb
 344              		.thumb_func
 345              		.type	sio_ena_cbr, %function
 346              	sio_ena_cbr:
 347              	.LFB36:
 281:.\asp\target\cy8ckit050_gcc/target_serial.c **** 
 282:.\asp\target\cy8ckit050_gcc/target_serial.c **** /*
 283:.\asp\target\cy8ckit050_gcc/target_serial.c ****  *  シリアルI/Oポートからのコールバックの許可
 284:.\asp\target\cy8ckit050_gcc/target_serial.c ****  */
 285:.\asp\target\cy8ckit050_gcc/target_serial.c **** void
 286:.\asp\target\cy8ckit050_gcc/target_serial.c **** sio_ena_cbr(SIOPCB *p_siopcb, uint_t cbrtn)
 287:.\asp\target\cy8ckit050_gcc/target_serial.c **** {
 348              		.loc 1 287 0
 349              		.cfi_startproc
 350              		@ args = 0, pretend = 0, frame = 0
 351              		@ frame_needed = 0, uses_anonymous_args = 0
 352              		@ link register save eliminated.
 353              	.LVL26:
 288:.\asp\target\cy8ckit050_gcc/target_serial.c **** /* シリアルポートを切り替える場合は，p_siopcb->p_siopinib->ID で判別する*/
 289:.\asp\target\cy8ckit050_gcc/target_serial.c **** 	switch (cbrtn) {
 354              		.loc 1 289 0
 355 0000 0129     		cmp	r1, #1
 356 0002 03D0     		beq	.L34
 357 0004 0229     		cmp	r1, #2
 358 0006 06D1     		bne	.L32
 290:.\asp\target\cy8ckit050_gcc/target_serial.c **** 	  case SIO_RDY_SND:
 291:.\asp\target\cy8ckit050_gcc/target_serial.c ****         /* Enable the TX Interrupt. */
 292:.\asp\target\cy8ckit050_gcc/target_serial.c ****         UART_1_TXSTATUS_ACTL_REG |= UART_1_INT_ENABLE;
 293:.\asp\target\cy8ckit050_gcc/target_serial.c **** 		break;
 294:.\asp\target\cy8ckit050_gcc/target_serial.c **** 	  case SIO_RDY_RCV:
 295:.\asp\target\cy8ckit050_gcc/target_serial.c ****         /* Enable the RX Interrupt. */
 296:.\asp\target\cy8ckit050_gcc/target_serial.c ****         UART_1_RXSTATUS_ACTL_REG  |= UART_1_INT_ENABLE;
 359              		.loc 1 296 0
 360 0008 034B     		ldr	r3, .L37
 361 000a 00E0     		b	.L36
 362              	.L34:
 292:.\asp\target\cy8ckit050_gcc/target_serial.c ****         UART_1_TXSTATUS_ACTL_REG |= UART_1_INT_ENABLE;
 363              		.loc 1 292 0
 364 000c 034B     		ldr	r3, .L37+4
 365              	.L36:
 366              		.loc 1 296 0
 367 000e 1A78     		ldrb	r2, [r3, #0]	@ zero_extendqisi2
 368 0010 42F01000 		orr	r0, r2, #16
 369              	.LVL27:
 370 0014 1870     		strb	r0, [r3, #0]
 371              	.L32:
 372 0016 7047     		bx	lr
 373              	.L38:
 374              		.align	2
 375              	.L37:
 376 0018 94650040 		.word	1073767828
 377 001c 96650040 		.word	1073767830
ARM GAS  C:\TEMP\ccJ2l2ua.s 			page 13


 378              		.cfi_endproc
 379              	.LFE36:
 380              		.size	sio_ena_cbr, .-sio_ena_cbr
 381              		.section	.text.sio_dis_cbr,"ax",%progbits
 382              		.align	1
 383              		.global	sio_dis_cbr
 384              		.thumb
 385              		.thumb_func
 386              		.type	sio_dis_cbr, %function
 387              	sio_dis_cbr:
 388              	.LFB37:
 297:.\asp\target\cy8ckit050_gcc/target_serial.c **** 		break;
 298:.\asp\target\cy8ckit050_gcc/target_serial.c **** 	}
 299:.\asp\target\cy8ckit050_gcc/target_serial.c **** }
 300:.\asp\target\cy8ckit050_gcc/target_serial.c **** 
 301:.\asp\target\cy8ckit050_gcc/target_serial.c **** /*
 302:.\asp\target\cy8ckit050_gcc/target_serial.c ****  *  シリアルI/Oポートからのコールバックの禁止
 303:.\asp\target\cy8ckit050_gcc/target_serial.c ****  */
 304:.\asp\target\cy8ckit050_gcc/target_serial.c **** void
 305:.\asp\target\cy8ckit050_gcc/target_serial.c **** sio_dis_cbr(SIOPCB *p_siopcb, uint_t cbrtn)
 306:.\asp\target\cy8ckit050_gcc/target_serial.c **** {
 389              		.loc 1 306 0
 390              		.cfi_startproc
 391              		@ args = 0, pretend = 0, frame = 0
 392              		@ frame_needed = 0, uses_anonymous_args = 0
 393              		@ link register save eliminated.
 394              	.LVL28:
 307:.\asp\target\cy8ckit050_gcc/target_serial.c **** /* シリアルポートを切り替える場合は，p_siopcb->p_siopinib->ID で判別する*/
 308:.\asp\target\cy8ckit050_gcc/target_serial.c **** 	switch (cbrtn) {
 395              		.loc 1 308 0
 396 0000 0129     		cmp	r1, #1
 397 0002 03D0     		beq	.L41
 398 0004 0229     		cmp	r1, #2
 399 0006 06D1     		bne	.L39
 309:.\asp\target\cy8ckit050_gcc/target_serial.c **** 	  case SIO_RDY_SND:
 310:.\asp\target\cy8ckit050_gcc/target_serial.c ****         /* Disable the TX Interrupt. */
 311:.\asp\target\cy8ckit050_gcc/target_serial.c ****         UART_1_TXSTATUS_ACTL_REG &= (uint8)~UART_1_INT_ENABLE;
 312:.\asp\target\cy8ckit050_gcc/target_serial.c **** 		break;
 313:.\asp\target\cy8ckit050_gcc/target_serial.c **** 	  case SIO_RDY_RCV:
 314:.\asp\target\cy8ckit050_gcc/target_serial.c ****         /* Disable the RX Interrupt. */
 315:.\asp\target\cy8ckit050_gcc/target_serial.c ****         UART_1_RXSTATUS_ACTL_REG  &= (uint8)~UART_1_INT_ENABLE;
 400              		.loc 1 315 0
 401 0008 034B     		ldr	r3, .L44
 402 000a 00E0     		b	.L43
 403              	.L41:
 311:.\asp\target\cy8ckit050_gcc/target_serial.c ****         UART_1_TXSTATUS_ACTL_REG &= (uint8)~UART_1_INT_ENABLE;
 404              		.loc 1 311 0
 405 000c 034B     		ldr	r3, .L44+4
 406              	.L43:
 407              		.loc 1 315 0
 408 000e 1A78     		ldrb	r2, [r3, #0]	@ zero_extendqisi2
 409 0010 02F0EF00 		and	r0, r2, #239
 410              	.LVL29:
 411 0014 1870     		strb	r0, [r3, #0]
 412              	.L39:
 413 0016 7047     		bx	lr
 414              	.L45:
ARM GAS  C:\TEMP\ccJ2l2ua.s 			page 14


 415              		.align	2
 416              	.L44:
 417 0018 94650040 		.word	1073767828
 418 001c 96650040 		.word	1073767830
 419              		.cfi_endproc
 420              	.LFE37:
 421              		.size	sio_dis_cbr, .-sio_dis_cbr
 422              		.comm	siopcb_table,12,4
 423              		.global	siopinib_table
 424              		.section	.rodata
 425              		.align	2
 426              		.set	.LANCHOR0,. + 0
 427              		.type	siopinib_table, %object
 428              		.size	siopinib_table, 8
 429              	siopinib_table:
 430 0000 00000000 		.word	0
 431 0004 10000000 		.word	16
 432              		.text
 433              	.Letext0:
 434              		.file 2 ".\\asp\\arch\\gcc/tool_stddef.h"
 435              		.file 3 ".\\asp\\include/t_stddef.h"
 436              		.file 4 ".\\asp\\include/kernel.h"
 437              		.file 5 "./Generated_Source/PSoC5/cytypes.h"
 438              		.file 6 ".\\asp\\target\\cy8ckit050_gcc\\target_serial.h"
 439              		.file 7 "./Generated_Source/PSoC5/UART_1.h"
 440              		.file 8 "./Generated_Source/PSoC5/UART_1_IntClock.h"