ARM GAS  C:\TEMP\ccMSuaQR.s 			page 1


   1              		.syntax unified
   2              		.cpu cortex-m3
   3              		.fpu softvfp
   4              		.eabi_attribute 20, 1
   5              		.eabi_attribute 21, 1
   6              		.eabi_attribute 23, 3
   7              		.eabi_attribute 24, 1
   8              		.eabi_attribute 25, 1
   9              		.eabi_attribute 26, 1
  10              		.eabi_attribute 30, 4
  11              		.eabi_attribute 34, 1
  12              		.eabi_attribute 18, 4
  13              		.thumb
  14              		.file	"task_refer.c"
  15              		.text
  16              	.Ltext0:
  17              		.cfi_sections	.debug_frame
  18              		.section	.text.ref_tsk,"ax",%progbits
  19              		.align	1
  20              		.global	ref_tsk
  21              		.thumb
  22              		.thumb_func
  23              		.type	ref_tsk, %function
  24              	ref_tsk:
  25              	.LFB60:
  26              		.file 1 ".\\asp\\kernel\\task_refer.c"
   1:.\asp\kernel/task_refer.c **** /*
   2:.\asp\kernel/task_refer.c ****  *  TOPPERS/ASP Kernel
   3:.\asp\kernel/task_refer.c ****  *      Toyohashi Open Platform for Embedded Real-Time Systems/
   4:.\asp\kernel/task_refer.c ****  *      Advanced Standard Profile Kernel
   5:.\asp\kernel/task_refer.c ****  * 
   6:.\asp\kernel/task_refer.c ****  *  Copyright (C) 2005-2008 by Embedded and Real-Time Systems Laboratory
   7:.\asp\kernel/task_refer.c ****  *              Graduate School of Information Science, Nagoya Univ., JAPAN
   8:.\asp\kernel/task_refer.c ****  * 
   9:.\asp\kernel/task_refer.c ****  *  ã‹L’˜ìŒ Ò‚ÍCˆÈ‰º‚Ì(1)`(4)‚ÌğŒ‚ğ–‚½‚·ê‡‚ÉŒÀ‚èC–{ƒ\ƒtƒgƒEƒF
  10:.\asp\kernel/task_refer.c ****  *  ƒAi–{ƒ\ƒtƒgƒEƒFƒA‚ğ‰ü•Ï‚µ‚½‚à‚Ì‚ğŠÜ‚ŞDˆÈ‰º“¯‚¶j‚ğg—pE•¡»E‰ü
  11:.\asp\kernel/task_refer.c ****  *  •ÏEÄ”z•ziˆÈ‰ºC—˜—p‚ÆŒÄ‚Ôj‚·‚é‚±‚Æ‚ğ–³‚Å‹–‘ø‚·‚éD
  12:.\asp\kernel/task_refer.c ****  *  (1) –{ƒ\ƒtƒgƒEƒFƒA‚ğƒ\[ƒXƒR[ƒh‚ÌŒ`‚Å—˜—p‚·‚éê‡‚É‚ÍCã‹L‚Ì’˜ì
  13:.\asp\kernel/task_refer.c ****  *      Œ •\¦C‚±‚Ì—˜—pğŒ‚¨‚æ‚Ñ‰º‹L‚Ì–³•ÛØ‹K’è‚ªC‚»‚Ì‚Ü‚Ü‚ÌŒ`‚Åƒ\[
  14:.\asp\kernel/task_refer.c ****  *      ƒXƒR[ƒh’†‚ÉŠÜ‚Ü‚ê‚Ä‚¢‚é‚±‚ÆD
  15:.\asp\kernel/task_refer.c ****  *  (2) –{ƒ\ƒtƒgƒEƒFƒA‚ğCƒ‰ƒCƒuƒ‰ƒŠŒ`®‚È‚ÇC‘¼‚Ìƒ\ƒtƒgƒEƒFƒAŠJ”­‚Ég
  16:.\asp\kernel/task_refer.c ****  *      —p‚Å‚«‚éŒ`‚ÅÄ”z•z‚·‚éê‡‚É‚ÍCÄ”z•z‚É”º‚¤ƒhƒLƒ…ƒƒ“ƒgi—˜—p
  17:.\asp\kernel/task_refer.c ****  *      Òƒ}ƒjƒ…ƒAƒ‹‚È‚Çj‚ÉCã‹L‚Ì’˜ìŒ •\¦C‚±‚Ì—˜—pğŒ‚¨‚æ‚Ñ‰º‹L
  18:.\asp\kernel/task_refer.c ****  *      ‚Ì–³•ÛØ‹K’è‚ğŒfÚ‚·‚é‚±‚ÆD
  19:.\asp\kernel/task_refer.c ****  *  (3) –{ƒ\ƒtƒgƒEƒFƒA‚ğC‹@Ší‚É‘g‚İ‚Ş‚È‚ÇC‘¼‚Ìƒ\ƒtƒgƒEƒFƒAŠJ”­‚Ég
  20:.\asp\kernel/task_refer.c ****  *      —p‚Å‚«‚È‚¢Œ`‚ÅÄ”z•z‚·‚éê‡‚É‚ÍCŸ‚Ì‚¢‚¸‚ê‚©‚ÌğŒ‚ğ–‚½‚·‚±
  21:.\asp\kernel/task_refer.c ****  *      ‚ÆD
  22:.\asp\kernel/task_refer.c ****  *    (a) Ä”z•z‚É”º‚¤ƒhƒLƒ…ƒƒ“ƒgi—˜—pÒƒ}ƒjƒ…ƒAƒ‹‚È‚Çj‚ÉCã‹L‚Ì’˜
  23:.\asp\kernel/task_refer.c ****  *        ìŒ •\¦C‚±‚Ì—˜—pğŒ‚¨‚æ‚Ñ‰º‹L‚Ì–³•ÛØ‹K’è‚ğŒfÚ‚·‚é‚±‚ÆD
  24:.\asp\kernel/task_refer.c ****  *    (b) Ä”z•z‚ÌŒ`‘Ô‚ğC•Ê‚É’è‚ß‚é•û–@‚É‚æ‚Á‚ÄCTOPPERSƒvƒƒWƒFƒNƒg‚É
  25:.\asp\kernel/task_refer.c ****  *        •ñ‚·‚é‚±‚ÆD
  26:.\asp\kernel/task_refer.c ****  *  (4) –{ƒ\ƒtƒgƒEƒFƒA‚Ì—˜—p‚É‚æ‚è’¼Ú“I‚Ü‚½‚ÍŠÔÚ“I‚É¶‚¶‚é‚¢‚©‚È‚é‘¹
  27:.\asp\kernel/task_refer.c ****  *      ŠQ‚©‚ç‚àCã‹L’˜ìŒ Ò‚¨‚æ‚ÑTOPPERSƒvƒƒWƒFƒNƒg‚ğ–ÆÓ‚·‚é‚±‚ÆD
  28:.\asp\kernel/task_refer.c ****  *      ‚Ü‚½C–{ƒ\ƒtƒgƒEƒFƒA‚Ìƒ†[ƒU‚Ü‚½‚ÍƒGƒ“ƒhƒ†[ƒU‚©‚ç‚Ì‚¢‚©‚È‚é—
  29:.\asp\kernel/task_refer.c ****  *      —R‚ÉŠî‚Ã‚­¿‹‚©‚ç‚àCã‹L’˜ìŒ Ò‚¨‚æ‚ÑTOPPERSƒvƒƒWƒFƒNƒg‚ğ
  30:.\asp\kernel/task_refer.c ****  *      –ÆÓ‚·‚é‚±‚ÆD
  31:.\asp\kernel/task_refer.c ****  * 
ARM GAS  C:\TEMP\ccMSuaQR.s 			page 2


  32:.\asp\kernel/task_refer.c ****  *  –{ƒ\ƒtƒgƒEƒFƒA‚ÍC–³•ÛØ‚Å’ñ‹Ÿ‚³‚ê‚Ä‚¢‚é‚à‚Ì‚Å‚ ‚éDã‹L’˜ìŒ Ò‚¨
  33:.\asp\kernel/task_refer.c ****  *  ‚æ‚ÑTOPPERSƒvƒƒWƒFƒNƒg‚ÍC–{ƒ\ƒtƒgƒEƒFƒA‚ÉŠÖ‚µ‚ÄC“Á’è‚Ìg—p–Ú“I
  34:.\asp\kernel/task_refer.c ****  *  ‚É‘Î‚·‚é“K‡«‚àŠÜ‚ß‚ÄC‚¢‚©‚È‚é•ÛØ‚às‚í‚È‚¢D‚Ü‚½C–{ƒ\ƒtƒgƒEƒF
  35:.\asp\kernel/task_refer.c ****  *  ƒA‚Ì—˜—p‚É‚æ‚è’¼Ú“I‚Ü‚½‚ÍŠÔÚ“I‚É¶‚¶‚½‚¢‚©‚È‚é‘¹ŠQ‚ÉŠÖ‚µ‚Ä‚àC‚»
  36:.\asp\kernel/task_refer.c ****  *  ‚ÌÓ”C‚ğ•‰‚í‚È‚¢D
  37:.\asp\kernel/task_refer.c ****  * 
  38:.\asp\kernel/task_refer.c ****  *  @(#) $Id: task_refer.c 1016 2008-05-10 08:42:16Z ertl-hiro $
  39:.\asp\kernel/task_refer.c ****  */
  40:.\asp\kernel/task_refer.c **** 
  41:.\asp\kernel/task_refer.c **** /*
  42:.\asp\kernel/task_refer.c ****  *		ƒ^ƒXƒN‚Ìó‘ÔQÆ‹@”\
  43:.\asp\kernel/task_refer.c ****  */
  44:.\asp\kernel/task_refer.c **** 
  45:.\asp\kernel/task_refer.c **** #include "kernel_impl.h"
  46:.\asp\kernel/task_refer.c **** #include "check.h"
  47:.\asp\kernel/task_refer.c **** #include "task.h"
  48:.\asp\kernel/task_refer.c **** #include "wait.h"
  49:.\asp\kernel/task_refer.c **** #include "semaphore.h"
  50:.\asp\kernel/task_refer.c **** #include "eventflag.h"
  51:.\asp\kernel/task_refer.c **** #include "dataqueue.h"
  52:.\asp\kernel/task_refer.c **** #include "pridataq.h"
  53:.\asp\kernel/task_refer.c **** #include "mailbox.h"
  54:.\asp\kernel/task_refer.c **** #include "mempfix.h"
  55:.\asp\kernel/task_refer.c **** #include "time_event.h"
  56:.\asp\kernel/task_refer.c **** 
  57:.\asp\kernel/task_refer.c **** /*
  58:.\asp\kernel/task_refer.c ****  *  ƒgƒŒ[ƒXƒƒOƒ}ƒNƒ‚ÌƒfƒtƒHƒ‹ƒg’è‹`
  59:.\asp\kernel/task_refer.c ****  */
  60:.\asp\kernel/task_refer.c **** #ifndef LOG_REF_TSK_ENTER
  61:.\asp\kernel/task_refer.c **** #define LOG_REF_TSK_ENTER(tskid, pk_rtsk)
  62:.\asp\kernel/task_refer.c **** #endif /* LOG_REF_TSK_ENTER */
  63:.\asp\kernel/task_refer.c **** 
  64:.\asp\kernel/task_refer.c **** #ifndef LOG_REF_TSK_LEAVE
  65:.\asp\kernel/task_refer.c **** #define LOG_REF_TSK_LEAVE(ercd, pk_rtsk)
  66:.\asp\kernel/task_refer.c **** #endif /* LOG_REF_TSK_LEAVE */
  67:.\asp\kernel/task_refer.c **** 
  68:.\asp\kernel/task_refer.c **** /*
  69:.\asp\kernel/task_refer.c ****  *  ƒ^ƒXƒN‚Ìó‘ÔQÆ
  70:.\asp\kernel/task_refer.c ****  */
  71:.\asp\kernel/task_refer.c **** #ifdef TOPPERS_ref_tsk
  72:.\asp\kernel/task_refer.c **** 
  73:.\asp\kernel/task_refer.c **** ER
  74:.\asp\kernel/task_refer.c **** ref_tsk(ID tskid, T_RTSK *pk_rtsk)
  75:.\asp\kernel/task_refer.c **** {
  27              		.loc 1 75 0
  28              		.cfi_startproc
  29              		@ args = 0, pretend = 0, frame = 0
  30              		@ frame_needed = 0, uses_anonymous_args = 0
  31              	.LVL0:
  32 0000 38B5     		push	{r3, r4, r5, lr}
  33              	.LCFI0:
  34              		.cfi_def_cfa_offset 16
  35              		.cfi_offset 3, -16
  36              		.cfi_offset 4, -12
  37              		.cfi_offset 5, -8
  38              		.cfi_offset 14, -4
  39              		.loc 1 75 0
ARM GAS  C:\TEMP\ccMSuaQR.s 			page 3


  40 0002 0C46     		mov	r4, r1
  41              	.LBB28:
  42              	.LBB29:
  43              	.LBB30:
  44              	.LBB31:
  45              		.file 2 ".\\asp\\arch\\arm_m_gcc\\common/core_insn.h"
   1:.\asp\arch\arm_m_gcc\common/core_insn.h **** /*
   2:.\asp\arch\arm_m_gcc\common/core_insn.h ****  *  TOPPERS/ASP Kernel
   3:.\asp\arch\arm_m_gcc\common/core_insn.h ****  *      Toyohashi Open Platform for Embedded Real-Time Systems/
   4:.\asp\arch\arm_m_gcc\common/core_insn.h ****  *      Advanced Standard Profile Kernel
   5:.\asp\arch\arm_m_gcc\common/core_insn.h ****  * 
   6:.\asp\arch\arm_m_gcc\common/core_insn.h ****  *  Copyright (C) 2008 by Embedded and Real-Time Systems Laboratory
   7:.\asp\arch\arm_m_gcc\common/core_insn.h ****  *              Graduate School of Information Science, Nagoya Univ., JAPAN
   8:.\asp\arch\arm_m_gcc\common/core_insn.h ****  * 
   9:.\asp\arch\arm_m_gcc\common/core_insn.h ****  *  ã‹L’˜ìŒ Ò‚ÍCˆÈ‰º‚Ì(1)`(4)‚ÌğŒ‚ğ–‚½‚·ê‡‚ÉŒÀ‚èC–{ƒ\ƒtƒgƒEƒF
  10:.\asp\arch\arm_m_gcc\common/core_insn.h ****  *  ƒAi–{ƒ\ƒtƒgƒEƒFƒA‚ğ‰ü•Ï‚µ‚½‚à‚Ì‚ğŠÜ‚ŞDˆÈ‰º“¯‚¶j‚ğg—pE•¡»E‰ü
  11:.\asp\arch\arm_m_gcc\common/core_insn.h ****  *  •ÏEÄ”z•ziˆÈ‰ºC—˜—p‚ÆŒÄ‚Ôj‚·‚é‚±‚Æ‚ğ–³‚Å‹–‘ø‚·‚éD
  12:.\asp\arch\arm_m_gcc\common/core_insn.h ****  *  (1) –{ƒ\ƒtƒgƒEƒFƒA‚ğƒ\[ƒXƒR[ƒh‚ÌŒ`‚Å—˜—p‚·‚éê‡‚É‚ÍCã‹L‚Ì’˜ì
  13:.\asp\arch\arm_m_gcc\common/core_insn.h ****  *      Œ •\¦C‚±‚Ì—˜—pğŒ‚¨‚æ‚Ñ‰º‹L‚Ì–³•ÛØ‹K’è‚ªC‚»‚Ì‚Ü‚Ü‚ÌŒ`‚Åƒ\[
  14:.\asp\arch\arm_m_gcc\common/core_insn.h ****  *      ƒXƒR[ƒh’†‚ÉŠÜ‚Ü‚ê‚Ä‚¢‚é‚±‚ÆD
  15:.\asp\arch\arm_m_gcc\common/core_insn.h ****  *  (2) –{ƒ\ƒtƒgƒEƒFƒA‚ğCƒ‰ƒCƒuƒ‰ƒŠŒ`®‚È‚ÇC‘¼‚Ìƒ\ƒtƒgƒEƒFƒAŠJ”­‚Ég
  16:.\asp\arch\arm_m_gcc\common/core_insn.h ****  *      —p‚Å‚«‚éŒ`‚ÅÄ”z•z‚·‚éê‡‚É‚ÍCÄ”z•z‚É”º‚¤ƒhƒLƒ…ƒƒ“ƒgi—˜—p
  17:.\asp\arch\arm_m_gcc\common/core_insn.h ****  *      Òƒ}ƒjƒ…ƒAƒ‹‚È‚Çj‚ÉCã‹L‚Ì’˜ìŒ •\¦C‚±‚Ì—˜—pğŒ‚¨‚æ‚Ñ‰º‹L
  18:.\asp\arch\arm_m_gcc\common/core_insn.h ****  *      ‚Ì–³•ÛØ‹K’è‚ğŒfÚ‚·‚é‚±‚ÆD
  19:.\asp\arch\arm_m_gcc\common/core_insn.h ****  *  (3) –{ƒ\ƒtƒgƒEƒFƒA‚ğC‹@Ší‚É‘g‚İ‚Ş‚È‚ÇC‘¼‚Ìƒ\ƒtƒgƒEƒFƒAŠJ”­‚Ég
  20:.\asp\arch\arm_m_gcc\common/core_insn.h ****  *      —p‚Å‚«‚È‚¢Œ`‚ÅÄ”z•z‚·‚éê‡‚É‚ÍCŸ‚Ì‚¢‚¸‚ê‚©‚ÌğŒ‚ğ–‚½‚·‚±
  21:.\asp\arch\arm_m_gcc\common/core_insn.h ****  *      ‚ÆD
  22:.\asp\arch\arm_m_gcc\common/core_insn.h ****  *    (a) Ä”z•z‚É”º‚¤ƒhƒLƒ…ƒƒ“ƒgi—˜—pÒƒ}ƒjƒ…ƒAƒ‹‚È‚Çj‚ÉCã‹L‚Ì’˜
  23:.\asp\arch\arm_m_gcc\common/core_insn.h ****  *        ìŒ •\¦C‚±‚Ì—˜—pğŒ‚¨‚æ‚Ñ‰º‹L‚Ì–³•ÛØ‹K’è‚ğŒfÚ‚·‚é‚±‚ÆD
  24:.\asp\arch\arm_m_gcc\common/core_insn.h ****  *    (b) Ä”z•z‚ÌŒ`‘Ô‚ğC•Ê‚É’è‚ß‚é•û–@‚É‚æ‚Á‚ÄCTOPPERSƒvƒƒWƒFƒNƒg‚É
  25:.\asp\arch\arm_m_gcc\common/core_insn.h ****  *        •ñ‚·‚é‚±‚ÆD
  26:.\asp\arch\arm_m_gcc\common/core_insn.h ****  *  (4) –{ƒ\ƒtƒgƒEƒFƒA‚Ì—˜—p‚É‚æ‚è’¼Ú“I‚Ü‚½‚ÍŠÔÚ“I‚É¶‚¶‚é‚¢‚©‚È‚é‘¹
  27:.\asp\arch\arm_m_gcc\common/core_insn.h ****  *      ŠQ‚©‚ç‚àCã‹L’˜ìŒ Ò‚¨‚æ‚ÑTOPPERSƒvƒƒWƒFƒNƒg‚ğ–ÆÓ‚·‚é‚±‚ÆD
  28:.\asp\arch\arm_m_gcc\common/core_insn.h ****  *      ‚Ü‚½C–{ƒ\ƒtƒgƒEƒFƒA‚Ìƒ†[ƒU‚Ü‚½‚ÍƒGƒ“ƒhƒ†[ƒU‚©‚ç‚Ì‚¢‚©‚È‚é—
  29:.\asp\arch\arm_m_gcc\common/core_insn.h ****  *      —R‚ÉŠî‚Ã‚­¿‹‚©‚ç‚àCã‹L’˜ìŒ Ò‚¨‚æ‚ÑTOPPERSƒvƒƒWƒFƒNƒg‚ğ
  30:.\asp\arch\arm_m_gcc\common/core_insn.h ****  *      –ÆÓ‚·‚é‚±‚ÆD
  31:.\asp\arch\arm_m_gcc\common/core_insn.h ****  * 
  32:.\asp\arch\arm_m_gcc\common/core_insn.h ****  *  –{ƒ\ƒtƒgƒEƒFƒA‚ÍC–³•ÛØ‚Å’ñ‹Ÿ‚³‚ê‚Ä‚¢‚é‚à‚Ì‚Å‚ ‚éDã‹L’˜ìŒ Ò‚¨
  33:.\asp\arch\arm_m_gcc\common/core_insn.h ****  *  ‚æ‚ÑTOPPERSƒvƒƒWƒFƒNƒg‚ÍC–{ƒ\ƒtƒgƒEƒFƒA‚ÉŠÖ‚µ‚ÄC“Á’è‚Ìg—p–Ú“I
  34:.\asp\arch\arm_m_gcc\common/core_insn.h ****  *  ‚É‘Î‚·‚é“K‡«‚àŠÜ‚ß‚ÄC‚¢‚©‚È‚é•ÛØ‚às‚í‚È‚¢D‚Ü‚½C–{ƒ\ƒtƒgƒEƒF
  35:.\asp\arch\arm_m_gcc\common/core_insn.h ****  *  ƒA‚Ì—˜—p‚É‚æ‚è’¼Ú“I‚Ü‚½‚ÍŠÔÚ“I‚É¶‚¶‚½‚¢‚©‚È‚é‘¹ŠQ‚ÉŠÖ‚µ‚Ä‚àC‚»
  36:.\asp\arch\arm_m_gcc\common/core_insn.h ****  *  ‚ÌÓ”C‚ğ•‰‚í‚È‚¢D
  37:.\asp\arch\arm_m_gcc\common/core_insn.h ****  * 
  38:.\asp\arch\arm_m_gcc\common/core_insn.h ****  *  @(#) $Id: core_insn.h 2310 2012-02-23 02:14:28Z ertl-honda $
  39:.\asp\arch\arm_m_gcc\common/core_insn.h ****  */
  40:.\asp\arch\arm_m_gcc\common/core_insn.h **** 
  41:.\asp\arch\arm_m_gcc\common/core_insn.h **** 
  42:.\asp\arch\arm_m_gcc\common/core_insn.h **** /*
  43:.\asp\arch\arm_m_gcc\common/core_insn.h ****  *  ƒRƒAˆË‘¶‚Ì“Áê–½—ß‚ÌƒCƒ“ƒ‰ƒCƒ“ŠÖ”’è‹`iARM-M—pj
  44:.\asp\arch\arm_m_gcc\common/core_insn.h ****  */
  45:.\asp\arch\arm_m_gcc\common/core_insn.h **** 
  46:.\asp\arch\arm_m_gcc\common/core_insn.h **** #ifndef CORE_INSN_H
  47:.\asp\arch\arm_m_gcc\common/core_insn.h **** #define CORE_INSN_H
  48:.\asp\arch\arm_m_gcc\common/core_insn.h **** 
  49:.\asp\arch\arm_m_gcc\common/core_insn.h **** #include <arm_m.h>
  50:.\asp\arch\arm_m_gcc\common/core_insn.h **** 
  51:.\asp\arch\arm_m_gcc\common/core_insn.h **** /*
ARM GAS  C:\TEMP\ccMSuaQR.s 			page 4


  52:.\asp\arch\arm_m_gcc\common/core_insn.h ****  *  ƒƒ‚ƒŠ‚ª•ÏX‚³‚ê‚é‚±‚Æ‚ğƒRƒ“ƒpƒCƒ‰‚É“`‚¦‚é‚½‚ß‚Ìƒ}ƒNƒ
  53:.\asp\arch\arm_m_gcc\common/core_insn.h ****  */
  54:.\asp\arch\arm_m_gcc\common/core_insn.h **** #define ARM_MEMORY_CHANGED Asm("":::"memory")
  55:.\asp\arch\arm_m_gcc\common/core_insn.h **** 
  56:.\asp\arch\arm_m_gcc\common/core_insn.h **** /*
  57:.\asp\arch\arm_m_gcc\common/core_insn.h ****  *  FAULTMASK‚ÌƒZƒbƒg
  58:.\asp\arch\arm_m_gcc\common/core_insn.h ****  */
  59:.\asp\arch\arm_m_gcc\common/core_insn.h **** Inline void
  60:.\asp\arch\arm_m_gcc\common/core_insn.h **** set_faultmask(void){
  61:.\asp\arch\arm_m_gcc\common/core_insn.h **** 	Asm("cpsid f":::"memory");
  62:.\asp\arch\arm_m_gcc\common/core_insn.h **** }
  63:.\asp\arch\arm_m_gcc\common/core_insn.h **** 
  64:.\asp\arch\arm_m_gcc\common/core_insn.h **** /*
  65:.\asp\arch\arm_m_gcc\common/core_insn.h ****  *  FAULTMASK‚ÌƒNƒŠƒA
  66:.\asp\arch\arm_m_gcc\common/core_insn.h ****  */
  67:.\asp\arch\arm_m_gcc\common/core_insn.h **** Inline void
  68:.\asp\arch\arm_m_gcc\common/core_insn.h **** clear_faultmask(void){
  69:.\asp\arch\arm_m_gcc\common/core_insn.h **** 	Asm("cpsie f":::"memory");
  70:.\asp\arch\arm_m_gcc\common/core_insn.h **** }
  71:.\asp\arch\arm_m_gcc\common/core_insn.h **** 
  72:.\asp\arch\arm_m_gcc\common/core_insn.h **** /*
  73:.\asp\arch\arm_m_gcc\common/core_insn.h ****  *  PRIMASK‚ÌƒZƒbƒg
  74:.\asp\arch\arm_m_gcc\common/core_insn.h ****  */
  75:.\asp\arch\arm_m_gcc\common/core_insn.h **** Inline void
  76:.\asp\arch\arm_m_gcc\common/core_insn.h **** set_primask(void){
  77:.\asp\arch\arm_m_gcc\common/core_insn.h **** 	Asm("cpsid i":::"memory");
  78:.\asp\arch\arm_m_gcc\common/core_insn.h **** }
  79:.\asp\arch\arm_m_gcc\common/core_insn.h **** 
  80:.\asp\arch\arm_m_gcc\common/core_insn.h **** /*
  81:.\asp\arch\arm_m_gcc\common/core_insn.h ****  *  PRIMASK‚ÌƒNƒŠƒA
  82:.\asp\arch\arm_m_gcc\common/core_insn.h ****  */
  83:.\asp\arch\arm_m_gcc\common/core_insn.h **** Inline void
  84:.\asp\arch\arm_m_gcc\common/core_insn.h **** clear_primask(void){
  85:.\asp\arch\arm_m_gcc\common/core_insn.h **** 	Asm("cpsie i":::"memory");
  86:.\asp\arch\arm_m_gcc\common/core_insn.h **** }
  87:.\asp\arch\arm_m_gcc\common/core_insn.h **** 
  88:.\asp\arch\arm_m_gcc\common/core_insn.h **** /*
  89:.\asp\arch\arm_m_gcc\common/core_insn.h ****  *  BASEPRI‚ÌƒZƒbƒg
  90:.\asp\arch\arm_m_gcc\common/core_insn.h ****  */
  91:.\asp\arch\arm_m_gcc\common/core_insn.h **** Inline void
  92:.\asp\arch\arm_m_gcc\common/core_insn.h **** set_basepri(uint32_t val){
  93:.\asp\arch\arm_m_gcc\common/core_insn.h **** 	Asm("msr BASEPRI, %0" : : "r"(val) : "memory");
  94:.\asp\arch\arm_m_gcc\common/core_insn.h **** }
  95:.\asp\arch\arm_m_gcc\common/core_insn.h **** 
  96:.\asp\arch\arm_m_gcc\common/core_insn.h **** /*
  97:.\asp\arch\arm_m_gcc\common/core_insn.h ****  *  BASEPRI‚Ìæ“¾
  98:.\asp\arch\arm_m_gcc\common/core_insn.h ****  */
  99:.\asp\arch\arm_m_gcc\common/core_insn.h **** Inline uint32_t
 100:.\asp\arch\arm_m_gcc\common/core_insn.h **** get_basepri(void){
 101:.\asp\arch\arm_m_gcc\common/core_insn.h **** 	uint32_t val;
 102:.\asp\arch\arm_m_gcc\common/core_insn.h **** 	Asm("mrs  %0, BASEPRI" : "=r"(val));
 103:.\asp\arch\arm_m_gcc\common/core_insn.h **** 	return(val);
 104:.\asp\arch\arm_m_gcc\common/core_insn.h **** }
 105:.\asp\arch\arm_m_gcc\common/core_insn.h **** 
 106:.\asp\arch\arm_m_gcc\common/core_insn.h **** /*
 107:.\asp\arch\arm_m_gcc\common/core_insn.h ****  *  CONTROL‚ÌƒZƒbƒg
 108:.\asp\arch\arm_m_gcc\common/core_insn.h ****  */
ARM GAS  C:\TEMP\ccMSuaQR.s 			page 5


 109:.\asp\arch\arm_m_gcc\common/core_insn.h **** Inline void
 110:.\asp\arch\arm_m_gcc\common/core_insn.h **** set_control(uint32_t val){
 111:.\asp\arch\arm_m_gcc\common/core_insn.h **** 	/*
 112:.\asp\arch\arm_m_gcc\common/core_insn.h **** 	 *  controlƒŒƒWƒXƒ^ƒZƒbƒgŒã‚É‚Íisb‚ª•K{
 113:.\asp\arch\arm_m_gcc\common/core_insn.h **** 	 *  [ARMv7-M Architecture Reference Manaual(DDI0403B) A3-37]
 114:.\asp\arch\arm_m_gcc\common/core_insn.h **** 	 */
 115:.\asp\arch\arm_m_gcc\common/core_insn.h **** 	Asm("msr control, %0 \n"
 116:.\asp\arch\arm_m_gcc\common/core_insn.h **** 		" isb"
 117:.\asp\arch\arm_m_gcc\common/core_insn.h **** 		: : "r"(val) : "memory");
 118:.\asp\arch\arm_m_gcc\common/core_insn.h **** }
 119:.\asp\arch\arm_m_gcc\common/core_insn.h **** 
 120:.\asp\arch\arm_m_gcc\common/core_insn.h **** /*
 121:.\asp\arch\arm_m_gcc\common/core_insn.h ****  *  CONTROL‚Ìæ“¾
 122:.\asp\arch\arm_m_gcc\common/core_insn.h ****  */
 123:.\asp\arch\arm_m_gcc\common/core_insn.h **** Inline uint32_t
 124:.\asp\arch\arm_m_gcc\common/core_insn.h **** get_control(void){
 125:.\asp\arch\arm_m_gcc\common/core_insn.h **** 	uint32_t val;
 126:.\asp\arch\arm_m_gcc\common/core_insn.h **** 	Asm("mrs  %0, CONTROL" : "=r"(val));
  46              		.loc 2 126 0
  47              	@ 126 ".\asp\arch\arm_m_gcc\common/core_insn.h" 1
  48 0004 EFF31483 		mrs  r3, CONTROL
  49              	@ 0 "" 2
  50              	.LVL1:
  51              		.thumb
  52              	.LBE31:
  53              	.LBE30:
  54              		.file 3 ".\\asp\\arch\\arm_m_gcc\\common/core_config.h"
   1:.\asp\arch\arm_m_gcc\common/core_config.h **** /*
   2:.\asp\arch\arm_m_gcc\common/core_config.h ****  *  TOPPERS/ASP Kernel
   3:.\asp\arch\arm_m_gcc\common/core_config.h ****  *      Toyohashi Open Platform for Embedded Real-Time Systems/
   4:.\asp\arch\arm_m_gcc\common/core_config.h ****  *      Advanced Standard Profile Kernel
   5:.\asp\arch\arm_m_gcc\common/core_config.h ****  * 
   6:.\asp\arch\arm_m_gcc\common/core_config.h ****  *  Copyright (C) 2008-2011,2013 by Embedded and Real-Time Systems Laboratory
   7:.\asp\arch\arm_m_gcc\common/core_config.h ****  *              Graduate School of Information Science, Nagoya Univ., JAPAN
   8:.\asp\arch\arm_m_gcc\common/core_config.h ****  * 
   9:.\asp\arch\arm_m_gcc\common/core_config.h ****  *  ã‹L’˜ìŒ Ò‚ÍCˆÈ‰º‚Ì(1)`(4)‚ÌğŒ‚ğ–‚½‚·ê‡‚ÉŒÀ‚èC–{ƒ\ƒtƒgƒEƒF
  10:.\asp\arch\arm_m_gcc\common/core_config.h ****  *  ƒAi–{ƒ\ƒtƒgƒEƒFƒA‚ğ‰ü•Ï‚µ‚½‚à‚Ì‚ğŠÜ‚ŞDˆÈ‰º“¯‚¶j‚ğg—pE•¡»E‰ü
  11:.\asp\arch\arm_m_gcc\common/core_config.h ****  *  •ÏEÄ”z•ziˆÈ‰ºC—˜—p‚ÆŒÄ‚Ôj‚·‚é‚±‚Æ‚ğ–³‚Å‹–‘ø‚·‚éD
  12:.\asp\arch\arm_m_gcc\common/core_config.h ****  *  (1) –{ƒ\ƒtƒgƒEƒFƒA‚ğƒ\[ƒXƒR[ƒh‚ÌŒ`‚Å—˜—p‚·‚éê‡‚É‚ÍCã‹L‚Ì’˜ì
  13:.\asp\arch\arm_m_gcc\common/core_config.h ****  *      Œ •\¦C‚±‚Ì—˜—pğŒ‚¨‚æ‚Ñ‰º‹L‚Ì–³•ÛØ‹K’è‚ªC‚»‚Ì‚Ü‚Ü‚ÌŒ`‚Åƒ\[
  14:.\asp\arch\arm_m_gcc\common/core_config.h ****  *      ƒXƒR[ƒh’†‚ÉŠÜ‚Ü‚ê‚Ä‚¢‚é‚±‚ÆD
  15:.\asp\arch\arm_m_gcc\common/core_config.h ****  *  (2) –{ƒ\ƒtƒgƒEƒFƒA‚ğCƒ‰ƒCƒuƒ‰ƒŠŒ`®‚È‚ÇC‘¼‚Ìƒ\ƒtƒgƒEƒFƒAŠJ”­‚Ég
  16:.\asp\arch\arm_m_gcc\common/core_config.h ****  *      —p‚Å‚«‚éŒ`‚ÅÄ”z•z‚·‚éê‡‚É‚ÍCÄ”z•z‚É”º‚¤ƒhƒLƒ…ƒƒ“ƒgi—˜—p
  17:.\asp\arch\arm_m_gcc\common/core_config.h ****  *      Òƒ}ƒjƒ…ƒAƒ‹‚È‚Çj‚ÉCã‹L‚Ì’˜ìŒ •\¦C‚±‚Ì—˜—pğŒ‚¨‚æ‚Ñ‰º‹L
  18:.\asp\arch\arm_m_gcc\common/core_config.h ****  *      ‚Ì–³•ÛØ‹K’è‚ğŒfÚ‚·‚é‚±‚ÆD
  19:.\asp\arch\arm_m_gcc\common/core_config.h ****  *  (3) –{ƒ\ƒtƒgƒEƒFƒA‚ğC‹@Ší‚É‘g‚İ‚Ş‚È‚ÇC‘¼‚Ìƒ\ƒtƒgƒEƒFƒAŠJ”­‚Ég
  20:.\asp\arch\arm_m_gcc\common/core_config.h ****  *      —p‚Å‚«‚È‚¢Œ`‚ÅÄ”z•z‚·‚éê‡‚É‚ÍCŸ‚Ì‚¢‚¸‚ê‚©‚ÌğŒ‚ğ–‚½‚·‚±
  21:.\asp\arch\arm_m_gcc\common/core_config.h ****  *      ‚ÆD
  22:.\asp\arch\arm_m_gcc\common/core_config.h ****  *    (a) Ä”z•z‚É”º‚¤ƒhƒLƒ…ƒƒ“ƒgi—˜—pÒƒ}ƒjƒ…ƒAƒ‹‚È‚Çj‚ÉCã‹L‚Ì’˜
  23:.\asp\arch\arm_m_gcc\common/core_config.h ****  *        ìŒ •\¦C‚±‚Ì—˜—pğŒ‚¨‚æ‚Ñ‰º‹L‚Ì–³•ÛØ‹K’è‚ğŒfÚ‚·‚é‚±‚ÆD
  24:.\asp\arch\arm_m_gcc\common/core_config.h ****  *    (b) Ä”z•z‚ÌŒ`‘Ô‚ğC•Ê‚É’è‚ß‚é•û–@‚É‚æ‚Á‚ÄCTOPPERSƒvƒƒWƒFƒNƒg‚É
  25:.\asp\arch\arm_m_gcc\common/core_config.h ****  *        •ñ‚·‚é‚±‚ÆD
  26:.\asp\arch\arm_m_gcc\common/core_config.h ****  *  (4) –{ƒ\ƒtƒgƒEƒFƒA‚Ì—˜—p‚É‚æ‚è’¼Ú“I‚Ü‚½‚ÍŠÔÚ“I‚É¶‚¶‚é‚¢‚©‚È‚é‘¹
  27:.\asp\arch\arm_m_gcc\common/core_config.h ****  *      ŠQ‚©‚ç‚àCã‹L’˜ìŒ Ò‚¨‚æ‚ÑTOPPERSƒvƒƒWƒFƒNƒg‚ğ–ÆÓ‚·‚é‚±‚ÆD
  28:.\asp\arch\arm_m_gcc\common/core_config.h ****  *      ‚Ü‚½C–{ƒ\ƒtƒgƒEƒFƒA‚Ìƒ†[ƒU‚Ü‚½‚ÍƒGƒ“ƒhƒ†[ƒU‚©‚ç‚Ì‚¢‚©‚È‚é—
  29:.\asp\arch\arm_m_gcc\common/core_config.h ****  *      —R‚ÉŠî‚Ã‚­¿‹‚©‚ç‚àCã‹L’˜ìŒ Ò‚¨‚æ‚ÑTOPPERSƒvƒƒWƒFƒNƒg‚ğ
  30:.\asp\arch\arm_m_gcc\common/core_config.h ****  *      –ÆÓ‚·‚é‚±‚ÆD
ARM GAS  C:\TEMP\ccMSuaQR.s 			page 6


  31:.\asp\arch\arm_m_gcc\common/core_config.h ****  * 
  32:.\asp\arch\arm_m_gcc\common/core_config.h ****  *  –{ƒ\ƒtƒgƒEƒFƒA‚ÍC–³•ÛØ‚Å’ñ‹Ÿ‚³‚ê‚Ä‚¢‚é‚à‚Ì‚Å‚ ‚éDã‹L’˜ìŒ Ò‚¨
  33:.\asp\arch\arm_m_gcc\common/core_config.h ****  *  ‚æ‚ÑTOPPERSƒvƒƒWƒFƒNƒg‚ÍC–{ƒ\ƒtƒgƒEƒFƒA‚ÉŠÖ‚µ‚ÄC“Á’è‚Ìg—p–Ú“I
  34:.\asp\arch\arm_m_gcc\common/core_config.h ****  *  ‚É‘Î‚·‚é“K‡«‚àŠÜ‚ß‚ÄC‚¢‚©‚È‚é•ÛØ‚às‚í‚È‚¢D‚Ü‚½C–{ƒ\ƒtƒgƒEƒF
  35:.\asp\arch\arm_m_gcc\common/core_config.h ****  *  ƒA‚Ì—˜—p‚É‚æ‚è’¼Ú“I‚Ü‚½‚ÍŠÔÚ“I‚É¶‚¶‚½‚¢‚©‚È‚é‘¹ŠQ‚ÉŠÖ‚µ‚Ä‚àC‚»
  36:.\asp\arch\arm_m_gcc\common/core_config.h ****  *  ‚ÌÓ”C‚ğ•‰‚í‚È‚¢D
  37:.\asp\arch\arm_m_gcc\common/core_config.h ****  * 
  38:.\asp\arch\arm_m_gcc\common/core_config.h ****  *  @(#) $Id: core_config.h 2554 2013-10-17 02:53:02Z ertl-honda $
  39:.\asp\arch\arm_m_gcc\common/core_config.h ****  */
  40:.\asp\arch\arm_m_gcc\common/core_config.h **** 
  41:.\asp\arch\arm_m_gcc\common/core_config.h **** /*
  42:.\asp\arch\arm_m_gcc\common/core_config.h ****  *		ƒvƒƒZƒbƒTˆË‘¶ƒ‚ƒWƒ…[ƒ‹iARM-M—pj
  43:.\asp\arch\arm_m_gcc\common/core_config.h ****  *
  44:.\asp\arch\arm_m_gcc\common/core_config.h ****  *  ‚±‚ÌƒCƒ“ƒNƒ‹[ƒhƒtƒ@ƒCƒ‹‚ÍCtarget_config.hi‚Ü‚½‚ÍC‚»‚±‚©‚çƒCƒ“ƒN
  45:.\asp\arch\arm_m_gcc\common/core_config.h ****  *  ƒ‹[ƒh‚³‚ê‚éƒtƒ@ƒCƒ‹j‚Ì‚İ‚©‚çƒCƒ“ƒNƒ‹[ƒh‚³‚ê‚éD‘¼‚Ìƒtƒ@ƒCƒ‹‚©‚ç
  46:.\asp\arch\arm_m_gcc\common/core_config.h ****  *  ’¼ÚƒCƒ“ƒNƒ‹[ƒh‚µ‚Ä‚Í‚È‚ç‚È‚¢D
  47:.\asp\arch\arm_m_gcc\common/core_config.h ****  */
  48:.\asp\arch\arm_m_gcc\common/core_config.h **** 
  49:.\asp\arch\arm_m_gcc\common/core_config.h **** #ifndef TOPPERS_CORE_CONFIG_H
  50:.\asp\arch\arm_m_gcc\common/core_config.h **** #define TOPPERS_CORE_CONFIG_H
  51:.\asp\arch\arm_m_gcc\common/core_config.h **** 
  52:.\asp\arch\arm_m_gcc\common/core_config.h **** #ifndef TOPPERS_MACRO_ONLY
  53:.\asp\arch\arm_m_gcc\common/core_config.h **** 
  54:.\asp\arch\arm_m_gcc\common/core_config.h **** /*
  55:.\asp\arch\arm_m_gcc\common/core_config.h ****  *  ƒvƒƒZƒbƒT‚Ì“Áê–½—ß‚ÌƒCƒ“ƒ‰ƒCƒ“ŠÖ”’è‹`
  56:.\asp\arch\arm_m_gcc\common/core_config.h ****  */
  57:.\asp\arch\arm_m_gcc\common/core_config.h **** #include <core_insn.h>
  58:.\asp\arch\arm_m_gcc\common/core_config.h **** 
  59:.\asp\arch\arm_m_gcc\common/core_config.h **** /*
  60:.\asp\arch\arm_m_gcc\common/core_config.h ****  *  ƒ^[ƒQƒbƒgˆË‘¶‚ÌƒIƒuƒWƒFƒNƒg‘®«
  61:.\asp\arch\arm_m_gcc\common/core_config.h ****  */
  62:.\asp\arch\arm_m_gcc\common/core_config.h **** #define TARGET_INHATR  TA_NONKERNEL /* ƒ^[ƒQƒbƒg’è‹`‚ÌŠ„‚İƒnƒ“ƒhƒ‰‘®« */
  63:.\asp\arch\arm_m_gcc\common/core_config.h **** 
  64:.\asp\arch\arm_m_gcc\common/core_config.h **** /*
  65:.\asp\arch\arm_m_gcc\common/core_config.h ****  *  ƒGƒ‰[ƒ`ƒFƒbƒN•û–@‚Ìw’è
  66:.\asp\arch\arm_m_gcc\common/core_config.h ****  */
  67:.\asp\arch\arm_m_gcc\common/core_config.h **** #define CHECK_STKSZ_ALIGN	8	/* ƒXƒ^ƒbƒNƒTƒCƒY‚ÌƒAƒ‰ƒCƒ“’PˆÊ */
  68:.\asp\arch\arm_m_gcc\common/core_config.h **** #define CHECK_FUNC_ALIGN	1	/* ŠÖ”‚ÌƒAƒ‰ƒCƒ“’PˆÊ */
  69:.\asp\arch\arm_m_gcc\common/core_config.h **** #define CHECK_FUNC_NONNULL		/* ŠÖ”‚Ì”ñNULLƒ`ƒFƒbƒN */
  70:.\asp\arch\arm_m_gcc\common/core_config.h **** #define CHECK_STACK_ALIGN	8	/* ƒXƒ^ƒbƒN—Ìˆæ‚ÌƒAƒ‰ƒCƒ“’PˆÊ */
  71:.\asp\arch\arm_m_gcc\common/core_config.h **** #define CHECK_STACK_NONNULL		/* ƒXƒ^ƒbƒN—Ìˆæ‚Ì”ñNULLƒ`ƒFƒbƒN */
  72:.\asp\arch\arm_m_gcc\common/core_config.h **** #define CHECK_MPF_ALIGN		4	/* ŒÅ’è’·ƒƒ‚ƒŠƒv[ƒ‹—Ìˆæ‚ÌƒAƒ‰ƒCƒ“’PˆÊ */
  73:.\asp\arch\arm_m_gcc\common/core_config.h **** #define CHECK_MPF_NONNULL		/* ŒÅ’è’·ƒƒ‚ƒŠƒv[ƒ‹—Ìˆæ‚Ì”ñNULLƒ`ƒFƒbƒN */
  74:.\asp\arch\arm_m_gcc\common/core_config.h **** #define CHECK_MB_ALIGN		4	/* ŠÇ——Ìˆæ‚ÌƒAƒ‰ƒCƒ“’PˆÊ */
  75:.\asp\arch\arm_m_gcc\common/core_config.h **** 
  76:.\asp\arch\arm_m_gcc\common/core_config.h **** /*
  77:.\asp\arch\arm_m_gcc\common/core_config.h ****  *  ”ñƒ^ƒXƒNƒRƒ“ƒeƒLƒXƒg—p‚ÌƒXƒ^ƒbƒN‰Šú’l
  78:.\asp\arch\arm_m_gcc\common/core_config.h ****  */
  79:.\asp\arch\arm_m_gcc\common/core_config.h **** #define TOPPERS_ISTKPT(istk, istksz) ((STK_T *)((uint8_t *)(istk) + (istksz)))
  80:.\asp\arch\arm_m_gcc\common/core_config.h **** 
  81:.\asp\arch\arm_m_gcc\common/core_config.h **** /*
  82:.\asp\arch\arm_m_gcc\common/core_config.h ****  *  ƒ^ƒXƒNƒRƒ“ƒeƒLƒXƒgƒuƒƒbƒN‚Ì’è‹`
  83:.\asp\arch\arm_m_gcc\common/core_config.h ****  */
  84:.\asp\arch\arm_m_gcc\common/core_config.h **** typedef struct task_context_block {
  85:.\asp\arch\arm_m_gcc\common/core_config.h **** 	void	*sp;		/* ƒXƒ^ƒbƒNƒ|ƒCƒ“ƒ^ */
  86:.\asp\arch\arm_m_gcc\common/core_config.h **** 	FP		pc;			/* ƒvƒƒOƒ‰ƒ€ƒJƒEƒ“ƒ^ */
  87:.\asp\arch\arm_m_gcc\common/core_config.h **** } TSKCTXB;
ARM GAS  C:\TEMP\ccMSuaQR.s 			page 7


  88:.\asp\arch\arm_m_gcc\common/core_config.h **** 
  89:.\asp\arch\arm_m_gcc\common/core_config.h **** #endif /* TOPPERS_MACRO_ONLY */
  90:.\asp\arch\arm_m_gcc\common/core_config.h **** 
  91:.\asp\arch\arm_m_gcc\common/core_config.h **** #ifndef TOPPERS_MACRO_ONLY
  92:.\asp\arch\arm_m_gcc\common/core_config.h **** /*
  93:.\asp\arch\arm_m_gcc\common/core_config.h ****  *  ƒRƒ“ƒeƒLƒXƒg‚ÌQÆ
  94:.\asp\arch\arm_m_gcc\common/core_config.h ****  *
  95:.\asp\arch\arm_m_gcc\common/core_config.h ****  */
  96:.\asp\arch\arm_m_gcc\common/core_config.h **** Inline bool_t
  97:.\asp\arch\arm_m_gcc\common/core_config.h **** sense_context(void)
  98:.\asp\arch\arm_m_gcc\common/core_config.h **** {
  99:.\asp\arch\arm_m_gcc\common/core_config.h **** 	/*
 100:.\asp\arch\arm_m_gcc\common/core_config.h **** 	 *  PSP‚ª—LŒø‚È‚çƒ^ƒXƒNƒRƒ“ƒeƒLƒXƒgCMSP‚ª—LŒø‚È‚ç”ñƒ^ƒXƒNƒRƒ“ƒeƒLƒXƒg
 101:.\asp\arch\arm_m_gcc\common/core_config.h **** 	 *  ‚Æ‚·‚éD 
 102:.\asp\arch\arm_m_gcc\common/core_config.h **** 	 */
 103:.\asp\arch\arm_m_gcc\common/core_config.h **** 	if ((get_control() & CONTROL_PSP) == CONTROL_PSP){
  55              		.loc 3 103 0
  56 0008 9B07     		lsls	r3, r3, #30
  57              	.LVL2:
  58 000a 02D5     		bpl	.L34
  59              	.L2:
  60              	.LBE29:
  61              	.LBE28:
  62              	.LBB32:
  63              	.LBB33:
 104:.\asp\arch\arm_m_gcc\common/core_config.h **** 		return false;
 105:.\asp\arch\arm_m_gcc\common/core_config.h **** 	}
 106:.\asp\arch\arm_m_gcc\common/core_config.h **** 	else {
 107:.\asp\arch\arm_m_gcc\common/core_config.h **** 		return true;
 108:.\asp\arch\arm_m_gcc\common/core_config.h **** 	}
 109:.\asp\arch\arm_m_gcc\common/core_config.h **** }
 110:.\asp\arch\arm_m_gcc\common/core_config.h **** 
 111:.\asp\arch\arm_m_gcc\common/core_config.h **** #endif /* TOPPERS_MACRO_ONLY */
 112:.\asp\arch\arm_m_gcc\common/core_config.h **** 
 113:.\asp\arch\arm_m_gcc\common/core_config.h **** /*
 114:.\asp\arch\arm_m_gcc\common/core_config.h ****  *  TOPPERS•W€Š„‚İˆ—ƒ‚ƒfƒ‹‚ÌÀŒ»
 115:.\asp\arch\arm_m_gcc\common/core_config.h ****  *
 116:.\asp\arch\arm_m_gcc\common/core_config.h ****  *  Š„‚İ—Dæ“xƒ}ƒXƒN‚Æ‚µ‚Ä‚ÍCBASEPRI‚ğ—p‚¢‚éD‘SŠ„‚İ‚ğ‹Ö~‚·‚é
 117:.\asp\arch\arm_m_gcc\common/core_config.h ****  *  ‹@”\‚Æ‚µ‚ÄCFAULTMASK‚âPRIMASK‚ª‚ ‚é‚ªCƒJ[ƒlƒ‹ŠÇ—ŠO‚ÌŠ„‚İ‚ğ
 118:.\asp\arch\arm_m_gcc\common/core_config.h ****  *  ƒTƒ|[ƒg‚·‚é‚½‚ßC‚±‚ê‚ç‚ÍCPUƒƒbƒN‚Ì‚½‚ß‚É—p‚¢‚È‚¢D
 119:.\asp\arch\arm_m_gcc\common/core_config.h ****  *  ‚»‚Ì‚½‚ßCBASEPRI‚ğ—p‚¢‚Ä‹[—“I‚ÉCPUƒƒbƒNƒtƒ‰ƒO‚ğÀŒ»‚·‚éD
 120:.\asp\arch\arm_m_gcc\common/core_config.h ****  *
 121:.\asp\arch\arm_m_gcc\common/core_config.h ****  *  ‚Ü‚¸CCPUƒƒbƒNó‘Ô‚ğŠÇ—‚·‚½‚ß‚Ì•Ï”(lock_flag)‚ğ—pˆÓ‚·‚éD
 122:.\asp\arch\arm_m_gcc\common/core_config.h ****  *
 123:.\asp\arch\arm_m_gcc\common/core_config.h ****  *  CPUƒƒbƒNƒtƒ‰ƒO‚ªƒNƒŠƒA‚³‚ê‚Ä‚¢‚éŠÔ‚ÍCBASEPRI‚ğƒ‚ƒfƒ‹ã‚ÌŠ„‚İ
 124:.\asp\arch\arm_m_gcc\common/core_config.h ****  *  —Dæ“xƒ}ƒXƒN‚Ì’l‚Éİ’è‚·‚éD‚±‚ÌŠÔ‚ÍCƒ‚ƒfƒ‹ã‚ÌŠ„‚İ—Dæ“xƒ}ƒX
 125:.\asp\arch\arm_m_gcc\common/core_config.h ****  *  ƒN‚ÍCBASEPRI‚ğ—p‚¢‚éD
 126:.\asp\arch\arm_m_gcc\common/core_config.h ****  * 
 127:.\asp\arch\arm_m_gcc\common/core_config.h ****  *  ‚»‚ê‚É‘Î‚µ‚ÄCPUƒƒbƒNƒtƒ‰ƒO‚ªƒZƒbƒg‚³‚ê‚¢‚éŠÔ‚ÍCBASEPRI‚ğCƒJ[ƒl
 128:.\asp\arch\arm_m_gcc\common/core_config.h ****  *  ƒ‹ŠÇ—ŠO‚Ì‚à‚Ì‚ğœ‚­‚·‚×‚Ä‚ÌŠ„‚İ—v‹‚ğƒ}ƒXƒN‚·‚é’l(TIPM_LOCK)‚ÆC
 129:.\asp\arch\arm_m_gcc\common/core_config.h ****  *  ƒ‚ƒfƒ‹ã‚ÌŠ„‚İ—Dæ“xƒ}ƒXƒN‚Æ‚Ì‚‚¢•û‚Éİ’è‚·‚éD‚±‚ÌŠÔ‚Ìƒ‚ƒfƒ‹ã
 130:.\asp\arch\arm_m_gcc\common/core_config.h ****  *  ‚ÌŠ„‚İ—Dæ“xƒ}ƒXƒN‚ÍC‚»‚Ì‚½‚ß‚Ì•Ï”(saved_iipm, “à•”•\Œ»‚Å•Û)
 131:.\asp\arch\arm_m_gcc\common/core_config.h ****  *  ‚ğ—pˆÓ‚µ‚Ä•Û‚·‚éD
 132:.\asp\arch\arm_m_gcc\common/core_config.h ****  */
 133:.\asp\arch\arm_m_gcc\common/core_config.h **** 
 134:.\asp\arch\arm_m_gcc\common/core_config.h **** /*
 135:.\asp\arch\arm_m_gcc\common/core_config.h ****  *  Š„‚İ—Dæ“xƒ}ƒXƒN‚ÌŠO•”•\Œ»‚Æ“à•”•\Œ»‚Ì•ÏŠ·
ARM GAS  C:\TEMP\ccMSuaQR.s 			page 8


 136:.\asp\arch\arm_m_gcc\common/core_config.h ****  *
 137:.\asp\arch\arm_m_gcc\common/core_config.h ****  *  ƒAƒZƒ“ƒuƒŠŒ¾Œê‚Ìƒ\[ƒXƒtƒ@ƒCƒ‹‚©‚çƒCƒ“ƒNƒ‹[ƒh‚·‚éê‡‚Ì‚½‚ß‚ÉC
 138:.\asp\arch\arm_m_gcc\common/core_config.h ****  *  CAST‚ğg—p
 139:.\asp\arch\arm_m_gcc\common/core_config.h ****  *  Š„‚İ—Dæ“x‚Ìƒrƒbƒg•(TBITW_IPRI)‚ª 8 ‚Ìê‡‚ÍC“à•”—Dæ“x 255
 140:.\asp\arch\arm_m_gcc\common/core_config.h ****  *  ‚ÍCŠO•”—Dæ“x -1 ‚É‘Î‰‚·‚éD
 141:.\asp\arch\arm_m_gcc\common/core_config.h ****  */
 142:.\asp\arch\arm_m_gcc\common/core_config.h **** #define EXT_IPM(iipm)   (CAST(PRI,((iipm >> (8 - TBITW_IPRI)) - (1 << TBITW_IPRI))))       /* “à•”•
 143:.\asp\arch\arm_m_gcc\common/core_config.h **** #define INT_IPM(ipm)    (((1 << TBITW_IPRI) - CAST(uint8_t, -(ipm)))  << (8 - TBITW_IPRI)) /* ŠO•”•
 144:.\asp\arch\arm_m_gcc\common/core_config.h **** 
 145:.\asp\arch\arm_m_gcc\common/core_config.h **** /*
 146:.\asp\arch\arm_m_gcc\common/core_config.h ****  *  CPUƒƒbƒNó‘Ô‚Å‚ÌŠ„‚İ—Dæ“xƒ}ƒXƒN
 147:.\asp\arch\arm_m_gcc\common/core_config.h ****  */
 148:.\asp\arch\arm_m_gcc\common/core_config.h **** #define TIPM_LOCK    TMIN_INTPRI
 149:.\asp\arch\arm_m_gcc\common/core_config.h **** 
 150:.\asp\arch\arm_m_gcc\common/core_config.h **** /*
 151:.\asp\arch\arm_m_gcc\common/core_config.h ****  *  CPUƒƒbƒNó‘Ô‚Å‚ÌŠ„‚İ—Dæ“xƒ}ƒXƒN‚Ì“à•”•\Œ»
 152:.\asp\arch\arm_m_gcc\common/core_config.h ****  *
 153:.\asp\arch\arm_m_gcc\common/core_config.h ****  *  TIPM_LOCK‚ÍCCPUƒƒbƒNó‘Ô‚Å‚ÌBASEPRI‚Ì’lDƒJ[ƒlƒ‹ŠÇ—ŠO‚Ì‚à‚Ì‚ğ
 154:.\asp\arch\arm_m_gcc\common/core_config.h ****  *  œ‚­‚·‚×‚Ä‚ÌŠ„‚İ‚ğƒ}ƒXƒN‚·‚é’l‚É’è‹`‚·‚éD  
 155:.\asp\arch\arm_m_gcc\common/core_config.h ****  */
 156:.\asp\arch\arm_m_gcc\common/core_config.h **** #define IIPM_LOCK    INT_IPM(TIPM_LOCK)
 157:.\asp\arch\arm_m_gcc\common/core_config.h **** 
 158:.\asp\arch\arm_m_gcc\common/core_config.h **** /*
 159:.\asp\arch\arm_m_gcc\common/core_config.h ****  *  TIPM_ENAALLiŠ„‚İ—Dæ“xƒ}ƒXƒN‘S‰ğœj‚Ì“à•”•\Œ»
 160:.\asp\arch\arm_m_gcc\common/core_config.h ****  *
 161:.\asp\arch\arm_m_gcc\common/core_config.h ****  *  BASEPRI‚É '0' ‚ğİ’è‚·‚é‚±‚Æ‚ÅC‘SŠ„‚İ‚ğ‹–‰Â‚·‚éD
 162:.\asp\arch\arm_m_gcc\common/core_config.h ****  */
 163:.\asp\arch\arm_m_gcc\common/core_config.h **** #define IIPM_ENAALL  (0)
 164:.\asp\arch\arm_m_gcc\common/core_config.h **** 
 165:.\asp\arch\arm_m_gcc\common/core_config.h **** 
 166:.\asp\arch\arm_m_gcc\common/core_config.h **** #ifndef TOPPERS_MACRO_ONLY
 167:.\asp\arch\arm_m_gcc\common/core_config.h **** 
 168:.\asp\arch\arm_m_gcc\common/core_config.h **** /*
 169:.\asp\arch\arm_m_gcc\common/core_config.h ****  *  CPUƒƒbƒNƒtƒ‰ƒOÀŒ»‚Ì‚½‚ß‚Ì•Ï”
 170:.\asp\arch\arm_m_gcc\common/core_config.h ****  * 
 171:.\asp\arch\arm_m_gcc\common/core_config.h ****  *  ‚±‚ê‚ç‚Ì•Ï”‚ÍCCPUƒƒbƒNó‘Ô‚Ì‚Ì‚İ‘‚«Š·‚¦‚Ä‚à‚æ‚¢‚Æ‚·‚éD
 172:.\asp\arch\arm_m_gcc\common/core_config.h ****  *  ƒCƒ“ƒ‰ƒCƒ“ŠÖ”’†‚ÅCƒAƒNƒZƒX‚Ì‡˜‚ª•Ï‰»‚µ‚È‚¢‚æ‚¤Cvolatile ‚ğw’èD 
 173:.\asp\arch\arm_m_gcc\common/core_config.h ****  */
 174:.\asp\arch\arm_m_gcc\common/core_config.h **** extern volatile bool_t  lock_flag;    /* CPUƒƒbƒNƒtƒ‰ƒO‚Ì’l‚ğ•Û‚·‚é•Ï” */
 175:.\asp\arch\arm_m_gcc\common/core_config.h **** extern volatile uint32_t saved_iipm;  /* Š„‚İ—Dæ“x‚ğƒ}ƒXƒN‚·‚é•Ï” */
 176:.\asp\arch\arm_m_gcc\common/core_config.h **** 
 177:.\asp\arch\arm_m_gcc\common/core_config.h **** /*
 178:.\asp\arch\arm_m_gcc\common/core_config.h ****  *  CPUƒƒbƒNó‘Ô‚Ö‚ÌˆÚs
 179:.\asp\arch\arm_m_gcc\common/core_config.h ****  *
 180:.\asp\arch\arm_m_gcc\common/core_config.h ****  *  BASEPRIiƒn[ƒhƒEƒFƒA‚ÌŠ„‚İ—Dæ“xƒ}ƒXƒNj‚ğCsaved_iipm‚É•Û‘¶‚µC
 181:.\asp\arch\arm_m_gcc\common/core_config.h ****  *  ƒJ[ƒlƒ‹ŠÇ—ŠO‚Ì‚à‚Ì‚ğœ‚­‚·‚×‚Ä‚ÌŠ„‚İ‚ğƒ}ƒXƒN‚·‚é’liTIPM_LOCKj
 182:.\asp\arch\arm_m_gcc\common/core_config.h ****  *  ‚Éİ’è‚·‚éD‚Ü‚½Clock_flag‚ğtrue‚É‚·‚éD
 183:.\asp\arch\arm_m_gcc\common/core_config.h ****  *
 184:.\asp\arch\arm_m_gcc\common/core_config.h ****  *  BASEPRI‚ªCÅ‰‚©‚çTIPM_LOCK‚Æ“¯‚¶‚©‚»‚ê‚æ‚è‚‚¢ê‡‚É‚ÍC‚»‚ê‚ğ
 185:.\asp\arch\arm_m_gcc\common/core_config.h ****  *  saved_iipm‚É•Û‘¶‚·‚é‚Ì‚İ‚ÅCTIPM_LOCK‚É‚Íİ’è‚µ‚È‚¢D‚±‚ê‚ÍCƒ‚ƒfƒ‹
 186:.\asp\arch\arm_m_gcc\common/core_config.h ****  *  ã‚ÌŠ„‚İ—Dæ“xƒ}ƒXƒN‚ªCTIPM_LOCK‚Æ“¯‚¶‚©‚»‚ê‚æ‚è‚‚¢ƒŒƒxƒ‹‚Éİ’è
 187:.\asp\arch\arm_m_gcc\common/core_config.h ****  *  ‚³‚ê‚Ä‚¢‚éó‘Ô‚É‚ ‚½‚éD
 188:.\asp\arch\arm_m_gcc\common/core_config.h ****  *
 189:.\asp\arch\arm_m_gcc\common/core_config.h ****  *  ‚±‚ÌŠÖ”‚ÍCCPUƒƒbƒNó‘Ôilock_flag‚ªtrue‚Ìó‘Ôj‚ÅŒÄ‚Î‚ê‚é‚±‚Æ‚Í
 190:.\asp\arch\arm_m_gcc\common/core_config.h ****  *  ‚È‚¢‚à‚Ì‚Æ‘z’è‚µ‚Ä‚¢‚éD
 191:.\asp\arch\arm_m_gcc\common/core_config.h ****  */
 192:.\asp\arch\arm_m_gcc\common/core_config.h **** Inline void
ARM GAS  C:\TEMP\ccMSuaQR.s 			page 9


 193:.\asp\arch\arm_m_gcc\common/core_config.h **** x_lock_cpu(void)
 194:.\asp\arch\arm_m_gcc\common/core_config.h **** {
 195:.\asp\arch\arm_m_gcc\common/core_config.h **** 	uint32_t iipm;
 196:.\asp\arch\arm_m_gcc\common/core_config.h **** 
 197:.\asp\arch\arm_m_gcc\common/core_config.h **** 	/*
 198:.\asp\arch\arm_m_gcc\common/core_config.h **** 	 *  get_basepri()‚Ì•Ô‚è’l‚ğ’¼Úsaved_iipm‚É•Û‘¶‚¹‚¸Cˆê•Ï”iipm
 199:.\asp\arch\arm_m_gcc\common/core_config.h **** 	 *  ‚ğ—p‚¢‚Ä‚¢‚é‚Ì‚ÍCget_baespri()‚ğŒÄ‚ñ‚¾’¼Œã‚ÉŠ„‚İ‚ª”­¶‚µC
 200:.\asp\arch\arm_m_gcc\common/core_config.h **** 	 *  ‹N“®‚³‚ê‚½Š„‚İˆ—‚Åsaved_iipm‚ª•ÏX‚³‚ê‚é‰Â”\«‚ª‚ ‚é‚½‚ß‚Å
 201:.\asp\arch\arm_m_gcc\common/core_config.h **** 	 *  ‚ ‚éD
 202:.\asp\arch\arm_m_gcc\common/core_config.h **** 	 */
 203:.\asp\arch\arm_m_gcc\common/core_config.h **** 	iipm = get_basepri();
 204:.\asp\arch\arm_m_gcc\common/core_config.h **** 	/*
 205:.\asp\arch\arm_m_gcc\common/core_config.h **** 	 *  BASEPRIƒŒƒWƒXƒ^‚Í’l‚ª¬‚³‚¢‚Ù‚Ç—Dæ“x‚ª‚‚¢‚ªCIIPM_ENAALL ‚ª
 206:.\asp\arch\arm_m_gcc\common/core_config.h **** 	 *  '0'‚Å‚ ‚é‚½‚ßC’Pƒ‚É—Dæ“x”äŠr‚¾‚¯‚Å‚Í•s\•ª‚Å‚ ‚éD
 207:.\asp\arch\arm_m_gcc\common/core_config.h **** 	 */
 208:.\asp\arch\arm_m_gcc\common/core_config.h **** 	if ((IIPM_LOCK < iipm) || (IIPM_ENAALL == iipm)) {
 209:.\asp\arch\arm_m_gcc\common/core_config.h **** 		set_basepri(IIPM_LOCK);
 210:.\asp\arch\arm_m_gcc\common/core_config.h **** 	}
 211:.\asp\arch\arm_m_gcc\common/core_config.h **** 	saved_iipm = iipm;
 212:.\asp\arch\arm_m_gcc\common/core_config.h **** 	lock_flag = true;
 213:.\asp\arch\arm_m_gcc\common/core_config.h **** 	/* ƒNƒŠƒeƒBƒJƒ‹ƒZƒNƒVƒ‡ƒ“‚Ì‘OŒã‚Åƒƒ‚ƒŠ‚ª‘‚«Š·‚í‚é‰Â”\«‚ª‚ ‚é */
 214:.\asp\arch\arm_m_gcc\common/core_config.h **** 	ARM_MEMORY_CHANGED;
 215:.\asp\arch\arm_m_gcc\common/core_config.h **** }
 216:.\asp\arch\arm_m_gcc\common/core_config.h **** 
 217:.\asp\arch\arm_m_gcc\common/core_config.h **** #define t_lock_cpu()    x_lock_cpu()
 218:.\asp\arch\arm_m_gcc\common/core_config.h **** #define i_lock_cpu()    x_lock_cpu()
 219:.\asp\arch\arm_m_gcc\common/core_config.h **** 
 220:.\asp\arch\arm_m_gcc\common/core_config.h **** /*
 221:.\asp\arch\arm_m_gcc\common/core_config.h ****  *  CPUƒƒbƒNó‘Ô‚Ì‰ğœ
 222:.\asp\arch\arm_m_gcc\common/core_config.h ****  *
 223:.\asp\arch\arm_m_gcc\common/core_config.h ****  *  lock_flag‚ğfalse‚É‚µCIPMiƒn[ƒhƒEƒFƒA‚ÌŠ„‚İ—Dæ“xƒ}ƒXƒNj‚ğC
 224:.\asp\arch\arm_m_gcc\common/core_config.h ****  *  saved_iipm‚É•Û‘¶‚µ‚½’l‚É–ß‚·D
 225:.\asp\arch\arm_m_gcc\common/core_config.h ****  *
 226:.\asp\arch\arm_m_gcc\common/core_config.h ****  *  ‚±‚ÌŠÖ”‚ÍCCPUƒƒbƒNó‘Ôilock_flag‚ªtrue‚Ìó‘Ôj‚Å‚Ì‚İŒÄ‚Î‚ê‚é‚à
 227:.\asp\arch\arm_m_gcc\common/core_config.h ****  *  ‚Ì‚Æ‘z’è‚µ‚Ä‚¢‚éD
 228:.\asp\arch\arm_m_gcc\common/core_config.h ****  */
 229:.\asp\arch\arm_m_gcc\common/core_config.h **** Inline void
 230:.\asp\arch\arm_m_gcc\common/core_config.h **** x_unlock_cpu(void)
 231:.\asp\arch\arm_m_gcc\common/core_config.h **** {
 232:.\asp\arch\arm_m_gcc\common/core_config.h **** 	/* ƒNƒŠƒeƒBƒJƒ‹ƒZƒNƒVƒ‡ƒ“‚Ì‘OŒã‚Åƒƒ‚ƒŠ‚ª‘‚«Š·‚í‚é‰Â”\«‚ª‚ ‚é */
 233:.\asp\arch\arm_m_gcc\common/core_config.h **** 	ARM_MEMORY_CHANGED;
 234:.\asp\arch\arm_m_gcc\common/core_config.h **** 	lock_flag = false;
 235:.\asp\arch\arm_m_gcc\common/core_config.h **** 	set_basepri(saved_iipm);
 236:.\asp\arch\arm_m_gcc\common/core_config.h **** }
 237:.\asp\arch\arm_m_gcc\common/core_config.h **** 
 238:.\asp\arch\arm_m_gcc\common/core_config.h **** #define t_unlock_cpu()    x_unlock_cpu()
 239:.\asp\arch\arm_m_gcc\common/core_config.h **** #define i_unlock_cpu()    x_unlock_cpu()
 240:.\asp\arch\arm_m_gcc\common/core_config.h **** 
 241:.\asp\arch\arm_m_gcc\common/core_config.h **** /*
 242:.\asp\arch\arm_m_gcc\common/core_config.h ****  *  CPUƒƒbƒNó‘Ô‚ÌQÆ
 243:.\asp\arch\arm_m_gcc\common/core_config.h ****  */
 244:.\asp\arch\arm_m_gcc\common/core_config.h **** Inline bool_t
 245:.\asp\arch\arm_m_gcc\common/core_config.h **** x_sense_lock(void)
 246:.\asp\arch\arm_m_gcc\common/core_config.h **** {
 247:.\asp\arch\arm_m_gcc\common/core_config.h **** 	return(lock_flag);
  64              		.loc 3 247 0
  65 000c 5D49     		ldr	r1, .L49
ARM GAS  C:\TEMP\ccMSuaQR.s 			page 10


  66              	.LVL3:
  67 000e 0A68     		ldr	r2, [r1, #0]
  68              	.LBE33:
  69              	.LBE32:
  76:.\asp\kernel/task_refer.c **** 	TCB		*p_tcb;
  77:.\asp\kernel/task_refer.c **** 	uint_t	tstat;
  78:.\asp\kernel/task_refer.c **** 	ER		ercd;
  79:.\asp\kernel/task_refer.c **** 
  80:.\asp\kernel/task_refer.c **** 	LOG_REF_TSK_ENTER(tskid, pk_rtsk);
  81:.\asp\kernel/task_refer.c **** 	CHECK_TSKCTX_UNL();
  70              		.loc 1 81 0
  71 0010 12B1     		cbz	r2, .L40
  72              	.L34:
  73              	.L3:
  74 0012 6FF01800 		mvn	r0, #24
  75              	.LVL4:
  76 0016 38BD     		pop	{r3, r4, r5, pc}
  77              	.LVL5:
  78              	.L40:
  82:.\asp\kernel/task_refer.c **** 	CHECK_TSKID_SELF(tskid);
  79              		.loc 1 82 0
  80 0018 0028     		cmp	r0, #0
  81 001a 09DD     		ble	.L4
  82              		.loc 1 82 0 is_stmt 0 discriminator 2
  83 001c 5A4B     		ldr	r3, .L49+4
  84 001e 1968     		ldr	r1, [r3, #0]
  85 0020 8842     		cmp	r0, r1
  86 0022 00F3AB80 		bgt	.L33
  83:.\asp\kernel/task_refer.c **** 	p_tcb = get_tcb_self(tskid);
  87              		.loc 1 83 0 is_stmt 1 discriminator 2
  88 0026 451E     		subs	r5, r0, #1
  89 0028 5848     		ldr	r0, .L49+8
  90              	.LVL6:
  91 002a 00EB4515 		add	r5, r0, r5, lsl #5
  92              	.LVL7:
  93 002e 03E0     		b	.L6
  94              	.LVL8:
  95              	.L4:
  82:.\asp\kernel/task_refer.c **** 	CHECK_TSKID_SELF(tskid);
  96              		.loc 1 82 0 discriminator 1
  97 0030 40F0A480 		bne	.L33
  98              		.loc 1 83 0 discriminator 1
  99 0034 564A     		ldr	r2, .L49+12
 100 0036 1568     		ldr	r5, [r2, #0]
 101              	.LVL9:
 102              	.L6:
 103              	.LBB34:
 104              	.LBB35:
 105              	.LBB36:
 106              	.LBB37:
 102:.\asp\arch\arm_m_gcc\common/core_insn.h **** 	Asm("mrs  %0, BASEPRI" : "=r"(val));
 107              		.loc 2 102 0 discriminator 3
 108              	@ 102 ".\asp\arch\arm_m_gcc\common/core_insn.h" 1
 109 0038 EFF31183 		mrs  r3, BASEPRI
 110              	@ 0 "" 2
 111              	.LVL10:
 112              		.thumb
ARM GAS  C:\TEMP\ccMSuaQR.s 			page 11


 113              	.LBE37:
 114              	.LBE36:
 208:.\asp\arch\arm_m_gcc\common/core_config.h **** 	if ((IIPM_LOCK < iipm) || (IIPM_ENAALL == iipm)) {
 115              		.loc 3 208 0 discriminator 3
 116 003c 591E     		subs	r1, r3, #1
 117 003e 1F29     		cmp	r1, #31
 118 0040 02D9     		bls	.L7
 119              	.LVL11:
 120              	.LBB38:
 121              	.LBB39:
  93:.\asp\arch\arm_m_gcc\common/core_insn.h **** 	Asm("msr BASEPRI, %0" : : "r"(val) : "memory");
 122              		.loc 2 93 0
 123 0042 2020     		movs	r0, #32
 124              	@ 93 ".\asp\arch\arm_m_gcc\common/core_insn.h" 1
 125 0044 80F31188 		msr BASEPRI, r0
 126              	@ 0 "" 2
 127              	.LVL12:
 128              		.thumb
 129              	.L7:
 130              	.LBE39:
 131              	.LBE38:
 211:.\asp\arch\arm_m_gcc\common/core_config.h **** 	saved_iipm = iipm;
 132              		.loc 3 211 0
 133 0048 524A     		ldr	r2, .L49+16
 134 004a 1360     		str	r3, [r2, #0]
 212:.\asp\arch\arm_m_gcc\common/core_config.h **** 	lock_flag = true;
 135              		.loc 3 212 0
 136 004c 4D4B     		ldr	r3, .L49
 137              	.LVL13:
 138 004e 0122     		movs	r2, #1
 139              	.LVL14:
 140 0050 1A60     		str	r2, [r3, #0]
 214:.\asp\arch\arm_m_gcc\common/core_config.h **** 	ARM_MEMORY_CHANGED;
 141              		.loc 3 214 0
 142              	.LBE35:
 143              	.LBE34:
  84:.\asp\kernel/task_refer.c **** 
  85:.\asp\kernel/task_refer.c **** 	t_lock_cpu();
  86:.\asp\kernel/task_refer.c **** 	tstat = p_tcb->tstat;
 144              		.loc 1 86 0
 145 0052 2B7B     		ldrb	r3, [r5, #12]	@ zero_extendqisi2
 146              	.LVL15:
  87:.\asp\kernel/task_refer.c **** 	if (TSTAT_DORMANT(tstat)) {
 147              		.loc 1 87 0
 148 0054 13B9     		cbnz	r3, .L8
  88:.\asp\kernel/task_refer.c **** 		/*
  89:.\asp\kernel/task_refer.c ****  		 *  ‘ÎÛƒ^ƒXƒN‚ª‹x~ó‘Ô‚Ìê‡
  90:.\asp\kernel/task_refer.c **** 		 */
  91:.\asp\kernel/task_refer.c **** 		pk_rtsk->tskstat = TTS_DMT;
 149              		.loc 1 91 0
 150 0056 1021     		movs	r1, #16
 151 0058 2160     		str	r1, [r4, #0]
 152 005a 83E0     		b	.L9
 153              	.L8:
  92:.\asp\kernel/task_refer.c **** 	}
  93:.\asp\kernel/task_refer.c **** 	else {
  94:.\asp\kernel/task_refer.c **** 		/*
ARM GAS  C:\TEMP\ccMSuaQR.s 			page 12


  95:.\asp\kernel/task_refer.c ****  		 *  ƒ^ƒXƒNó‘Ô‚Ìæo‚µ
  96:.\asp\kernel/task_refer.c **** 		 */
  97:.\asp\kernel/task_refer.c **** 		if (TSTAT_SUSPENDED(tstat)) {
 154              		.loc 1 97 0
 155 005c 03F00401 		and	r1, r3, #4
 156 0060 C8B2     		uxtb	r0, r1
 157 0062 03F00201 		and	r1, r3, #2
 158 0066 20B1     		cbz	r0, .L10
  98:.\asp\kernel/task_refer.c **** 			if (TSTAT_WAITING(tstat)) {
 159              		.loc 1 98 0
 160 0068 09B1     		cbz	r1, .L11
  99:.\asp\kernel/task_refer.c **** 				pk_rtsk->tskstat = TTS_WAS;
 161              		.loc 1 99 0
 162 006a 0C22     		movs	r2, #12
 163 006c 09E0     		b	.L41
 164              	.L11:
 100:.\asp\kernel/task_refer.c **** 			}
 101:.\asp\kernel/task_refer.c **** 			else {
 102:.\asp\kernel/task_refer.c **** 				pk_rtsk->tskstat = TTS_SUS;
 165              		.loc 1 102 0
 166 006e 0822     		movs	r2, #8
 167 0070 07E0     		b	.L41
 168              	.L10:
 103:.\asp\kernel/task_refer.c **** 			}
 104:.\asp\kernel/task_refer.c **** 		}
 105:.\asp\kernel/task_refer.c **** 		else if (TSTAT_WAITING(tstat)) {
 169              		.loc 1 105 0
 170 0072 09B1     		cbz	r1, .L13
 106:.\asp\kernel/task_refer.c **** 			pk_rtsk->tskstat = TTS_WAI;
 171              		.loc 1 106 0
 172 0074 0422     		movs	r2, #4
 173 0076 04E0     		b	.L41
 174              	.L13:
 107:.\asp\kernel/task_refer.c **** 		}
 108:.\asp\kernel/task_refer.c **** 		else if (p_tcb == p_runtsk) {
 175              		.loc 1 108 0
 176 0078 4548     		ldr	r0, .L49+12
 177 007a 0168     		ldr	r1, [r0, #0]
 178 007c 8D42     		cmp	r5, r1
 109:.\asp\kernel/task_refer.c **** 			pk_rtsk->tskstat = TTS_RUN;
 110:.\asp\kernel/task_refer.c **** 		}
 111:.\asp\kernel/task_refer.c **** 		else {
 112:.\asp\kernel/task_refer.c **** 			pk_rtsk->tskstat = TTS_RDY;
 179              		.loc 1 112 0
 180 007e 18BF     		it	ne
 181 0080 0222     		movne	r2, #2
 182              	.L41:
 183 0082 2260     		str	r2, [r4, #0]
 113:.\asp\kernel/task_refer.c **** 		}
 114:.\asp\kernel/task_refer.c **** 
 115:.\asp\kernel/task_refer.c **** 		/*
 116:.\asp\kernel/task_refer.c ****  		 *  Œ»İ—Dæ“x‚Æƒx[ƒX—Dæ“x‚Ìæo‚µ
 117:.\asp\kernel/task_refer.c **** 		 */
 118:.\asp\kernel/task_refer.c **** 		pk_rtsk->tskpri = EXT_TSKPRI(p_tcb->priority);
 184              		.loc 1 118 0
 185 0084 6A7B     		ldrb	r2, [r5, #13]	@ zero_extendqisi2
 186 0086 501C     		adds	r0, r2, #1
ARM GAS  C:\TEMP\ccMSuaQR.s 			page 13


 187 0088 6060     		str	r0, [r4, #4]
 119:.\asp\kernel/task_refer.c **** 		pk_rtsk->tskbpri = EXT_TSKPRI(p_tcb->priority);
 188              		.loc 1 119 0
 189 008a 697B     		ldrb	r1, [r5, #13]	@ zero_extendqisi2
 120:.\asp\kernel/task_refer.c **** 
 121:.\asp\kernel/task_refer.c **** 		if (TSTAT_WAITING(tstat)) {
 190              		.loc 1 121 0
 191 008c 03F00200 		and	r0, r3, #2
 119:.\asp\kernel/task_refer.c **** 		pk_rtsk->tskbpri = EXT_TSKPRI(p_tcb->priority);
 192              		.loc 1 119 0
 193 0090 4A1C     		adds	r2, r1, #1
 194              		.loc 1 121 0
 195 0092 C1B2     		uxtb	r1, r0
 119:.\asp\kernel/task_refer.c **** 		pk_rtsk->tskbpri = EXT_TSKPRI(p_tcb->priority);
 196              		.loc 1 119 0
 197 0094 A260     		str	r2, [r4, #8]
 198              		.loc 1 121 0
 199 0096 0029     		cmp	r1, #0
 200 0098 60D0     		beq	.L15
 122:.\asp\kernel/task_refer.c **** 			/*
 123:.\asp\kernel/task_refer.c **** 	 		 *  ‘Ò‚¿—vˆö‚Æ‘Ò‚¿‘ÎÛ‚ÌƒIƒuƒWƒFƒNƒg‚ÌID‚Ìæo‚µ
 124:.\asp\kernel/task_refer.c **** 			 */
 125:.\asp\kernel/task_refer.c **** 			switch (tstat & TS_WAIT_MASK) {
 201              		.loc 1 125 0
 202 009a 03F07803 		and	r3, r3, #120
 203              	.LVL16:
 204 009e 202B     		cmp	r3, #32
 205 00a0 28D0     		beq	.L21
 206 00a2 0DD8     		bhi	.L27
 207 00a4 082B     		cmp	r3, #8
 208 00a6 22D0     		beq	.L18
 209 00a8 03D8     		bhi	.L28
 210 00aa 002B     		cmp	r3, #0
 211 00ac 4CD1     		bne	.L16
 212              	.L17:
 126:.\asp\kernel/task_refer.c **** 			case TS_WAIT_SLP:
 127:.\asp\kernel/task_refer.c **** 				pk_rtsk->tskwait = TTW_SLP;
 128:.\asp\kernel/task_refer.c **** 				break;
 129:.\asp\kernel/task_refer.c **** 			case TS_WAIT_DLY:
 130:.\asp\kernel/task_refer.c **** 				pk_rtsk->tskwait = TTW_DLY;
 213              		.loc 1 130 0
 214 00ae 0222     		movs	r2, #2
 215 00b0 1EE0     		b	.L42
 216              	.L28:
 125:.\asp\kernel/task_refer.c **** 			switch (tstat & TS_WAIT_MASK) {
 217              		.loc 1 125 0
 218 00b2 102B     		cmp	r3, #16
 219 00b4 2CD0     		beq	.L19
 220 00b6 182B     		cmp	r3, #24
 221 00b8 46D1     		bne	.L16
 131:.\asp\kernel/task_refer.c **** 				break;
 132:.\asp\kernel/task_refer.c **** 			case TS_WAIT_SEM:
 133:.\asp\kernel/task_refer.c **** 				pk_rtsk->tskwait = TTW_SEM;
 134:.\asp\kernel/task_refer.c **** 				pk_rtsk->wobjid = SEMID(((WINFO_SEM *)(p_tcb->p_winfo))
 135:.\asp\kernel/task_refer.c **** 																->p_semcb);
 136:.\asp\kernel/task_refer.c **** 				break;
 137:.\asp\kernel/task_refer.c **** 			case TS_WAIT_FLG:
ARM GAS  C:\TEMP\ccMSuaQR.s 			page 14


 138:.\asp\kernel/task_refer.c **** 				pk_rtsk->tskwait = TTW_FLG;
 139:.\asp\kernel/task_refer.c **** 				pk_rtsk->wobjid = FLGID(((WINFO_FLG *)(p_tcb->p_winfo))
 140:.\asp\kernel/task_refer.c **** 																->p_flgcb);
 141:.\asp\kernel/task_refer.c **** 				break;
 142:.\asp\kernel/task_refer.c **** 			case TS_WAIT_SDTQ:
 143:.\asp\kernel/task_refer.c **** 				pk_rtsk->tskwait = TTW_SDTQ;
 144:.\asp\kernel/task_refer.c **** 				pk_rtsk->wobjid = DTQID(((WINFO_DTQ *)(p_tcb->p_winfo))
 145:.\asp\kernel/task_refer.c **** 																->p_dtqcb);
 146:.\asp\kernel/task_refer.c **** 				break;
 147:.\asp\kernel/task_refer.c **** 			case TS_WAIT_RDTQ:
 148:.\asp\kernel/task_refer.c **** 				pk_rtsk->tskwait = TTW_RDTQ;
 149:.\asp\kernel/task_refer.c **** 				pk_rtsk->wobjid = DTQID(((WINFO_DTQ *)(p_tcb->p_winfo))
 150:.\asp\kernel/task_refer.c **** 																->p_dtqcb);
 151:.\asp\kernel/task_refer.c **** 				break;
 152:.\asp\kernel/task_refer.c **** 			case TS_WAIT_SPDQ:
 153:.\asp\kernel/task_refer.c **** 				pk_rtsk->tskwait = TTW_SPDQ;
 154:.\asp\kernel/task_refer.c **** 				pk_rtsk->wobjid = PDQID(((WINFO_PDQ *)(p_tcb->p_winfo))
 155:.\asp\kernel/task_refer.c **** 																->p_pdqcb);
 156:.\asp\kernel/task_refer.c **** 				break;
 157:.\asp\kernel/task_refer.c **** 			case TS_WAIT_RPDQ:
 158:.\asp\kernel/task_refer.c **** 				pk_rtsk->tskwait = TTW_RPDQ;
 222              		.loc 1 158 0
 223 00ba 4FF40070 		mov	r0, #512
 224 00be 31E0     		b	.L45
 225              	.L27:
 125:.\asp\kernel/task_refer.c **** 			switch (tstat & TS_WAIT_MASK) {
 226              		.loc 1 125 0
 227 00c0 382B     		cmp	r3, #56
 228 00c2 2DD0     		beq	.L24
 229 00c4 05D8     		bhi	.L29
 230 00c6 282B     		cmp	r3, #40
 231 00c8 1AD0     		beq	.L22
 232 00ca 302B     		cmp	r3, #48
 233 00cc 3CD1     		bne	.L16
 143:.\asp\kernel/task_refer.c **** 				pk_rtsk->tskwait = TTW_SDTQ;
 234              		.loc 1 143 0
 235 00ce 1021     		movs	r1, #16
 236 00d0 1FE0     		b	.L47
 237              	.L29:
 125:.\asp\kernel/task_refer.c **** 			switch (tstat & TS_WAIT_MASK) {
 238              		.loc 1 125 0
 239 00d2 402B     		cmp	r3, #64
 240 00d4 2ED0     		beq	.L25
 241 00d6 482B     		cmp	r3, #72
 242 00d8 36D1     		bne	.L16
 159:.\asp\kernel/task_refer.c **** 				pk_rtsk->wobjid = PDQID(((WINFO_PDQ *)(p_tcb->p_winfo))
 160:.\asp\kernel/task_refer.c **** 																->p_pdqcb);
 161:.\asp\kernel/task_refer.c **** 				break;
 162:.\asp\kernel/task_refer.c **** 			case TS_WAIT_MBX:
 163:.\asp\kernel/task_refer.c **** 				pk_rtsk->tskwait = TTW_MBX;
 164:.\asp\kernel/task_refer.c **** 				pk_rtsk->wobjid = MBXID(((WINFO_MBX *)(p_tcb->p_winfo))
 165:.\asp\kernel/task_refer.c **** 																->p_mbxcb);
 166:.\asp\kernel/task_refer.c **** 				break;
 167:.\asp\kernel/task_refer.c **** 			case TS_WAIT_MPF:
 168:.\asp\kernel/task_refer.c **** 				pk_rtsk->tskwait = TTW_MPF;
 169:.\asp\kernel/task_refer.c **** 				pk_rtsk->wobjid = MPFID(((WINFO_MPF *)(p_tcb->p_winfo))
 243              		.loc 1 169 0
ARM GAS  C:\TEMP\ccMSuaQR.s 			page 15


 244 00da 6A69     		ldr	r2, [r5, #20]
 245 00dc 2E49     		ldr	r1, .L49+20
 246 00de 5068     		ldr	r0, [r2, #4]
 168:.\asp\kernel/task_refer.c **** 				pk_rtsk->tskwait = TTW_MPF;
 247              		.loc 1 168 0
 248 00e0 4FF40053 		mov	r3, #8192
 249 00e4 E360     		str	r3, [r4, #12]
 250              		.loc 1 169 0
 251 00e6 431A     		subs	r3, r0, r1
 252 00e8 D810     		asrs	r0, r3, #3
 253 00ea 2C4A     		ldr	r2, .L49+24
 254 00ec 29E0     		b	.L43
 255              	.L18:
 127:.\asp\kernel/task_refer.c **** 				pk_rtsk->tskwait = TTW_SLP;
 256              		.loc 1 127 0
 257 00ee 0122     		movs	r2, #1
 258              	.L42:
 130:.\asp\kernel/task_refer.c **** 				pk_rtsk->tskwait = TTW_DLY;
 259              		.loc 1 130 0
 260 00f0 E260     		str	r2, [r4, #12]
 131:.\asp\kernel/task_refer.c **** 				break;
 261              		.loc 1 131 0
 262 00f2 29E0     		b	.L16
 263              	.L21:
 134:.\asp\kernel/task_refer.c **** 				pk_rtsk->wobjid = SEMID(((WINFO_SEM *)(p_tcb->p_winfo))
 264              		.loc 1 134 0
 265 00f4 6869     		ldr	r0, [r5, #20]
 133:.\asp\kernel/task_refer.c **** 				pk_rtsk->tskwait = TTW_SEM;
 266              		.loc 1 133 0
 267 00f6 0421     		movs	r1, #4
 268 00f8 E160     		str	r1, [r4, #12]
 134:.\asp\kernel/task_refer.c **** 				pk_rtsk->wobjid = SEMID(((WINFO_SEM *)(p_tcb->p_winfo))
 269              		.loc 1 134 0
 270 00fa 4068     		ldr	r0, [r0, #4]
 271 00fc 2849     		ldr	r1, .L49+28
 272 00fe 04E0     		b	.L46
 273              	.L22:
 139:.\asp\kernel/task_refer.c **** 				pk_rtsk->wobjid = FLGID(((WINFO_FLG *)(p_tcb->p_winfo))
 274              		.loc 1 139 0
 275 0100 6A69     		ldr	r2, [r5, #20]
 138:.\asp\kernel/task_refer.c **** 				pk_rtsk->tskwait = TTW_FLG;
 276              		.loc 1 138 0
 277 0102 0823     		movs	r3, #8
 139:.\asp\kernel/task_refer.c **** 				pk_rtsk->wobjid = FLGID(((WINFO_FLG *)(p_tcb->p_winfo))
 278              		.loc 1 139 0
 279 0104 5068     		ldr	r0, [r2, #4]
 280 0106 2749     		ldr	r1, .L49+32
 138:.\asp\kernel/task_refer.c **** 				pk_rtsk->tskwait = TTW_FLG;
 281              		.loc 1 138 0
 282 0108 E360     		str	r3, [r4, #12]
 283              	.L46:
 139:.\asp\kernel/task_refer.c **** 				pk_rtsk->wobjid = FLGID(((WINFO_FLG *)(p_tcb->p_winfo))
 284              		.loc 1 139 0
 285 010a 431A     		subs	r3, r0, r1
 286 010c 1811     		asrs	r0, r3, #4
 287 010e 19E0     		b	.L44
 288              	.L19:
ARM GAS  C:\TEMP\ccMSuaQR.s 			page 16


 148:.\asp\kernel/task_refer.c **** 				pk_rtsk->tskwait = TTW_RDTQ;
 289              		.loc 1 148 0
 290 0110 2021     		movs	r1, #32
 291              	.L47:
 149:.\asp\kernel/task_refer.c **** 				pk_rtsk->wobjid = DTQID(((WINFO_DTQ *)(p_tcb->p_winfo))
 292              		.loc 1 149 0
 293 0112 6B69     		ldr	r3, [r5, #20]
 294 0114 2448     		ldr	r0, .L49+36
 295 0116 5A68     		ldr	r2, [r3, #4]
 148:.\asp\kernel/task_refer.c **** 				pk_rtsk->tskwait = TTW_RDTQ;
 296              		.loc 1 148 0
 297 0118 E160     		str	r1, [r4, #12]
 149:.\asp\kernel/task_refer.c **** 				pk_rtsk->wobjid = DTQID(((WINFO_DTQ *)(p_tcb->p_winfo))
 298              		.loc 1 149 0
 299 011a 111A     		subs	r1, r2, r0
 300 011c 4811     		asrs	r0, r1, #5
 301 011e 11E0     		b	.L44
 302              	.L24:
 153:.\asp\kernel/task_refer.c **** 				pk_rtsk->tskwait = TTW_SPDQ;
 303              		.loc 1 153 0
 304 0120 4FF48070 		mov	r0, #256
 305              	.L45:
 159:.\asp\kernel/task_refer.c **** 				pk_rtsk->wobjid = PDQID(((WINFO_PDQ *)(p_tcb->p_winfo))
 306              		.loc 1 159 0
 307 0124 6969     		ldr	r1, [r5, #20]
 158:.\asp\kernel/task_refer.c **** 				pk_rtsk->tskwait = TTW_RPDQ;
 308              		.loc 1 158 0
 309 0126 E060     		str	r0, [r4, #12]
 159:.\asp\kernel/task_refer.c **** 				pk_rtsk->wobjid = PDQID(((WINFO_PDQ *)(p_tcb->p_winfo))
 310              		.loc 1 159 0
 311 0128 204B     		ldr	r3, .L49+40
 312 012a 4868     		ldr	r0, [r1, #4]
 313 012c C21A     		subs	r2, r0, r3
 314 012e 9010     		asrs	r0, r2, #2
 315 0130 1F4A     		ldr	r2, .L49+44
 316 0132 06E0     		b	.L43
 317              	.L25:
 164:.\asp\kernel/task_refer.c **** 				pk_rtsk->wobjid = MBXID(((WINFO_MBX *)(p_tcb->p_winfo))
 318              		.loc 1 164 0
 319 0134 6969     		ldr	r1, [r5, #20]
 163:.\asp\kernel/task_refer.c **** 				pk_rtsk->tskwait = TTW_MBX;
 320              		.loc 1 163 0
 321 0136 E360     		str	r3, [r4, #12]
 164:.\asp\kernel/task_refer.c **** 				pk_rtsk->wobjid = MBXID(((WINFO_MBX *)(p_tcb->p_winfo))
 322              		.loc 1 164 0
 323 0138 4868     		ldr	r0, [r1, #4]
 324 013a 1E4B     		ldr	r3, .L49+48
 325 013c C21A     		subs	r2, r0, r3
 326 013e 9010     		asrs	r0, r2, #2
 327 0140 1D4A     		ldr	r2, .L49+52
 328              	.L43:
 329              		.loc 1 169 0
 330 0142 5043     		muls	r0, r2, r0
 331              	.L44:
 332 0144 421C     		adds	r2, r0, #1
 333 0146 2261     		str	r2, [r4, #16]
 334              	.L16:
ARM GAS  C:\TEMP\ccMSuaQR.s 			page 17


 170:.\asp\kernel/task_refer.c **** 																->p_mpfcb);
 171:.\asp\kernel/task_refer.c **** 				break;
 172:.\asp\kernel/task_refer.c **** 			}
 173:.\asp\kernel/task_refer.c **** 
 174:.\asp\kernel/task_refer.c **** 			/*
 175:.\asp\kernel/task_refer.c **** 	 		 *  ƒ^ƒCƒ€ƒAƒEƒg‚·‚é‚Ü‚Å‚ÌŠÔ‚Ìæo‚µ
 176:.\asp\kernel/task_refer.c **** 			 */
 177:.\asp\kernel/task_refer.c **** 			if (p_tcb->p_winfo->p_tmevtb != NULL) {
 335              		.loc 1 177 0
 336 0148 6969     		ldr	r1, [r5, #20]
 337 014a 0868     		ldr	r0, [r1, #0]
 338 014c 18B1     		cbz	r0, .L30
 178:.\asp\kernel/task_refer.c **** 				pk_rtsk->lefttmo
 179:.\asp\kernel/task_refer.c **** 						= (TMO) tmevt_lefttim(p_tcb->p_winfo->p_tmevtb);
 339              		.loc 1 179 0
 340 014e FFF7FEFF 		bl	_kernel_tmevt_lefttim
 341              	.LVL17:
 342 0152 6061     		str	r0, [r4, #20]
 343 0154 02E0     		b	.L15
 344              	.LVL18:
 345              	.L30:
 180:.\asp\kernel/task_refer.c **** 			}
 181:.\asp\kernel/task_refer.c **** 			else {
 182:.\asp\kernel/task_refer.c **** 				pk_rtsk->lefttmo = TMO_FEVR;
 346              		.loc 1 182 0
 347 0156 4FF0FF30 		mov	r0, #-1
 348 015a 6061     		str	r0, [r4, #20]
 349              	.LVL19:
 350              	.L15:
 183:.\asp\kernel/task_refer.c **** 			}
 184:.\asp\kernel/task_refer.c **** 		}
 185:.\asp\kernel/task_refer.c **** 
 186:.\asp\kernel/task_refer.c **** 		/*
 187:.\asp\kernel/task_refer.c ****  		 *  ‹N°—v‹ƒLƒ…[ƒCƒ“ƒO”‚Ìæo‚µ
 188:.\asp\kernel/task_refer.c **** 		 */
 189:.\asp\kernel/task_refer.c **** 		pk_rtsk->wupcnt = p_tcb->wupque ? 1U : 0U;
 351              		.loc 1 189 0
 352 015c AB7B     		ldrb	r3, [r5, #14]	@ zero_extendqisi2
 353 015e C3F34002 		ubfx	r2, r3, #1, #1
 354 0162 E261     		str	r2, [r4, #28]
 355              	.L9:
 190:.\asp\kernel/task_refer.c **** 	}
 191:.\asp\kernel/task_refer.c **** 
 192:.\asp\kernel/task_refer.c **** 	/*
 193:.\asp\kernel/task_refer.c **** 	 *  ‹N“®—v‹ƒLƒ…[ƒCƒ“ƒO”‚Ìæo‚µ
 194:.\asp\kernel/task_refer.c **** 	 */
 195:.\asp\kernel/task_refer.c **** 	pk_rtsk->actcnt = p_tcb->actque ? 1U : 0U;
 356              		.loc 1 195 0
 357 0164 A87B     		ldrb	r0, [r5, #14]	@ zero_extendqisi2
 358 0166 00F00103 		and	r3, r0, #1
 359 016a A361     		str	r3, [r4, #24]
 360              	.LVL20:
 361              	.LBB40:
 362              	.LBB41:
 233:.\asp\arch\arm_m_gcc\common/core_config.h **** 	ARM_MEMORY_CHANGED;
 363              		.loc 3 233 0
 234:.\asp\arch\arm_m_gcc\common/core_config.h **** 	lock_flag = false;
ARM GAS  C:\TEMP\ccMSuaQR.s 			page 18


 364              		.loc 3 234 0
 365 016c 054A     		ldr	r2, .L49
 366 016e 0020     		movs	r0, #0
 235:.\asp\arch\arm_m_gcc\common/core_config.h **** 	set_basepri(saved_iipm);
 367              		.loc 3 235 0
 368 0170 0849     		ldr	r1, .L49+16
 234:.\asp\arch\arm_m_gcc\common/core_config.h **** 	lock_flag = false;
 369              		.loc 3 234 0
 370 0172 1060     		str	r0, [r2, #0]
 235:.\asp\arch\arm_m_gcc\common/core_config.h **** 	set_basepri(saved_iipm);
 371              		.loc 3 235 0
 372 0174 0B68     		ldr	r3, [r1, #0]
 373              	.LVL21:
 374              	.LBB42:
 375              	.LBB43:
  93:.\asp\arch\arm_m_gcc\common/core_insn.h **** 	Asm("msr BASEPRI, %0" : : "r"(val) : "memory");
 376              		.loc 2 93 0
 377              	@ 93 ".\asp\arch\arm_m_gcc\common/core_insn.h" 1
 378 0176 83F31188 		msr BASEPRI, r3
 379              	@ 0 "" 2
 380              		.thumb
 381 017a 38BD     		pop	{r3, r4, r5, pc}
 382              	.LVL22:
 383              	.L33:
 384              	.LBE43:
 385              	.LBE42:
 386              	.LBE41:
 387              	.LBE40:
  82:.\asp\kernel/task_refer.c **** 	CHECK_TSKID_SELF(tskid);
 388              		.loc 1 82 0
 389 017c 6FF01100 		mvn	r0, #17
 390              	.LVL23:
 391 0180 38BD     		pop	{r3, r4, r5, pc}
 392              	.L50:
 393 0182 00BF     		.align	2
 394              	.L49:
 395 0184 00000000 		.word	_kernel_lock_flag
 396 0188 00000000 		.word	_kernel_tmax_tskid
 397 018c 00000000 		.word	_kernel_tcb_table
 398 0190 00000000 		.word	_kernel_p_runtsk
 399 0194 00000000 		.word	_kernel_saved_iipm
 400 0198 00000000 		.word	_kernel_mpfcb_table
 401 019c ABAAAAAA 		.word	-1431655765
 402 01a0 00000000 		.word	_kernel_semcb_table
 403 01a4 00000000 		.word	_kernel_flgcb_table
 404 01a8 00000000 		.word	_kernel_dtqcb_table
 405 01ac 00000000 		.word	_kernel_pdqcb_table
 406 01b0 398EE338 		.word	954437177
 407 01b4 00000000 		.word	_kernel_mbxcb_table
 408 01b8 CDCCCCCC 		.word	-858993459
 409              		.cfi_endproc
 410              	.LFE60:
 411              		.size	ref_tsk, .-ref_tsk
 412              		.text
 413              	.Letext0:
 414              		.file 4 ".\\asp\\arch\\gcc/tool_stddef.h"
 415              		.file 5 ".\\asp\\include/t_stddef.h"
ARM GAS  C:\TEMP\ccMSuaQR.s 			page 19


 416              		.file 6 ".\\asp\\include/kernel.h"
 417              		.file 7 ".\\asp\\include/queue.h"
 418              		.file 8 ".\\asp\\kernel\\time_event.h"
 419              		.file 9 ".\\asp\\kernel\\task.h"
 420              		.file 10 ".\\asp\\kernel\\semaphore.h"
 421              		.file 11 ".\\asp\\kernel\\eventflag.h"
 422              		.file 12 ".\\asp\\kernel\\dataqueue.h"
 423              		.file 13 ".\\asp\\kernel\\pridataq.h"
 424              		.file 14 ".\\asp\\kernel\\mailbox.h"
 425              		.file 15 ".\\asp\\kernel\\mempfix.h"