ARM GAS  C:\TEMP\ccRTQQ1Q.s 			page 1


   1              		.syntax unified
   2              		.cpu cortex-m3
   3              		.fpu softvfp
   4              		.eabi_attribute 20, 1
   5              		.eabi_attribute 21, 1
   6              		.eabi_attribute 23, 3
   7              		.eabi_attribute 24, 1
   8              		.eabi_attribute 25, 1
   9              		.eabi_attribute 26, 1
  10              		.eabi_attribute 30, 4
  11              		.eabi_attribute 34, 1
  12              		.eabi_attribute 18, 4
  13              		.thumb
  14              		.file	"task_except.c"
  15              		.text
  16              	.Ltext0:
  17              		.cfi_sections	.debug_frame
  18              		.section	.text.sense_context,"ax",%progbits
  19              		.align	1
  20              		.thumb
  21              		.thumb_func
  22              		.type	sense_context, %function
  23              	sense_context:
  24              	.LFB29:
  25              		.file 1 ".\\asp\\arch\\arm_m_gcc\\common/core_config.h"
   1:.\asp\arch\arm_m_gcc\common/core_config.h **** /*
   2:.\asp\arch\arm_m_gcc\common/core_config.h ****  *  TOPPERS/ASP Kernel
   3:.\asp\arch\arm_m_gcc\common/core_config.h ****  *      Toyohashi Open Platform for Embedded Real-Time Systems/
   4:.\asp\arch\arm_m_gcc\common/core_config.h ****  *      Advanced Standard Profile Kernel
   5:.\asp\arch\arm_m_gcc\common/core_config.h ****  * 
   6:.\asp\arch\arm_m_gcc\common/core_config.h ****  *  Copyright (C) 2008-2011,2013 by Embedded and Real-Time Systems Laboratory
   7:.\asp\arch\arm_m_gcc\common/core_config.h ****  *              Graduate School of Information Science, Nagoya Univ., JAPAN
   8:.\asp\arch\arm_m_gcc\common/core_config.h ****  * 
   9:.\asp\arch\arm_m_gcc\common/core_config.h ****  *  ã‹L’˜ìŒ Ò‚ÍCˆÈ‰º‚Ì(1)`(4)‚ÌğŒ‚ğ–‚½‚·ê‡‚ÉŒÀ‚èC–{ƒ\ƒtƒgƒEƒF
  10:.\asp\arch\arm_m_gcc\common/core_config.h ****  *  ƒAi–{ƒ\ƒtƒgƒEƒFƒA‚ğ‰ü•Ï‚µ‚½‚à‚Ì‚ğŠÜ‚ŞDˆÈ‰º“¯‚¶j‚ğg—pE•¡»E‰ü
  11:.\asp\arch\arm_m_gcc\common/core_config.h ****  *  •ÏEÄ”z•ziˆÈ‰ºC—˜—p‚ÆŒÄ‚Ôj‚·‚é‚±‚Æ‚ğ–³‚Å‹–‘ø‚·‚éD
  12:.\asp\arch\arm_m_gcc\common/core_config.h ****  *  (1) –{ƒ\ƒtƒgƒEƒFƒA‚ğƒ\[ƒXƒR[ƒh‚ÌŒ`‚Å—˜—p‚·‚éê‡‚É‚ÍCã‹L‚Ì’˜ì
  13:.\asp\arch\arm_m_gcc\common/core_config.h ****  *      Œ •\¦C‚±‚Ì—˜—pğŒ‚¨‚æ‚Ñ‰º‹L‚Ì–³•ÛØ‹K’è‚ªC‚»‚Ì‚Ü‚Ü‚ÌŒ`‚Åƒ\[
  14:.\asp\arch\arm_m_gcc\common/core_config.h ****  *      ƒXƒR[ƒh’†‚ÉŠÜ‚Ü‚ê‚Ä‚¢‚é‚±‚ÆD
  15:.\asp\arch\arm_m_gcc\common/core_config.h ****  *  (2) –{ƒ\ƒtƒgƒEƒFƒA‚ğCƒ‰ƒCƒuƒ‰ƒŠŒ`®‚È‚ÇC‘¼‚Ìƒ\ƒtƒgƒEƒFƒAŠJ”­‚Ég
  16:.\asp\arch\arm_m_gcc\common/core_config.h ****  *      —p‚Å‚«‚éŒ`‚ÅÄ”z•z‚·‚éê‡‚É‚ÍCÄ”z•z‚É”º‚¤ƒhƒLƒ…ƒƒ“ƒgi—˜—p
  17:.\asp\arch\arm_m_gcc\common/core_config.h ****  *      Òƒ}ƒjƒ…ƒAƒ‹‚È‚Çj‚ÉCã‹L‚Ì’˜ìŒ •\¦C‚±‚Ì—˜—pğŒ‚¨‚æ‚Ñ‰º‹L
  18:.\asp\arch\arm_m_gcc\common/core_config.h ****  *      ‚Ì–³•ÛØ‹K’è‚ğŒfÚ‚·‚é‚±‚ÆD
  19:.\asp\arch\arm_m_gcc\common/core_config.h ****  *  (3) –{ƒ\ƒtƒgƒEƒFƒA‚ğC‹@Ší‚É‘g‚İ‚Ş‚È‚ÇC‘¼‚Ìƒ\ƒtƒgƒEƒFƒAŠJ”­‚Ég
  20:.\asp\arch\arm_m_gcc\common/core_config.h ****  *      —p‚Å‚«‚È‚¢Œ`‚ÅÄ”z•z‚·‚éê‡‚É‚ÍCŸ‚Ì‚¢‚¸‚ê‚©‚ÌğŒ‚ğ–‚½‚·‚±
  21:.\asp\arch\arm_m_gcc\common/core_config.h ****  *      ‚ÆD
  22:.\asp\arch\arm_m_gcc\common/core_config.h ****  *    (a) Ä”z•z‚É”º‚¤ƒhƒLƒ…ƒƒ“ƒgi—˜—pÒƒ}ƒjƒ…ƒAƒ‹‚È‚Çj‚ÉCã‹L‚Ì’˜
  23:.\asp\arch\arm_m_gcc\common/core_config.h ****  *        ìŒ •\¦C‚±‚Ì—˜—pğŒ‚¨‚æ‚Ñ‰º‹L‚Ì–³•ÛØ‹K’è‚ğŒfÚ‚·‚é‚±‚ÆD
  24:.\asp\arch\arm_m_gcc\common/core_config.h ****  *    (b) Ä”z•z‚ÌŒ`‘Ô‚ğC•Ê‚É’è‚ß‚é•û–@‚É‚æ‚Á‚ÄCTOPPERSƒvƒƒWƒFƒNƒg‚É
  25:.\asp\arch\arm_m_gcc\common/core_config.h ****  *        •ñ‚·‚é‚±‚ÆD
  26:.\asp\arch\arm_m_gcc\common/core_config.h ****  *  (4) –{ƒ\ƒtƒgƒEƒFƒA‚Ì—˜—p‚É‚æ‚è’¼Ú“I‚Ü‚½‚ÍŠÔÚ“I‚É¶‚¶‚é‚¢‚©‚È‚é‘¹
  27:.\asp\arch\arm_m_gcc\common/core_config.h ****  *      ŠQ‚©‚ç‚àCã‹L’˜ìŒ Ò‚¨‚æ‚ÑTOPPERSƒvƒƒWƒFƒNƒg‚ğ–ÆÓ‚·‚é‚±‚ÆD
  28:.\asp\arch\arm_m_gcc\common/core_config.h ****  *      ‚Ü‚½C–{ƒ\ƒtƒgƒEƒFƒA‚Ìƒ†[ƒU‚Ü‚½‚ÍƒGƒ“ƒhƒ†[ƒU‚©‚ç‚Ì‚¢‚©‚È‚é—
  29:.\asp\arch\arm_m_gcc\common/core_config.h ****  *      —R‚ÉŠî‚Ã‚­¿‹‚©‚ç‚àCã‹L’˜ìŒ Ò‚¨‚æ‚ÑTOPPERSƒvƒƒWƒFƒNƒg‚ğ
  30:.\asp\arch\arm_m_gcc\common/core_config.h ****  *      –ÆÓ‚·‚é‚±‚ÆD
  31:.\asp\arch\arm_m_gcc\common/core_config.h ****  * 
  32:.\asp\arch\arm_m_gcc\common/core_config.h ****  *  –{ƒ\ƒtƒgƒEƒFƒA‚ÍC–³•ÛØ‚Å’ñ‹Ÿ‚³‚ê‚Ä‚¢‚é‚à‚Ì‚Å‚ ‚éDã‹L’˜ìŒ Ò‚¨
ARM GAS  C:\TEMP\ccRTQQ1Q.s 			page 2


  33:.\asp\arch\arm_m_gcc\common/core_config.h ****  *  ‚æ‚ÑTOPPERSƒvƒƒWƒFƒNƒg‚ÍC–{ƒ\ƒtƒgƒEƒFƒA‚ÉŠÖ‚µ‚ÄC“Á’è‚Ìg—p–Ú“I
  34:.\asp\arch\arm_m_gcc\common/core_config.h ****  *  ‚É‘Î‚·‚é“K‡«‚àŠÜ‚ß‚ÄC‚¢‚©‚È‚é•ÛØ‚às‚í‚È‚¢D‚Ü‚½C–{ƒ\ƒtƒgƒEƒF
  35:.\asp\arch\arm_m_gcc\common/core_config.h ****  *  ƒA‚Ì—˜—p‚É‚æ‚è’¼Ú“I‚Ü‚½‚ÍŠÔÚ“I‚É¶‚¶‚½‚¢‚©‚È‚é‘¹ŠQ‚ÉŠÖ‚µ‚Ä‚àC‚»
  36:.\asp\arch\arm_m_gcc\common/core_config.h ****  *  ‚ÌÓ”C‚ğ•‰‚í‚È‚¢D
  37:.\asp\arch\arm_m_gcc\common/core_config.h ****  * 
  38:.\asp\arch\arm_m_gcc\common/core_config.h ****  *  @(#) $Id: core_config.h 2554 2013-10-17 02:53:02Z ertl-honda $
  39:.\asp\arch\arm_m_gcc\common/core_config.h ****  */
  40:.\asp\arch\arm_m_gcc\common/core_config.h **** 
  41:.\asp\arch\arm_m_gcc\common/core_config.h **** /*
  42:.\asp\arch\arm_m_gcc\common/core_config.h ****  *		ƒvƒƒZƒbƒTˆË‘¶ƒ‚ƒWƒ…[ƒ‹iARM-M—pj
  43:.\asp\arch\arm_m_gcc\common/core_config.h ****  *
  44:.\asp\arch\arm_m_gcc\common/core_config.h ****  *  ‚±‚ÌƒCƒ“ƒNƒ‹[ƒhƒtƒ@ƒCƒ‹‚ÍCtarget_config.hi‚Ü‚½‚ÍC‚»‚±‚©‚çƒCƒ“ƒN
  45:.\asp\arch\arm_m_gcc\common/core_config.h ****  *  ƒ‹[ƒh‚³‚ê‚éƒtƒ@ƒCƒ‹j‚Ì‚İ‚©‚çƒCƒ“ƒNƒ‹[ƒh‚³‚ê‚éD‘¼‚Ìƒtƒ@ƒCƒ‹‚©‚ç
  46:.\asp\arch\arm_m_gcc\common/core_config.h ****  *  ’¼ÚƒCƒ“ƒNƒ‹[ƒh‚µ‚Ä‚Í‚È‚ç‚È‚¢D
  47:.\asp\arch\arm_m_gcc\common/core_config.h ****  */
  48:.\asp\arch\arm_m_gcc\common/core_config.h **** 
  49:.\asp\arch\arm_m_gcc\common/core_config.h **** #ifndef TOPPERS_CORE_CONFIG_H
  50:.\asp\arch\arm_m_gcc\common/core_config.h **** #define TOPPERS_CORE_CONFIG_H
  51:.\asp\arch\arm_m_gcc\common/core_config.h **** 
  52:.\asp\arch\arm_m_gcc\common/core_config.h **** #ifndef TOPPERS_MACRO_ONLY
  53:.\asp\arch\arm_m_gcc\common/core_config.h **** 
  54:.\asp\arch\arm_m_gcc\common/core_config.h **** /*
  55:.\asp\arch\arm_m_gcc\common/core_config.h ****  *  ƒvƒƒZƒbƒT‚Ì“Áê–½—ß‚ÌƒCƒ“ƒ‰ƒCƒ“ŠÖ”’è‹`
  56:.\asp\arch\arm_m_gcc\common/core_config.h ****  */
  57:.\asp\arch\arm_m_gcc\common/core_config.h **** #include <core_insn.h>
  58:.\asp\arch\arm_m_gcc\common/core_config.h **** 
  59:.\asp\arch\arm_m_gcc\common/core_config.h **** /*
  60:.\asp\arch\arm_m_gcc\common/core_config.h ****  *  ƒ^[ƒQƒbƒgˆË‘¶‚ÌƒIƒuƒWƒFƒNƒg‘®«
  61:.\asp\arch\arm_m_gcc\common/core_config.h ****  */
  62:.\asp\arch\arm_m_gcc\common/core_config.h **** #define TARGET_INHATR  TA_NONKERNEL /* ƒ^[ƒQƒbƒg’è‹`‚ÌŠ„‚İƒnƒ“ƒhƒ‰‘®« */
  63:.\asp\arch\arm_m_gcc\common/core_config.h **** 
  64:.\asp\arch\arm_m_gcc\common/core_config.h **** /*
  65:.\asp\arch\arm_m_gcc\common/core_config.h ****  *  ƒGƒ‰[ƒ`ƒFƒbƒN•û–@‚Ìw’è
  66:.\asp\arch\arm_m_gcc\common/core_config.h ****  */
  67:.\asp\arch\arm_m_gcc\common/core_config.h **** #define CHECK_STKSZ_ALIGN	8	/* ƒXƒ^ƒbƒNƒTƒCƒY‚ÌƒAƒ‰ƒCƒ“’PˆÊ */
  68:.\asp\arch\arm_m_gcc\common/core_config.h **** #define CHECK_FUNC_ALIGN	1	/* ŠÖ”‚ÌƒAƒ‰ƒCƒ“’PˆÊ */
  69:.\asp\arch\arm_m_gcc\common/core_config.h **** #define CHECK_FUNC_NONNULL		/* ŠÖ”‚Ì”ñNULLƒ`ƒFƒbƒN */
  70:.\asp\arch\arm_m_gcc\common/core_config.h **** #define CHECK_STACK_ALIGN	8	/* ƒXƒ^ƒbƒN—Ìˆæ‚ÌƒAƒ‰ƒCƒ“’PˆÊ */
  71:.\asp\arch\arm_m_gcc\common/core_config.h **** #define CHECK_STACK_NONNULL		/* ƒXƒ^ƒbƒN—Ìˆæ‚Ì”ñNULLƒ`ƒFƒbƒN */
  72:.\asp\arch\arm_m_gcc\common/core_config.h **** #define CHECK_MPF_ALIGN		4	/* ŒÅ’è’·ƒƒ‚ƒŠƒv[ƒ‹—Ìˆæ‚ÌƒAƒ‰ƒCƒ“’PˆÊ */
  73:.\asp\arch\arm_m_gcc\common/core_config.h **** #define CHECK_MPF_NONNULL		/* ŒÅ’è’·ƒƒ‚ƒŠƒv[ƒ‹—Ìˆæ‚Ì”ñNULLƒ`ƒFƒbƒN */
  74:.\asp\arch\arm_m_gcc\common/core_config.h **** #define CHECK_MB_ALIGN		4	/* ŠÇ——Ìˆæ‚ÌƒAƒ‰ƒCƒ“’PˆÊ */
  75:.\asp\arch\arm_m_gcc\common/core_config.h **** 
  76:.\asp\arch\arm_m_gcc\common/core_config.h **** /*
  77:.\asp\arch\arm_m_gcc\common/core_config.h ****  *  ”ñƒ^ƒXƒNƒRƒ“ƒeƒLƒXƒg—p‚ÌƒXƒ^ƒbƒN‰Šú’l
  78:.\asp\arch\arm_m_gcc\common/core_config.h ****  */
  79:.\asp\arch\arm_m_gcc\common/core_config.h **** #define TOPPERS_ISTKPT(istk, istksz) ((STK_T *)((uint8_t *)(istk) + (istksz)))
  80:.\asp\arch\arm_m_gcc\common/core_config.h **** 
  81:.\asp\arch\arm_m_gcc\common/core_config.h **** /*
  82:.\asp\arch\arm_m_gcc\common/core_config.h ****  *  ƒ^ƒXƒNƒRƒ“ƒeƒLƒXƒgƒuƒƒbƒN‚Ì’è‹`
  83:.\asp\arch\arm_m_gcc\common/core_config.h ****  */
  84:.\asp\arch\arm_m_gcc\common/core_config.h **** typedef struct task_context_block {
  85:.\asp\arch\arm_m_gcc\common/core_config.h **** 	void	*sp;		/* ƒXƒ^ƒbƒNƒ|ƒCƒ“ƒ^ */
  86:.\asp\arch\arm_m_gcc\common/core_config.h **** 	FP		pc;			/* ƒvƒƒOƒ‰ƒ€ƒJƒEƒ“ƒ^ */
  87:.\asp\arch\arm_m_gcc\common/core_config.h **** } TSKCTXB;
  88:.\asp\arch\arm_m_gcc\common/core_config.h **** 
  89:.\asp\arch\arm_m_gcc\common/core_config.h **** #endif /* TOPPERS_MACRO_ONLY */
ARM GAS  C:\TEMP\ccRTQQ1Q.s 			page 3


  90:.\asp\arch\arm_m_gcc\common/core_config.h **** 
  91:.\asp\arch\arm_m_gcc\common/core_config.h **** #ifndef TOPPERS_MACRO_ONLY
  92:.\asp\arch\arm_m_gcc\common/core_config.h **** /*
  93:.\asp\arch\arm_m_gcc\common/core_config.h ****  *  ƒRƒ“ƒeƒLƒXƒg‚ÌQÆ
  94:.\asp\arch\arm_m_gcc\common/core_config.h ****  *
  95:.\asp\arch\arm_m_gcc\common/core_config.h ****  */
  96:.\asp\arch\arm_m_gcc\common/core_config.h **** Inline bool_t
  97:.\asp\arch\arm_m_gcc\common/core_config.h **** sense_context(void)
  98:.\asp\arch\arm_m_gcc\common/core_config.h **** {
  26              		.loc 1 98 0
  27              		.cfi_startproc
  28              		@ args = 0, pretend = 0, frame = 0
  29              		@ frame_needed = 0, uses_anonymous_args = 0
  30              		@ link register save eliminated.
  31              	.LBB20:
  32              	.LBB21:
  33              		.file 2 ".\\asp\\arch\\arm_m_gcc\\common/core_insn.h"
   1:.\asp\arch\arm_m_gcc\common/core_insn.h **** /*
   2:.\asp\arch\arm_m_gcc\common/core_insn.h ****  *  TOPPERS/ASP Kernel
   3:.\asp\arch\arm_m_gcc\common/core_insn.h ****  *      Toyohashi Open Platform for Embedded Real-Time Systems/
   4:.\asp\arch\arm_m_gcc\common/core_insn.h ****  *      Advanced Standard Profile Kernel
   5:.\asp\arch\arm_m_gcc\common/core_insn.h ****  * 
   6:.\asp\arch\arm_m_gcc\common/core_insn.h ****  *  Copyright (C) 2008 by Embedded and Real-Time Systems Laboratory
   7:.\asp\arch\arm_m_gcc\common/core_insn.h ****  *              Graduate School of Information Science, Nagoya Univ., JAPAN
   8:.\asp\arch\arm_m_gcc\common/core_insn.h ****  * 
   9:.\asp\arch\arm_m_gcc\common/core_insn.h ****  *  ã‹L’˜ìŒ Ò‚ÍCˆÈ‰º‚Ì(1)`(4)‚ÌğŒ‚ğ–‚½‚·ê‡‚ÉŒÀ‚èC–{ƒ\ƒtƒgƒEƒF
  10:.\asp\arch\arm_m_gcc\common/core_insn.h ****  *  ƒAi–{ƒ\ƒtƒgƒEƒFƒA‚ğ‰ü•Ï‚µ‚½‚à‚Ì‚ğŠÜ‚ŞDˆÈ‰º“¯‚¶j‚ğg—pE•¡»E‰ü
  11:.\asp\arch\arm_m_gcc\common/core_insn.h ****  *  •ÏEÄ”z•ziˆÈ‰ºC—˜—p‚ÆŒÄ‚Ôj‚·‚é‚±‚Æ‚ğ–³‚Å‹–‘ø‚·‚éD
  12:.\asp\arch\arm_m_gcc\common/core_insn.h ****  *  (1) –{ƒ\ƒtƒgƒEƒFƒA‚ğƒ\[ƒXƒR[ƒh‚ÌŒ`‚Å—˜—p‚·‚éê‡‚É‚ÍCã‹L‚Ì’˜ì
  13:.\asp\arch\arm_m_gcc\common/core_insn.h ****  *      Œ •\¦C‚±‚Ì—˜—pğŒ‚¨‚æ‚Ñ‰º‹L‚Ì–³•ÛØ‹K’è‚ªC‚»‚Ì‚Ü‚Ü‚ÌŒ`‚Åƒ\[
  14:.\asp\arch\arm_m_gcc\common/core_insn.h ****  *      ƒXƒR[ƒh’†‚ÉŠÜ‚Ü‚ê‚Ä‚¢‚é‚±‚ÆD
  15:.\asp\arch\arm_m_gcc\common/core_insn.h ****  *  (2) –{ƒ\ƒtƒgƒEƒFƒA‚ğCƒ‰ƒCƒuƒ‰ƒŠŒ`®‚È‚ÇC‘¼‚Ìƒ\ƒtƒgƒEƒFƒAŠJ”­‚Ég
  16:.\asp\arch\arm_m_gcc\common/core_insn.h ****  *      —p‚Å‚«‚éŒ`‚ÅÄ”z•z‚·‚éê‡‚É‚ÍCÄ”z•z‚É”º‚¤ƒhƒLƒ…ƒƒ“ƒgi—˜—p
  17:.\asp\arch\arm_m_gcc\common/core_insn.h ****  *      Òƒ}ƒjƒ…ƒAƒ‹‚È‚Çj‚ÉCã‹L‚Ì’˜ìŒ •\¦C‚±‚Ì—˜—pğŒ‚¨‚æ‚Ñ‰º‹L
  18:.\asp\arch\arm_m_gcc\common/core_insn.h ****  *      ‚Ì–³•ÛØ‹K’è‚ğŒfÚ‚·‚é‚±‚ÆD
  19:.\asp\arch\arm_m_gcc\common/core_insn.h ****  *  (3) –{ƒ\ƒtƒgƒEƒFƒA‚ğC‹@Ší‚É‘g‚İ‚Ş‚È‚ÇC‘¼‚Ìƒ\ƒtƒgƒEƒFƒAŠJ”­‚Ég
  20:.\asp\arch\arm_m_gcc\common/core_insn.h ****  *      —p‚Å‚«‚È‚¢Œ`‚ÅÄ”z•z‚·‚éê‡‚É‚ÍCŸ‚Ì‚¢‚¸‚ê‚©‚ÌğŒ‚ğ–‚½‚·‚±
  21:.\asp\arch\arm_m_gcc\common/core_insn.h ****  *      ‚ÆD
  22:.\asp\arch\arm_m_gcc\common/core_insn.h ****  *    (a) Ä”z•z‚É”º‚¤ƒhƒLƒ…ƒƒ“ƒgi—˜—pÒƒ}ƒjƒ…ƒAƒ‹‚È‚Çj‚ÉCã‹L‚Ì’˜
  23:.\asp\arch\arm_m_gcc\common/core_insn.h ****  *        ìŒ •\¦C‚±‚Ì—˜—pğŒ‚¨‚æ‚Ñ‰º‹L‚Ì–³•ÛØ‹K’è‚ğŒfÚ‚·‚é‚±‚ÆD
  24:.\asp\arch\arm_m_gcc\common/core_insn.h ****  *    (b) Ä”z•z‚ÌŒ`‘Ô‚ğC•Ê‚É’è‚ß‚é•û–@‚É‚æ‚Á‚ÄCTOPPERSƒvƒƒWƒFƒNƒg‚É
  25:.\asp\arch\arm_m_gcc\common/core_insn.h ****  *        •ñ‚·‚é‚±‚ÆD
  26:.\asp\arch\arm_m_gcc\common/core_insn.h ****  *  (4) –{ƒ\ƒtƒgƒEƒFƒA‚Ì—˜—p‚É‚æ‚è’¼Ú“I‚Ü‚½‚ÍŠÔÚ“I‚É¶‚¶‚é‚¢‚©‚È‚é‘¹
  27:.\asp\arch\arm_m_gcc\common/core_insn.h ****  *      ŠQ‚©‚ç‚àCã‹L’˜ìŒ Ò‚¨‚æ‚ÑTOPPERSƒvƒƒWƒFƒNƒg‚ğ–ÆÓ‚·‚é‚±‚ÆD
  28:.\asp\arch\arm_m_gcc\common/core_insn.h ****  *      ‚Ü‚½C–{ƒ\ƒtƒgƒEƒFƒA‚Ìƒ†[ƒU‚Ü‚½‚ÍƒGƒ“ƒhƒ†[ƒU‚©‚ç‚Ì‚¢‚©‚È‚é—
  29:.\asp\arch\arm_m_gcc\common/core_insn.h ****  *      —R‚ÉŠî‚Ã‚­¿‹‚©‚ç‚àCã‹L’˜ìŒ Ò‚¨‚æ‚ÑTOPPERSƒvƒƒWƒFƒNƒg‚ğ
  30:.\asp\arch\arm_m_gcc\common/core_insn.h ****  *      –ÆÓ‚·‚é‚±‚ÆD
  31:.\asp\arch\arm_m_gcc\common/core_insn.h ****  * 
  32:.\asp\arch\arm_m_gcc\common/core_insn.h ****  *  –{ƒ\ƒtƒgƒEƒFƒA‚ÍC–³•ÛØ‚Å’ñ‹Ÿ‚³‚ê‚Ä‚¢‚é‚à‚Ì‚Å‚ ‚éDã‹L’˜ìŒ Ò‚¨
  33:.\asp\arch\arm_m_gcc\common/core_insn.h ****  *  ‚æ‚ÑTOPPERSƒvƒƒWƒFƒNƒg‚ÍC–{ƒ\ƒtƒgƒEƒFƒA‚ÉŠÖ‚µ‚ÄC“Á’è‚Ìg—p–Ú“I
  34:.\asp\arch\arm_m_gcc\common/core_insn.h ****  *  ‚É‘Î‚·‚é“K‡«‚àŠÜ‚ß‚ÄC‚¢‚©‚È‚é•ÛØ‚às‚í‚È‚¢D‚Ü‚½C–{ƒ\ƒtƒgƒEƒF
  35:.\asp\arch\arm_m_gcc\common/core_insn.h ****  *  ƒA‚Ì—˜—p‚É‚æ‚è’¼Ú“I‚Ü‚½‚ÍŠÔÚ“I‚É¶‚¶‚½‚¢‚©‚È‚é‘¹ŠQ‚ÉŠÖ‚µ‚Ä‚àC‚»
  36:.\asp\arch\arm_m_gcc\common/core_insn.h ****  *  ‚ÌÓ”C‚ğ•‰‚í‚È‚¢D
  37:.\asp\arch\arm_m_gcc\common/core_insn.h ****  * 
  38:.\asp\arch\arm_m_gcc\common/core_insn.h ****  *  @(#) $Id: core_insn.h 2310 2012-02-23 02:14:28Z ertl-honda $
  39:.\asp\arch\arm_m_gcc\common/core_insn.h ****  */
  40:.\asp\arch\arm_m_gcc\common/core_insn.h **** 
ARM GAS  C:\TEMP\ccRTQQ1Q.s 			page 4


  41:.\asp\arch\arm_m_gcc\common/core_insn.h **** 
  42:.\asp\arch\arm_m_gcc\common/core_insn.h **** /*
  43:.\asp\arch\arm_m_gcc\common/core_insn.h ****  *  ƒRƒAˆË‘¶‚Ì“Áê–½—ß‚ÌƒCƒ“ƒ‰ƒCƒ“ŠÖ”’è‹`iARM-M—pj
  44:.\asp\arch\arm_m_gcc\common/core_insn.h ****  */
  45:.\asp\arch\arm_m_gcc\common/core_insn.h **** 
  46:.\asp\arch\arm_m_gcc\common/core_insn.h **** #ifndef CORE_INSN_H
  47:.\asp\arch\arm_m_gcc\common/core_insn.h **** #define CORE_INSN_H
  48:.\asp\arch\arm_m_gcc\common/core_insn.h **** 
  49:.\asp\arch\arm_m_gcc\common/core_insn.h **** #include <arm_m.h>
  50:.\asp\arch\arm_m_gcc\common/core_insn.h **** 
  51:.\asp\arch\arm_m_gcc\common/core_insn.h **** /*
  52:.\asp\arch\arm_m_gcc\common/core_insn.h ****  *  ƒƒ‚ƒŠ‚ª•ÏX‚³‚ê‚é‚±‚Æ‚ğƒRƒ“ƒpƒCƒ‰‚É“`‚¦‚é‚½‚ß‚Ìƒ}ƒNƒ
  53:.\asp\arch\arm_m_gcc\common/core_insn.h ****  */
  54:.\asp\arch\arm_m_gcc\common/core_insn.h **** #define ARM_MEMORY_CHANGED Asm("":::"memory")
  55:.\asp\arch\arm_m_gcc\common/core_insn.h **** 
  56:.\asp\arch\arm_m_gcc\common/core_insn.h **** /*
  57:.\asp\arch\arm_m_gcc\common/core_insn.h ****  *  FAULTMASK‚ÌƒZƒbƒg
  58:.\asp\arch\arm_m_gcc\common/core_insn.h ****  */
  59:.\asp\arch\arm_m_gcc\common/core_insn.h **** Inline void
  60:.\asp\arch\arm_m_gcc\common/core_insn.h **** set_faultmask(void){
  61:.\asp\arch\arm_m_gcc\common/core_insn.h **** 	Asm("cpsid f":::"memory");
  62:.\asp\arch\arm_m_gcc\common/core_insn.h **** }
  63:.\asp\arch\arm_m_gcc\common/core_insn.h **** 
  64:.\asp\arch\arm_m_gcc\common/core_insn.h **** /*
  65:.\asp\arch\arm_m_gcc\common/core_insn.h ****  *  FAULTMASK‚ÌƒNƒŠƒA
  66:.\asp\arch\arm_m_gcc\common/core_insn.h ****  */
  67:.\asp\arch\arm_m_gcc\common/core_insn.h **** Inline void
  68:.\asp\arch\arm_m_gcc\common/core_insn.h **** clear_faultmask(void){
  69:.\asp\arch\arm_m_gcc\common/core_insn.h **** 	Asm("cpsie f":::"memory");
  70:.\asp\arch\arm_m_gcc\common/core_insn.h **** }
  71:.\asp\arch\arm_m_gcc\common/core_insn.h **** 
  72:.\asp\arch\arm_m_gcc\common/core_insn.h **** /*
  73:.\asp\arch\arm_m_gcc\common/core_insn.h ****  *  PRIMASK‚ÌƒZƒbƒg
  74:.\asp\arch\arm_m_gcc\common/core_insn.h ****  */
  75:.\asp\arch\arm_m_gcc\common/core_insn.h **** Inline void
  76:.\asp\arch\arm_m_gcc\common/core_insn.h **** set_primask(void){
  77:.\asp\arch\arm_m_gcc\common/core_insn.h **** 	Asm("cpsid i":::"memory");
  78:.\asp\arch\arm_m_gcc\common/core_insn.h **** }
  79:.\asp\arch\arm_m_gcc\common/core_insn.h **** 
  80:.\asp\arch\arm_m_gcc\common/core_insn.h **** /*
  81:.\asp\arch\arm_m_gcc\common/core_insn.h ****  *  PRIMASK‚ÌƒNƒŠƒA
  82:.\asp\arch\arm_m_gcc\common/core_insn.h ****  */
  83:.\asp\arch\arm_m_gcc\common/core_insn.h **** Inline void
  84:.\asp\arch\arm_m_gcc\common/core_insn.h **** clear_primask(void){
  85:.\asp\arch\arm_m_gcc\common/core_insn.h **** 	Asm("cpsie i":::"memory");
  86:.\asp\arch\arm_m_gcc\common/core_insn.h **** }
  87:.\asp\arch\arm_m_gcc\common/core_insn.h **** 
  88:.\asp\arch\arm_m_gcc\common/core_insn.h **** /*
  89:.\asp\arch\arm_m_gcc\common/core_insn.h ****  *  BASEPRI‚ÌƒZƒbƒg
  90:.\asp\arch\arm_m_gcc\common/core_insn.h ****  */
  91:.\asp\arch\arm_m_gcc\common/core_insn.h **** Inline void
  92:.\asp\arch\arm_m_gcc\common/core_insn.h **** set_basepri(uint32_t val){
  93:.\asp\arch\arm_m_gcc\common/core_insn.h **** 	Asm("msr BASEPRI, %0" : : "r"(val) : "memory");
  94:.\asp\arch\arm_m_gcc\common/core_insn.h **** }
  95:.\asp\arch\arm_m_gcc\common/core_insn.h **** 
  96:.\asp\arch\arm_m_gcc\common/core_insn.h **** /*
  97:.\asp\arch\arm_m_gcc\common/core_insn.h ****  *  BASEPRI‚Ìæ“¾
ARM GAS  C:\TEMP\ccRTQQ1Q.s 			page 5


  98:.\asp\arch\arm_m_gcc\common/core_insn.h ****  */
  99:.\asp\arch\arm_m_gcc\common/core_insn.h **** Inline uint32_t
 100:.\asp\arch\arm_m_gcc\common/core_insn.h **** get_basepri(void){
 101:.\asp\arch\arm_m_gcc\common/core_insn.h **** 	uint32_t val;
 102:.\asp\arch\arm_m_gcc\common/core_insn.h **** 	Asm("mrs  %0, BASEPRI" : "=r"(val));
 103:.\asp\arch\arm_m_gcc\common/core_insn.h **** 	return(val);
 104:.\asp\arch\arm_m_gcc\common/core_insn.h **** }
 105:.\asp\arch\arm_m_gcc\common/core_insn.h **** 
 106:.\asp\arch\arm_m_gcc\common/core_insn.h **** /*
 107:.\asp\arch\arm_m_gcc\common/core_insn.h ****  *  CONTROL‚ÌƒZƒbƒg
 108:.\asp\arch\arm_m_gcc\common/core_insn.h ****  */
 109:.\asp\arch\arm_m_gcc\common/core_insn.h **** Inline void
 110:.\asp\arch\arm_m_gcc\common/core_insn.h **** set_control(uint32_t val){
 111:.\asp\arch\arm_m_gcc\common/core_insn.h **** 	/*
 112:.\asp\arch\arm_m_gcc\common/core_insn.h **** 	 *  controlƒŒƒWƒXƒ^ƒZƒbƒgŒã‚É‚Íisb‚ª•K{
 113:.\asp\arch\arm_m_gcc\common/core_insn.h **** 	 *  [ARMv7-M Architecture Reference Manaual(DDI0403B) A3-37]
 114:.\asp\arch\arm_m_gcc\common/core_insn.h **** 	 */
 115:.\asp\arch\arm_m_gcc\common/core_insn.h **** 	Asm("msr control, %0 \n"
 116:.\asp\arch\arm_m_gcc\common/core_insn.h **** 		" isb"
 117:.\asp\arch\arm_m_gcc\common/core_insn.h **** 		: : "r"(val) : "memory");
 118:.\asp\arch\arm_m_gcc\common/core_insn.h **** }
 119:.\asp\arch\arm_m_gcc\common/core_insn.h **** 
 120:.\asp\arch\arm_m_gcc\common/core_insn.h **** /*
 121:.\asp\arch\arm_m_gcc\common/core_insn.h ****  *  CONTROL‚Ìæ“¾
 122:.\asp\arch\arm_m_gcc\common/core_insn.h ****  */
 123:.\asp\arch\arm_m_gcc\common/core_insn.h **** Inline uint32_t
 124:.\asp\arch\arm_m_gcc\common/core_insn.h **** get_control(void){
 125:.\asp\arch\arm_m_gcc\common/core_insn.h **** 	uint32_t val;
 126:.\asp\arch\arm_m_gcc\common/core_insn.h **** 	Asm("mrs  %0, CONTROL" : "=r"(val));
  34              		.loc 2 126 0
  35              	@ 126 ".\asp\arch\arm_m_gcc\common/core_insn.h" 1
  36 0000 EFF31480 		mrs  r0, CONTROL
  37              	@ 0 "" 2
  38              	.LVL0:
  39              		.thumb
  40              	.LBE21:
  41              	.LBE20:
  99:.\asp\arch\arm_m_gcc\common/core_config.h **** 	/*
 100:.\asp\arch\arm_m_gcc\common/core_config.h **** 	 *  PSP‚ª—LŒø‚È‚çƒ^ƒXƒNƒRƒ“ƒeƒLƒXƒgCMSP‚ª—LŒø‚È‚ç”ñƒ^ƒXƒNƒRƒ“ƒeƒLƒXƒg
 101:.\asp\arch\arm_m_gcc\common/core_config.h **** 	 *  ‚Æ‚·‚éD 
 102:.\asp\arch\arm_m_gcc\common/core_config.h **** 	 */
 103:.\asp\arch\arm_m_gcc\common/core_config.h **** 	if ((get_control() & CONTROL_PSP) == CONTROL_PSP){
  42              		.loc 1 103 0
  43 0004 80F00201 		eor	r1, r0, #2
 104:.\asp\arch\arm_m_gcc\common/core_config.h **** 		return false;
 105:.\asp\arch\arm_m_gcc\common/core_config.h **** 	}
 106:.\asp\arch\arm_m_gcc\common/core_config.h **** 	else {
 107:.\asp\arch\arm_m_gcc\common/core_config.h **** 		return true;
 108:.\asp\arch\arm_m_gcc\common/core_config.h **** 	}
 109:.\asp\arch\arm_m_gcc\common/core_config.h **** }
  44              		.loc 1 109 0
  45 0008 C1F34000 		ubfx	r0, r1, #1, #1
  46              	.LVL1:
  47 000c 7047     		bx	lr
  48              		.cfi_endproc
  49              	.LFE29:
  50              		.size	sense_context, .-sense_context
ARM GAS  C:\TEMP\ccRTQQ1Q.s 			page 6


  51              		.section	.text.x_lock_cpu,"ax",%progbits
  52              		.align	1
  53              		.thumb
  54              		.thumb_func
  55              		.type	x_lock_cpu, %function
  56              	x_lock_cpu:
  57              	.LFB30:
 110:.\asp\arch\arm_m_gcc\common/core_config.h **** 
 111:.\asp\arch\arm_m_gcc\common/core_config.h **** #endif /* TOPPERS_MACRO_ONLY */
 112:.\asp\arch\arm_m_gcc\common/core_config.h **** 
 113:.\asp\arch\arm_m_gcc\common/core_config.h **** /*
 114:.\asp\arch\arm_m_gcc\common/core_config.h ****  *  TOPPERS•W€Š„‚İˆ—ƒ‚ƒfƒ‹‚ÌÀŒ»
 115:.\asp\arch\arm_m_gcc\common/core_config.h ****  *
 116:.\asp\arch\arm_m_gcc\common/core_config.h ****  *  Š„‚İ—Dæ“xƒ}ƒXƒN‚Æ‚µ‚Ä‚ÍCBASEPRI‚ğ—p‚¢‚éD‘SŠ„‚İ‚ğ‹Ö~‚·‚é
 117:.\asp\arch\arm_m_gcc\common/core_config.h ****  *  ‹@”\‚Æ‚µ‚ÄCFAULTMASK‚âPRIMASK‚ª‚ ‚é‚ªCƒJ[ƒlƒ‹ŠÇ—ŠO‚ÌŠ„‚İ‚ğ
 118:.\asp\arch\arm_m_gcc\common/core_config.h ****  *  ƒTƒ|[ƒg‚·‚é‚½‚ßC‚±‚ê‚ç‚ÍCPUƒƒbƒN‚Ì‚½‚ß‚É—p‚¢‚È‚¢D
 119:.\asp\arch\arm_m_gcc\common/core_config.h ****  *  ‚»‚Ì‚½‚ßCBASEPRI‚ğ—p‚¢‚Ä‹[—“I‚ÉCPUƒƒbƒNƒtƒ‰ƒO‚ğÀŒ»‚·‚éD
 120:.\asp\arch\arm_m_gcc\common/core_config.h ****  *
 121:.\asp\arch\arm_m_gcc\common/core_config.h ****  *  ‚Ü‚¸CCPUƒƒbƒNó‘Ô‚ğŠÇ—‚·‚½‚ß‚Ì•Ï”(lock_flag)‚ğ—pˆÓ‚·‚éD
 122:.\asp\arch\arm_m_gcc\common/core_config.h ****  *
 123:.\asp\arch\arm_m_gcc\common/core_config.h ****  *  CPUƒƒbƒNƒtƒ‰ƒO‚ªƒNƒŠƒA‚³‚ê‚Ä‚¢‚éŠÔ‚ÍCBASEPRI‚ğƒ‚ƒfƒ‹ã‚ÌŠ„‚İ
 124:.\asp\arch\arm_m_gcc\common/core_config.h ****  *  —Dæ“xƒ}ƒXƒN‚Ì’l‚Éİ’è‚·‚éD‚±‚ÌŠÔ‚ÍCƒ‚ƒfƒ‹ã‚ÌŠ„‚İ—Dæ“xƒ}ƒX
 125:.\asp\arch\arm_m_gcc\common/core_config.h ****  *  ƒN‚ÍCBASEPRI‚ğ—p‚¢‚éD
 126:.\asp\arch\arm_m_gcc\common/core_config.h ****  * 
 127:.\asp\arch\arm_m_gcc\common/core_config.h ****  *  ‚»‚ê‚É‘Î‚µ‚ÄCPUƒƒbƒNƒtƒ‰ƒO‚ªƒZƒbƒg‚³‚ê‚¢‚éŠÔ‚ÍCBASEPRI‚ğCƒJ[ƒl
 128:.\asp\arch\arm_m_gcc\common/core_config.h ****  *  ƒ‹ŠÇ—ŠO‚Ì‚à‚Ì‚ğœ‚­‚·‚×‚Ä‚ÌŠ„‚İ—v‹‚ğƒ}ƒXƒN‚·‚é’l(TIPM_LOCK)‚ÆC
 129:.\asp\arch\arm_m_gcc\common/core_config.h ****  *  ƒ‚ƒfƒ‹ã‚ÌŠ„‚İ—Dæ“xƒ}ƒXƒN‚Æ‚Ì‚‚¢•û‚Éİ’è‚·‚éD‚±‚ÌŠÔ‚Ìƒ‚ƒfƒ‹ã
 130:.\asp\arch\arm_m_gcc\common/core_config.h ****  *  ‚ÌŠ„‚İ—Dæ“xƒ}ƒXƒN‚ÍC‚»‚Ì‚½‚ß‚Ì•Ï”(saved_iipm, “à•”•\Œ»‚Å•Û)
 131:.\asp\arch\arm_m_gcc\common/core_config.h ****  *  ‚ğ—pˆÓ‚µ‚Ä•Û‚·‚éD
 132:.\asp\arch\arm_m_gcc\common/core_config.h ****  */
 133:.\asp\arch\arm_m_gcc\common/core_config.h **** 
 134:.\asp\arch\arm_m_gcc\common/core_config.h **** /*
 135:.\asp\arch\arm_m_gcc\common/core_config.h ****  *  Š„‚İ—Dæ“xƒ}ƒXƒN‚ÌŠO•”•\Œ»‚Æ“à•”•\Œ»‚Ì•ÏŠ·
 136:.\asp\arch\arm_m_gcc\common/core_config.h ****  *
 137:.\asp\arch\arm_m_gcc\common/core_config.h ****  *  ƒAƒZƒ“ƒuƒŠŒ¾Œê‚Ìƒ\[ƒXƒtƒ@ƒCƒ‹‚©‚çƒCƒ“ƒNƒ‹[ƒh‚·‚éê‡‚Ì‚½‚ß‚ÉC
 138:.\asp\arch\arm_m_gcc\common/core_config.h ****  *  CAST‚ğg—p
 139:.\asp\arch\arm_m_gcc\common/core_config.h ****  *  Š„‚İ—Dæ“x‚Ìƒrƒbƒg•(TBITW_IPRI)‚ª 8 ‚Ìê‡‚ÍC“à•”—Dæ“x 255
 140:.\asp\arch\arm_m_gcc\common/core_config.h ****  *  ‚ÍCŠO•”—Dæ“x -1 ‚É‘Î‰‚·‚éD
 141:.\asp\arch\arm_m_gcc\common/core_config.h ****  */
 142:.\asp\arch\arm_m_gcc\common/core_config.h **** #define EXT_IPM(iipm)   (CAST(PRI,((iipm >> (8 - TBITW_IPRI)) - (1 << TBITW_IPRI))))       /* “à•”•
 143:.\asp\arch\arm_m_gcc\common/core_config.h **** #define INT_IPM(ipm)    (((1 << TBITW_IPRI) - CAST(uint8_t, -(ipm)))  << (8 - TBITW_IPRI)) /* ŠO•”•
 144:.\asp\arch\arm_m_gcc\common/core_config.h **** 
 145:.\asp\arch\arm_m_gcc\common/core_config.h **** /*
 146:.\asp\arch\arm_m_gcc\common/core_config.h ****  *  CPUƒƒbƒNó‘Ô‚Å‚ÌŠ„‚İ—Dæ“xƒ}ƒXƒN
 147:.\asp\arch\arm_m_gcc\common/core_config.h ****  */
 148:.\asp\arch\arm_m_gcc\common/core_config.h **** #define TIPM_LOCK    TMIN_INTPRI
 149:.\asp\arch\arm_m_gcc\common/core_config.h **** 
 150:.\asp\arch\arm_m_gcc\common/core_config.h **** /*
 151:.\asp\arch\arm_m_gcc\common/core_config.h ****  *  CPUƒƒbƒNó‘Ô‚Å‚ÌŠ„‚İ—Dæ“xƒ}ƒXƒN‚Ì“à•”•\Œ»
 152:.\asp\arch\arm_m_gcc\common/core_config.h ****  *
 153:.\asp\arch\arm_m_gcc\common/core_config.h ****  *  TIPM_LOCK‚ÍCCPUƒƒbƒNó‘Ô‚Å‚ÌBASEPRI‚Ì’lDƒJ[ƒlƒ‹ŠÇ—ŠO‚Ì‚à‚Ì‚ğ
 154:.\asp\arch\arm_m_gcc\common/core_config.h ****  *  œ‚­‚·‚×‚Ä‚ÌŠ„‚İ‚ğƒ}ƒXƒN‚·‚é’l‚É’è‹`‚·‚éD  
 155:.\asp\arch\arm_m_gcc\common/core_config.h ****  */
 156:.\asp\arch\arm_m_gcc\common/core_config.h **** #define IIPM_LOCK    INT_IPM(TIPM_LOCK)
 157:.\asp\arch\arm_m_gcc\common/core_config.h **** 
 158:.\asp\arch\arm_m_gcc\common/core_config.h **** /*
 159:.\asp\arch\arm_m_gcc\common/core_config.h ****  *  TIPM_ENAALLiŠ„‚İ—Dæ“xƒ}ƒXƒN‘S‰ğœj‚Ì“à•”•\Œ»
ARM GAS  C:\TEMP\ccRTQQ1Q.s 			page 7


 160:.\asp\arch\arm_m_gcc\common/core_config.h ****  *
 161:.\asp\arch\arm_m_gcc\common/core_config.h ****  *  BASEPRI‚É '0' ‚ğİ’è‚·‚é‚±‚Æ‚ÅC‘SŠ„‚İ‚ğ‹–‰Â‚·‚éD
 162:.\asp\arch\arm_m_gcc\common/core_config.h ****  */
 163:.\asp\arch\arm_m_gcc\common/core_config.h **** #define IIPM_ENAALL  (0)
 164:.\asp\arch\arm_m_gcc\common/core_config.h **** 
 165:.\asp\arch\arm_m_gcc\common/core_config.h **** 
 166:.\asp\arch\arm_m_gcc\common/core_config.h **** #ifndef TOPPERS_MACRO_ONLY
 167:.\asp\arch\arm_m_gcc\common/core_config.h **** 
 168:.\asp\arch\arm_m_gcc\common/core_config.h **** /*
 169:.\asp\arch\arm_m_gcc\common/core_config.h ****  *  CPUƒƒbƒNƒtƒ‰ƒOÀŒ»‚Ì‚½‚ß‚Ì•Ï”
 170:.\asp\arch\arm_m_gcc\common/core_config.h ****  * 
 171:.\asp\arch\arm_m_gcc\common/core_config.h ****  *  ‚±‚ê‚ç‚Ì•Ï”‚ÍCCPUƒƒbƒNó‘Ô‚Ì‚Ì‚İ‘‚«Š·‚¦‚Ä‚à‚æ‚¢‚Æ‚·‚éD
 172:.\asp\arch\arm_m_gcc\common/core_config.h ****  *  ƒCƒ“ƒ‰ƒCƒ“ŠÖ”’†‚ÅCƒAƒNƒZƒX‚Ì‡˜‚ª•Ï‰»‚µ‚È‚¢‚æ‚¤Cvolatile ‚ğw’èD 
 173:.\asp\arch\arm_m_gcc\common/core_config.h ****  */
 174:.\asp\arch\arm_m_gcc\common/core_config.h **** extern volatile bool_t  lock_flag;    /* CPUƒƒbƒNƒtƒ‰ƒO‚Ì’l‚ğ•Û‚·‚é•Ï” */
 175:.\asp\arch\arm_m_gcc\common/core_config.h **** extern volatile uint32_t saved_iipm;  /* Š„‚İ—Dæ“x‚ğƒ}ƒXƒN‚·‚é•Ï” */
 176:.\asp\arch\arm_m_gcc\common/core_config.h **** 
 177:.\asp\arch\arm_m_gcc\common/core_config.h **** /*
 178:.\asp\arch\arm_m_gcc\common/core_config.h ****  *  CPUƒƒbƒNó‘Ô‚Ö‚ÌˆÚs
 179:.\asp\arch\arm_m_gcc\common/core_config.h ****  *
 180:.\asp\arch\arm_m_gcc\common/core_config.h ****  *  BASEPRIiƒn[ƒhƒEƒFƒA‚ÌŠ„‚İ—Dæ“xƒ}ƒXƒNj‚ğCsaved_iipm‚É•Û‘¶‚µC
 181:.\asp\arch\arm_m_gcc\common/core_config.h ****  *  ƒJ[ƒlƒ‹ŠÇ—ŠO‚Ì‚à‚Ì‚ğœ‚­‚·‚×‚Ä‚ÌŠ„‚İ‚ğƒ}ƒXƒN‚·‚é’liTIPM_LOCKj
 182:.\asp\arch\arm_m_gcc\common/core_config.h ****  *  ‚Éİ’è‚·‚éD‚Ü‚½Clock_flag‚ğtrue‚É‚·‚éD
 183:.\asp\arch\arm_m_gcc\common/core_config.h ****  *
 184:.\asp\arch\arm_m_gcc\common/core_config.h ****  *  BASEPRI‚ªCÅ‰‚©‚çTIPM_LOCK‚Æ“¯‚¶‚©‚»‚ê‚æ‚è‚‚¢ê‡‚É‚ÍC‚»‚ê‚ğ
 185:.\asp\arch\arm_m_gcc\common/core_config.h ****  *  saved_iipm‚É•Û‘¶‚·‚é‚Ì‚İ‚ÅCTIPM_LOCK‚É‚Íİ’è‚µ‚È‚¢D‚±‚ê‚ÍCƒ‚ƒfƒ‹
 186:.\asp\arch\arm_m_gcc\common/core_config.h ****  *  ã‚ÌŠ„‚İ—Dæ“xƒ}ƒXƒN‚ªCTIPM_LOCK‚Æ“¯‚¶‚©‚»‚ê‚æ‚è‚‚¢ƒŒƒxƒ‹‚Éİ’è
 187:.\asp\arch\arm_m_gcc\common/core_config.h ****  *  ‚³‚ê‚Ä‚¢‚éó‘Ô‚É‚ ‚½‚éD
 188:.\asp\arch\arm_m_gcc\common/core_config.h ****  *
 189:.\asp\arch\arm_m_gcc\common/core_config.h ****  *  ‚±‚ÌŠÖ”‚ÍCCPUƒƒbƒNó‘Ôilock_flag‚ªtrue‚Ìó‘Ôj‚ÅŒÄ‚Î‚ê‚é‚±‚Æ‚Í
 190:.\asp\arch\arm_m_gcc\common/core_config.h ****  *  ‚È‚¢‚à‚Ì‚Æ‘z’è‚µ‚Ä‚¢‚éD
 191:.\asp\arch\arm_m_gcc\common/core_config.h ****  */
 192:.\asp\arch\arm_m_gcc\common/core_config.h **** Inline void
 193:.\asp\arch\arm_m_gcc\common/core_config.h **** x_lock_cpu(void)
 194:.\asp\arch\arm_m_gcc\common/core_config.h **** {
  58              		.loc 1 194 0
  59              		.cfi_startproc
  60              		@ args = 0, pretend = 0, frame = 0
  61              		@ frame_needed = 0, uses_anonymous_args = 0
  62              		@ link register save eliminated.
  63              	.LBB22:
  64              	.LBB23:
 102:.\asp\arch\arm_m_gcc\common/core_insn.h **** 	Asm("mrs  %0, BASEPRI" : "=r"(val));
  65              		.loc 2 102 0
  66              	@ 102 ".\asp\arch\arm_m_gcc\common/core_insn.h" 1
  67 0000 EFF31183 		mrs  r3, BASEPRI
  68              	@ 0 "" 2
  69              	.LVL2:
  70              		.thumb
  71              	.LBE23:
  72              	.LBE22:
 195:.\asp\arch\arm_m_gcc\common/core_config.h **** 	uint32_t iipm;
 196:.\asp\arch\arm_m_gcc\common/core_config.h **** 
 197:.\asp\arch\arm_m_gcc\common/core_config.h **** 	/*
 198:.\asp\arch\arm_m_gcc\common/core_config.h **** 	 *  get_basepri()‚Ì•Ô‚è’l‚ğ’¼Úsaved_iipm‚É•Û‘¶‚¹‚¸Cˆê•Ï”iipm
 199:.\asp\arch\arm_m_gcc\common/core_config.h **** 	 *  ‚ğ—p‚¢‚Ä‚¢‚é‚Ì‚ÍCget_baespri()‚ğŒÄ‚ñ‚¾’¼Œã‚ÉŠ„‚İ‚ª”­¶‚µC
 200:.\asp\arch\arm_m_gcc\common/core_config.h **** 	 *  ‹N“®‚³‚ê‚½Š„‚İˆ—‚Åsaved_iipm‚ª•ÏX‚³‚ê‚é‰Â”\«‚ª‚ ‚é‚½‚ß‚Å
ARM GAS  C:\TEMP\ccRTQQ1Q.s 			page 8


 201:.\asp\arch\arm_m_gcc\common/core_config.h **** 	 *  ‚ ‚éD
 202:.\asp\arch\arm_m_gcc\common/core_config.h **** 	 */
 203:.\asp\arch\arm_m_gcc\common/core_config.h **** 	iipm = get_basepri();
 204:.\asp\arch\arm_m_gcc\common/core_config.h **** 	/*
 205:.\asp\arch\arm_m_gcc\common/core_config.h **** 	 *  BASEPRIƒŒƒWƒXƒ^‚Í’l‚ª¬‚³‚¢‚Ù‚Ç—Dæ“x‚ª‚‚¢‚ªCIIPM_ENAALL ‚ª
 206:.\asp\arch\arm_m_gcc\common/core_config.h **** 	 *  '0'‚Å‚ ‚é‚½‚ßC’Pƒ‚É—Dæ“x”äŠr‚¾‚¯‚Å‚Í•s\•ª‚Å‚ ‚éD
 207:.\asp\arch\arm_m_gcc\common/core_config.h **** 	 */
 208:.\asp\arch\arm_m_gcc\common/core_config.h **** 	if ((IIPM_LOCK < iipm) || (IIPM_ENAALL == iipm)) {
  73              		.loc 1 208 0
  74 0004 5A1E     		subs	r2, r3, #1
  75 0006 1F2A     		cmp	r2, #31
  76 0008 02D9     		bls	.L3
  77              	.LVL3:
  78              	.LBB24:
  79              	.LBB25:
  93:.\asp\arch\arm_m_gcc\common/core_insn.h **** 	Asm("msr BASEPRI, %0" : : "r"(val) : "memory");
  80              		.loc 2 93 0
  81 000a 2020     		movs	r0, #32
  82              	@ 93 ".\asp\arch\arm_m_gcc\common/core_insn.h" 1
  83 000c 80F31188 		msr BASEPRI, r0
  84              	@ 0 "" 2
  85              	.LVL4:
  86              		.thumb
  87              	.L3:
  88              	.LBE25:
  89              	.LBE24:
 209:.\asp\arch\arm_m_gcc\common/core_config.h **** 		set_basepri(IIPM_LOCK);
 210:.\asp\arch\arm_m_gcc\common/core_config.h **** 	}
 211:.\asp\arch\arm_m_gcc\common/core_config.h **** 	saved_iipm = iipm;
  90              		.loc 1 211 0
  91 0010 0249     		ldr	r1, .L5
 212:.\asp\arch\arm_m_gcc\common/core_config.h **** 	lock_flag = true;
  92              		.loc 1 212 0
  93 0012 0122     		movs	r2, #1
 211:.\asp\arch\arm_m_gcc\common/core_config.h **** 	saved_iipm = iipm;
  94              		.loc 1 211 0
  95 0014 0B60     		str	r3, [r1, #0]
  96              		.loc 1 212 0
  97 0016 024B     		ldr	r3, .L5+4
  98              	.LVL5:
  99 0018 1A60     		str	r2, [r3, #0]
 213:.\asp\arch\arm_m_gcc\common/core_config.h **** 	/* ƒNƒŠƒeƒBƒJƒ‹ƒZƒNƒVƒ‡ƒ“‚Ì‘OŒã‚Åƒƒ‚ƒŠ‚ª‘‚«Š·‚í‚é‰Â”\«‚ª‚ ‚é */
 214:.\asp\arch\arm_m_gcc\common/core_config.h **** 	ARM_MEMORY_CHANGED;
 100              		.loc 1 214 0
 101 001a 7047     		bx	lr
 102              	.L6:
 103              		.align	2
 104              	.L5:
 105 001c 00000000 		.word	_kernel_saved_iipm
 106 0020 00000000 		.word	_kernel_lock_flag
 107              		.cfi_endproc
 108              	.LFE30:
 109              		.size	x_lock_cpu, .-x_lock_cpu
 110              		.section	.text.x_unlock_cpu,"ax",%progbits
 111              		.align	1
 112              		.thumb
 113              		.thumb_func
ARM GAS  C:\TEMP\ccRTQQ1Q.s 			page 9


 114              		.type	x_unlock_cpu, %function
 115              	x_unlock_cpu:
 116              	.LFB31:
 215:.\asp\arch\arm_m_gcc\common/core_config.h **** }
 216:.\asp\arch\arm_m_gcc\common/core_config.h **** 
 217:.\asp\arch\arm_m_gcc\common/core_config.h **** #define t_lock_cpu()    x_lock_cpu()
 218:.\asp\arch\arm_m_gcc\common/core_config.h **** #define i_lock_cpu()    x_lock_cpu()
 219:.\asp\arch\arm_m_gcc\common/core_config.h **** 
 220:.\asp\arch\arm_m_gcc\common/core_config.h **** /*
 221:.\asp\arch\arm_m_gcc\common/core_config.h ****  *  CPUƒƒbƒNó‘Ô‚Ì‰ğœ
 222:.\asp\arch\arm_m_gcc\common/core_config.h ****  *
 223:.\asp\arch\arm_m_gcc\common/core_config.h ****  *  lock_flag‚ğfalse‚É‚µCIPMiƒn[ƒhƒEƒFƒA‚ÌŠ„‚İ—Dæ“xƒ}ƒXƒNj‚ğC
 224:.\asp\arch\arm_m_gcc\common/core_config.h ****  *  saved_iipm‚É•Û‘¶‚µ‚½’l‚É–ß‚·D
 225:.\asp\arch\arm_m_gcc\common/core_config.h ****  *
 226:.\asp\arch\arm_m_gcc\common/core_config.h ****  *  ‚±‚ÌŠÖ”‚ÍCCPUƒƒbƒNó‘Ôilock_flag‚ªtrue‚Ìó‘Ôj‚Å‚Ì‚İŒÄ‚Î‚ê‚é‚à
 227:.\asp\arch\arm_m_gcc\common/core_config.h ****  *  ‚Ì‚Æ‘z’è‚µ‚Ä‚¢‚éD
 228:.\asp\arch\arm_m_gcc\common/core_config.h ****  */
 229:.\asp\arch\arm_m_gcc\common/core_config.h **** Inline void
 230:.\asp\arch\arm_m_gcc\common/core_config.h **** x_unlock_cpu(void)
 231:.\asp\arch\arm_m_gcc\common/core_config.h **** {
 117              		.loc 1 231 0
 118              		.cfi_startproc
 119              		@ args = 0, pretend = 0, frame = 0
 120              		@ frame_needed = 0, uses_anonymous_args = 0
 121              		@ link register save eliminated.
 232:.\asp\arch\arm_m_gcc\common/core_config.h **** 	/* ƒNƒŠƒeƒBƒJƒ‹ƒZƒNƒVƒ‡ƒ“‚Ì‘OŒã‚Åƒƒ‚ƒŠ‚ª‘‚«Š·‚í‚é‰Â”\«‚ª‚ ‚é */
 233:.\asp\arch\arm_m_gcc\common/core_config.h **** 	ARM_MEMORY_CHANGED;
 122              		.loc 1 233 0
 234:.\asp\arch\arm_m_gcc\common/core_config.h **** 	lock_flag = false;
 123              		.loc 1 234 0
 124 0000 034B     		ldr	r3, .L8
 125 0002 0022     		movs	r2, #0
 235:.\asp\arch\arm_m_gcc\common/core_config.h **** 	set_basepri(saved_iipm);
 126              		.loc 1 235 0
 127 0004 0348     		ldr	r0, .L8+4
 234:.\asp\arch\arm_m_gcc\common/core_config.h **** 	lock_flag = false;
 128              		.loc 1 234 0
 129 0006 1A60     		str	r2, [r3, #0]
 130              		.loc 1 235 0
 131 0008 0168     		ldr	r1, [r0, #0]
 132              	.LVL6:
 133              	.LBB26:
 134              	.LBB27:
  93:.\asp\arch\arm_m_gcc\common/core_insn.h **** 	Asm("msr BASEPRI, %0" : : "r"(val) : "memory");
 135              		.loc 2 93 0
 136              	@ 93 ".\asp\arch\arm_m_gcc\common/core_insn.h" 1
 137 000a 81F31188 		msr BASEPRI, r1
 138              	@ 0 "" 2
 139              		.thumb
 140 000e 7047     		bx	lr
 141              	.L9:
 142              		.align	2
 143              	.L8:
 144 0010 00000000 		.word	_kernel_lock_flag
 145 0014 00000000 		.word	_kernel_saved_iipm
 146              	.LBE27:
 147              	.LBE26:
ARM GAS  C:\TEMP\ccRTQQ1Q.s 			page 10


 148              		.cfi_endproc
 149              	.LFE31:
 150              		.size	x_unlock_cpu, .-x_unlock_cpu
 151              		.section	.text.ras_tex,"ax",%progbits
 152              		.align	1
 153              		.global	ras_tex
 154              		.thumb
 155              		.thumb_func
 156              		.type	ras_tex, %function
 157              	ras_tex:
 158              	.LFB53:
 159              		.file 3 ".\\asp\\kernel\\task_except.c"
   1:.\asp\kernel/task_except.c **** /*
   2:.\asp\kernel/task_except.c ****  *  TOPPERS/ASP Kernel
   3:.\asp\kernel/task_except.c ****  *      Toyohashi Open Platform for Embedded Real-Time Systems/
   4:.\asp\kernel/task_except.c ****  *      Advanced Standard Profile Kernel
   5:.\asp\kernel/task_except.c ****  * 
   6:.\asp\kernel/task_except.c ****  *  Copyright (C) 2000-2003 by Embedded and Real-Time Systems Laboratory
   7:.\asp\kernel/task_except.c ****  *                              Toyohashi Univ. of Technology, JAPAN
   8:.\asp\kernel/task_except.c ****  *  Copyright (C) 2005-2011 by Embedded and Real-Time Systems Laboratory
   9:.\asp\kernel/task_except.c ****  *              Graduate School of Information Science, Nagoya Univ., JAPAN
  10:.\asp\kernel/task_except.c ****  * 
  11:.\asp\kernel/task_except.c ****  *  ã‹L’˜ìŒ Ò‚ÍCˆÈ‰º‚Ì(1)`(4)‚ÌğŒ‚ğ–‚½‚·ê‡‚ÉŒÀ‚èC–{ƒ\ƒtƒgƒEƒF
  12:.\asp\kernel/task_except.c ****  *  ƒAi–{ƒ\ƒtƒgƒEƒFƒA‚ğ‰ü•Ï‚µ‚½‚à‚Ì‚ğŠÜ‚ŞDˆÈ‰º“¯‚¶j‚ğg—pE•¡»E‰ü
  13:.\asp\kernel/task_except.c ****  *  •ÏEÄ”z•ziˆÈ‰ºC—˜—p‚ÆŒÄ‚Ôj‚·‚é‚±‚Æ‚ğ–³‚Å‹–‘ø‚·‚éD
  14:.\asp\kernel/task_except.c ****  *  (1) –{ƒ\ƒtƒgƒEƒFƒA‚ğƒ\[ƒXƒR[ƒh‚ÌŒ`‚Å—˜—p‚·‚éê‡‚É‚ÍCã‹L‚Ì’˜ì
  15:.\asp\kernel/task_except.c ****  *      Œ •\¦C‚±‚Ì—˜—pğŒ‚¨‚æ‚Ñ‰º‹L‚Ì–³•ÛØ‹K’è‚ªC‚»‚Ì‚Ü‚Ü‚ÌŒ`‚Åƒ\[
  16:.\asp\kernel/task_except.c ****  *      ƒXƒR[ƒh’†‚ÉŠÜ‚Ü‚ê‚Ä‚¢‚é‚±‚ÆD
  17:.\asp\kernel/task_except.c ****  *  (2) –{ƒ\ƒtƒgƒEƒFƒA‚ğCƒ‰ƒCƒuƒ‰ƒŠŒ`®‚È‚ÇC‘¼‚Ìƒ\ƒtƒgƒEƒFƒAŠJ”­‚Ég
  18:.\asp\kernel/task_except.c ****  *      —p‚Å‚«‚éŒ`‚ÅÄ”z•z‚·‚éê‡‚É‚ÍCÄ”z•z‚É”º‚¤ƒhƒLƒ…ƒƒ“ƒgi—˜—p
  19:.\asp\kernel/task_except.c ****  *      Òƒ}ƒjƒ…ƒAƒ‹‚È‚Çj‚ÉCã‹L‚Ì’˜ìŒ •\¦C‚±‚Ì—˜—pğŒ‚¨‚æ‚Ñ‰º‹L
  20:.\asp\kernel/task_except.c ****  *      ‚Ì–³•ÛØ‹K’è‚ğŒfÚ‚·‚é‚±‚ÆD
  21:.\asp\kernel/task_except.c ****  *  (3) –{ƒ\ƒtƒgƒEƒFƒA‚ğC‹@Ší‚É‘g‚İ‚Ş‚È‚ÇC‘¼‚Ìƒ\ƒtƒgƒEƒFƒAŠJ”­‚Ég
  22:.\asp\kernel/task_except.c ****  *      —p‚Å‚«‚È‚¢Œ`‚ÅÄ”z•z‚·‚éê‡‚É‚ÍCŸ‚Ì‚¢‚¸‚ê‚©‚ÌğŒ‚ğ–‚½‚·‚±
  23:.\asp\kernel/task_except.c ****  *      ‚ÆD
  24:.\asp\kernel/task_except.c ****  *    (a) Ä”z•z‚É”º‚¤ƒhƒLƒ…ƒƒ“ƒgi—˜—pÒƒ}ƒjƒ…ƒAƒ‹‚È‚Çj‚ÉCã‹L‚Ì’˜
  25:.\asp\kernel/task_except.c ****  *        ìŒ •\¦C‚±‚Ì—˜—pğŒ‚¨‚æ‚Ñ‰º‹L‚Ì–³•ÛØ‹K’è‚ğŒfÚ‚·‚é‚±‚ÆD
  26:.\asp\kernel/task_except.c ****  *    (b) Ä”z•z‚ÌŒ`‘Ô‚ğC•Ê‚É’è‚ß‚é•û–@‚É‚æ‚Á‚ÄCTOPPERSƒvƒƒWƒFƒNƒg‚É
  27:.\asp\kernel/task_except.c ****  *        •ñ‚·‚é‚±‚ÆD
  28:.\asp\kernel/task_except.c ****  *  (4) –{ƒ\ƒtƒgƒEƒFƒA‚Ì—˜—p‚É‚æ‚è’¼Ú“I‚Ü‚½‚ÍŠÔÚ“I‚É¶‚¶‚é‚¢‚©‚È‚é‘¹
  29:.\asp\kernel/task_except.c ****  *      ŠQ‚©‚ç‚àCã‹L’˜ìŒ Ò‚¨‚æ‚ÑTOPPERSƒvƒƒWƒFƒNƒg‚ğ–ÆÓ‚·‚é‚±‚ÆD
  30:.\asp\kernel/task_except.c ****  *      ‚Ü‚½C–{ƒ\ƒtƒgƒEƒFƒA‚Ìƒ†[ƒU‚Ü‚½‚ÍƒGƒ“ƒhƒ†[ƒU‚©‚ç‚Ì‚¢‚©‚È‚é—
  31:.\asp\kernel/task_except.c ****  *      —R‚ÉŠî‚Ã‚­¿‹‚©‚ç‚àCã‹L’˜ìŒ Ò‚¨‚æ‚ÑTOPPERSƒvƒƒWƒFƒNƒg‚ğ
  32:.\asp\kernel/task_except.c ****  *      –ÆÓ‚·‚é‚±‚ÆD
  33:.\asp\kernel/task_except.c ****  * 
  34:.\asp\kernel/task_except.c ****  *  –{ƒ\ƒtƒgƒEƒFƒA‚ÍC–³•ÛØ‚Å’ñ‹Ÿ‚³‚ê‚Ä‚¢‚é‚à‚Ì‚Å‚ ‚éDã‹L’˜ìŒ Ò‚¨
  35:.\asp\kernel/task_except.c ****  *  ‚æ‚ÑTOPPERSƒvƒƒWƒFƒNƒg‚ÍC–{ƒ\ƒtƒgƒEƒFƒA‚ÉŠÖ‚µ‚ÄC“Á’è‚Ìg—p–Ú“I
  36:.\asp\kernel/task_except.c ****  *  ‚É‘Î‚·‚é“K‡«‚àŠÜ‚ß‚ÄC‚¢‚©‚È‚é•ÛØ‚às‚í‚È‚¢D‚Ü‚½C–{ƒ\ƒtƒgƒEƒF
  37:.\asp\kernel/task_except.c ****  *  ƒA‚Ì—˜—p‚É‚æ‚è’¼Ú“I‚Ü‚½‚ÍŠÔÚ“I‚É¶‚¶‚½‚¢‚©‚È‚é‘¹ŠQ‚ÉŠÖ‚µ‚Ä‚àC‚»
  38:.\asp\kernel/task_except.c ****  *  ‚ÌÓ”C‚ğ•‰‚í‚È‚¢D
  39:.\asp\kernel/task_except.c ****  * 
  40:.\asp\kernel/task_except.c ****  *  $Id: task_except.c 2023 2011-01-02 08:59:06Z ertl-hiro $
  41:.\asp\kernel/task_except.c ****  */
  42:.\asp\kernel/task_except.c **** 
  43:.\asp\kernel/task_except.c **** /*
  44:.\asp\kernel/task_except.c ****  *		ƒ^ƒXƒN—áŠOˆ—‹@”\
  45:.\asp\kernel/task_except.c ****  */
ARM GAS  C:\TEMP\ccRTQQ1Q.s 			page 11


  46:.\asp\kernel/task_except.c **** 
  47:.\asp\kernel/task_except.c **** #include "kernel_impl.h"
  48:.\asp\kernel/task_except.c **** #include "check.h"
  49:.\asp\kernel/task_except.c **** #include "task.h"
  50:.\asp\kernel/task_except.c **** 
  51:.\asp\kernel/task_except.c **** /*
  52:.\asp\kernel/task_except.c ****  *  ƒgƒŒ[ƒXƒƒOƒ}ƒNƒ‚ÌƒfƒtƒHƒ‹ƒg’è‹`
  53:.\asp\kernel/task_except.c ****  */
  54:.\asp\kernel/task_except.c **** #ifndef LOG_RAS_TEX_ENTER
  55:.\asp\kernel/task_except.c **** #define LOG_RAS_TEX_ENTER(tskid, rasptn)
  56:.\asp\kernel/task_except.c **** #endif /* LOG_RAS_TEX_ENTER */
  57:.\asp\kernel/task_except.c **** 
  58:.\asp\kernel/task_except.c **** #ifndef LOG_RAS_TEX_LEAVE
  59:.\asp\kernel/task_except.c **** #define LOG_RAS_TEX_LEAVE(ercd)
  60:.\asp\kernel/task_except.c **** #endif /* LOG_RAS_TEX_LEAVE */
  61:.\asp\kernel/task_except.c **** 
  62:.\asp\kernel/task_except.c **** #ifndef LOG_IRAS_TEX_ENTER
  63:.\asp\kernel/task_except.c **** #define LOG_IRAS_TEX_ENTER(tskid, rasptn)
  64:.\asp\kernel/task_except.c **** #endif /* LOG_IRAS_TEX_ENTER */
  65:.\asp\kernel/task_except.c **** 
  66:.\asp\kernel/task_except.c **** #ifndef LOG_IRAS_TEX_LEAVE
  67:.\asp\kernel/task_except.c **** #define LOG_IRAS_TEX_LEAVE(ercd)
  68:.\asp\kernel/task_except.c **** #endif /* LOG_IRAS_TEX_LEAVE */
  69:.\asp\kernel/task_except.c **** 
  70:.\asp\kernel/task_except.c **** #ifndef LOG_DIS_TEX_ENTER
  71:.\asp\kernel/task_except.c **** #define LOG_DIS_TEX_ENTER()
  72:.\asp\kernel/task_except.c **** #endif /* LOG_DIS_TEX_ENTER */
  73:.\asp\kernel/task_except.c **** 
  74:.\asp\kernel/task_except.c **** #ifndef LOG_DIS_TEX_LEAVE
  75:.\asp\kernel/task_except.c **** #define LOG_DIS_TEX_LEAVE(ercd)
  76:.\asp\kernel/task_except.c **** #endif /* LOG_DIS_TEX_LEAVE */
  77:.\asp\kernel/task_except.c **** 
  78:.\asp\kernel/task_except.c **** #ifndef LOG_ENA_TEX_ENTER
  79:.\asp\kernel/task_except.c **** #define LOG_ENA_TEX_ENTER()
  80:.\asp\kernel/task_except.c **** #endif /* LOG_ENA_TEX_ENTER */
  81:.\asp\kernel/task_except.c **** 
  82:.\asp\kernel/task_except.c **** #ifndef LOG_ENA_TEX_LEAVE
  83:.\asp\kernel/task_except.c **** #define LOG_ENA_TEX_LEAVE(ercd)
  84:.\asp\kernel/task_except.c **** #endif /* LOG_ENA_TEX_LEAVE */
  85:.\asp\kernel/task_except.c **** 
  86:.\asp\kernel/task_except.c **** #ifndef LOG_SNS_TEX_ENTER
  87:.\asp\kernel/task_except.c **** #define LOG_SNS_TEX_ENTER()
  88:.\asp\kernel/task_except.c **** #endif /* LOG_SNS_TEX_ENTER */
  89:.\asp\kernel/task_except.c **** 
  90:.\asp\kernel/task_except.c **** #ifndef LOG_SNS_TEX_LEAVE
  91:.\asp\kernel/task_except.c **** #define LOG_SNS_TEX_LEAVE(state)
  92:.\asp\kernel/task_except.c **** #endif /* LOG_SNS_TEX_LEAVE */
  93:.\asp\kernel/task_except.c **** 
  94:.\asp\kernel/task_except.c **** #ifndef LOG_REF_TEX_ENTER
  95:.\asp\kernel/task_except.c **** #define LOG_REF_TEX_ENTER(tskid, pk_rtex)
  96:.\asp\kernel/task_except.c **** #endif /* LOG_REF_TEX_ENTER */
  97:.\asp\kernel/task_except.c **** 
  98:.\asp\kernel/task_except.c **** #ifndef LOG_REF_TEX_LEAVE
  99:.\asp\kernel/task_except.c **** #define LOG_REF_TEX_LEAVE(ercd, pk_rtex)
 100:.\asp\kernel/task_except.c **** #endif /* LOG_REF_TEX_LEAVE */
 101:.\asp\kernel/task_except.c **** 
 102:.\asp\kernel/task_except.c **** /*
ARM GAS  C:\TEMP\ccRTQQ1Q.s 			page 12


 103:.\asp\kernel/task_except.c ****  *  ƒ^ƒXƒN—áŠOˆ—‚Ì—v‹
 104:.\asp\kernel/task_except.c ****  */
 105:.\asp\kernel/task_except.c **** #ifdef TOPPERS_ras_tex
 106:.\asp\kernel/task_except.c **** 
 107:.\asp\kernel/task_except.c **** ER
 108:.\asp\kernel/task_except.c **** ras_tex(ID tskid, TEXPTN rasptn)
 109:.\asp\kernel/task_except.c **** {
 160              		.loc 3 109 0
 161              		.cfi_startproc
 162              		@ args = 0, pretend = 0, frame = 0
 163              		@ frame_needed = 0, uses_anonymous_args = 0
 164              	.LVL7:
 165 0000 38B5     		push	{r3, r4, r5, lr}
 166              	.LCFI0:
 167              		.cfi_def_cfa_offset 16
 168              		.cfi_offset 3, -16
 169              		.cfi_offset 4, -12
 170              		.cfi_offset 5, -8
 171              		.cfi_offset 14, -4
 172              		.loc 3 109 0
 173 0002 0446     		mov	r4, r0
 174 0004 0D46     		mov	r5, r1
 110:.\asp\kernel/task_except.c **** 	TCB		*p_tcb;
 111:.\asp\kernel/task_except.c **** 	ER		ercd;
 112:.\asp\kernel/task_except.c **** 
 113:.\asp\kernel/task_except.c **** 	LOG_RAS_TEX_ENTER(tskid, rasptn);
 114:.\asp\kernel/task_except.c **** 	CHECK_TSKCTX_UNL();
 175              		.loc 3 114 0
 176 0006 FFF7FEFF 		bl	sense_context
 177              	.LVL8:
 178 000a 0028     		cmp	r0, #0
 179 000c 30D1     		bne	.L20
 180              	.LBB28:
 181              	.LBB29:
 236:.\asp\arch\arm_m_gcc\common/core_config.h **** }
 237:.\asp\arch\arm_m_gcc\common/core_config.h **** 
 238:.\asp\arch\arm_m_gcc\common/core_config.h **** #define t_unlock_cpu()    x_unlock_cpu()
 239:.\asp\arch\arm_m_gcc\common/core_config.h **** #define i_unlock_cpu()    x_unlock_cpu()
 240:.\asp\arch\arm_m_gcc\common/core_config.h **** 
 241:.\asp\arch\arm_m_gcc\common/core_config.h **** /*
 242:.\asp\arch\arm_m_gcc\common/core_config.h ****  *  CPUƒƒbƒNó‘Ô‚ÌQÆ
 243:.\asp\arch\arm_m_gcc\common/core_config.h ****  */
 244:.\asp\arch\arm_m_gcc\common/core_config.h **** Inline bool_t
 245:.\asp\arch\arm_m_gcc\common/core_config.h **** x_sense_lock(void)
 246:.\asp\arch\arm_m_gcc\common/core_config.h **** {
 247:.\asp\arch\arm_m_gcc\common/core_config.h **** 	return(lock_flag);
 182              		.loc 1 247 0
 183 000e 204B     		ldr	r3, .L36
 184 0010 1868     		ldr	r0, [r3, #0]
 185              	.LBE29:
 186              	.LBE28:
 187              		.loc 3 114 0
 188 0012 68BB     		cbnz	r0, .L20
 115:.\asp\kernel/task_except.c **** 	CHECK_TSKID_SELF(tskid);
 189              		.loc 3 115 0
 190 0014 002C     		cmp	r4, #0
 191 0016 04DD     		ble	.L12
ARM GAS  C:\TEMP\ccRTQQ1Q.s 			page 13


 192              		.loc 3 115 0 is_stmt 0 discriminator 2
 193 0018 1E49     		ldr	r1, .L36+4
 194 001a 0A68     		ldr	r2, [r1, #0]
 195 001c 9442     		cmp	r4, r2
 196 001e 2ADC     		bgt	.L22
 197 0020 01E0     		b	.L35
 198              	.L12:
 199              		.loc 3 115 0 discriminator 1
 200 0022 2ED0     		beq	.L31
 201 0024 27E0     		b	.L22
 202              	.L35:
 116:.\asp\kernel/task_except.c **** 	CHECK_PAR(rasptn != 0U);
 203              		.loc 3 116 0 is_stmt 1
 204 0026 4DB3     		cbz	r5, .L29
 205              	.L32:
 117:.\asp\kernel/task_except.c **** 	p_tcb = get_tcb_self(tskid);
 206              		.loc 3 117 0 discriminator 2
 207 0028 1B4B     		ldr	r3, .L36+8
 208 002a 013C     		subs	r4, r4, #1
 209              	.LVL9:
 210 002c 03EB4414 		add	r4, r3, r4, lsl #5
 211              	.LVL10:
 212              	.L16:
 118:.\asp\kernel/task_except.c **** 
 119:.\asp\kernel/task_except.c **** 	t_lock_cpu();
 213              		.loc 3 119 0 discriminator 3
 214 0030 FFF7FEFF 		bl	x_lock_cpu
 215              	.LVL11:
 120:.\asp\kernel/task_except.c **** 	if (TSTAT_DORMANT(p_tcb->tstat) || p_tcb->p_tinib->texrtn == NULL) {
 216              		.loc 3 120 0 discriminator 3
 217 0034 217B     		ldrb	r1, [r4, #12]	@ zero_extendqisi2
 218 0036 A1B1     		cbz	r1, .L25
 219              		.loc 3 120 0 is_stmt 0 discriminator 1
 220 0038 A268     		ldr	r2, [r4, #8]
 221 003a D369     		ldr	r3, [r2, #28]
 222 003c 8BB1     		cbz	r3, .L25
 121:.\asp\kernel/task_except.c **** 		ercd = E_OBJ;
 122:.\asp\kernel/task_except.c **** 	}
 123:.\asp\kernel/task_except.c **** 	else {
 124:.\asp\kernel/task_except.c **** 		p_tcb->texptn |= rasptn;
 125:.\asp\kernel/task_except.c **** 		if (p_tcb == p_runtsk && p_runtsk->enatex && ipmflg) {
 223              		.loc 3 125 0 is_stmt 1
 224 003e 1749     		ldr	r1, .L36+12
 124:.\asp\kernel/task_except.c **** 		p_tcb->texptn |= rasptn;
 225              		.loc 3 124 0
 226 0040 2069     		ldr	r0, [r4, #16]
 227              		.loc 3 125 0
 228 0042 0A68     		ldr	r2, [r1, #0]
 124:.\asp\kernel/task_except.c **** 		p_tcb->texptn |= rasptn;
 229              		.loc 3 124 0
 230 0044 0543     		orrs	r5, r5, r0
 231              	.LVL12:
 232              		.loc 3 125 0
 233 0046 9442     		cmp	r4, r2
 124:.\asp\kernel/task_except.c **** 		p_tcb->texptn |= rasptn;
 234              		.loc 3 124 0
 235 0048 2561     		str	r5, [r4, #16]
ARM GAS  C:\TEMP\ccRTQQ1Q.s 			page 14


 236              		.loc 3 125 0
 237 004a 0DD1     		bne	.L26
 238              		.loc 3 125 0 is_stmt 0 discriminator 1
 239 004c A47B     		ldrb	r4, [r4, #14]	@ zero_extendqisi2
 240              	.LVL13:
 241 004e 04F00403 		and	r3, r4, #4
 242 0052 DCB2     		uxtb	r4, r3
 243 0054 4CB1     		cbz	r4, .L17
 244 0056 1248     		ldr	r0, .L36+16
 245 0058 0468     		ldr	r4, [r0, #0]
 246 005a 34B1     		cbz	r4, .L17
 126:.\asp\kernel/task_except.c **** 			call_texrtn();
 247              		.loc 3 126 0 is_stmt 1
 248 005c FFF7FEFF 		bl	_kernel_call_texrtn
 249              	.LVL14:
 250 0060 02E0     		b	.L26
 251              	.LVL15:
 252              	.L25:
 121:.\asp\kernel/task_except.c **** 		ercd = E_OBJ;
 253              		.loc 3 121 0
 254 0062 6FF02804 		mvn	r4, #40
 255              	.LVL16:
 256 0066 00E0     		b	.L17
 257              	.LVL17:
 258              	.L26:
 127:.\asp\kernel/task_except.c **** 		}
 128:.\asp\kernel/task_except.c **** 		ercd = E_OK;
 259              		.loc 3 128 0
 260 0068 0024     		movs	r4, #0
 261              	.L17:
 262              	.LVL18:
 129:.\asp\kernel/task_except.c **** 	}
 130:.\asp\kernel/task_except.c **** 	t_unlock_cpu();
 263              		.loc 3 130 0
 264 006a FFF7FEFF 		bl	x_unlock_cpu
 265              	.LVL19:
 266 006e 0DE0     		b	.L33
 267              	.LVL20:
 268              	.L20:
 114:.\asp\kernel/task_except.c **** 	CHECK_TSKCTX_UNL();
 269              		.loc 3 114 0
 270 0070 6FF01804 		mvn	r4, #24
 271              	.LVL21:
 272 0074 0AE0     		b	.L33
 273              	.LVL22:
 274              	.L22:
 115:.\asp\kernel/task_except.c **** 	CHECK_TSKID_SELF(tskid);
 275              		.loc 3 115 0
 276 0076 6FF01104 		mvn	r4, #17
 277              	.LVL23:
 278 007a 07E0     		b	.L33
 279              	.LVL24:
 280              	.L29:
 281              	.L11:
 116:.\asp\kernel/task_except.c **** 	CHECK_PAR(rasptn != 0U);
 282              		.loc 3 116 0
 283 007c 6FF01004 		mvn	r4, #16
ARM GAS  C:\TEMP\ccRTQQ1Q.s 			page 15


 284              	.LVL25:
 285 0080 04E0     		b	.L33
 286              	.LVL26:
 287              	.L31:
 288 0082 002D     		cmp	r5, #0
 289 0084 FAD0     		beq	.L29
 290              	.L34:
 117:.\asp\kernel/task_except.c **** 	p_tcb = get_tcb_self(tskid);
 291              		.loc 3 117 0 discriminator 1
 292 0086 0548     		ldr	r0, .L36+12
 293 0088 0468     		ldr	r4, [r0, #0]
 294              	.LVL27:
 295 008a D1E7     		b	.L16
 296              	.LVL28:
 297              	.L33:
 131:.\asp\kernel/task_except.c **** 
 132:.\asp\kernel/task_except.c ****   error_exit:
 133:.\asp\kernel/task_except.c **** 	LOG_RAS_TEX_LEAVE(ercd);
 134:.\asp\kernel/task_except.c **** 	return(ercd);
 135:.\asp\kernel/task_except.c **** }
 298              		.loc 3 135 0
 299 008c 2046     		mov	r0, r4
 300 008e 38BD     		pop	{r3, r4, r5, pc}
 301              	.L37:
 302              		.align	2
 303              	.L36:
 304 0090 00000000 		.word	_kernel_lock_flag
 305 0094 00000000 		.word	_kernel_tmax_tskid
 306 0098 00000000 		.word	_kernel_tcb_table
 307 009c 00000000 		.word	_kernel_p_runtsk
 308 00a0 00000000 		.word	_kernel_ipmflg
 309              		.cfi_endproc
 310              	.LFE53:
 311              		.size	ras_tex, .-ras_tex
 312              		.section	.text.iras_tex,"ax",%progbits
 313              		.align	1
 314              		.global	iras_tex
 315              		.thumb
 316              		.thumb_func
 317              		.type	iras_tex, %function
 318              	iras_tex:
 319              	.LFB54:
 136:.\asp\kernel/task_except.c **** 
 137:.\asp\kernel/task_except.c **** #endif /* TOPPERS_ras_tex */
 138:.\asp\kernel/task_except.c **** 
 139:.\asp\kernel/task_except.c **** /*
 140:.\asp\kernel/task_except.c ****  *  ƒ^ƒXƒN—áŠOˆ—‚Ì—v‹i”ñƒ^ƒXƒNƒRƒ“ƒeƒLƒXƒg—pj
 141:.\asp\kernel/task_except.c ****  */
 142:.\asp\kernel/task_except.c **** #ifdef TOPPERS_iras_tex
 143:.\asp\kernel/task_except.c **** 
 144:.\asp\kernel/task_except.c **** ER
 145:.\asp\kernel/task_except.c **** iras_tex(ID tskid, TEXPTN rasptn)
 146:.\asp\kernel/task_except.c **** {
 320              		.loc 3 146 0
 321              		.cfi_startproc
 322              		@ args = 0, pretend = 0, frame = 0
 323              		@ frame_needed = 0, uses_anonymous_args = 0
ARM GAS  C:\TEMP\ccRTQQ1Q.s 			page 16


 324              	.LVL29:
 325 0000 70B5     		push	{r4, r5, r6, lr}
 326              	.LCFI1:
 327              		.cfi_def_cfa_offset 16
 328              		.cfi_offset 4, -16
 329              		.cfi_offset 5, -12
 330              		.cfi_offset 6, -8
 331              		.cfi_offset 14, -4
 332              		.loc 3 146 0
 333 0002 0546     		mov	r5, r0
 334 0004 0E46     		mov	r6, r1
 147:.\asp\kernel/task_except.c **** 	TCB		*p_tcb;
 148:.\asp\kernel/task_except.c **** 	ER		ercd;
 149:.\asp\kernel/task_except.c **** 
 150:.\asp\kernel/task_except.c **** 	LOG_IRAS_TEX_ENTER(tskid, rasptn);
 151:.\asp\kernel/task_except.c **** 	CHECK_INTCTX_UNL();
 335              		.loc 3 151 0
 336 0006 FFF7FEFF 		bl	sense_context
 337              	.LVL30:
 338 000a 0028     		cmp	r0, #0
 339 000c 2ED0     		beq	.L42
 340              	.LBB30:
 341              	.LBB31:
 342              		.loc 1 247 0
 343 000e 1C4B     		ldr	r3, .L51
 344 0010 1C68     		ldr	r4, [r3, #0]
 345              	.LBE31:
 346              	.LBE30:
 347              		.loc 3 151 0
 348 0012 5CBB     		cbnz	r4, .L42
 152:.\asp\kernel/task_except.c **** 	CHECK_TSKID(tskid);
 349              		.loc 3 152 0
 350 0014 002D     		cmp	r5, #0
 351 0016 2CDD     		ble	.L44
 352              		.loc 3 152 0 is_stmt 0 discriminator 2
 353 0018 1A48     		ldr	r0, .L51+4
 354 001a 0168     		ldr	r1, [r0, #0]
 355 001c 8D42     		cmp	r5, r1
 356 001e 28DC     		bgt	.L44
 153:.\asp\kernel/task_except.c **** 	CHECK_PAR(rasptn != 0U);
 357              		.loc 3 153 0 is_stmt 1
 358 0020 56B3     		cbz	r6, .L45
 154:.\asp\kernel/task_except.c **** 	p_tcb = get_tcb(tskid);
 359              		.loc 3 154 0
 360 0022 194A     		ldr	r2, .L51+8
 361 0024 013D     		subs	r5, r5, #1
 362              	.LVL31:
 363 0026 02EB4515 		add	r5, r2, r5, lsl #5
 364              	.LVL32:
 155:.\asp\kernel/task_except.c **** 
 156:.\asp\kernel/task_except.c **** 	i_lock_cpu();
 365              		.loc 3 156 0
 366 002a FFF7FEFF 		bl	x_lock_cpu
 367              	.LVL33:
 157:.\asp\kernel/task_except.c **** 	if (TSTAT_DORMANT(p_tcb->tstat) || p_tcb->p_tinib->texrtn == NULL) {
 368              		.loc 3 157 0
 369 002e 2B7B     		ldrb	r3, [r5, #12]	@ zero_extendqisi2
ARM GAS  C:\TEMP\ccRTQQ1Q.s 			page 17


 370 0030 ABB1     		cbz	r3, .L47
 371              		.loc 3 157 0 is_stmt 0 discriminator 1
 372 0032 A868     		ldr	r0, [r5, #8]
 373 0034 C169     		ldr	r1, [r0, #28]
 374 0036 91B1     		cbz	r1, .L47
 158:.\asp\kernel/task_except.c **** 		ercd = E_OBJ;
 159:.\asp\kernel/task_except.c **** 	}
 160:.\asp\kernel/task_except.c **** 	else {
 161:.\asp\kernel/task_except.c **** 		p_tcb->texptn |= rasptn;
 162:.\asp\kernel/task_except.c **** 		if (p_tcb == p_runtsk && p_runtsk->enatex && ipmflg) {
 375              		.loc 3 162 0 is_stmt 1
 376 0038 144B     		ldr	r3, .L51+12
 161:.\asp\kernel/task_except.c **** 		p_tcb->texptn |= rasptn;
 377              		.loc 3 161 0
 378 003a 2A69     		ldr	r2, [r5, #16]
 379              		.loc 3 162 0
 380 003c 1868     		ldr	r0, [r3, #0]
 161:.\asp\kernel/task_except.c **** 		p_tcb->texptn |= rasptn;
 381              		.loc 3 161 0
 382 003e 1643     		orrs	r6, r6, r2
 383              	.LVL34:
 384              		.loc 3 162 0
 385 0040 8542     		cmp	r5, r0
 161:.\asp\kernel/task_except.c **** 		p_tcb->texptn |= rasptn;
 386              		.loc 3 161 0
 387 0042 2E61     		str	r6, [r5, #16]
 388              		.loc 3 162 0
 389 0044 0FD1     		bne	.L40
 390              		.loc 3 162 0 is_stmt 0 discriminator 1
 391 0046 AC7B     		ldrb	r4, [r5, #14]	@ zero_extendqisi2
 392 0048 04F00401 		and	r1, r4, #4
 393 004c CCB2     		uxtb	r4, r1
 394 004e 54B1     		cbz	r4, .L40
 395 0050 0F4A     		ldr	r2, .L51+16
 396 0052 1368     		ldr	r3, [r2, #0]
 397 0054 33B1     		cbz	r3, .L50
 163:.\asp\kernel/task_except.c **** 			reqflg = true;
 398              		.loc 3 163 0 is_stmt 1
 399 0056 0F4C     		ldr	r4, .L51+20
 400 0058 0120     		movs	r0, #1
 401 005a 2060     		str	r0, [r4, #0]
 402 005c 02E0     		b	.L50
 403              	.LVL35:
 404              	.L47:
 158:.\asp\kernel/task_except.c **** 		ercd = E_OBJ;
 405              		.loc 3 158 0
 406 005e 6FF02804 		mvn	r4, #40
 407 0062 00E0     		b	.L40
 408              	.LVL36:
 409              	.L50:
 164:.\asp\kernel/task_except.c **** 		}
 165:.\asp\kernel/task_except.c **** 		ercd = E_OK;
 410              		.loc 3 165 0
 411 0064 0024     		movs	r4, #0
 412              	.L40:
 413              	.LVL37:
 166:.\asp\kernel/task_except.c **** 	}
ARM GAS  C:\TEMP\ccRTQQ1Q.s 			page 18


 167:.\asp\kernel/task_except.c **** 	i_unlock_cpu();
 414              		.loc 3 167 0
 415 0066 FFF7FEFF 		bl	x_unlock_cpu
 416              	.LVL38:
 417 006a 07E0     		b	.L39
 418              	.LVL39:
 419              	.L42:
 151:.\asp\kernel/task_except.c **** 	CHECK_INTCTX_UNL();
 420              		.loc 3 151 0
 421 006c 6FF01804 		mvn	r4, #24
 422 0070 04E0     		b	.L39
 423              	.L44:
 152:.\asp\kernel/task_except.c **** 	CHECK_TSKID(tskid);
 424              		.loc 3 152 0
 425 0072 6FF01104 		mvn	r4, #17
 426 0076 01E0     		b	.L39
 427              	.L45:
 153:.\asp\kernel/task_except.c **** 	CHECK_PAR(rasptn != 0U);
 428              		.loc 3 153 0
 429 0078 6FF01004 		mvn	r4, #16
 430              	.LVL40:
 431              	.L39:
 168:.\asp\kernel/task_except.c **** 
 169:.\asp\kernel/task_except.c ****   error_exit:
 170:.\asp\kernel/task_except.c **** 	LOG_IRAS_TEX_LEAVE(ercd);
 171:.\asp\kernel/task_except.c **** 	return(ercd);
 172:.\asp\kernel/task_except.c **** }
 432              		.loc 3 172 0
 433 007c 2046     		mov	r0, r4
 434 007e 70BD     		pop	{r4, r5, r6, pc}
 435              	.L52:
 436              		.align	2
 437              	.L51:
 438 0080 00000000 		.word	_kernel_lock_flag
 439 0084 00000000 		.word	_kernel_tmax_tskid
 440 0088 00000000 		.word	_kernel_tcb_table
 441 008c 00000000 		.word	_kernel_p_runtsk
 442 0090 00000000 		.word	_kernel_ipmflg
 443 0094 00000000 		.word	_kernel_reqflg
 444              		.cfi_endproc
 445              	.LFE54:
 446              		.size	iras_tex, .-iras_tex
 447              		.section	.text.dis_tex,"ax",%progbits
 448              		.align	1
 449              		.global	dis_tex
 450              		.thumb
 451              		.thumb_func
 452              		.type	dis_tex, %function
 453              	dis_tex:
 454              	.LFB55:
 173:.\asp\kernel/task_except.c **** 
 174:.\asp\kernel/task_except.c **** #endif /* TOPPERS_iras_tex */
 175:.\asp\kernel/task_except.c **** 
 176:.\asp\kernel/task_except.c **** /*
 177:.\asp\kernel/task_except.c ****  *  ƒ^ƒXƒN—áŠOˆ—‚Ì‹Ö~
 178:.\asp\kernel/task_except.c ****  */
 179:.\asp\kernel/task_except.c **** #ifdef TOPPERS_dis_tex
ARM GAS  C:\TEMP\ccRTQQ1Q.s 			page 19


 180:.\asp\kernel/task_except.c **** 
 181:.\asp\kernel/task_except.c **** ER
 182:.\asp\kernel/task_except.c **** dis_tex(void)
 183:.\asp\kernel/task_except.c **** {
 455              		.loc 3 183 0
 456              		.cfi_startproc
 457              		@ args = 0, pretend = 0, frame = 0
 458              		@ frame_needed = 0, uses_anonymous_args = 0
 459 0000 10B5     		push	{r4, lr}
 460              	.LCFI2:
 461              		.cfi_def_cfa_offset 8
 462              		.cfi_offset 4, -8
 463              		.cfi_offset 14, -4
 184:.\asp\kernel/task_except.c **** 	ER		ercd;
 185:.\asp\kernel/task_except.c **** 
 186:.\asp\kernel/task_except.c **** 	LOG_DIS_TEX_ENTER();
 187:.\asp\kernel/task_except.c **** 	CHECK_TSKCTX_UNL();
 464              		.loc 3 187 0
 465 0002 FFF7FEFF 		bl	sense_context
 466              	.LVL41:
 467 0006 98B9     		cbnz	r0, .L57
 468              	.LBB32:
 469              	.LBB33:
 470              		.loc 1 247 0
 471 0008 0B4B     		ldr	r3, .L59
 472 000a 1C68     		ldr	r4, [r3, #0]
 473              	.LBE33:
 474              	.LBE32:
 475              		.loc 3 187 0
 476 000c 84B9     		cbnz	r4, .L57
 188:.\asp\kernel/task_except.c **** 
 189:.\asp\kernel/task_except.c **** 	t_lock_cpu();
 477              		.loc 3 189 0
 478 000e FFF7FEFF 		bl	x_lock_cpu
 479              	.LVL42:
 190:.\asp\kernel/task_except.c **** 	if (p_runtsk->p_tinib->texrtn == NULL) {
 480              		.loc 3 190 0
 481 0012 0A48     		ldr	r0, .L59+4
 482 0014 0168     		ldr	r1, [r0, #0]
 483 0016 8A68     		ldr	r2, [r1, #8]
 484 0018 D369     		ldr	r3, [r2, #28]
 485 001a 23B1     		cbz	r3, .L58
 191:.\asp\kernel/task_except.c **** 		ercd = E_OBJ;
 192:.\asp\kernel/task_except.c **** 	}
 193:.\asp\kernel/task_except.c **** 	else {
 194:.\asp\kernel/task_except.c **** 		p_runtsk->enatex = false;
 486              		.loc 3 194 0
 487 001c 887B     		ldrb	r0, [r1, #14]	@ zero_extendqisi2
 488 001e 64F38200 		bfi	r0, r4, #2, #1
 489 0022 8873     		strb	r0, [r1, #14]
 490              	.LVL43:
 491 0024 01E0     		b	.L55
 492              	.LVL44:
 493              	.L58:
 191:.\asp\kernel/task_except.c **** 		ercd = E_OBJ;
 494              		.loc 3 191 0
 495 0026 6FF02804 		mvn	r4, #40
ARM GAS  C:\TEMP\ccRTQQ1Q.s 			page 20


 496              	.L55:
 497              	.LVL45:
 195:.\asp\kernel/task_except.c **** 		ercd = E_OK;
 196:.\asp\kernel/task_except.c **** 	}
 197:.\asp\kernel/task_except.c **** 	t_unlock_cpu();
 498              		.loc 3 197 0
 499 002a FFF7FEFF 		bl	x_unlock_cpu
 500              	.LVL46:
 501 002e 01E0     		b	.L54
 502              	.LVL47:
 503              	.L57:
 187:.\asp\kernel/task_except.c **** 	CHECK_TSKCTX_UNL();
 504              		.loc 3 187 0
 505 0030 6FF01804 		mvn	r4, #24
 506              	.L54:
 507              	.LVL48:
 198:.\asp\kernel/task_except.c **** 
 199:.\asp\kernel/task_except.c ****   error_exit:
 200:.\asp\kernel/task_except.c **** 	LOG_DIS_TEX_LEAVE(ercd);
 201:.\asp\kernel/task_except.c **** 	return(ercd);
 202:.\asp\kernel/task_except.c **** }
 508              		.loc 3 202 0
 509 0034 2046     		mov	r0, r4
 510 0036 10BD     		pop	{r4, pc}
 511              	.L60:
 512              		.align	2
 513              	.L59:
 514 0038 00000000 		.word	_kernel_lock_flag
 515 003c 00000000 		.word	_kernel_p_runtsk
 516              		.cfi_endproc
 517              	.LFE55:
 518              		.size	dis_tex, .-dis_tex
 519              		.section	.text.ena_tex,"ax",%progbits
 520              		.align	1
 521              		.global	ena_tex
 522              		.thumb
 523              		.thumb_func
 524              		.type	ena_tex, %function
 525              	ena_tex:
 526              	.LFB56:
 203:.\asp\kernel/task_except.c **** 
 204:.\asp\kernel/task_except.c **** #endif /* TOPPERS_dis_tex */
 205:.\asp\kernel/task_except.c **** 
 206:.\asp\kernel/task_except.c **** /*
 207:.\asp\kernel/task_except.c ****  *  ƒ^ƒXƒN—áŠOˆ—‚Ì‹–‰Â
 208:.\asp\kernel/task_except.c ****  */
 209:.\asp\kernel/task_except.c **** #ifdef TOPPERS_ena_tex
 210:.\asp\kernel/task_except.c **** 
 211:.\asp\kernel/task_except.c **** ER
 212:.\asp\kernel/task_except.c **** ena_tex(void)
 213:.\asp\kernel/task_except.c **** {
 527              		.loc 3 213 0
 528              		.cfi_startproc
 529              		@ args = 0, pretend = 0, frame = 0
 530              		@ frame_needed = 0, uses_anonymous_args = 0
 531 0000 38B5     		push	{r3, r4, r5, lr}
 532              	.LCFI3:
ARM GAS  C:\TEMP\ccRTQQ1Q.s 			page 21


 533              		.cfi_def_cfa_offset 16
 534              		.cfi_offset 3, -16
 535              		.cfi_offset 4, -12
 536              		.cfi_offset 5, -8
 537              		.cfi_offset 14, -4
 214:.\asp\kernel/task_except.c **** 	ER		ercd;
 215:.\asp\kernel/task_except.c **** 
 216:.\asp\kernel/task_except.c **** 	LOG_ENA_TEX_ENTER();
 217:.\asp\kernel/task_except.c **** 	CHECK_TSKCTX_UNL();
 538              		.loc 3 217 0
 539 0002 FFF7FEFF 		bl	sense_context
 540              	.LVL49:
 541 0006 D8B9     		cbnz	r0, .L65
 542              	.LBB34:
 543              	.LBB35:
 544              		.loc 1 247 0
 545 0008 0F4B     		ldr	r3, .L69
 546 000a 1D68     		ldr	r5, [r3, #0]
 547              	.LBE35:
 548              	.LBE34:
 549              		.loc 3 217 0
 550 000c C5B9     		cbnz	r5, .L65
 218:.\asp\kernel/task_except.c **** 
 219:.\asp\kernel/task_except.c **** 	t_lock_cpu();
 551              		.loc 3 219 0
 552 000e FFF7FEFF 		bl	x_lock_cpu
 553              	.LVL50:
 220:.\asp\kernel/task_except.c **** 	if (p_runtsk->p_tinib->texrtn == NULL) {
 554              		.loc 3 220 0
 555 0012 0E48     		ldr	r0, .L69+4
 556 0014 0168     		ldr	r1, [r0, #0]
 557 0016 8A68     		ldr	r2, [r1, #8]
 558 0018 D469     		ldr	r4, [r2, #28]
 559 001a 64B1     		cbz	r4, .L66
 221:.\asp\kernel/task_except.c **** 		ercd = E_OBJ;
 222:.\asp\kernel/task_except.c **** 	}
 223:.\asp\kernel/task_except.c **** 	else {
 224:.\asp\kernel/task_except.c **** 		p_runtsk->enatex = true;
 560              		.loc 3 224 0
 561 001c 8B7B     		ldrb	r3, [r1, #14]	@ zero_extendqisi2
 225:.\asp\kernel/task_except.c **** 		if (p_runtsk->texptn != 0U && ipmflg) {
 562              		.loc 3 225 0
 563 001e 0C69     		ldr	r4, [r1, #16]
 224:.\asp\kernel/task_except.c **** 		p_runtsk->enatex = true;
 564              		.loc 3 224 0
 565 0020 43F00400 		orr	r0, r3, #4
 566 0024 8873     		strb	r0, [r1, #14]
 567              		.loc 3 225 0
 568 0026 44B1     		cbz	r4, .L63
 569              		.loc 3 225 0 is_stmt 0 discriminator 1
 570 0028 0949     		ldr	r1, .L69+8
 571 002a 0C68     		ldr	r4, [r1, #0]
 572 002c 2CB1     		cbz	r4, .L63
 226:.\asp\kernel/task_except.c **** 			call_texrtn();
 573              		.loc 3 226 0 is_stmt 1
 574 002e FFF7FEFF 		bl	_kernel_call_texrtn
 575              	.LVL51:
ARM GAS  C:\TEMP\ccRTQQ1Q.s 			page 22


 227:.\asp\kernel/task_except.c **** 		}
 228:.\asp\kernel/task_except.c **** 		ercd = E_OK;
 576              		.loc 3 228 0
 577 0032 2C46     		mov	r4, r5
 578 0034 01E0     		b	.L63
 579              	.L66:
 221:.\asp\kernel/task_except.c **** 		ercd = E_OBJ;
 580              		.loc 3 221 0
 581 0036 6FF02804 		mvn	r4, #40
 582              	.L63:
 583              	.LVL52:
 229:.\asp\kernel/task_except.c **** 	}
 230:.\asp\kernel/task_except.c **** 	t_unlock_cpu();
 584              		.loc 3 230 0
 585 003a FFF7FEFF 		bl	x_unlock_cpu
 586              	.LVL53:
 587 003e 01E0     		b	.L62
 588              	.LVL54:
 589              	.L65:
 217:.\asp\kernel/task_except.c **** 	CHECK_TSKCTX_UNL();
 590              		.loc 3 217 0
 591 0040 6FF01804 		mvn	r4, #24
 592              	.L62:
 593              	.LVL55:
 231:.\asp\kernel/task_except.c **** 
 232:.\asp\kernel/task_except.c ****   error_exit:
 233:.\asp\kernel/task_except.c **** 	LOG_ENA_TEX_LEAVE(ercd);
 234:.\asp\kernel/task_except.c **** 	return(ercd);
 235:.\asp\kernel/task_except.c **** }
 594              		.loc 3 235 0
 595 0044 2046     		mov	r0, r4
 596 0046 38BD     		pop	{r3, r4, r5, pc}
 597              	.L70:
 598              		.align	2
 599              	.L69:
 600 0048 00000000 		.word	_kernel_lock_flag
 601 004c 00000000 		.word	_kernel_p_runtsk
 602 0050 00000000 		.word	_kernel_ipmflg
 603              		.cfi_endproc
 604              	.LFE56:
 605              		.size	ena_tex, .-ena_tex
 606              		.section	.text.sns_tex,"ax",%progbits
 607              		.align	1
 608              		.global	sns_tex
 609              		.thumb
 610              		.thumb_func
 611              		.type	sns_tex, %function
 612              	sns_tex:
 613              	.LFB57:
 236:.\asp\kernel/task_except.c **** 
 237:.\asp\kernel/task_except.c **** #endif /* TOPPERS_ena_tex */
 238:.\asp\kernel/task_except.c **** 
 239:.\asp\kernel/task_except.c **** /*
 240:.\asp\kernel/task_except.c ****  *  ƒ^ƒXƒN—áŠOˆ—‹Ö~ó‘Ô‚ÌQÆ
 241:.\asp\kernel/task_except.c ****  */
 242:.\asp\kernel/task_except.c **** #ifdef TOPPERS_sns_tex
 243:.\asp\kernel/task_except.c **** 
ARM GAS  C:\TEMP\ccRTQQ1Q.s 			page 23


 244:.\asp\kernel/task_except.c **** bool_t
 245:.\asp\kernel/task_except.c **** sns_tex(void)
 246:.\asp\kernel/task_except.c **** {
 614              		.loc 3 246 0
 615              		.cfi_startproc
 616              		@ args = 0, pretend = 0, frame = 0
 617              		@ frame_needed = 0, uses_anonymous_args = 0
 618              		@ link register save eliminated.
 247:.\asp\kernel/task_except.c **** 	bool_t	state;
 248:.\asp\kernel/task_except.c **** 
 249:.\asp\kernel/task_except.c **** 	LOG_SNS_TEX_ENTER();
 250:.\asp\kernel/task_except.c **** 	state = (p_runtsk != NULL && p_runtsk->enatex) ? false : true;
 619              		.loc 3 250 0
 620 0000 054B     		ldr	r3, .L74
 621 0002 1868     		ldr	r0, [r3, #0]
 622 0004 28B1     		cbz	r0, .L73
 623              		.loc 3 250 0 is_stmt 0 discriminator 2
 624 0006 817B     		ldrb	r1, [r0, #14]	@ zero_extendqisi2
 625 0008 81F00402 		eor	r2, r1, #4
 626 000c C2F38000 		ubfx	r0, r2, #2, #1
 627 0010 7047     		bx	lr
 628              	.L73:
 629              		.loc 3 250 0
 630 0012 0120     		movs	r0, #1
 631              	.LVL56:
 251:.\asp\kernel/task_except.c **** 	LOG_SNS_TEX_LEAVE(state);
 252:.\asp\kernel/task_except.c **** 	return(state);
 253:.\asp\kernel/task_except.c **** }
 632              		.loc 3 253 0 is_stmt 1
 633 0014 7047     		bx	lr
 634              	.L75:
 635 0016 00BF     		.align	2
 636              	.L74:
 637 0018 00000000 		.word	_kernel_p_runtsk
 638              		.cfi_endproc
 639              	.LFE57:
 640              		.size	sns_tex, .-sns_tex
 641              		.section	.text.ref_tex,"ax",%progbits
 642              		.align	1
 643              		.global	ref_tex
 644              		.thumb
 645              		.thumb_func
 646              		.type	ref_tex, %function
 647              	ref_tex:
 648              	.LFB58:
 254:.\asp\kernel/task_except.c **** 
 255:.\asp\kernel/task_except.c **** #endif /* TOPPERS_sns_tex */
 256:.\asp\kernel/task_except.c **** 
 257:.\asp\kernel/task_except.c **** /*
 258:.\asp\kernel/task_except.c ****  *  ƒ^ƒXƒN—áŠOˆ—‚Ìó‘ÔQÆ
 259:.\asp\kernel/task_except.c ****  */
 260:.\asp\kernel/task_except.c **** #ifdef TOPPERS_ref_tex
 261:.\asp\kernel/task_except.c **** 
 262:.\asp\kernel/task_except.c **** ER
 263:.\asp\kernel/task_except.c **** ref_tex(ID tskid, T_RTEX *pk_rtex)
 264:.\asp\kernel/task_except.c **** {
 649              		.loc 3 264 0
ARM GAS  C:\TEMP\ccRTQQ1Q.s 			page 24


 650              		.cfi_startproc
 651              		@ args = 0, pretend = 0, frame = 0
 652              		@ frame_needed = 0, uses_anonymous_args = 0
 653              	.LVL57:
 654 0000 38B5     		push	{r3, r4, r5, lr}
 655              	.LCFI4:
 656              		.cfi_def_cfa_offset 16
 657              		.cfi_offset 3, -16
 658              		.cfi_offset 4, -12
 659              		.cfi_offset 5, -8
 660              		.cfi_offset 14, -4
 661              		.loc 3 264 0
 662 0002 0446     		mov	r4, r0
 663 0004 0D46     		mov	r5, r1
 265:.\asp\kernel/task_except.c **** 	TCB		*p_tcb;
 266:.\asp\kernel/task_except.c **** 	ER		ercd;
 267:.\asp\kernel/task_except.c **** 
 268:.\asp\kernel/task_except.c **** 	LOG_REF_TEX_ENTER(tskid, pk_rtex);
 269:.\asp\kernel/task_except.c **** 	CHECK_TSKCTX_UNL();
 664              		.loc 3 269 0
 665 0006 FFF7FEFF 		bl	sense_context
 666              	.LVL58:
 667 000a 48BB     		cbnz	r0, .L84
 668              	.LBB36:
 669              	.LBB37:
 670              		.loc 1 247 0
 671 000c 184B     		ldr	r3, .L91
 672 000e 1868     		ldr	r0, [r3, #0]
 673              	.LBE37:
 674              	.LBE36:
 675              		.loc 3 269 0
 676 0010 30BB     		cbnz	r0, .L84
 270:.\asp\kernel/task_except.c **** 	CHECK_TSKID_SELF(tskid);
 677              		.loc 3 270 0
 678 0012 002C     		cmp	r4, #0
 679 0014 08DD     		ble	.L78
 680              		.loc 3 270 0 is_stmt 0 discriminator 2
 681 0016 1749     		ldr	r1, .L91+4
 682 0018 0A68     		ldr	r2, [r1, #0]
 683 001a 9442     		cmp	r4, r2
 684 001c 23DC     		bgt	.L86
 271:.\asp\kernel/task_except.c **** 	p_tcb = get_tcb_self(tskid);
 685              		.loc 3 271 0 is_stmt 1 discriminator 2
 686 001e 164B     		ldr	r3, .L91+8
 687 0020 013C     		subs	r4, r4, #1
 688              	.LVL59:
 689 0022 03EB4414 		add	r4, r3, r4, lsl #5
 690              	.LVL60:
 691 0026 02E0     		b	.L80
 692              	.LVL61:
 693              	.L78:
 270:.\asp\kernel/task_except.c **** 	CHECK_TSKID_SELF(tskid);
 694              		.loc 3 270 0 discriminator 1
 695 0028 1DD1     		bne	.L86
 696              		.loc 3 271 0 discriminator 1
 697 002a 1448     		ldr	r0, .L91+12
 698 002c 0468     		ldr	r4, [r0, #0]
ARM GAS  C:\TEMP\ccRTQQ1Q.s 			page 25


 699              	.LVL62:
 700              	.L80:
 272:.\asp\kernel/task_except.c **** 
 273:.\asp\kernel/task_except.c **** 	t_lock_cpu();
 701              		.loc 3 273 0 discriminator 3
 702 002e FFF7FEFF 		bl	x_lock_cpu
 703              	.LVL63:
 274:.\asp\kernel/task_except.c **** 	if (TSTAT_DORMANT(p_tcb->tstat) || p_tcb->p_tinib->texrtn == NULL) {
 704              		.loc 3 274 0 discriminator 3
 705 0032 217B     		ldrb	r1, [r4, #12]	@ zero_extendqisi2
 706 0034 79B1     		cbz	r1, .L88
 707              		.loc 3 274 0 is_stmt 0 discriminator 1
 708 0036 A268     		ldr	r2, [r4, #8]
 709 0038 D369     		ldr	r3, [r2, #28]
 710 003a 63B1     		cbz	r3, .L88
 275:.\asp\kernel/task_except.c **** 		ercd = E_OBJ;
 276:.\asp\kernel/task_except.c **** 	}
 277:.\asp\kernel/task_except.c **** 	else {
 278:.\asp\kernel/task_except.c **** 		pk_rtex->texstat = (p_tcb->enatex) ? TTEX_ENA : TTEX_DIS;
 711              		.loc 3 278 0 is_stmt 1
 712 003c A07B     		ldrb	r0, [r4, #14]	@ zero_extendqisi2
 279:.\asp\kernel/task_except.c **** 		pk_rtex->pndptn = p_tcb->texptn;
 713              		.loc 3 279 0
 714 003e 2469     		ldr	r4, [r4, #16]
 715              	.LVL64:
 278:.\asp\kernel/task_except.c **** 		pk_rtex->texstat = (p_tcb->enatex) ? TTEX_ENA : TTEX_DIS;
 716              		.loc 3 278 0
 717 0040 00F00401 		and	r1, r0, #4
 718 0044 CAB2     		uxtb	r2, r1
 719 0046 002A     		cmp	r2, #0
 720 0048 0CBF     		ite	eq
 721 004a 0223     		moveq	r3, #2
 722 004c 0123     		movne	r3, #1
 723              		.loc 3 279 0
 724 004e 6C60     		str	r4, [r5, #4]
 725              	.LVL65:
 278:.\asp\kernel/task_except.c **** 		pk_rtex->texstat = (p_tcb->enatex) ? TTEX_ENA : TTEX_DIS;
 726              		.loc 3 278 0
 727 0050 2B60     		str	r3, [r5, #0]
 280:.\asp\kernel/task_except.c **** 		ercd = E_OK;
 728              		.loc 3 280 0
 729 0052 0024     		movs	r4, #0
 730 0054 01E0     		b	.L81
 731              	.LVL66:
 732              	.L88:
 275:.\asp\kernel/task_except.c **** 		ercd = E_OBJ;
 733              		.loc 3 275 0
 734 0056 6FF02804 		mvn	r4, #40
 735              	.LVL67:
 736              	.L81:
 281:.\asp\kernel/task_except.c **** 	}
 282:.\asp\kernel/task_except.c **** 	t_unlock_cpu();
 737              		.loc 3 282 0
 738 005a FFF7FEFF 		bl	x_unlock_cpu
 739              	.LVL68:
 740 005e 04E0     		b	.L77
 741              	.LVL69:
ARM GAS  C:\TEMP\ccRTQQ1Q.s 			page 26


 742              	.L84:
 269:.\asp\kernel/task_except.c **** 	CHECK_TSKCTX_UNL();
 743              		.loc 3 269 0
 744 0060 6FF01804 		mvn	r4, #24
 745              	.LVL70:
 746 0064 01E0     		b	.L77
 747              	.LVL71:
 748              	.L86:
 270:.\asp\kernel/task_except.c **** 	CHECK_TSKID_SELF(tskid);
 749              		.loc 3 270 0
 750 0066 6FF01104 		mvn	r4, #17
 751              	.LVL72:
 752              	.L77:
 283:.\asp\kernel/task_except.c **** 
 284:.\asp\kernel/task_except.c ****   error_exit:
 285:.\asp\kernel/task_except.c **** 	LOG_REF_TEX_LEAVE(ercd, pk_rtex);
 286:.\asp\kernel/task_except.c **** 	return(ercd);
 287:.\asp\kernel/task_except.c **** }
 753              		.loc 3 287 0
 754 006a 2046     		mov	r0, r4
 755 006c 38BD     		pop	{r3, r4, r5, pc}
 756              	.L92:
 757 006e 00BF     		.align	2
 758              	.L91:
 759 0070 00000000 		.word	_kernel_lock_flag
 760 0074 00000000 		.word	_kernel_tmax_tskid
 761 0078 00000000 		.word	_kernel_tcb_table
 762 007c 00000000 		.word	_kernel_p_runtsk
 763              		.cfi_endproc
 764              	.LFE58:
 765              		.size	ref_tex, .-ref_tex
 766              		.text
 767              	.Letext0:
 768              		.file 4 ".\\asp\\arch\\gcc/tool_stddef.h"
 769              		.file 5 ".\\asp\\include/t_stddef.h"
 770              		.file 6 ".\\asp\\include/kernel.h"
 771              		.file 7 ".\\asp\\include/queue.h"
 772              		.file 8 ".\\asp\\kernel\\time_event.h"
 773              		.file 9 ".\\asp\\kernel\\task.h"